; Listing generated by Microsoft (R) Optimizing Compiler Version 13.10.3077 

	TITLE	.\AstrographDoc.cpp
	.386P
include listing.inc
if @Version gt 510
.model FLAT
else
_TEXT	SEGMENT PARA USE32 PUBLIC 'CODE'
_TEXT	ENDS
_DATA	SEGMENT DWORD USE32 PUBLIC 'DATA'
_DATA	ENDS
CONST	SEGMENT DWORD USE32 PUBLIC 'CONST'
CONST	ENDS
_BSS	SEGMENT DWORD USE32 PUBLIC 'BSS'
_BSS	ENDS
$$SYMBOLS	SEGMENT BYTE USE32 'DEBSYM'
$$SYMBOLS	ENDS
$$TYPES	SEGMENT BYTE USE32 'DEBTYP'
$$TYPES	ENDS
_TLS	SEGMENT DWORD USE32 PUBLIC 'TLS'
_TLS	ENDS
;	COMDAT ??_C@_0P@MJDHJCBK@CAstrographDoc?$AA@
CONST	SEGMENT DWORD USE32 PUBLIC 'CONST'
CONST	ENDS
;	COMDAT ??_C@_00CNPNBAHC@?$AA@
CONST	SEGMENT DWORD USE32 PUBLIC 'CONST'
CONST	ENDS
;	COMDAT ??_C@_06MGDPOKIM@?4ASGRA?$AA@
CONST	SEGMENT DWORD USE32 PUBLIC 'CONST'
CONST	ENDS
;	COMDAT ??1CNewMultiDocTemplate@@UAE@XZ
_TEXT	SEGMENT PARA USE32 PUBLIC 'CODE'
_TEXT	ENDS
;	COMDAT ??_GCNewMultiDocTemplate@@UAEPAXI@Z
_TEXT	SEGMENT PARA USE32 PUBLIC 'CODE'
_TEXT	ENDS
;	COMDAT ?HasMoreFiles@CAstrographDoc@@QAEHXZ
_TEXT	SEGMENT PARA USE32 PUBLIC 'CODE'
_TEXT	ENDS
;	COMDAT _acosl
_TEXT	SEGMENT PARA USE32 PUBLIC 'CODE'
_TEXT	ENDS
;	COMDAT _asinl
_TEXT	SEGMENT PARA USE32 PUBLIC 'CODE'
_TEXT	ENDS
;	COMDAT _atanl
_TEXT	SEGMENT PARA USE32 PUBLIC 'CODE'
_TEXT	ENDS
;	COMDAT _atan2l
_TEXT	SEGMENT PARA USE32 PUBLIC 'CODE'
_TEXT	ENDS
;	COMDAT _ceill
_TEXT	SEGMENT PARA USE32 PUBLIC 'CODE'
_TEXT	ENDS
;	COMDAT _cosl
_TEXT	SEGMENT PARA USE32 PUBLIC 'CODE'
_TEXT	ENDS
;	COMDAT _coshl
_TEXT	SEGMENT PARA USE32 PUBLIC 'CODE'
_TEXT	ENDS
;	COMDAT _expl
_TEXT	SEGMENT PARA USE32 PUBLIC 'CODE'
_TEXT	ENDS
;	COMDAT _fabsl
_TEXT	SEGMENT PARA USE32 PUBLIC 'CODE'
_TEXT	ENDS
;	COMDAT _floorl
_TEXT	SEGMENT PARA USE32 PUBLIC 'CODE'
_TEXT	ENDS
;	COMDAT _fmodl
_TEXT	SEGMENT PARA USE32 PUBLIC 'CODE'
_TEXT	ENDS
;	COMDAT _frexpl
_TEXT	SEGMENT PARA USE32 PUBLIC 'CODE'
_TEXT	ENDS
;	COMDAT _ldexpl
_TEXT	SEGMENT PARA USE32 PUBLIC 'CODE'
_TEXT	ENDS
;	COMDAT _logl
_TEXT	SEGMENT PARA USE32 PUBLIC 'CODE'
_TEXT	ENDS
;	COMDAT _log10l
_TEXT	SEGMENT PARA USE32 PUBLIC 'CODE'
_TEXT	ENDS
;	COMDAT _modfl
_TEXT	SEGMENT PARA USE32 PUBLIC 'CODE'
_TEXT	ENDS
;	COMDAT _powl
_TEXT	SEGMENT PARA USE32 PUBLIC 'CODE'
_TEXT	ENDS
;	COMDAT _sinl
_TEXT	SEGMENT PARA USE32 PUBLIC 'CODE'
_TEXT	ENDS
;	COMDAT _sinhl
_TEXT	SEGMENT PARA USE32 PUBLIC 'CODE'
_TEXT	ENDS
;	COMDAT _sqrtl
_TEXT	SEGMENT PARA USE32 PUBLIC 'CODE'
_TEXT	ENDS
;	COMDAT _tanl
_TEXT	SEGMENT PARA USE32 PUBLIC 'CODE'
_TEXT	ENDS
;	COMDAT _tanhl
_TEXT	SEGMENT PARA USE32 PUBLIC 'CODE'
_TEXT	ENDS
;	COMDAT _frexpf
_TEXT	SEGMENT PARA USE32 PUBLIC 'CODE'
_TEXT	ENDS
;	COMDAT _ldexpf
_TEXT	SEGMENT PARA USE32 PUBLIC 'CODE'
_TEXT	ENDS
;	COMDAT _acosf
_TEXT	SEGMENT PARA USE32 PUBLIC 'CODE'
_TEXT	ENDS
;	COMDAT _asinf
_TEXT	SEGMENT PARA USE32 PUBLIC 'CODE'
_TEXT	ENDS
;	COMDAT _atanf
_TEXT	SEGMENT PARA USE32 PUBLIC 'CODE'
_TEXT	ENDS
;	COMDAT _atan2f
_TEXT	SEGMENT PARA USE32 PUBLIC 'CODE'
_TEXT	ENDS
;	COMDAT _ceilf
_TEXT	SEGMENT PARA USE32 PUBLIC 'CODE'
_TEXT	ENDS
;	COMDAT _cosf
_TEXT	SEGMENT PARA USE32 PUBLIC 'CODE'
_TEXT	ENDS
;	COMDAT _coshf
_TEXT	SEGMENT PARA USE32 PUBLIC 'CODE'
_TEXT	ENDS
;	COMDAT _expf
_TEXT	SEGMENT PARA USE32 PUBLIC 'CODE'
_TEXT	ENDS
;	COMDAT _fabsf
_TEXT	SEGMENT PARA USE32 PUBLIC 'CODE'
_TEXT	ENDS
;	COMDAT _floorf
_TEXT	SEGMENT PARA USE32 PUBLIC 'CODE'
_TEXT	ENDS
;	COMDAT _fmodf
_TEXT	SEGMENT PARA USE32 PUBLIC 'CODE'
_TEXT	ENDS
;	COMDAT _logf
_TEXT	SEGMENT PARA USE32 PUBLIC 'CODE'
_TEXT	ENDS
;	COMDAT _log10f
_TEXT	SEGMENT PARA USE32 PUBLIC 'CODE'
_TEXT	ENDS
;	COMDAT _modff
_TEXT	SEGMENT PARA USE32 PUBLIC 'CODE'
_TEXT	ENDS
;	COMDAT _powf
_TEXT	SEGMENT PARA USE32 PUBLIC 'CODE'
_TEXT	ENDS
;	COMDAT _sinf
_TEXT	SEGMENT PARA USE32 PUBLIC 'CODE'
_TEXT	ENDS
;	COMDAT _sinhf
_TEXT	SEGMENT PARA USE32 PUBLIC 'CODE'
_TEXT	ENDS
;	COMDAT _sqrtf
_TEXT	SEGMENT PARA USE32 PUBLIC 'CODE'
_TEXT	ENDS
;	COMDAT _tanf
_TEXT	SEGMENT PARA USE32 PUBLIC 'CODE'
_TEXT	ENDS
;	COMDAT _tanhf
_TEXT	SEGMENT PARA USE32 PUBLIC 'CODE'
_TEXT	ENDS
;	COMDAT ??1AstDrawBase@@QAE@XZ
_TEXT	SEGMENT PARA USE32 PUBLIC 'CODE'
_TEXT	ENDS
;	COMDAT ??0Grfa@@QAE@XZ
_TEXT	SEGMENT PARA USE32 PUBLIC 'CODE'
_TEXT	ENDS
;	COMDAT ??1Grfa@@QAE@XZ
_TEXT	SEGMENT PARA USE32 PUBLIC 'CODE'
_TEXT	ENDS
;	COMDAT ?get@Grfa@@QAEPADXZ
_TEXT	SEGMENT PARA USE32 PUBLIC 'CODE'
_TEXT	ENDS
;	COMDAT ?getAdj@Grfa@@QAEAAHXZ
_TEXT	SEGMENT PARA USE32 PUBLIC 'CODE'
_TEXT	ENDS
;	COMDAT ?getRad@Grfa@@QAEAAHXZ
_TEXT	SEGMENT PARA USE32 PUBLIC 'CODE'
_TEXT	ENDS
;	COMDAT ?setRad@Grfa@@QAEXH@Z
_TEXT	SEGMENT PARA USE32 PUBLIC 'CODE'
_TEXT	ENDS
;	COMDAT ??0PlanGrfa@@QAE@XZ
_TEXT	SEGMENT PARA USE32 PUBLIC 'CODE'
_TEXT	ENDS
;	COMDAT ??1PlanGrfa@@QAE@XZ
_TEXT	SEGMENT PARA USE32 PUBLIC 'CODE'
_TEXT	ENDS
;	COMDAT ?getAdj@PlanGrfa@@QAEAAHH@Z
_TEXT	SEGMENT PARA USE32 PUBLIC 'CODE'
_TEXT	ENDS
;	COMDAT ?getRad@PlanGrfa@@QAEAAHH@Z
_TEXT	SEGMENT PARA USE32 PUBLIC 'CODE'
_TEXT	ENDS
;	COMDAT ??0HouseGrfa@@QAE@XZ
_TEXT	SEGMENT PARA USE32 PUBLIC 'CODE'
_TEXT	ENDS
;	COMDAT ??1HouseGrfa@@QAE@XZ
_TEXT	SEGMENT PARA USE32 PUBLIC 'CODE'
_TEXT	ENDS
;	COMDAT ??0PolarCoord@@QAE@XZ
_TEXT	SEGMENT PARA USE32 PUBLIC 'CODE'
_TEXT	ENDS
;	COMDAT ??1PolarCoord@@QAE@XZ
_TEXT	SEGMENT PARA USE32 PUBLIC 'CODE'
_TEXT	ENDS
;	COMDAT ?setRad@PolarCoord@@QAEXH@Z
_TEXT	SEGMENT PARA USE32 PUBLIC 'CODE'
_TEXT	ENDS
;	COMDAT ??0PlotAroundCircle@@QAE@PAVCDC@@@Z
_TEXT	SEGMENT PARA USE32 PUBLIC 'CODE'
_TEXT	ENDS
;	COMDAT ??0PlotAroundCircle@@QAE@PAVCDC@@H@Z
_TEXT	SEGMENT PARA USE32 PUBLIC 'CODE'
_TEXT	ENDS
;	COMDAT ??1PlotAroundCircle@@QAE@XZ
_TEXT	SEGMENT PARA USE32 PUBLIC 'CODE'
_TEXT	ENDS
;	COMDAT ?setAscMin@PlotAroundCircle@@QAEXH@Z
_TEXT	SEGMENT PARA USE32 PUBLIC 'CODE'
_TEXT	ENDS
;	COMDAT ??0PlanetListElement@@QAE@XZ
_TEXT	SEGMENT PARA USE32 PUBLIC 'CODE'
_TEXT	ENDS
;	COMDAT ??1PlanetListElement@@QAE@XZ
_TEXT	SEGMENT PARA USE32 PUBLIC 'CODE'
_TEXT	ENDS
;	COMDAT ??0PlanetList@@QAE@HHPAFH@Z
_TEXT	SEGMENT PARA USE32 PUBLIC 'CODE'
_TEXT	ENDS
;	COMDAT ??1PlanetList@@QAE@XZ
_TEXT	SEGMENT PARA USE32 PUBLIC 'CODE'
_TEXT	ENDS
;	COMDAT ??0PlanetListClassical@@QAE@HH@Z
_TEXT	SEGMENT PARA USE32 PUBLIC 'CODE'
_TEXT	ENDS
;	COMDAT ??_GPlanetList@@QAEPAXI@Z
_TEXT	SEGMENT PARA USE32 PUBLIC 'CODE'
_TEXT	ENDS
;	COMDAT ??_GPlotAroundCircle@@QAEPAXI@Z
_TEXT	SEGMENT PARA USE32 PUBLIC 'CODE'
_TEXT	ENDS
;	COMDAT ??1SignTickCircle@@QAE@XZ
_TEXT	SEGMENT PARA USE32 PUBLIC 'CODE'
_TEXT	ENDS
;	COMDAT ?DoExport@CAstrographView@@QAEXXZ
_TEXT	SEGMENT PARA USE32 PUBLIC 'CODE'
_TEXT	ENDS
;	COMDAT ?CreateObject@CAstrographDoc@@SGPAVCObject@@XZ
_TEXT	SEGMENT PARA USE32 PUBLIC 'CODE'
_TEXT	ENDS
;	COMDAT ?GetThisClass@CAstrographDoc@@SGPAUCRuntimeClass@@XZ
_TEXT	SEGMENT PARA USE32 PUBLIC 'CODE'
_TEXT	ENDS
;	COMDAT ?GetRuntimeClass@CAstrographDoc@@UBEPAUCRuntimeClass@@XZ
_TEXT	SEGMENT PARA USE32 PUBLIC 'CODE'
_TEXT	ENDS
;	COMDAT ?GetThisMessageMap@CAstrographDoc@@KGPBUAFX_MSGMAP@@XZ
_TEXT	SEGMENT PARA USE32 PUBLIC 'CODE'
_TEXT	ENDS
;	COMDAT ?GetMessageMap@CAstrographDoc@@MBEPBUAFX_MSGMAP@@XZ
_TEXT	SEGMENT PARA USE32 PUBLIC 'CODE'
_TEXT	ENDS
;	COMDAT ??0CAstrographDoc@@IAE@XZ
_TEXT	SEGMENT PARA USE32 PUBLIC 'CODE'
_TEXT	ENDS
;	COMDAT ??_GCAstrographDoc@@UAEPAXI@Z
_TEXT	SEGMENT PARA USE32 PUBLIC 'CODE'
_TEXT	ENDS
;	COMDAT ??1CAstrographDoc@@UAE@XZ
_TEXT	SEGMENT PARA USE32 PUBLIC 'CODE'
_TEXT	ENDS
;	COMDAT ??_GGraphData@@QAEPAXI@Z
_TEXT	SEGMENT PARA USE32 PUBLIC 'CODE'
_TEXT	ENDS
;	COMDAT ?OnNewDocument@CAstrographDoc@@UAEHXZ
_TEXT	SEGMENT PARA USE32 PUBLIC 'CODE'
_TEXT	ENDS
;	COMDAT ?Serialize@CAstrographDoc@@UAEXAAVCArchive@@@Z
_TEXT	SEGMENT PARA USE32 PUBLIC 'CODE'
_TEXT	ENDS
;	COMDAT ?AssertValid@CAstrographDoc@@UBEXXZ
_TEXT	SEGMENT PARA USE32 PUBLIC 'CODE'
_TEXT	ENDS
;	COMDAT ?Dump@CAstrographDoc@@UBEXAAVCDumpContext@@@Z
_TEXT	SEGMENT PARA USE32 PUBLIC 'CODE'
_TEXT	ENDS
;	COMDAT ?OnOpenDocument@CAstrographDoc@@UAEHPBD@Z
_TEXT	SEGMENT PARA USE32 PUBLIC 'CODE'
_TEXT	ENDS
;	COMDAT ?SetPathName@CAstrographDoc@@UAEXPBDH@Z
_TEXT	SEGMENT PARA USE32 PUBLIC 'CODE'
_TEXT	ENDS
;	COMDAT ?SetFileDB@CAstrographDoc@@QAEXPAUXPFILE_DB@@@Z
_TEXT	SEGMENT PARA USE32 PUBLIC 'CODE'
_TEXT	ENDS
;	COMDAT ?CanCloseFrame@CAstrographDoc@@UAEHPAVCFrameWnd@@@Z
_TEXT	SEGMENT PARA USE32 PUBLIC 'CODE'
_TEXT	ENDS
;	COMDAT ?DoNextFile@CAstrographDoc@@QAEXXZ
_TEXT	SEGMENT PARA USE32 PUBLIC 'CODE'
_TEXT	ENDS
;	COMDAT ?DoPrint@CAstrographDoc@@QAEXXZ
_TEXT	SEGMENT PARA USE32 PUBLIC 'CODE'
_TEXT	ENDS
;	COMDAT ?DoExport@CAstrographDoc@@QAEXXZ
_TEXT	SEGMENT PARA USE32 PUBLIC 'CODE'
_TEXT	ENDS
;	COMDAT ??$_Pow_int@N@@YANNH@Z
_TEXT	SEGMENT PARA USE32 PUBLIC 'CODE'
_TEXT	ENDS
;	COMDAT ??$_Pow_int@H@@YAHHH@Z
_TEXT	SEGMENT PARA USE32 PUBLIC 'CODE'
_TEXT	ENDS
;	COMDAT ??$_Pow_int@M@@YAMMH@Z
_TEXT	SEGMENT PARA USE32 PUBLIC 'CODE'
_TEXT	ENDS
;	COMDAT ??$_Pow_int@O@@YAOOH@Z
_TEXT	SEGMENT PARA USE32 PUBLIC 'CODE'
_TEXT	ENDS
;	COMDAT __imp_??B?$CSimpleStringT@D$00@ATL@@QBEPBDXZ
_TEXT	SEGMENT PARA USE32 PUBLIC 'CODE'
_TEXT	ENDS
;	COMDAT ?__LINE__Var@?1??DoNextFile@CAstrographDoc@@QAEXXZ@4JA
_DATA	SEGMENT DWORD USE32 PUBLIC 'DATA'
_DATA	ENDS
;	COMDAT ?__LINE__Var@?1??SetFileDB@CAstrographDoc@@QAEXPAUXPFILE_DB@@@Z@4JA
_DATA	SEGMENT DWORD USE32 PUBLIC 'DATA'
_DATA	ENDS
;	COMDAT ?__LINE__Var@?1??OnOpenDocument@CAstrographDoc@@UAEHPBD@Z@4JA
_DATA	SEGMENT DWORD USE32 PUBLIC 'DATA'
_DATA	ENDS
;	COMDAT __imp_??4?$CStringT@DV?$StrTraitMFC_DLL@DV?$ChTraitsCRT@D@ATL@@@@@ATL@@QAEAAV01@PBD@Z
_TEXT	SEGMENT PARA USE32 PUBLIC 'CODE'
_TEXT	ENDS
;	COMDAT __imp_??4?$CSimpleStringT@D$00@ATL@@QAEAAV01@PBD@Z
_TEXT	SEGMENT PARA USE32 PUBLIC 'CODE'
_TEXT	ENDS
;	COMDAT __imp_?SetString@?$CSimpleStringT@D$00@ATL@@QAEXPBD@Z
_TEXT	SEGMENT PARA USE32 PUBLIC 'CODE'
_TEXT	ENDS
;	COMDAT __imp_?SetString@?$CSimpleStringT@D$00@ATL@@QAEXPBDH@Z
_TEXT	SEGMENT PARA USE32 PUBLIC 'CODE'
_TEXT	ENDS
;	COMDAT __imp_?Empty@?$CSimpleStringT@D$00@ATL@@QAEXXZ
_TEXT	SEGMENT PARA USE32 PUBLIC 'CODE'
_TEXT	ENDS
;	COMDAT __imp_?GetData@?$CSimpleStringT@D$00@ATL@@ABEPAUCStringData@2@XZ
_TEXT	SEGMENT PARA USE32 PUBLIC 'CODE'
_TEXT	ENDS
;	COMDAT ?IsLocked@CStringData@ATL@@QBE_NXZ
_TEXT	SEGMENT PARA USE32 PUBLIC 'CODE'
_TEXT	ENDS
;	COMDAT __imp_?SetLength@?$CSimpleStringT@D$00@ATL@@AAEXH@Z
_TEXT	SEGMENT PARA USE32 PUBLIC 'CODE'
_TEXT	ENDS
;	COMDAT ??_C@_0N@ILOMLJGA@nLength?5?$DO?$DN?50?$AA@
CONST	SEGMENT DWORD USE32 PUBLIC 'CONST'
CONST	ENDS
;	COMDAT ??_C@_0CD@EEFFJEGJ@nLength?5?$DM?$DN?5GetData?$CI?$CJ?9?$DOnAllocLeng@
CONST	SEGMENT DWORD USE32 PUBLIC 'CONST'
CONST	ENDS
;	COMDAT ??_C@_0FD@JDCNPMMG@c?3?2program?5files?2microsoft?5visua@
CONST	SEGMENT DWORD USE32 PUBLIC 'CONST'
CONST	ENDS
;	COMDAT ?Release@CStringData@ATL@@QAEXXZ
_TEXT	SEGMENT PARA USE32 PUBLIC 'CODE'
_TEXT	ENDS
;	COMDAT ??_C@_0L@OIIMFBNE@nRefs?5?$CB?$DN?50?$AA@
CONST	SEGMENT DWORD USE32 PUBLIC 'CONST'
CONST	ENDS
;	COMDAT __imp_?Attach@?$CSimpleStringT@D$00@ATL@@AAEXPAUCStringData@2@@Z
_TEXT	SEGMENT PARA USE32 PUBLIC 'CODE'
_TEXT	ENDS
;	COMDAT ?data@CStringData@ATL@@QAEPAXXZ
_TEXT	SEGMENT PARA USE32 PUBLIC 'CODE'
_TEXT	ENDS
;	COMDAT ?AtlThrow@ATL@@YGXJ@Z
_TEXT	SEGMENT PARA USE32 PUBLIC 'CODE'
_TEXT	ENDS
;	COMDAT ??RCTraceFileAndLineInfo@ATL@@QBAXKIPBDZZ
_TEXT	SEGMENT PARA USE32 PUBLIC 'CODE'
_TEXT	ENDS
;	COMDAT ?TraceV@CTrace@ATL@@QBAXPBDHKI0PAD@Z
_TEXT	SEGMENT PARA USE32 PUBLIC 'CODE'
_TEXT	ENDS
;	COMDAT ??0CTraceFileAndLineInfo@ATL@@QAE@PBDH@Z
_TEXT	SEGMENT PARA USE32 PUBLIC 'CODE'
_TEXT	ENDS
;	COMDAT ?__LINE__Var@?1??AtlThrow@ATL@@YGXJ@Z@4JA
_DATA	SEGMENT DWORD USE32 PUBLIC 'DATA'
_DATA	ENDS
;	COMDAT ??_C@_0FC@IPKABFFL@c?3?2program?5files?2microsoft?5visua@
CONST	SEGMENT DWORD USE32 PUBLIC 'CONST'
CONST	ENDS
;	COMDAT ??_C@_0BF@IAAKIJDJ@AtlThrow?3?5hr?5?$DN?50x?$CFx?6?$AA@
CONST	SEGMENT DWORD USE32 PUBLIC 'CONST'
CONST	ENDS
;	COMDAT ??BCTraceCategory@ATL@@QBEKXZ
_TEXT	SEGMENT PARA USE32 PUBLIC 'CODE'
_TEXT	ENDS
;	COMDAT __imp_?GetLength@?$CSimpleStringT@D$00@ATL@@QBEHXZ
_TEXT	SEGMENT PARA USE32 PUBLIC 'CODE'
_TEXT	ENDS
;	COMDAT __imp_?GetString@?$CSimpleStringT@D$00@ATL@@QBEPBDXZ
_TEXT	SEGMENT PARA USE32 PUBLIC 'CODE'
_TEXT	ENDS
;	COMDAT __imp_?GetBuffer@?$CSimpleStringT@D$00@ATL@@QAEPADH@Z
_TEXT	SEGMENT PARA USE32 PUBLIC 'CODE'
_TEXT	ENDS
;	COMDAT __imp_?PrepareWrite@?$CSimpleStringT@D$00@ATL@@AAEPADH@Z
_TEXT	SEGMENT PARA USE32 PUBLIC 'CODE'
_TEXT	ENDS
;	COMDAT __imp_?PrepareWrite2@?$CSimpleStringT@D$00@ATL@@AAEXH@Z
_TEXT	SEGMENT PARA USE32 PUBLIC 'CODE'
_TEXT	ENDS
;	COMDAT ?IsShared@CStringData@ATL@@QBE_NXZ
_TEXT	SEGMENT PARA USE32 PUBLIC 'CODE'
_TEXT	ENDS
;	COMDAT __imp_?Fork@?$CSimpleStringT@D$00@ATL@@AAEXH@Z
_TEXT	SEGMENT PARA USE32 PUBLIC 'CODE'
_TEXT	ENDS
;	COMDAT __imp_?ThrowMemoryException@?$CSimpleStringT@D$00@ATL@@KAXXZ
_TEXT	SEGMENT PARA USE32 PUBLIC 'CODE'
_TEXT	ENDS
;	COMDAT __imp_?Reallocate@?$CSimpleStringT@D$00@ATL@@AAEXH@Z
_TEXT	SEGMENT PARA USE32 PUBLIC 'CODE'
_TEXT	ENDS
;	COMDAT ??_C@_0CB@GFHAPKDK@pOldData?9?$DOnAllocLength?5?$DM?5nLength@
CONST	SEGMENT DWORD USE32 PUBLIC 'CONST'
CONST	ENDS
;	COMDAT __imp_?CopyCharsOverlapped@?$CSimpleStringT@D$00@ATL@@SAXPADPBDH@Z
_TEXT	SEGMENT PARA USE32 PUBLIC 'CODE'
_TEXT	ENDS
;	COMDAT __imp_?CopyChars@?$CSimpleStringT@D$00@ATL@@SAXPADPBDH@Z
_TEXT	SEGMENT PARA USE32 PUBLIC 'CODE'
_TEXT	ENDS
;	COMDAT __imp_?ReleaseBufferSetLength@?$CSimpleStringT@D$00@ATL@@QAEXH@Z
_TEXT	SEGMENT PARA USE32 PUBLIC 'CODE'
_TEXT	ENDS
;	COMDAT ??_C@_0BA@GNIEOBOF@nNewLength?5?$DO?$DN?50?$AA@
CONST	SEGMENT DWORD USE32 PUBLIC 'CONST'
CONST	ENDS
;	COMDAT __imp_?StringLength@?$CSimpleStringT@D$00@ATL@@SAHPBD@Z
_TEXT	SEGMENT PARA USE32 PUBLIC 'CODE'
_TEXT	ENDS
;	COMDAT ?__LINE__Var@?1??OnNewDocument@CAstrographDoc@@UAEHXZ@4JA
_DATA	SEGMENT DWORD USE32 PUBLIC 'DATA'
_DATA	ENDS
;	COMDAT ?__LINE__Var@?1???0CAstrographDoc@@IAE@XZ@4JA
_DATA	SEGMENT DWORD USE32 PUBLIC 'DATA'
_DATA	ENDS
;	COMDAT ??_7CAstrographDoc@@6B@
CONST	SEGMENT DWORD USE32 PUBLIC 'CONST'
CONST	ENDS
;	COMDAT ?_messageEntries@CAstrographDoc@@0QBUAFX_MSGMAP_ENTRY@@B
CONST	SEGMENT DWORD USE32 PUBLIC 'CONST'
CONST	ENDS
;	COMDAT ?messageMap@CAstrographDoc@@1UAFX_MSGMAP@@B
CONST	SEGMENT DWORD USE32 PUBLIC 'CONST'
CONST	ENDS
;	COMDAT ?classCAstrographDoc@CAstrographDoc@@2UCRuntimeClass@@B
CONST	SEGMENT DWORD USE32 PUBLIC 'CONST'
CONST	ENDS
;	COMDAT __imp_??1?$CStringT@DV?$StrTraitMFC_DLL@DV?$ChTraitsCRT@D@ATL@@@@@ATL@@QAE@XZ
_TEXT	SEGMENT PARA USE32 PUBLIC 'CODE'
_TEXT	ENDS
;	COMDAT __imp_??1?$CSimpleStringT@D$00@ATL@@QAE@XZ
_TEXT	SEGMENT PARA USE32 PUBLIC 'CODE'
_TEXT	ENDS
;	COMDAT __imp_??0?$CStringT@DV?$StrTraitMFC_DLL@DV?$ChTraitsCRT@D@ATL@@@@@ATL@@QAE@XZ
_TEXT	SEGMENT PARA USE32 PUBLIC 'CODE'
_TEXT	ENDS
;	COMDAT __imp_??0?$CSimpleStringT@D$00@ATL@@QAE@PAUIAtlStringMgr@1@@Z
_TEXT	SEGMENT PARA USE32 PUBLIC 'CODE'
_TEXT	ENDS
;	COMDAT ??_C@_0BA@GOIMFHNK@pStringMgr?5?$CB?$DN?50?$AA@
CONST	SEGMENT DWORD USE32 PUBLIC 'CONST'
CONST	ENDS
;	COMDAT ?GetDefaultManager@?$StrTraitMFC_DLL@DV?$ChTraitsCRT@D@ATL@@@@SAPAUIAtlStringMgr@ATL@@XZ
_TEXT	SEGMENT PARA USE32 PUBLIC 'CODE'
_TEXT	ENDS
;	COMDAT ??_7PlanetPlotterClassical@@6B@
CONST	SEGMENT DWORD USE32 PUBLIC 'CONST'
CONST	ENDS
;	COMDAT ??_7PlanetListClassical@@6B@
CONST	SEGMENT DWORD USE32 PUBLIC 'CONST'
CONST	ENDS
;	COMDAT ??_7PlanetList@@6B@
CONST	SEGMENT DWORD USE32 PUBLIC 'CONST'
CONST	ENDS
;	COMDAT ??_7CNewMultiDocTemplate@@6B@
CONST	SEGMENT DWORD USE32 PUBLIC 'CONST'
CONST	ENDS
sxdata	SEGMENT DWORD USE32 'SXDATA'
sxdata	ENDS
FLAT	GROUP _DATA, CONST, _BSS
	ASSUME	CS: FLAT, DS: FLAT, SS: FLAT
endif

INCLUDELIB MSVCRTD
INCLUDELIB OLDNAMES

PUBLIC	??_C@_0P@MJDHJCBK@CAstrographDoc?$AA@		; `string'
PUBLIC	?classCAstrographDoc@CAstrographDoc@@2UCRuntimeClass@@B ; CAstrographDoc::classCAstrographDoc
PUBLIC	?CreateObject@CAstrographDoc@@SGPAVCObject@@XZ	; CAstrographDoc::CreateObject
PUBLIC	?_messageEntries@CAstrographDoc@@0QBUAFX_MSGMAP_ENTRY@@B ; CAstrographDoc::_messageEntries
PUBLIC	?messageMap@CAstrographDoc@@1UAFX_MSGMAP@@B	; CAstrographDoc::messageMap
EXTRN	?GetThisMessageMap@CDocument@@KGPBUAFX_MSGMAP@@XZ:NEAR ; CDocument::GetThisMessageMap
EXTRN	?GetThisClass@CDocument@@SGPAUCRuntimeClass@@XZ:NEAR ; CDocument::GetThisClass
_DATA	SEGMENT
_THIS_FILE DB	'c:\astrow32dev\astrow32\astrograph\astrographdoc.cpp', 00H
_DATA	ENDS
;	COMDAT ??_C@_0P@MJDHJCBK@CAstrographDoc?$AA@
CONST	SEGMENT
??_C@_0P@MJDHJCBK@CAstrographDoc?$AA@ DB 'CAstrographDoc', 00H ; `string'
CONST	ENDS
;	COMDAT ?classCAstrographDoc@CAstrographDoc@@2UCRuntimeClass@@B
CONST	SEGMENT
?classCAstrographDoc@CAstrographDoc@@2UCRuntimeClass@@B DD FLAT:??_C@_0P@MJDHJCBK@CAstrographDoc?$AA@ ; CAstrographDoc::classCAstrographDoc
	DD	070H
	DD	0ffffH
	DD	FLAT:?CreateObject@CAstrographDoc@@SGPAVCObject@@XZ
	DD	FLAT:?GetThisClass@CDocument@@SGPAUCRuntimeClass@@XZ
	DD	00H
	DD	00H
CONST	ENDS
;	COMDAT ?_messageEntries@CAstrographDoc@@0QBUAFX_MSGMAP_ENTRY@@B
CONST	SEGMENT
?_messageEntries@CAstrographDoc@@0QBUAFX_MSGMAP_ENTRY@@B DD 00H ; CAstrographDoc::_messageEntries
	DD	00H
	DD	00H
	DD	00H
	DD	00H
	DD	00H
CONST	ENDS
;	COMDAT ?messageMap@CAstrographDoc@@1UAFX_MSGMAP@@B
CONST	SEGMENT
?messageMap@CAstrographDoc@@1UAFX_MSGMAP@@B DD FLAT:?GetThisMessageMap@CDocument@@KGPBUAFX_MSGMAP@@XZ ; CAstrographDoc::messageMap
	DD	FLAT:?_messageEntries@CAstrographDoc@@0QBUAFX_MSGMAP_ENTRY@@B
CONST	ENDS
PUBLIC	??0CAstrographDoc@@IAE@XZ			; CAstrographDoc::CAstrographDoc
EXTRN	??2CObject@@SGPAXIPBDH@Z:NEAR			; CObject::operator new
EXTRN	??3CObject@@SGXPAXPBDH@Z:NEAR			; CObject::operator delete
EXTRN	__except_list:DWORD
EXTRN	___CxxFrameHandler:NEAR
;	COMDAT xdata$x
; File c:\astrow32dev\astrow32\astrograph\astrographdoc.cpp
xdata$x	SEGMENT
__unwindtable$?CreateObject@CAstrographDoc@@SGPAVCObject@@XZ DD 0ffffffffH
	DD	FLAT:__unwindfunclet$?CreateObject@CAstrographDoc@@SGPAVCObject@@XZ$0
__ehfuncinfo$?CreateObject@CAstrographDoc@@SGPAVCObject@@XZ DD 019930520H
	DD	01H
	DD	FLAT:__unwindtable$?CreateObject@CAstrographDoc@@SGPAVCObject@@XZ
	DD	2 DUP(00H)
	DD	2 DUP(00H)
; Function compile flags: /Odt /ZI
xdata$x	ENDS
;	COMDAT ?CreateObject@CAstrographDoc@@SGPAVCObject@@XZ
_TEXT	SEGMENT
tv75 = -88						; size = 4
$T95809 = -84						; size = 4
$T95810 = -80						; size = 4
__$EHRec$ = -12						; size = 12
?CreateObject@CAstrographDoc@@SGPAVCObject@@XZ PROC NEAR ; CAstrographDoc::CreateObject, COMDAT

; 50   : IMPLEMENT_DYNCREATE(CAstrographDoc, CDocument)

	push	ebp
	mov	ebp, esp
	push	-1
	push	__ehhandler$?CreateObject@CAstrographDoc@@SGPAVCObject@@XZ
	mov	eax, DWORD PTR fs:__except_list
	push	eax
	mov	DWORD PTR fs:__except_list, esp
	sub	esp, 76					; 0000004cH
	push	ebx
	push	esi
	push	edi
	push	50					; 00000032H
	push	OFFSET FLAT:_THIS_FILE
	push	112					; 00000070H
	call	??2CObject@@SGPAXIPBDH@Z		; CObject::operator new
	mov	DWORD PTR $T95810[ebp], eax
	mov	DWORD PTR __$EHRec$[ebp+8], 0
	cmp	DWORD PTR $T95810[ebp], 0
	je	SHORT $L95811
	mov	ecx, DWORD PTR $T95810[ebp]
	call	??0CAstrographDoc@@IAE@XZ		; CAstrographDoc::CAstrographDoc
	mov	DWORD PTR tv75[ebp], eax
	jmp	SHORT $L95812
$L95811:
	mov	DWORD PTR tv75[ebp], 0
$L95812:
	mov	eax, DWORD PTR tv75[ebp]
	mov	DWORD PTR $T95809[ebp], eax
	mov	DWORD PTR __$EHRec$[ebp+8], -1
	mov	eax, DWORD PTR $T95809[ebp]
	mov	ecx, DWORD PTR __$EHRec$[ebp]
	mov	DWORD PTR fs:__except_list, ecx
	pop	edi
	pop	esi
	pop	ebx
	mov	esp, ebp
	pop	ebp
	ret	0
_TEXT	ENDS
;	COMDAT text$x
text$x	SEGMENT
__unwindfunclet$?CreateObject@CAstrographDoc@@SGPAVCObject@@XZ$0:
	push	50					; 00000032H
	push	OFFSET FLAT:_THIS_FILE
	mov	eax, DWORD PTR $T95810[ebp]
	push	eax
	call	??3CObject@@SGXPAXPBDH@Z		; CObject::operator delete
	ret	0
__ehhandler$?CreateObject@CAstrographDoc@@SGPAVCObject@@XZ:
	mov	eax, OFFSET FLAT:__ehfuncinfo$?CreateObject@CAstrographDoc@@SGPAVCObject@@XZ
	jmp	___CxxFrameHandler
text$x	ENDS
?CreateObject@CAstrographDoc@@SGPAVCObject@@XZ ENDP	; CAstrographDoc::CreateObject
PUBLIC	?GetThisClass@CAstrographDoc@@SGPAUCRuntimeClass@@XZ ; CAstrographDoc::GetThisClass
; Function compile flags: /Odt /ZI
;	COMDAT ?GetThisClass@CAstrographDoc@@SGPAUCRuntimeClass@@XZ
_TEXT	SEGMENT
?GetThisClass@CAstrographDoc@@SGPAUCRuntimeClass@@XZ PROC NEAR ; CAstrographDoc::GetThisClass, COMDAT

; 50   : IMPLEMENT_DYNCREATE(CAstrographDoc, CDocument)

	push	ebp
	mov	ebp, esp
	sub	esp, 64					; 00000040H
	push	ebx
	push	esi
	push	edi
	mov	eax, OFFSET FLAT:?classCAstrographDoc@CAstrographDoc@@2UCRuntimeClass@@B ; CAstrographDoc::classCAstrographDoc
	pop	edi
	pop	esi
	pop	ebx
	mov	esp, ebp
	pop	ebp
	ret	0
?GetThisClass@CAstrographDoc@@SGPAUCRuntimeClass@@XZ ENDP ; CAstrographDoc::GetThisClass
_TEXT	ENDS
PUBLIC	?GetRuntimeClass@CAstrographDoc@@UBEPAUCRuntimeClass@@XZ ; CAstrographDoc::GetRuntimeClass
; Function compile flags: /Odt /ZI
;	COMDAT ?GetRuntimeClass@CAstrographDoc@@UBEPAUCRuntimeClass@@XZ
_TEXT	SEGMENT
_this$ = -4						; size = 4
?GetRuntimeClass@CAstrographDoc@@UBEPAUCRuntimeClass@@XZ PROC NEAR ; CAstrographDoc::GetRuntimeClass, COMDAT
; _this$ = ecx

; 50   : IMPLEMENT_DYNCREATE(CAstrographDoc, CDocument)

	push	ebp
	mov	ebp, esp
	sub	esp, 68					; 00000044H
	push	ebx
	push	esi
	push	edi
	mov	DWORD PTR _this$[ebp], ecx
	mov	eax, OFFSET FLAT:?classCAstrographDoc@CAstrographDoc@@2UCRuntimeClass@@B ; CAstrographDoc::classCAstrographDoc
	pop	edi
	pop	esi
	pop	ebx
	mov	esp, ebp
	pop	ebp
	ret	0
?GetRuntimeClass@CAstrographDoc@@UBEPAUCRuntimeClass@@XZ ENDP ; CAstrographDoc::GetRuntimeClass
_TEXT	ENDS
PUBLIC	?GetThisMessageMap@CAstrographDoc@@KGPBUAFX_MSGMAP@@XZ ; CAstrographDoc::GetThisMessageMap
; Function compile flags: /Odt /ZI
;	COMDAT ?GetThisMessageMap@CAstrographDoc@@KGPBUAFX_MSGMAP@@XZ
_TEXT	SEGMENT
?GetThisMessageMap@CAstrographDoc@@KGPBUAFX_MSGMAP@@XZ PROC NEAR ; CAstrographDoc::GetThisMessageMap, COMDAT

; 52   : BEGIN_MESSAGE_MAP(CAstrographDoc, CDocument)

	push	ebp
	mov	ebp, esp
	sub	esp, 64					; 00000040H
	push	ebx
	push	esi
	push	edi
	mov	eax, OFFSET FLAT:?messageMap@CAstrographDoc@@1UAFX_MSGMAP@@B ; CAstrographDoc::messageMap
	pop	edi
	pop	esi
	pop	ebx
	mov	esp, ebp
	pop	ebp
	ret	0
?GetThisMessageMap@CAstrographDoc@@KGPBUAFX_MSGMAP@@XZ ENDP ; CAstrographDoc::GetThisMessageMap
_TEXT	ENDS
PUBLIC	?GetMessageMap@CAstrographDoc@@MBEPBUAFX_MSGMAP@@XZ ; CAstrographDoc::GetMessageMap
; Function compile flags: /Odt /ZI
;	COMDAT ?GetMessageMap@CAstrographDoc@@MBEPBUAFX_MSGMAP@@XZ
_TEXT	SEGMENT
_this$ = -4						; size = 4
?GetMessageMap@CAstrographDoc@@MBEPBUAFX_MSGMAP@@XZ PROC NEAR ; CAstrographDoc::GetMessageMap, COMDAT
; _this$ = ecx

; 52   : BEGIN_MESSAGE_MAP(CAstrographDoc, CDocument)

	push	ebp
	mov	ebp, esp
	sub	esp, 68					; 00000044H
	push	ebx
	push	esi
	push	edi
	mov	DWORD PTR _this$[ebp], ecx
	mov	eax, OFFSET FLAT:?messageMap@CAstrographDoc@@1UAFX_MSGMAP@@B ; CAstrographDoc::messageMap
	pop	edi
	pop	esi
	pop	ebx
	mov	esp, ebp
	pop	ebp
	ret	0
?GetMessageMap@CAstrographDoc@@MBEPBUAFX_MSGMAP@@XZ ENDP ; CAstrographDoc::GetMessageMap
_TEXT	ENDS
PUBLIC	?__LINE__Var@?1???0CAstrographDoc@@IAE@XZ@4JA	; `CAstrographDoc::CAstrographDoc'::`2'::__LINE__Var
PUBLIC	?OnNewDocument@CAstrographDoc@@UAEHXZ		; CAstrographDoc::OnNewDocument
PUBLIC	?Serialize@CAstrographDoc@@UAEXAAVCArchive@@@Z	; CAstrographDoc::Serialize
PUBLIC	?OnOpenDocument@CAstrographDoc@@UAEHPBD@Z	; CAstrographDoc::OnOpenDocument
PUBLIC	?CanCloseFrame@CAstrographDoc@@UAEHPAVCFrameWnd@@@Z ; CAstrographDoc::CanCloseFrame
PUBLIC	?SetPathName@CAstrographDoc@@UAEXPBDH@Z		; CAstrographDoc::SetPathName
PUBLIC	?AssertValid@CAstrographDoc@@UBEXXZ		; CAstrographDoc::AssertValid
PUBLIC	?Dump@CAstrographDoc@@UBEXAAVCDumpContext@@@Z	; CAstrographDoc::Dump
PUBLIC	??_7CAstrographDoc@@6B@				; CAstrographDoc::`vftable'
PUBLIC	??_GCAstrographDoc@@UAEPAXI@Z			; CAstrographDoc::`scalar deleting destructor'
EXTRN	??1CDocument@@UAE@XZ:NEAR			; CDocument::~CDocument
EXTRN	?DoSave@CDocument@@UAEHPBDH@Z:NEAR		; CDocument::DoSave
EXTRN	?DoFileSave@CDocument@@UAEHXZ:NEAR		; CDocument::DoFileSave
EXTRN	?UpdateFrameCounts@CDocument@@UAEXXZ:NEAR	; CDocument::UpdateFrameCounts
EXTRN	?GetDefaultMenu@CDocument@@UAEPAUHMENU__@@XZ:NEAR ; CDocument::GetDefaultMenu
EXTRN	?GetDefaultAccelerator@CDocument@@UAEPAUHACCEL__@@XZ:NEAR ; CDocument::GetDefaultAccelerator
EXTRN	?OnIdle@CDocument@@UAEXXZ:NEAR			; CDocument::OnIdle
EXTRN	?OnFinalRelease@CDocument@@UAEXXZ:NEAR		; CDocument::OnFinalRelease
EXTRN	?OnCmdMsg@CDocument@@UAEHIHPAXPAUAFX_CMDHANDLERINFO@@@Z:NEAR ; CDocument::OnCmdMsg
EXTRN	?IsInvokeAllowed@CCmdTarget@@UAEHJ@Z:NEAR	; CCmdTarget::IsInvokeAllowed
EXTRN	?GetDispatchIID@CCmdTarget@@UAEHPAU_GUID@@@Z:NEAR ; CCmdTarget::GetDispatchIID
EXTRN	?GetTypeInfoCount@CCmdTarget@@UAEIXZ:NEAR	; CCmdTarget::GetTypeInfoCount
EXTRN	?GetTypeLibCache@CCmdTarget@@UAEPAVCTypeLibCache@@XZ:NEAR ; CCmdTarget::GetTypeLibCache
EXTRN	?GetTypeLib@CCmdTarget@@UAEJKPAPAUITypeLib@@@Z:NEAR ; CCmdTarget::GetTypeLib
EXTRN	?GetCommandMap@CCmdTarget@@MBEPBUAFX_OLECMDMAP@@XZ:NEAR ; CCmdTarget::GetCommandMap
EXTRN	?GetDispatchMap@CCmdTarget@@MBEPBUAFX_DISPMAP@@XZ:NEAR ; CCmdTarget::GetDispatchMap
EXTRN	?GetConnectionMap@CCmdTarget@@MBEPBUAFX_CONNECTIONMAP@@XZ:NEAR ; CCmdTarget::GetConnectionMap
EXTRN	?GetInterfaceMap@CCmdTarget@@MBEPBUAFX_INTERFACEMAP@@XZ:NEAR ; CCmdTarget::GetInterfaceMap
EXTRN	?GetEventSinkMap@CCmdTarget@@MBEPBUAFX_EVENTSINKMAP@@XZ:NEAR ; CCmdTarget::GetEventSinkMap
EXTRN	?OnCreateAggregates@CCmdTarget@@UAEHXZ:NEAR	; CCmdTarget::OnCreateAggregates
EXTRN	?GetInterfaceHook@CCmdTarget@@UAEPAUIUnknown@@PBX@Z:NEAR ; CCmdTarget::GetInterfaceHook
EXTRN	?GetExtraConnectionPoints@CCmdTarget@@MAEHPAVCPtrArray@@@Z:NEAR ; CCmdTarget::GetExtraConnectionPoints
EXTRN	?GetConnectionHook@CCmdTarget@@MAEPAUIConnectionPoint@@ABU_GUID@@@Z:NEAR ; CCmdTarget::GetConnectionHook
EXTRN	??_ECAstrographDoc@@UAEPAXI@Z:NEAR		; CAstrographDoc::`vector deleting destructor'
EXTRN	??2@YAPAXIPBDH@Z:NEAR				; operator new
EXTRN	??3@YAXPAXPBDH@Z:NEAR				; operator delete
EXTRN	__imp_??0?$CStringT@DV?$StrTraitMFC_DLL@DV?$ChTraitsCRT@D@ATL@@@@@ATL@@QAE@XZ:NEAR
EXTRN	??0GraphData@@QAE@XZ:NEAR			; GraphData::GraphData
EXTRN	__imp_??1?$CStringT@DV?$StrTraitMFC_DLL@DV?$ChTraitsCRT@D@ATL@@@@@ATL@@QAE@XZ:NEAR
EXTRN	??0CDocument@@QAE@XZ:NEAR			; CDocument::CDocument
EXTRN	?SetTitle@CDocument@@UAEXPBD@Z:NEAR		; CDocument::SetTitle
EXTRN	?IsModified@CDocument@@UAEHXZ:NEAR		; CDocument::IsModified
EXTRN	?SetModifiedFlag@CDocument@@UAEXH@Z:NEAR	; CDocument::SetModifiedFlag
EXTRN	?GetFirstViewPosition@CDocument@@UBEPAU__POSITION@@XZ:NEAR ; CDocument::GetFirstViewPosition
EXTRN	?GetNextView@CDocument@@UBEPAVCView@@AAPAU__POSITION@@@Z:NEAR ; CDocument::GetNextView
EXTRN	?OnChangedViewList@CDocument@@UAEXXZ:NEAR	; CDocument::OnChangedViewList
EXTRN	?DeleteContents@CDocument@@UAEXXZ:NEAR		; CDocument::DeleteContents
EXTRN	?OnSaveDocument@CDocument@@UAEHPBD@Z:NEAR	; CDocument::OnSaveDocument
EXTRN	?OnCloseDocument@CDocument@@UAEXXZ:NEAR		; CDocument::OnCloseDocument
EXTRN	?ReportSaveLoadException@CDocument@@UAEXPBDPAVCException@@HI@Z:NEAR ; CDocument::ReportSaveLoadException
EXTRN	?GetFile@CDocument@@UAEPAVCFile@@PBDIPAVCFileException@@@Z:NEAR ; CDocument::GetFile
EXTRN	?ReleaseFile@CDocument@@UAEXPAVCFile@@H@Z:NEAR	; CDocument::ReleaseFile
EXTRN	?SaveModified@CDocument@@UAEHXZ:NEAR		; CDocument::SaveModified
EXTRN	?PreCloseFrame@CDocument@@UAEXPAVCFrameWnd@@@Z:NEAR ; CDocument::PreCloseFrame
;	COMDAT xdata$x
xdata$x	SEGMENT
__unwindtable$??0CAstrographDoc@@IAE@XZ DD 0ffffffffH
	DD	FLAT:__unwindfunclet$??0CAstrographDoc@@IAE@XZ$0
	DD	00H
	DD	FLAT:__unwindfunclet$??0CAstrographDoc@@IAE@XZ$1
	DD	01H
	DD	FLAT:__unwindfunclet$??0CAstrographDoc@@IAE@XZ$2
__ehfuncinfo$??0CAstrographDoc@@IAE@XZ DD 019930520H
	DD	03H
	DD	FLAT:__unwindtable$??0CAstrographDoc@@IAE@XZ
	DD	2 DUP(00H)
	DD	2 DUP(00H)
xdata$x	ENDS
;	COMDAT ??_7CAstrographDoc@@6B@
CONST	SEGMENT
??_7CAstrographDoc@@6B@ DD FLAT:?GetRuntimeClass@CAstrographDoc@@UBEPAUCRuntimeClass@@XZ ; CAstrographDoc::`vftable'
	DD	FLAT:??_ECAstrographDoc@@UAEPAXI@Z
	DD	FLAT:?Serialize@CAstrographDoc@@UAEXAAVCArchive@@@Z
	DD	FLAT:?AssertValid@CAstrographDoc@@UBEXXZ
	DD	FLAT:?Dump@CAstrographDoc@@UBEXAAVCDumpContext@@@Z
	DD	FLAT:?OnCmdMsg@CDocument@@UAEHIHPAXPAUAFX_CMDHANDLERINFO@@@Z
	DD	FLAT:?OnFinalRelease@CDocument@@UAEXXZ
	DD	FLAT:?IsInvokeAllowed@CCmdTarget@@UAEHJ@Z
	DD	FLAT:?GetDispatchIID@CCmdTarget@@UAEHPAU_GUID@@@Z
	DD	FLAT:?GetTypeInfoCount@CCmdTarget@@UAEIXZ
	DD	FLAT:?GetTypeLibCache@CCmdTarget@@UAEPAVCTypeLibCache@@XZ
	DD	FLAT:?GetTypeLib@CCmdTarget@@UAEJKPAPAUITypeLib@@@Z
	DD	FLAT:?GetMessageMap@CAstrographDoc@@MBEPBUAFX_MSGMAP@@XZ
	DD	FLAT:?GetCommandMap@CCmdTarget@@MBEPBUAFX_OLECMDMAP@@XZ
	DD	FLAT:?GetDispatchMap@CCmdTarget@@MBEPBUAFX_DISPMAP@@XZ
	DD	FLAT:?GetConnectionMap@CCmdTarget@@MBEPBUAFX_CONNECTIONMAP@@XZ
	DD	FLAT:?GetInterfaceMap@CCmdTarget@@MBEPBUAFX_INTERFACEMAP@@XZ
	DD	FLAT:?GetEventSinkMap@CCmdTarget@@MBEPBUAFX_EVENTSINKMAP@@XZ
	DD	FLAT:?OnCreateAggregates@CCmdTarget@@UAEHXZ
	DD	FLAT:?GetInterfaceHook@CCmdTarget@@UAEPAUIUnknown@@PBX@Z
	DD	FLAT:?GetExtraConnectionPoints@CCmdTarget@@MAEHPAVCPtrArray@@@Z
	DD	FLAT:?GetConnectionHook@CCmdTarget@@MAEPAUIConnectionPoint@@ABU_GUID@@@Z
	DD	FLAT:?SetTitle@CDocument@@UAEXPBD@Z
	DD	FLAT:?SetPathName@CAstrographDoc@@UAEXPBDH@Z
	DD	FLAT:?IsModified@CDocument@@UAEHXZ
	DD	FLAT:?SetModifiedFlag@CDocument@@UAEXH@Z
	DD	FLAT:?GetFirstViewPosition@CDocument@@UBEPAU__POSITION@@XZ
	DD	FLAT:?GetNextView@CDocument@@UBEPAVCView@@AAPAU__POSITION@@@Z
	DD	FLAT:?OnChangedViewList@CDocument@@UAEXXZ
	DD	FLAT:?DeleteContents@CDocument@@UAEXXZ
	DD	FLAT:?OnNewDocument@CAstrographDoc@@UAEHXZ
	DD	FLAT:?OnOpenDocument@CAstrographDoc@@UAEHPBD@Z
	DD	FLAT:?OnSaveDocument@CDocument@@UAEHPBD@Z
	DD	FLAT:?OnCloseDocument@CDocument@@UAEXXZ
	DD	FLAT:?ReportSaveLoadException@CDocument@@UAEXPBDPAVCException@@HI@Z
	DD	FLAT:?GetFile@CDocument@@UAEPAVCFile@@PBDIPAVCFileException@@@Z
	DD	FLAT:?ReleaseFile@CDocument@@UAEXPAVCFile@@H@Z
	DD	FLAT:?CanCloseFrame@CAstrographDoc@@UAEHPAVCFrameWnd@@@Z
	DD	FLAT:?SaveModified@CDocument@@UAEHXZ
	DD	FLAT:?PreCloseFrame@CDocument@@UAEXPAVCFrameWnd@@@Z
	DD	FLAT:?DoSave@CDocument@@UAEHPBDH@Z
	DD	FLAT:?DoFileSave@CDocument@@UAEHXZ
	DD	FLAT:?UpdateFrameCounts@CDocument@@UAEXXZ
	DD	FLAT:?GetDefaultMenu@CDocument@@UAEPAUHMENU__@@XZ
	DD	FLAT:?GetDefaultAccelerator@CDocument@@UAEPAUHACCEL__@@XZ
	DD	FLAT:?OnIdle@CDocument@@UAEXXZ
CONST	ENDS
;	COMDAT ?__LINE__Var@?1???0CAstrographDoc@@IAE@XZ@4JA
_DATA	SEGMENT
?__LINE__Var@?1???0CAstrographDoc@@IAE@XZ@4JA DD 03fH	; `CAstrographDoc::CAstrographDoc'::`2'::__LINE__Var
; Function compile flags: /Odt /ZI
_DATA	ENDS
;	COMDAT ??0CAstrographDoc@@IAE@XZ
_TEXT	SEGMENT
tv92 = -92						; size = 4
$T95834 = -88						; size = 4
$T95835 = -84						; size = 4
_this$ = -16						; size = 4
__$EHRec$ = -12						; size = 12
??0CAstrographDoc@@IAE@XZ PROC NEAR			; CAstrographDoc::CAstrographDoc, COMDAT
; _this$ = ecx

; 63   : {

	push	ebp
	mov	ebp, esp
	push	-1
	push	__ehhandler$??0CAstrographDoc@@IAE@XZ
	mov	eax, DWORD PTR fs:__except_list
	push	eax
	mov	DWORD PTR fs:__except_list, esp
	sub	esp, 80					; 00000050H
	push	ebx
	push	esi
	push	edi
	mov	DWORD PTR _this$[ebp], ecx
	mov	ecx, DWORD PTR _this$[ebp]
	call	??0CDocument@@QAE@XZ			; CDocument::CDocument
	mov	DWORD PTR __$EHRec$[ebp+8], 0
	mov	eax, DWORD PTR _this$[ebp]
	mov	DWORD PTR [eax], OFFSET FLAT:??_7CAstrographDoc@@6B@
	mov	ecx, DWORD PTR _this$[ebp]
	add	ecx, 88					; 00000058H
	call	DWORD PTR __imp_??0?$CStringT@DV?$StrTraitMFC_DLL@DV?$ChTraitsCRT@D@ATL@@@@@ATL@@QAE@XZ
	mov	BYTE PTR __$EHRec$[ebp+8], 1

; 64   : 	// TODO: add one-time construction code here
; 65   : CanClose = 1;

	mov	eax, DWORD PTR _this$[ebp]
	mov	DWORD PTR [eax+84], 1

; 66   : file_no = 1;

	mov	eax, DWORD PTR _this$[ebp]
	mov	DWORD PTR [eax+104], 1

; 67   : num_files = 1;

	mov	eax, DWORD PTR _this$[ebp]
	mov	DWORD PTR [eax+100], 1

; 68   : _isOk = 0;

	mov	eax, DWORD PTR _this$[ebp]
	mov	DWORD PTR [eax+96], 0

; 69   : theDataPtr = new GraphData();

	mov	eax, DWORD PTR ?__LINE__Var@?1???0CAstrographDoc@@IAE@XZ@4JA
	add	eax, 6
	push	eax
	push	OFFSET FLAT:_THIS_FILE
	push	432					; 000001b0H
	call	??2@YAPAXIPBDH@Z			; operator new
	add	esp, 12					; 0000000cH
	mov	DWORD PTR $T95835[ebp], eax
	mov	BYTE PTR __$EHRec$[ebp+8], 2
	cmp	DWORD PTR $T95835[ebp], 0
	je	SHORT $L95836
	mov	ecx, DWORD PTR $T95835[ebp]
	call	??0GraphData@@QAE@XZ			; GraphData::GraphData
	mov	DWORD PTR tv92[ebp], eax
	jmp	SHORT $L95837
$L95836:
	mov	DWORD PTR tv92[ebp], 0
$L95837:
	mov	ecx, DWORD PTR tv92[ebp]
	mov	DWORD PTR $T95834[ebp], ecx
	mov	BYTE PTR __$EHRec$[ebp+8], 1
	mov	edx, DWORD PTR _this$[ebp]
	mov	eax, DWORD PTR $T95834[ebp]
	mov	DWORD PTR [edx+92], eax

; 70   : pStringArray = NULL;

	mov	eax, DWORD PTR _this$[ebp]
	mov	DWORD PTR [eax+108], 0

; 71   : }

	mov	DWORD PTR __$EHRec$[ebp+8], -1
	mov	eax, DWORD PTR _this$[ebp]
	mov	ecx, DWORD PTR __$EHRec$[ebp]
	mov	DWORD PTR fs:__except_list, ecx
	pop	edi
	pop	esi
	pop	ebx
	mov	esp, ebp
	pop	ebp
	ret	0
_TEXT	ENDS
;	COMDAT text$x
text$x	SEGMENT
__unwindfunclet$??0CAstrographDoc@@IAE@XZ$0:
	mov	ecx, DWORD PTR _this$[ebp]
	jmp	??1CDocument@@UAE@XZ			; CDocument::~CDocument
__unwindfunclet$??0CAstrographDoc@@IAE@XZ$1:
	mov	ecx, DWORD PTR _this$[ebp]
	add	ecx, 88					; 00000058H
	jmp	DWORD PTR __imp_??1?$CStringT@DV?$StrTraitMFC_DLL@DV?$ChTraitsCRT@D@ATL@@@@@ATL@@QAE@XZ
__unwindfunclet$??0CAstrographDoc@@IAE@XZ$2:
	mov	eax, DWORD PTR ?__LINE__Var@?1???0CAstrographDoc@@IAE@XZ@4JA
	add	eax, 6
	push	eax
	push	OFFSET FLAT:_THIS_FILE
	mov	ecx, DWORD PTR $T95835[ebp]
	push	ecx
	call	??3@YAXPAXPBDH@Z			; operator delete
	add	esp, 12					; 0000000cH
	ret	0
__ehhandler$??0CAstrographDoc@@IAE@XZ:
	mov	eax, OFFSET FLAT:__ehfuncinfo$??0CAstrographDoc@@IAE@XZ
	jmp	___CxxFrameHandler
text$x	ENDS
??0CAstrographDoc@@IAE@XZ ENDP				; CAstrographDoc::CAstrographDoc
PUBLIC	??1CAstrographDoc@@UAE@XZ			; CAstrographDoc::~CAstrographDoc
EXTRN	??3CObject@@SGXPAX@Z:NEAR			; CObject::operator delete
; Function compile flags: /Odt /ZI
;	COMDAT ??_GCAstrographDoc@@UAEPAXI@Z
_TEXT	SEGMENT
_this$ = -4						; size = 4
___flags$ = 8						; size = 4
??_GCAstrographDoc@@UAEPAXI@Z PROC NEAR			; CAstrographDoc::`scalar deleting destructor', COMDAT
; _this$ = ecx
	push	ebp
	mov	ebp, esp
	sub	esp, 68					; 00000044H
	push	ebx
	push	esi
	push	edi
	mov	DWORD PTR _this$[ebp], ecx
	mov	ecx, DWORD PTR _this$[ebp]
	call	??1CAstrographDoc@@UAE@XZ		; CAstrographDoc::~CAstrographDoc
	mov	eax, DWORD PTR ___flags$[ebp]
	and	eax, 1
	je	SHORT $L95467
	mov	eax, DWORD PTR _this$[ebp]
	push	eax
	call	??3CObject@@SGXPAX@Z			; CObject::operator delete
$L95467:
	mov	eax, DWORD PTR _this$[ebp]
	pop	edi
	pop	esi
	pop	ebx
	mov	esp, ebp
	pop	ebp
	ret	4
??_GCAstrographDoc@@UAEPAXI@Z ENDP			; CAstrographDoc::`scalar deleting destructor'
_TEXT	ENDS
PUBLIC	??_GGraphData@@QAEPAXI@Z			; GraphData::`scalar deleting destructor'
;	COMDAT xdata$x
xdata$x	SEGMENT
__unwindtable$??1CAstrographDoc@@UAE@XZ DD 0ffffffffH
	DD	FLAT:__unwindfunclet$??1CAstrographDoc@@UAE@XZ$0
	DD	00H
	DD	FLAT:__unwindfunclet$??1CAstrographDoc@@UAE@XZ$1
__ehfuncinfo$??1CAstrographDoc@@UAE@XZ DD 019930520H
	DD	02H
	DD	FLAT:__unwindtable$??1CAstrographDoc@@UAE@XZ
	DD	2 DUP(00H)
	DD	2 DUP(00H)
; Function compile flags: /Odt /ZI
xdata$x	ENDS
;	COMDAT ??1CAstrographDoc@@UAE@XZ
_TEXT	SEGMENT
tv76 = -92						; size = 4
$T95851 = -88						; size = 4
$T95852 = -84						; size = 4
_this$ = -16						; size = 4
__$EHRec$ = -12						; size = 12
??1CAstrographDoc@@UAE@XZ PROC NEAR			; CAstrographDoc::~CAstrographDoc, COMDAT
; _this$ = ecx

; 74   : {

	push	ebp
	mov	ebp, esp
	push	-1
	push	__ehhandler$??1CAstrographDoc@@UAE@XZ
	mov	eax, DWORD PTR fs:__except_list
	push	eax
	mov	DWORD PTR fs:__except_list, esp
	sub	esp, 80					; 00000050H
	push	ebx
	push	esi
	push	edi
	mov	DWORD PTR _this$[ebp], ecx
	mov	eax, DWORD PTR _this$[ebp]
	mov	DWORD PTR [eax], OFFSET FLAT:??_7CAstrographDoc@@6B@
	mov	DWORD PTR __$EHRec$[ebp+8], 1

; 75   :  if ( theDataPtr != 0 )

	mov	eax, DWORD PTR _this$[ebp]
	cmp	DWORD PTR [eax+92], 0
	je	SHORT $L95470

; 76   : 	delete theDataPtr;

	mov	eax, DWORD PTR _this$[ebp]
	mov	ecx, DWORD PTR [eax+92]
	mov	DWORD PTR $T95852[ebp], ecx
	mov	edx, DWORD PTR $T95852[ebp]
	mov	DWORD PTR $T95851[ebp], edx
	cmp	DWORD PTR $T95851[ebp], 0
	je	SHORT $L95853
	push	1
	mov	ecx, DWORD PTR $T95851[ebp]
	call	??_GGraphData@@QAEPAXI@Z
	mov	DWORD PTR tv76[ebp], eax
	jmp	SHORT $L95470
$L95853:
	mov	DWORD PTR tv76[ebp], 0
$L95470:

; 77   :  // don't delete pStringArray as it is a pointer to a local variable	
; 78   : }

	mov	BYTE PTR __$EHRec$[ebp+8], 0
	mov	ecx, DWORD PTR _this$[ebp]
	add	ecx, 88					; 00000058H
	call	DWORD PTR __imp_??1?$CStringT@DV?$StrTraitMFC_DLL@DV?$ChTraitsCRT@D@ATL@@@@@ATL@@QAE@XZ
	mov	DWORD PTR __$EHRec$[ebp+8], -1
	mov	ecx, DWORD PTR _this$[ebp]
	call	??1CDocument@@UAE@XZ			; CDocument::~CDocument
	mov	ecx, DWORD PTR __$EHRec$[ebp]
	mov	DWORD PTR fs:__except_list, ecx
	pop	edi
	pop	esi
	pop	ebx
	mov	esp, ebp
	pop	ebp
	ret	0
_TEXT	ENDS
;	COMDAT text$x
text$x	SEGMENT
__unwindfunclet$??1CAstrographDoc@@UAE@XZ$0:
	mov	ecx, DWORD PTR _this$[ebp]
	jmp	??1CDocument@@UAE@XZ			; CDocument::~CDocument
__unwindfunclet$??1CAstrographDoc@@UAE@XZ$1:
	mov	ecx, DWORD PTR _this$[ebp]
	add	ecx, 88					; 00000058H
	jmp	DWORD PTR __imp_??1?$CStringT@DV?$StrTraitMFC_DLL@DV?$ChTraitsCRT@D@ATL@@@@@ATL@@QAE@XZ
__ehhandler$??1CAstrographDoc@@UAE@XZ:
	mov	eax, OFFSET FLAT:__ehfuncinfo$??1CAstrographDoc@@UAE@XZ
	jmp	___CxxFrameHandler
text$x	ENDS
??1CAstrographDoc@@UAE@XZ ENDP				; CAstrographDoc::~CAstrographDoc
EXTRN	??3@YAXPAX@Z:NEAR				; operator delete
EXTRN	??1GraphData@@QAE@XZ:NEAR			; GraphData::~GraphData
; Function compile flags: /Odt /ZI
;	COMDAT ??_GGraphData@@QAEPAXI@Z
_TEXT	SEGMENT
_this$ = -4						; size = 4
___flags$ = 8						; size = 4
??_GGraphData@@QAEPAXI@Z PROC NEAR			; GraphData::`scalar deleting destructor', COMDAT
; _this$ = ecx
	push	ebp
	mov	ebp, esp
	sub	esp, 68					; 00000044H
	push	ebx
	push	esi
	push	edi
	mov	DWORD PTR _this$[ebp], ecx
	mov	ecx, DWORD PTR _this$[ebp]
	call	??1GraphData@@QAE@XZ			; GraphData::~GraphData
	mov	eax, DWORD PTR ___flags$[ebp]
	and	eax, 1
	je	SHORT $L95477
	mov	eax, DWORD PTR _this$[ebp]
	push	eax
	call	??3@YAXPAX@Z				; operator delete
	add	esp, 4
$L95477:
	mov	eax, DWORD PTR _this$[ebp]
	pop	edi
	pop	esi
	pop	ebx
	mov	esp, ebp
	pop	ebp
	ret	4
??_GGraphData@@QAEPAXI@Z ENDP				; GraphData::`scalar deleting destructor'
_TEXT	ENDS
PUBLIC	?__LINE__Var@?1??OnNewDocument@CAstrographDoc@@UAEHXZ@4JA ; `CAstrographDoc::OnNewDocument'::`2'::__LINE__Var
PUBLIC	??_C@_00CNPNBAHC@?$AA@				; `string'
EXTRN	__imp_??4?$CStringT@DV?$StrTraitMFC_DLL@DV?$ChTraitsCRT@D@ATL@@@@@ATL@@QAEAAV01@PBD@Z:NEAR
;	COMDAT xdata$x
xdata$x	SEGMENT
__unwindtable$?OnNewDocument@CAstrographDoc@@UAEHXZ DD 0ffffffffH
	DD	FLAT:__unwindfunclet$?OnNewDocument@CAstrographDoc@@UAEHXZ$0
__ehfuncinfo$?OnNewDocument@CAstrographDoc@@UAEHXZ DD 019930520H
	DD	01H
	DD	FLAT:__unwindtable$?OnNewDocument@CAstrographDoc@@UAEHXZ
	DD	2 DUP(00H)
	DD	2 DUP(00H)
xdata$x	ENDS
;	COMDAT ?__LINE__Var@?1??OnNewDocument@CAstrographDoc@@UAEHXZ@4JA
_DATA	SEGMENT
?__LINE__Var@?1??OnNewDocument@CAstrographDoc@@UAEHXZ@4JA DD 051H ; `CAstrographDoc::OnNewDocument'::`2'::__LINE__Var
_DATA	ENDS
;	COMDAT ??_C@_00CNPNBAHC@?$AA@
CONST	SEGMENT
??_C@_00CNPNBAHC@?$AA@ DB 00H				; `string'
; Function compile flags: /Odt /ZI
CONST	ENDS
;	COMDAT ?OnNewDocument@CAstrographDoc@@UAEHXZ
_TEXT	SEGMENT
tv86 = -100						; size = 4
tv71 = -100						; size = 4
$T95867 = -96						; size = 4
$T95868 = -92						; size = 4
$T95871 = -88						; size = 4
$T95872 = -84						; size = 4
_this$ = -16						; size = 4
__$EHRec$ = -12						; size = 12
?OnNewDocument@CAstrographDoc@@UAEHXZ PROC NEAR		; CAstrographDoc::OnNewDocument, COMDAT
; _this$ = ecx

; 81   : {

	push	ebp
	mov	ebp, esp
	push	-1
	push	__ehhandler$?OnNewDocument@CAstrographDoc@@UAEHXZ
	mov	eax, DWORD PTR fs:__except_list
	push	eax
	mov	DWORD PTR fs:__except_list, esp
	sub	esp, 88					; 00000058H
	push	ebx
	push	esi
	push	edi
	mov	DWORD PTR _this$[ebp], ecx

; 82   :  if ( theDataPtr != 0 ) {

	mov	eax, DWORD PTR _this$[ebp]
	cmp	DWORD PTR [eax+92], 0
	je	$L95481

; 83   : 	delete theDataPtr;

	mov	eax, DWORD PTR _this$[ebp]
	mov	ecx, DWORD PTR [eax+92]
	mov	DWORD PTR $T95868[ebp], ecx
	mov	edx, DWORD PTR $T95868[ebp]
	mov	DWORD PTR $T95867[ebp], edx
	cmp	DWORD PTR $T95867[ebp], 0
	je	SHORT $L95869
	push	1
	mov	ecx, DWORD PTR $T95867[ebp]
	call	??_GGraphData@@QAEPAXI@Z
	mov	DWORD PTR tv71[ebp], eax
	jmp	SHORT $L95870
$L95869:
	mov	DWORD PTR tv71[ebp], 0
$L95870:

; 84   : 	theDataPtr = new GraphData();

	mov	eax, DWORD PTR ?__LINE__Var@?1??OnNewDocument@CAstrographDoc@@UAEHXZ@4JA
	add	eax, 3
	push	eax
	push	OFFSET FLAT:_THIS_FILE
	push	432					; 000001b0H
	call	??2@YAPAXIPBDH@Z			; operator new
	add	esp, 12					; 0000000cH
	mov	DWORD PTR $T95872[ebp], eax
	mov	DWORD PTR __$EHRec$[ebp+8], 0
	cmp	DWORD PTR $T95872[ebp], 0
	je	SHORT $L95873
	mov	ecx, DWORD PTR $T95872[ebp]
	call	??0GraphData@@QAE@XZ			; GraphData::GraphData
	mov	DWORD PTR tv86[ebp], eax
	jmp	SHORT $L95874
$L95873:
	mov	DWORD PTR tv86[ebp], 0
$L95874:
	mov	ecx, DWORD PTR tv86[ebp]
	mov	DWORD PTR $T95871[ebp], ecx
	mov	DWORD PTR __$EHRec$[ebp+8], -1
	mov	edx, DWORD PTR _this$[ebp]
	mov	eax, DWORD PTR $T95871[ebp]
	mov	DWORD PTR [edx+92], eax

; 85   : 	_isOk = 0;

	mov	eax, DWORD PTR _this$[ebp]
	mov	DWORD PTR [eax+96], 0

; 86   : 	theFileName = "";

	push	OFFSET FLAT:??_C@_00CNPNBAHC@?$AA@
	mov	ecx, DWORD PTR _this$[ebp]
	add	ecx, 88					; 00000058H
	call	DWORD PTR __imp_??4?$CStringT@DV?$StrTraitMFC_DLL@DV?$ChTraitsCRT@D@ATL@@@@@ATL@@QAEAAV01@PBD@Z
$L95481:

; 87   :     }
; 88   : 
; 89   : 	// TODO: add reinitialization code here
; 90   : 	// (SDI documents will reuse this document)
; 91   : 
; 92   : 	return TRUE;

	mov	eax, 1

; 93   : }

	mov	ecx, DWORD PTR __$EHRec$[ebp]
	mov	DWORD PTR fs:__except_list, ecx
	pop	edi
	pop	esi
	pop	ebx
	mov	esp, ebp
	pop	ebp
	ret	0
_TEXT	ENDS
;	COMDAT text$x
text$x	SEGMENT
__unwindfunclet$?OnNewDocument@CAstrographDoc@@UAEHXZ$0:
	mov	eax, DWORD PTR ?__LINE__Var@?1??OnNewDocument@CAstrographDoc@@UAEHXZ@4JA
	add	eax, 3
	push	eax
	push	OFFSET FLAT:_THIS_FILE
	mov	ecx, DWORD PTR $T95872[ebp]
	push	ecx
	call	??3@YAXPAXPBDH@Z			; operator delete
	add	esp, 12					; 0000000cH
	ret	0
__ehhandler$?OnNewDocument@CAstrographDoc@@UAEHXZ:
	mov	eax, OFFSET FLAT:__ehfuncinfo$?OnNewDocument@CAstrographDoc@@UAEHXZ
	jmp	___CxxFrameHandler
text$x	ENDS
?OnNewDocument@CAstrographDoc@@UAEHXZ ENDP		; CAstrographDoc::OnNewDocument
EXTRN	?IsStoring@CArchive@@QBEHXZ:NEAR		; CArchive::IsStoring
; Function compile flags: /Odt /ZI
;	COMDAT ?Serialize@CAstrographDoc@@UAEXAAVCArchive@@@Z
_TEXT	SEGMENT
_this$ = -4						; size = 4
_ar$ = 8						; size = 4
?Serialize@CAstrographDoc@@UAEXAAVCArchive@@@Z PROC NEAR ; CAstrographDoc::Serialize, COMDAT
; _this$ = ecx

; 99   : {

	push	ebp
	mov	ebp, esp
	sub	esp, 68					; 00000044H
	push	ebx
	push	esi
	push	edi
	mov	DWORD PTR _this$[ebp], ecx

; 100  : 	if (ar.IsStoring())

	mov	ecx, DWORD PTR _ar$[ebp]
	call	?IsStoring@CArchive@@QBEHXZ		; CArchive::IsStoring

; 101  : 	{
; 102  : 		// TODO: add storing code here
; 103  : 	}
; 104  : 	else
; 105  : 	{
; 106  : 		// TODO: add loading code here
; 107  : 	}
; 108  : }

	pop	edi
	pop	esi
	pop	ebx
	mov	esp, ebp
	pop	ebp
	ret	4
?Serialize@CAstrographDoc@@UAEXAAVCArchive@@@Z ENDP	; CAstrographDoc::Serialize
_TEXT	ENDS
EXTRN	?AssertValid@CDocument@@UBEXXZ:NEAR		; CDocument::AssertValid
; Function compile flags: /Odt /ZI
;	COMDAT ?AssertValid@CAstrographDoc@@UBEXXZ
_TEXT	SEGMENT
_this$ = -4						; size = 4
?AssertValid@CAstrographDoc@@UBEXXZ PROC NEAR		; CAstrographDoc::AssertValid, COMDAT
; _this$ = ecx

; 115  : {

	push	ebp
	mov	ebp, esp
	sub	esp, 68					; 00000044H
	push	ebx
	push	esi
	push	edi
	mov	DWORD PTR _this$[ebp], ecx

; 116  : 	CDocument::AssertValid();

	mov	ecx, DWORD PTR _this$[ebp]
	call	?AssertValid@CDocument@@UBEXXZ		; CDocument::AssertValid

; 117  : }

	pop	edi
	pop	esi
	pop	ebx
	mov	esp, ebp
	pop	ebp
	ret	0
?AssertValid@CAstrographDoc@@UBEXXZ ENDP		; CAstrographDoc::AssertValid
_TEXT	ENDS
EXTRN	?Dump@CDocument@@UBEXAAVCDumpContext@@@Z:NEAR	; CDocument::Dump
; Function compile flags: /Odt /ZI
;	COMDAT ?Dump@CAstrographDoc@@UBEXAAVCDumpContext@@@Z
_TEXT	SEGMENT
_this$ = -4						; size = 4
_dc$ = 8						; size = 4
?Dump@CAstrographDoc@@UBEXAAVCDumpContext@@@Z PROC NEAR	; CAstrographDoc::Dump, COMDAT
; _this$ = ecx

; 120  : {

	push	ebp
	mov	ebp, esp
	sub	esp, 68					; 00000044H
	push	ebx
	push	esi
	push	edi
	mov	DWORD PTR _this$[ebp], ecx

; 121  : 	CDocument::Dump(dc);

	mov	eax, DWORD PTR _dc$[ebp]
	push	eax
	mov	ecx, DWORD PTR _this$[ebp]
	call	?Dump@CDocument@@UBEXAAVCDumpContext@@@Z ; CDocument::Dump

; 122  : }

	pop	edi
	pop	esi
	pop	ebx
	mov	esp, ebp
	pop	ebp
	ret	4
?Dump@CAstrographDoc@@UBEXAAVCDumpContext@@@Z ENDP	; CAstrographDoc::Dump
_TEXT	ENDS
PUBLIC	??_C@_06MGDPOKIM@?4ASGRA?$AA@			; `string'
PUBLIC	?__LINE__Var@?1??OnOpenDocument@CAstrographDoc@@UAEHPBD@Z@4JA ; `CAstrographDoc::OnOpenDocument'::`2'::__LINE__Var
EXTRN	__imp__strcmpi:NEAR
EXTRN	?read@GraphData@@QAEFPADF@Z:NEAR		; GraphData::read
EXTRN	?UpdateAllViews@CDocument@@QAEXPAVCView@@JPAVCObject@@@Z:NEAR ; CDocument::UpdateAllViews
;	COMDAT xdata$x
xdata$x	SEGMENT
__unwindtable$?OnOpenDocument@CAstrographDoc@@UAEHPBD@Z DD 0ffffffffH
	DD	FLAT:__unwindfunclet$?OnOpenDocument@CAstrographDoc@@UAEHPBD@Z$0
__ehfuncinfo$?OnOpenDocument@CAstrographDoc@@UAEHPBD@Z DD 019930520H
	DD	01H
	DD	FLAT:__unwindtable$?OnOpenDocument@CAstrographDoc@@UAEHPBD@Z
	DD	2 DUP(00H)
	DD	2 DUP(00H)
xdata$x	ENDS
;	COMDAT ??_C@_06MGDPOKIM@?4ASGRA?$AA@
CONST	SEGMENT
??_C@_06MGDPOKIM@?4ASGRA?$AA@ DB '.ASGRA', 00H		; `string'
CONST	ENDS
;	COMDAT ?__LINE__Var@?1??OnOpenDocument@CAstrographDoc@@UAEHPBD@Z@4JA
_DATA	SEGMENT
?__LINE__Var@?1??OnOpenDocument@CAstrographDoc@@UAEHPBD@Z@4JA DD 082H ; `CAstrographDoc::OnOpenDocument'::`2'::__LINE__Var
; Function compile flags: /Odt /ZI
_DATA	ENDS
;	COMDAT ?OnOpenDocument@CAstrographDoc@@UAEHPBD@Z
_TEXT	SEGMENT
tv90 = -100						; size = 4
tv75 = -100						; size = 4
$T95890 = -96						; size = 4
$T95891 = -92						; size = 4
$T95894 = -88						; size = 4
$T95895 = -84						; size = 4
_this$ = -16						; size = 4
__$EHRec$ = -12						; size = 12
_lpszPathName$ = 8					; size = 4
?OnOpenDocument@CAstrographDoc@@UAEHPBD@Z PROC NEAR	; CAstrographDoc::OnOpenDocument, COMDAT
; _this$ = ecx

; 130  : {

	push	ebp
	mov	ebp, esp
	push	-1
	push	__ehhandler$?OnOpenDocument@CAstrographDoc@@UAEHPBD@Z
	mov	eax, DWORD PTR fs:__except_list
	push	eax
	mov	DWORD PTR fs:__except_list, esp
	sub	esp, 88					; 00000058H
	push	ebx
	push	esi
	push	edi
	mov	DWORD PTR _this$[ebp], ecx

; 131  :     if ( !strcmpi(lpszPathName,".ASGRA") )

	push	OFFSET FLAT:??_C@_06MGDPOKIM@?4ASGRA?$AA@
	mov	eax, DWORD PTR _lpszPathName$[ebp]
	push	eax
	call	DWORD PTR __imp__strcmpi
	add	esp, 8
	test	eax, eax
	jne	SHORT $L95509

; 132  : 		return( TRUE );

	mov	eax, 1
	jmp	$L95508
$L95509:

; 133  : 	if ( theDataPtr != 0 ) {

	mov	eax, DWORD PTR _this$[ebp]
	cmp	DWORD PTR [eax+92], 0
	je	$L95511

; 134  : 	   delete theDataPtr;

	mov	eax, DWORD PTR _this$[ebp]
	mov	ecx, DWORD PTR [eax+92]
	mov	DWORD PTR $T95891[ebp], ecx
	mov	edx, DWORD PTR $T95891[ebp]
	mov	DWORD PTR $T95890[ebp], edx
	cmp	DWORD PTR $T95890[ebp], 0
	je	SHORT $L95892
	push	1
	mov	ecx, DWORD PTR $T95890[ebp]
	call	??_GGraphData@@QAEPAXI@Z
	mov	DWORD PTR tv75[ebp], eax
	jmp	SHORT $L95893
$L95892:
	mov	DWORD PTR tv75[ebp], 0
$L95893:

; 135  : 	   theDataPtr = new GraphData();

	mov	eax, DWORD PTR ?__LINE__Var@?1??OnOpenDocument@CAstrographDoc@@UAEHPBD@Z@4JA
	add	eax, 5
	push	eax
	push	OFFSET FLAT:_THIS_FILE
	push	432					; 000001b0H
	call	??2@YAPAXIPBDH@Z			; operator new
	add	esp, 12					; 0000000cH
	mov	DWORD PTR $T95895[ebp], eax
	mov	DWORD PTR __$EHRec$[ebp+8], 0
	cmp	DWORD PTR $T95895[ebp], 0
	je	SHORT $L95896
	mov	ecx, DWORD PTR $T95895[ebp]
	call	??0GraphData@@QAE@XZ			; GraphData::GraphData
	mov	DWORD PTR tv90[ebp], eax
	jmp	SHORT $L95897
$L95896:
	mov	DWORD PTR tv90[ebp], 0
$L95897:
	mov	ecx, DWORD PTR tv90[ebp]
	mov	DWORD PTR $T95894[ebp], ecx
	mov	DWORD PTR __$EHRec$[ebp+8], -1
	mov	edx, DWORD PTR _this$[ebp]
	mov	eax, DWORD PTR $T95894[ebp]
	mov	DWORD PTR [edx+92], eax

; 136  : 	   _isOk = 0;

	mov	eax, DWORD PTR _this$[ebp]
	mov	DWORD PTR [eax+96], 0

; 137  : 	   theFileName = lpszPathName;

	mov	eax, DWORD PTR _lpszPathName$[ebp]
	push	eax
	mov	ecx, DWORD PTR _this$[ebp]
	add	ecx, 88					; 00000058H
	call	DWORD PTR __imp_??4?$CStringT@DV?$StrTraitMFC_DLL@DV?$ChTraitsCRT@D@ATL@@@@@ATL@@QAEAAV01@PBD@Z
$L95511:

; 138  :        }
; 139  : 	
; 140  : 	if ( !theDataPtr->read( (char *)lpszPathName, -1 ) )

	push	-1
	mov	eax, DWORD PTR _lpszPathName$[ebp]
	push	eax
	mov	ecx, DWORD PTR _this$[ebp]
	mov	ecx, DWORD PTR [ecx+92]
	call	?read@GraphData@@QAEFPADF@Z		; GraphData::read
	movsx	edx, ax
	test	edx, edx
	jne	SHORT $L95522

; 141  : 	   return FALSE;

	xor	eax, eax
	jmp	SHORT $L95508
$L95522:

; 142  : 	_isOk = 1;

	mov	eax, DWORD PTR _this$[ebp]
	mov	DWORD PTR [eax+96], 1

; 143  : 	UpdateAllViews(NULL);

	push	0
	push	0
	push	0
	mov	ecx, DWORD PTR _this$[ebp]
	call	?UpdateAllViews@CDocument@@QAEXPAVCView@@JPAVCObject@@@Z ; CDocument::UpdateAllViews

; 144  : 	return TRUE;

	mov	eax, 1
$L95508:

; 145  : 
; 146  : }

	mov	ecx, DWORD PTR __$EHRec$[ebp]
	mov	DWORD PTR fs:__except_list, ecx
	pop	edi
	pop	esi
	pop	ebx
	mov	esp, ebp
	pop	ebp
	ret	4
_TEXT	ENDS
;	COMDAT text$x
text$x	SEGMENT
__unwindfunclet$?OnOpenDocument@CAstrographDoc@@UAEHPBD@Z$0:
	mov	eax, DWORD PTR ?__LINE__Var@?1??OnOpenDocument@CAstrographDoc@@UAEHPBD@Z@4JA
	add	eax, 5
	push	eax
	push	OFFSET FLAT:_THIS_FILE
	mov	ecx, DWORD PTR $T95895[ebp]
	push	ecx
	call	??3@YAXPAXPBDH@Z			; operator delete
	add	esp, 12					; 0000000cH
	ret	0
__ehhandler$?OnOpenDocument@CAstrographDoc@@UAEHPBD@Z:
	mov	eax, OFFSET FLAT:__ehfuncinfo$?OnOpenDocument@CAstrographDoc@@UAEHPBD@Z
	jmp	___CxxFrameHandler
text$x	ENDS
?OnOpenDocument@CAstrographDoc@@UAEHPBD@Z ENDP		; CAstrographDoc::OnOpenDocument
EXTRN	?SetPathName@CDocument@@UAEXPBDH@Z:NEAR		; CDocument::SetPathName
; Function compile flags: /Odt /ZI
;	COMDAT ?SetPathName@CAstrographDoc@@UAEXPBDH@Z
_TEXT	SEGMENT
_this$ = -4						; size = 4
_lpszPathName$ = 8					; size = 4
_bAddToMRU$ = 12					; size = 4
?SetPathName@CAstrographDoc@@UAEXPBDH@Z PROC NEAR	; CAstrographDoc::SetPathName, COMDAT
; _this$ = ecx

; 149  : {

	push	ebp
	mov	ebp, esp
	sub	esp, 68					; 00000044H
	push	ebx
	push	esi
	push	edi
	mov	DWORD PTR _this$[ebp], ecx

; 150  : 	// TODO: Add your specialized code here and/or call the base class
; 151  : 	if ( !strcmpi(lpszPathName,".ASGRA") )

	push	OFFSET FLAT:??_C@_06MGDPOKIM@?4ASGRA?$AA@
	mov	eax, DWORD PTR _lpszPathName$[ebp]
	push	eax
	call	DWORD PTR __imp__strcmpi
	add	esp, 8
	test	eax, eax
	jne	SHORT $L95528

; 152  : 		return;

	jmp	SHORT $L95527
$L95528:

; 153  : 	CDocument::SetPathName(lpszPathName, bAddToMRU);

	mov	eax, DWORD PTR _bAddToMRU$[ebp]
	push	eax
	mov	ecx, DWORD PTR _lpszPathName$[ebp]
	push	ecx
	mov	ecx, DWORD PTR _this$[ebp]
	call	?SetPathName@CDocument@@UAEXPBDH@Z	; CDocument::SetPathName
$L95527:

; 154  : }

	pop	edi
	pop	esi
	pop	ebx
	mov	esp, ebp
	pop	ebp
	ret	8
?SetPathName@CAstrographDoc@@UAEXPBDH@Z ENDP		; CAstrographDoc::SetPathName
_TEXT	ENDS
PUBLIC	?__LINE__Var@?1??SetFileDB@CAstrographDoc@@QAEXPAUXPFILE_DB@@@Z@4JA ; `CAstrographDoc::SetFileDB'::`2'::__LINE__Var
PUBLIC	?SetFileDB@CAstrographDoc@@QAEXPAUXPFILE_DB@@@Z	; CAstrographDoc::SetFileDB
;	COMDAT xdata$x
xdata$x	SEGMENT
__unwindtable$?SetFileDB@CAstrographDoc@@QAEXPAUXPFILE_DB@@@Z DD 0ffffffffH
	DD	FLAT:__unwindfunclet$?SetFileDB@CAstrographDoc@@QAEXPAUXPFILE_DB@@@Z$0
__ehfuncinfo$?SetFileDB@CAstrographDoc@@QAEXPAUXPFILE_DB@@@Z DD 019930520H
	DD	01H
	DD	FLAT:__unwindtable$?SetFileDB@CAstrographDoc@@QAEXPAUXPFILE_DB@@@Z
	DD	2 DUP(00H)
	DD	2 DUP(00H)
xdata$x	ENDS
;	COMDAT ?__LINE__Var@?1??SetFileDB@CAstrographDoc@@QAEXPAUXPFILE_DB@@@Z@4JA
_DATA	SEGMENT
?__LINE__Var@?1??SetFileDB@CAstrographDoc@@QAEXPAUXPFILE_DB@@@Z@4JA DD 09dH ; `CAstrographDoc::SetFileDB'::`2'::__LINE__Var
; Function compile flags: /Odt /ZI
_DATA	ENDS
;	COMDAT ?SetFileDB@CAstrographDoc@@QAEXPAUXPFILE_DB@@@Z
_TEXT	SEGMENT
tv86 = -100						; size = 4
tv71 = -100						; size = 4
$T95909 = -96						; size = 4
$T95910 = -92						; size = 4
$T95913 = -88						; size = 4
$T95914 = -84						; size = 4
_this$ = -16						; size = 4
__$EHRec$ = -12						; size = 12
_ptr$ = 8						; size = 4
?SetFileDB@CAstrographDoc@@QAEXPAUXPFILE_DB@@@Z PROC NEAR ; CAstrographDoc::SetFileDB, COMDAT
; _this$ = ecx

; 157  : {

	push	ebp
	mov	ebp, esp
	push	-1
	push	__ehhandler$?SetFileDB@CAstrographDoc@@QAEXPAUXPFILE_DB@@@Z
	mov	eax, DWORD PTR fs:__except_list
	push	eax
	mov	DWORD PTR fs:__except_list, esp
	sub	esp, 88					; 00000058H
	push	ebx
	push	esi
	push	edi
	mov	DWORD PTR _this$[ebp], ecx

; 158  :  if ( theDataPtr != 0 ) {

	mov	eax, DWORD PTR _this$[ebp]
	cmp	DWORD PTR [eax+92], 0
	je	$L95533

; 159  :     delete theDataPtr;

	mov	eax, DWORD PTR _this$[ebp]
	mov	ecx, DWORD PTR [eax+92]
	mov	DWORD PTR $T95910[ebp], ecx
	mov	edx, DWORD PTR $T95910[ebp]
	mov	DWORD PTR $T95909[ebp], edx
	cmp	DWORD PTR $T95909[ebp], 0
	je	SHORT $L95911
	push	1
	mov	ecx, DWORD PTR $T95909[ebp]
	call	??_GGraphData@@QAEPAXI@Z
	mov	DWORD PTR tv71[ebp], eax
	jmp	SHORT $L95912
$L95911:
	mov	DWORD PTR tv71[ebp], 0
$L95912:

; 160  :     theDataPtr = new GraphData();

	mov	eax, DWORD PTR ?__LINE__Var@?1??SetFileDB@CAstrographDoc@@QAEXPAUXPFILE_DB@@@Z@4JA
	add	eax, 3
	push	eax
	push	OFFSET FLAT:_THIS_FILE
	push	432					; 000001b0H
	call	??2@YAPAXIPBDH@Z			; operator new
	add	esp, 12					; 0000000cH
	mov	DWORD PTR $T95914[ebp], eax
	mov	DWORD PTR __$EHRec$[ebp+8], 0
	cmp	DWORD PTR $T95914[ebp], 0
	je	SHORT $L95915
	mov	ecx, DWORD PTR $T95914[ebp]
	call	??0GraphData@@QAE@XZ			; GraphData::GraphData
	mov	DWORD PTR tv86[ebp], eax
	jmp	SHORT $L95916
$L95915:
	mov	DWORD PTR tv86[ebp], 0
$L95916:
	mov	ecx, DWORD PTR tv86[ebp]
	mov	DWORD PTR $T95913[ebp], ecx
	mov	DWORD PTR __$EHRec$[ebp+8], -1
	mov	edx, DWORD PTR _this$[ebp]
	mov	eax, DWORD PTR $T95913[ebp]
	mov	DWORD PTR [edx+92], eax

; 161  :     _isOk = 0;

	mov	eax, DWORD PTR _this$[ebp]
	mov	DWORD PTR [eax+96], 0

; 162  :     theFileName = ptr->file_name;

	mov	eax, DWORD PTR _ptr$[ebp]
	add	eax, 102				; 00000066H
	push	eax
	mov	ecx, DWORD PTR _this$[ebp]
	add	ecx, 88					; 00000058H
	call	DWORD PTR __imp_??4?$CStringT@DV?$StrTraitMFC_DLL@DV?$ChTraitsCRT@D@ATL@@@@@ATL@@QAEAAV01@PBD@Z
$L95533:

; 163  :     }
; 164  :  if ( !theDataPtr->read( ptr->file_name, ptr->folder ) )

	mov	eax, DWORD PTR _ptr$[ebp]
	mov	cx, WORD PTR [eax+366]
	push	ecx
	mov	edx, DWORD PTR _ptr$[ebp]
	add	edx, 102				; 00000066H
	push	edx
	mov	eax, DWORD PTR _this$[ebp]
	mov	ecx, DWORD PTR [eax+92]
	call	?read@GraphData@@QAEFPADF@Z		; GraphData::read
	movsx	ecx, ax
	test	ecx, ecx
	jne	SHORT $L95543

; 165  :    return;

	jmp	SHORT $L95532
$L95543:

; 166  : _isOk = 1;

	mov	eax, DWORD PTR _this$[ebp]
	mov	DWORD PTR [eax+96], 1

; 167  : UpdateAllViews(NULL);

	push	0
	push	0
	push	0
	mov	ecx, DWORD PTR _this$[ebp]
	call	?UpdateAllViews@CDocument@@QAEXPAVCView@@JPAVCObject@@@Z ; CDocument::UpdateAllViews
$L95532:

; 168  : }

	mov	ecx, DWORD PTR __$EHRec$[ebp]
	mov	DWORD PTR fs:__except_list, ecx
	pop	edi
	pop	esi
	pop	ebx
	mov	esp, ebp
	pop	ebp
	ret	4
_TEXT	ENDS
;	COMDAT text$x
text$x	SEGMENT
__unwindfunclet$?SetFileDB@CAstrographDoc@@QAEXPAUXPFILE_DB@@@Z$0:
	mov	eax, DWORD PTR ?__LINE__Var@?1??SetFileDB@CAstrographDoc@@QAEXPAUXPFILE_DB@@@Z@4JA
	add	eax, 3
	push	eax
	push	OFFSET FLAT:_THIS_FILE
	mov	ecx, DWORD PTR $T95914[ebp]
	push	ecx
	call	??3@YAXPAXPBDH@Z			; operator delete
	add	esp, 12					; 0000000cH
	ret	0
__ehhandler$?SetFileDB@CAstrographDoc@@QAEXPAUXPFILE_DB@@@Z:
	mov	eax, OFFSET FLAT:__ehfuncinfo$?SetFileDB@CAstrographDoc@@QAEXPAUXPFILE_DB@@@Z
	jmp	___CxxFrameHandler
text$x	ENDS
?SetFileDB@CAstrographDoc@@QAEXPAUXPFILE_DB@@@Z ENDP	; CAstrographDoc::SetFileDB
; Function compile flags: /Odt /ZI
;	COMDAT ?CanCloseFrame@CAstrographDoc@@UAEHPAVCFrameWnd@@@Z
_TEXT	SEGMENT
_this$ = -4						; size = 4
_pFrame$ = 8						; size = 4
?CanCloseFrame@CAstrographDoc@@UAEHPAVCFrameWnd@@@Z PROC NEAR ; CAstrographDoc::CanCloseFrame, COMDAT
; _this$ = ecx

; 171  : {

	push	ebp
	mov	ebp, esp
	sub	esp, 68					; 00000044H
	push	ebx
	push	esi
	push	edi
	mov	DWORD PTR _this$[ebp], ecx

; 172  : 	// TODO: Add your specialized code here and/or call the base class
; 173  : 	
; 174  : 	return CanClose;

	mov	eax, DWORD PTR _this$[ebp]
	mov	eax, DWORD PTR [eax+84]

; 175  : }

	pop	edi
	pop	esi
	pop	ebx
	mov	esp, ebp
	pop	ebp
	ret	4
?CanCloseFrame@CAstrographDoc@@UAEHPAVCFrameWnd@@@Z ENDP ; CAstrographDoc::CanCloseFrame
_TEXT	ENDS
PUBLIC	?__LINE__Var@?1??DoNextFile@CAstrographDoc@@QAEXXZ@4JA ; `CAstrographDoc::DoNextFile'::`2'::__LINE__Var
PUBLIC	?DoNextFile@CAstrographDoc@@QAEXXZ		; CAstrographDoc::DoNextFile
EXTRN	??ACStringArray@@QAEAAV?$CStringT@DV?$StrTraitMFC_DLL@DV?$ChTraitsCRT@D@ATL@@@@@ATL@@H@Z:NEAR ; CStringArray::operator[]
EXTRN	__imp_??B?$CSimpleStringT@D$00@ATL@@QBEPBDXZ:NEAR
EXTRN	?AfxAssertFailedLine@@YGHPBDH@Z:NEAR		; AfxAssertFailedLine
;	COMDAT ?__LINE__Var@?1??DoNextFile@CAstrographDoc@@QAEXXZ@4JA
_DATA	SEGMENT
?__LINE__Var@?1??DoNextFile@CAstrographDoc@@QAEXXZ@4JA DD 0b3H ; `CAstrographDoc::DoNextFile'::`2'::__LINE__Var
; Function compile flags: /Odt /ZI
_DATA	ENDS
;	COMDAT ?DoNextFile@CAstrographDoc@@QAEXXZ
_TEXT	SEGMENT
tv94 = -72						; size = 4
_this$ = -4						; size = 4
?DoNextFile@CAstrographDoc@@QAEXXZ PROC NEAR		; CAstrographDoc::DoNextFile, COMDAT
; _this$ = ecx

; 179  : {

	push	ebp
	mov	ebp, esp
	sub	esp, 72					; 00000048H
	push	ebx
	push	esi
	push	edi
	mov	DWORD PTR _this$[ebp], ecx

; 180  : ASSERT(pStringArray != NULL);

	mov	eax, DWORD PTR _this$[ebp]
	cmp	DWORD PTR [eax+108], 0
	jne	SHORT $L95928
	mov	ecx, DWORD PTR ?__LINE__Var@?1??DoNextFile@CAstrographDoc@@QAEXXZ@4JA
	add	ecx, 1
	push	ecx
	push	OFFSET FLAT:_THIS_FILE
	call	?AfxAssertFailedLine@@YGHPBDH@Z		; AfxAssertFailedLine
	test	eax, eax
	je	SHORT $L95928
	int	3
$L95928:

; 181  : ASSERT(file_no+1<=num_files);

	mov	eax, DWORD PTR _this$[ebp]
	mov	ecx, DWORD PTR [eax+104]
	add	ecx, 1
	mov	edx, DWORD PTR _this$[ebp]
	cmp	ecx, DWORD PTR [edx+100]
	jle	SHORT $L95929
	mov	eax, DWORD PTR ?__LINE__Var@?1??DoNextFile@CAstrographDoc@@QAEXXZ@4JA
	add	eax, 2
	push	eax
	push	OFFSET FLAT:_THIS_FILE
	call	?AfxAssertFailedLine@@YGHPBDH@Z		; AfxAssertFailedLine
	test	eax, eax
	je	SHORT $L95929
	int	3
$L95929:

; 182  : OnOpenDocument((*pStringArray)[file_no++]);

	mov	eax, DWORD PTR _this$[ebp]
	mov	ecx, DWORD PTR [eax+104]
	mov	DWORD PTR tv94[ebp], ecx
	mov	edx, DWORD PTR _this$[ebp]
	mov	eax, DWORD PTR [edx+104]
	add	eax, 1
	mov	ecx, DWORD PTR _this$[ebp]
	mov	DWORD PTR [ecx+104], eax
	mov	edx, DWORD PTR tv94[ebp]
	push	edx
	mov	eax, DWORD PTR _this$[ebp]
	mov	ecx, DWORD PTR [eax+108]
	call	??ACStringArray@@QAEAAV?$CStringT@DV?$StrTraitMFC_DLL@DV?$ChTraitsCRT@D@ATL@@@@@ATL@@H@Z ; CStringArray::operator[]
	mov	ecx, eax
	call	DWORD PTR __imp_??B?$CSimpleStringT@D$00@ATL@@QBEPBDXZ
	push	eax
	mov	ecx, DWORD PTR _this$[ebp]
	mov	edx, DWORD PTR [ecx]
	mov	ecx, DWORD PTR _this$[ebp]
	call	DWORD PTR [edx+124]

; 183  : }

	pop	edi
	pop	esi
	pop	ebx
	mov	esp, ebp
	pop	ebp
	ret	0
?DoNextFile@CAstrographDoc@@QAEXXZ ENDP			; CAstrographDoc::DoNextFile
_TEXT	ENDS
PUBLIC	?DoPrint@CAstrographDoc@@QAEXXZ			; CAstrographDoc::DoPrint
; Function compile flags: /Odt /ZI
;	COMDAT ?DoPrint@CAstrographDoc@@QAEXXZ
_TEXT	SEGMENT
_this$ = -4						; size = 4
?DoPrint@CAstrographDoc@@QAEXXZ PROC NEAR		; CAstrographDoc::DoPrint, COMDAT
; _this$ = ecx

; 186  : {

	push	ebp
	mov	ebp, esp
	sub	esp, 68					; 00000044H
	push	ebx
	push	esi
	push	edi
	mov	DWORD PTR _this$[ebp], ecx

; 187  : #ifndef GRAVIEWER
; 188  :  POSITION pos = GetFirstViewPosition();
; 189  :  CView* pFirstView = GetNextView( pos );
; 190  :  ((CAstrographView *)pFirstView)->DoPrint();
; 191  : #endif
; 192  : }

	pop	edi
	pop	esi
	pop	ebx
	mov	esp, ebp
	pop	ebp
	ret	0
?DoPrint@CAstrographDoc@@QAEXXZ ENDP			; CAstrographDoc::DoPrint
_TEXT	ENDS
PUBLIC	?DoExport@CAstrographView@@QAEXXZ		; CAstrographView::DoExport
PUBLIC	?HasMoreFiles@CAstrographDoc@@QAEHXZ		; CAstrographDoc::HasMoreFiles
PUBLIC	?DoExport@CAstrographDoc@@QAEXXZ		; CAstrographDoc::DoExport
; Function compile flags: /Odt /ZI
;	COMDAT ?DoExport@CAstrographDoc@@QAEXXZ
_TEXT	SEGMENT
_pFirstView$95565 = -16					; size = 4
_pos$95564 = -12					; size = 4
_cont$ = -8						; size = 4
_this$ = -4						; size = 4
?DoExport@CAstrographDoc@@QAEXXZ PROC NEAR		; CAstrographDoc::DoExport, COMDAT
; _this$ = ecx

; 195  : {

	push	ebp
	mov	ebp, esp
	sub	esp, 80					; 00000050H
	push	ebx
	push	esi
	push	edi
	mov	DWORD PTR _this$[ebp], ecx

; 196  :  int cont=0;

	mov	DWORD PTR _cont$[ebp], 0

; 197  : 
; 198  :  CanClose = 0;	

	mov	eax, DWORD PTR _this$[ebp]
	mov	DWORD PTR [eax+84], 0
$L95561:

; 199  :  do {
; 200  :     POSITION pos = GetFirstViewPosition();

	mov	eax, DWORD PTR _this$[ebp]
	mov	edx, DWORD PTR [eax]
	mov	ecx, DWORD PTR _this$[ebp]
	call	DWORD PTR [edx+104]
	mov	DWORD PTR _pos$95564[ebp], eax

; 201  : 	CView* pFirstView = GetNextView( pos );

	lea	eax, DWORD PTR _pos$95564[ebp]
	push	eax
	mov	ecx, DWORD PTR _this$[ebp]
	mov	edx, DWORD PTR [ecx]
	mov	ecx, DWORD PTR _this$[ebp]
	call	DWORD PTR [edx+108]
	mov	DWORD PTR _pFirstView$95565[ebp], eax

; 202  :     ((CAstrographView *)pFirstView)->DoExport();

	mov	ecx, DWORD PTR _pFirstView$95565[ebp]
	call	?DoExport@CAstrographView@@QAEXXZ	; CAstrographView::DoExport

; 203  : 	if ( HasMoreFiles() ) {

	mov	ecx, DWORD PTR _this$[ebp]
	call	?HasMoreFiles@CAstrographDoc@@QAEHXZ	; CAstrographDoc::HasMoreFiles
	test	eax, eax
	je	SHORT $L95567

; 204  : 		cont = 1;

	mov	DWORD PTR _cont$[ebp], 1

; 205  : 		DoNextFile();

	mov	ecx, DWORD PTR _this$[ebp]
	call	?DoNextFile@CAstrographDoc@@QAEXXZ	; CAstrographDoc::DoNextFile

; 206  : 		}
; 207  : 	else 

	jmp	SHORT $L95562
$L95567:

; 208  : 		cont = 0;

	mov	DWORD PTR _cont$[ebp], 0
$L95562:

; 209  : 	} while ( cont );

	cmp	DWORD PTR _cont$[ebp], 0
	jne	SHORT $L95561

; 210  :  CanClose = 1;

	mov	eax, DWORD PTR _this$[ebp]
	mov	DWORD PTR [eax+84], 1

; 211  : }

	pop	edi
	pop	esi
	pop	ebx
	mov	esp, ebp
	pop	ebp
	ret	0
?DoExport@CAstrographDoc@@QAEXXZ ENDP			; CAstrographDoc::DoExport
; Function compile flags: /Odt /ZI
; File c:\astrow32dev\astrow32\astrograph\astrographdoc.h
_TEXT	ENDS
;	COMDAT ?HasMoreFiles@CAstrographDoc@@QAEHXZ
_TEXT	SEGMENT
_this$ = -4						; size = 4
?HasMoreFiles@CAstrographDoc@@QAEHXZ PROC NEAR		; CAstrographDoc::HasMoreFiles, COMDAT
; _this$ = ecx

; 19   : 	int HasMoreFiles() { if (file_no < num_files ) return 1; else return 0;}

	push	ebp
	mov	ebp, esp
	sub	esp, 68					; 00000044H
	push	ebx
	push	esi
	push	edi
	mov	DWORD PTR _this$[ebp], ecx
	mov	eax, DWORD PTR _this$[ebp]
	mov	ecx, DWORD PTR _this$[ebp]
	mov	edx, DWORD PTR [eax+104]
	cmp	edx, DWORD PTR [ecx+100]
	jge	SHORT $L91537
	mov	eax, 1
	jmp	SHORT $L91536
$L91537:
	xor	eax, eax
$L91536:
	pop	edi
	pop	esi
	pop	ebx
	mov	esp, ebp
	pop	ebp
	ret	0
?HasMoreFiles@CAstrographDoc@@QAEHXZ ENDP		; CAstrographDoc::HasMoreFiles
_TEXT	ENDS
EXTRN	?OnFileExport@CAstrographView@@IAEXXZ:NEAR	; CAstrographView::OnFileExport
; Function compile flags: /Odt /ZI
; File c:\astrow32dev\astrow32\astrograph\astrographview.h
;	COMDAT ?DoExport@CAstrographView@@QAEXXZ
_TEXT	SEGMENT
_this$ = -4						; size = 4
?DoExport@CAstrographView@@QAEXXZ PROC NEAR		; CAstrographView::DoExport, COMDAT
; _this$ = ecx

; 24   : 	void DoExport() { OnFileExport();}

	push	ebp
	mov	ebp, esp
	sub	esp, 68					; 00000044H
	push	ebx
	push	esi
	push	edi
	mov	DWORD PTR _this$[ebp], ecx
	mov	ecx, DWORD PTR _this$[ebp]
	call	?OnFileExport@CAstrographView@@IAEXXZ	; CAstrographView::OnFileExport
	pop	edi
	pop	esi
	pop	ebx
	mov	esp, ebp
	pop	ebp
	ret	0
?DoExport@CAstrographView@@QAEXXZ ENDP			; CAstrographView::DoExport
_TEXT	ENDS
END
