; Listing generated by Microsoft (R) Optimizing Compiler Version 13.10.3077 

	TITLE	.\ArrayEdit.cpp
	.386P
include listing.inc
if @Version gt 510
.model FLAT
else
_TEXT	SEGMENT PARA USE32 PUBLIC 'CODE'
_TEXT	ENDS
_DATA	SEGMENT DWORD USE32 PUBLIC 'DATA'
_DATA	ENDS
CONST	SEGMENT DWORD USE32 PUBLIC 'CONST'
CONST	ENDS
_BSS	SEGMENT DWORD USE32 PUBLIC 'BSS'
_BSS	ENDS
$$SYMBOLS	SEGMENT BYTE USE32 'DEBSYM'
$$SYMBOLS	ENDS
$$TYPES	SEGMENT BYTE USE32 'DEBTYP'
$$TYPES	ENDS
_TLS	SEGMENT DWORD USE32 PUBLIC 'TLS'
_TLS	ENDS
;	COMDAT ??_C@_0L@LDGEMALF@CArrayEdit?$AA@
CONST	SEGMENT DWORD USE32 PUBLIC 'CONST'
CONST	ENDS
;	COMDAT ??_C@_05ECMNLKDI@?$CF?$FL?$FO?9?$FN?$AA@
CONST	SEGMENT DWORD USE32 PUBLIC 'CONST'
CONST	ENDS
;	COMDAT ??_C@_0FM@HGLAIJD@select?5?$CK?5from?5ReportText?5where?5t@
CONST	SEGMENT DWORD USE32 PUBLIC 'CONST'
CONST	ENDS
;	COMDAT ??_C@_0BC@PNMIDJEG@Error?5on?5Database?$AA@
CONST	SEGMENT DWORD USE32 PUBLIC 'CONST'
CONST	ENDS
;	COMDAT ??_C@_0FM@IILOLICC@select?5?$CK?5from?5ReportText?5where?5t@
CONST	SEGMENT DWORD USE32 PUBLIC 'CONST'
CONST	ENDS
;	COMDAT ??_C@_0BI@GIMJKKKN@AtlIsValidString?$CI?5psz?5?$CJ?$AA@
CONST	SEGMENT DWORD USE32 PUBLIC 'CONST'
CONST	ENDS
;	COMDAT ??_C@_0BK@JOOHECM@nNewLength?5?$DM?$DN?5GetLength?$CI?$CJ?$AA@
CONST	SEGMENT DWORD USE32 PUBLIC 'CONST'
CONST	ENDS
;	COMDAT ??0CSymbol@@QAE@XZ
_TEXT	SEGMENT PARA USE32 PUBLIC 'CODE'
_TEXT	ENDS
;	COMDAT ??1CSymbol@@QAE@XZ
_TEXT	SEGMENT PARA USE32 PUBLIC 'CODE'
_TEXT	ENDS
;	COMDAT ??0CRSymbol@@QAE@XZ
_TEXT	SEGMENT PARA USE32 PUBLIC 'CODE'
_TEXT	ENDS
;	COMDAT ??1CRSymbol@@QAE@XZ
_TEXT	SEGMENT PARA USE32 PUBLIC 'CODE'
_TEXT	ENDS
;	COMDAT ??0CSymbolAry@@QAE@H@Z
_TEXT	SEGMENT PARA USE32 PUBLIC 'CODE'
_TEXT	ENDS
;	COMDAT ??1CSymbolAry@@QAE@XZ
_TEXT	SEGMENT PARA USE32 PUBLIC 'CODE'
_TEXT	ENDS
;	COMDAT ??_ECSymbol@@QAEPAXI@Z
_TEXT	SEGMENT PARA USE32 PUBLIC 'CODE'
_TEXT	ENDS
;	COMDAT ??_ECRSymbol@@QAEPAXI@Z
_TEXT	SEGMENT PARA USE32 PUBLIC 'CODE'
_TEXT	ENDS
;	COMDAT ?GetRuntimeClass@CArrayEdit@@UBEPAUCRuntimeClass@@XZ
_TEXT	SEGMENT PARA USE32 PUBLIC 'CODE'
_TEXT	ENDS
;	COMDAT ??0CArrayEdit@@QAE@PAVCWnd@@@Z
_TEXT	SEGMENT PARA USE32 PUBLIC 'CODE'
_TEXT	ENDS
;	COMDAT ??_GCArrayEdit@@UAEPAXI@Z
_TEXT	SEGMENT PARA USE32 PUBLIC 'CODE'
_TEXT	ENDS
;	COMDAT ??1CArrayEdit@@UAE@XZ
_TEXT	SEGMENT PARA USE32 PUBLIC 'CODE'
_TEXT	ENDS
;	COMDAT ?DoDataExchange@CArrayEdit@@MAEXPAVCDataExchange@@@Z
_TEXT	SEGMENT PARA USE32 PUBLIC 'CODE'
_TEXT	ENDS
;	COMDAT ?GetMessageMap@CArrayEdit@@MBEPBUAFX_MSGMAP@@XZ
_TEXT	SEGMENT PARA USE32 PUBLIC 'CODE'
_TEXT	ENDS
;	COMDAT ?OnBnClickedDelete@CArrayEdit@@QAEXXZ
_TEXT	SEGMENT PARA USE32 PUBLIC 'CODE'
_TEXT	ENDS
;	COMDAT ?OnBnClickedAdd@CArrayEdit@@QAEXXZ
_TEXT	SEGMENT PARA USE32 PUBLIC 'CODE'
_TEXT	ENDS
;	COMDAT ?OnCbnSelchangeCombo1@CArrayEdit@@QAEXXZ
_TEXT	SEGMENT PARA USE32 PUBLIC 'CODE'
_TEXT	ENDS
;	COMDAT ?OnLbnSelchangeList1@CArrayEdit@@QAEXXZ
_TEXT	SEGMENT PARA USE32 PUBLIC 'CODE'
_TEXT	ENDS
;	COMDAT ?OnInitDialog@CArrayEdit@@UAEHXZ
_TEXT	SEGMENT PARA USE32 PUBLIC 'CODE'
_TEXT	ENDS
;	COMDAT ?OnOK@CArrayEdit@@MAEXXZ
_TEXT	SEGMENT PARA USE32 PUBLIC 'CODE'
_TEXT	ENDS
;	COMDAT ?DoSave@CArrayEdit@@IAEXXZ
_TEXT	SEGMENT PARA USE32 PUBLIC 'CODE'
_TEXT	ENDS
;	COMDAT ??1CDReportText@@UAE@XZ
_TEXT	SEGMENT PARA USE32 PUBLIC 'CODE'
_TEXT	ENDS
;	COMDAT ?FillList@CArrayEdit@@IAEXAAV?$CStringT@DV?$StrTraitMFC@DV?$ChTraitsCRT@D@ATL@@@@@ATL@@@Z
_TEXT	SEGMENT PARA USE32 PUBLIC 'CODE'
_TEXT	ENDS
;	COMDAT ?OnBnClickedInsert@CArrayEdit@@QAEXXZ
_TEXT	SEGMENT PARA USE32 PUBLIC 'CODE'
_TEXT	ENDS
;	COMDAT ??4?$CStringT@DV?$StrTraitMFC@DV?$ChTraitsCRT@D@ATL@@@@@ATL@@QAEAAV01@ABV01@@Z
_TEXT	SEGMENT PARA USE32 PUBLIC 'CODE'
_TEXT	ENDS
;	COMDAT ?Trim@?$CStringT@DV?$StrTraitMFC@DV?$ChTraitsCRT@D@ATL@@@@@ATL@@QAEAAV12@XZ
_TEXT	SEGMENT PARA USE32 PUBLIC 'CODE'
_TEXT	ENDS
;	COMDAT ??9ATL@@YA_NABV?$CStringT@DV?$StrTraitMFC@DV?$ChTraitsCRT@D@ATL@@@@@0@0@Z
_TEXT	SEGMENT PARA USE32 PUBLIC 'CODE'
_TEXT	ENDS
;	COMDAT ?Compare@?$CStringT@DV?$StrTraitMFC@DV?$ChTraitsCRT@D@ATL@@@@@ATL@@QBEHPBD@Z
_TEXT	SEGMENT PARA USE32 PUBLIC 'CODE'
_TEXT	ENDS
;	COMDAT ?TrimRight@?$CStringT@DV?$StrTraitMFC@DV?$ChTraitsCRT@D@ATL@@@@@ATL@@QAEAAV12@XZ
_TEXT	SEGMENT PARA USE32 PUBLIC 'CODE'
_TEXT	ENDS
;	COMDAT ?TrimLeft@?$CStringT@DV?$StrTraitMFC@DV?$ChTraitsCRT@D@ATL@@@@@ATL@@QAEAAV12@XZ
_TEXT	SEGMENT PARA USE32 PUBLIC 'CODE'
_TEXT	ENDS
;	COMDAT ??4?$CSimpleStringT@D$0A@@ATL@@QAEAAV01@ABV01@@Z
_TEXT	SEGMENT PARA USE32 PUBLIC 'CODE'
_TEXT	ENDS
;	COMDAT ?Truncate@?$CSimpleStringT@D$0A@@ATL@@QAEXH@Z
_TEXT	SEGMENT PARA USE32 PUBLIC 'CODE'
_TEXT	ENDS
;	COMDAT ?CharNextA@?$ChTraitsCRT@D@ATL@@SAPADPBD@Z
_TEXT	SEGMENT PARA USE32 PUBLIC 'CODE'
_TEXT	ENDS
;	COMDAT ?IsSpace@?$ChTraitsCRT@D@ATL@@SAHD@Z
_TEXT	SEGMENT PARA USE32 PUBLIC 'CODE'
_TEXT	ENDS
;	COMDAT ?StringCompare@?$ChTraitsCRT@D@ATL@@SAHPBD0@Z
_TEXT	SEGMENT PARA USE32 PUBLIC 'CODE'
_TEXT	ENDS
;	COMDAT ??_C@_0FD@JDCNPMMG@c?3?2program?5files?2microsoft?5visua@
CONST	SEGMENT DWORD USE32 PUBLIC 'CONST'
CONST	ENDS
;	COMDAT ?Attach@?$CSimpleStringT@D$0A@@ATL@@AAEXPAUCStringData@2@@Z
_TEXT	SEGMENT PARA USE32 PUBLIC 'CODE'
_TEXT	ENDS
;	COMDAT ?data@CStringData@ATL@@QAEPAXXZ
_TEXT	SEGMENT PARA USE32 PUBLIC 'CODE'
_TEXT	ENDS
;	COMDAT ?Release@CStringData@ATL@@QAEXXZ
_TEXT	SEGMENT PARA USE32 PUBLIC 'CODE'
_TEXT	ENDS
;	COMDAT ??_C@_0L@OIIMFBNE@nRefs?5?$CB?$DN?50?$AA@
CONST	SEGMENT DWORD USE32 PUBLIC 'CONST'
CONST	ENDS
;	COMDAT ?CloneData@?$CSimpleStringT@D$0A@@ATL@@CAPAUCStringData@2@PAU32@@Z
_TEXT	SEGMENT PARA USE32 PUBLIC 'CODE'
_TEXT	ENDS
;	COMDAT ?AddRef@CStringData@ATL@@QAEXXZ
_TEXT	SEGMENT PARA USE32 PUBLIC 'CODE'
_TEXT	ENDS
;	COMDAT ??_C@_09EEBKLCFA@nRefs?5?$DO?50?$AA@
CONST	SEGMENT DWORD USE32 PUBLIC 'CONST'
CONST	ENDS
;	COMDAT ?ThrowMemoryException@?$CSimpleStringT@D$0A@@ATL@@KAXXZ
_TEXT	SEGMENT PARA USE32 PUBLIC 'CODE'
_TEXT	ENDS
;	COMDAT ?AtlThrow@ATL@@YGXJ@Z
_TEXT	SEGMENT PARA USE32 PUBLIC 'CODE'
_TEXT	ENDS
;	COMDAT ??RCTraceFileAndLineInfo@ATL@@QBAXKIPBDZZ
_TEXT	SEGMENT PARA USE32 PUBLIC 'CODE'
_TEXT	ENDS
;	COMDAT ?TraceV@CTrace@ATL@@QBAXPBDHKI0PAD@Z
_TEXT	SEGMENT PARA USE32 PUBLIC 'CODE'
_TEXT	ENDS
;	COMDAT ??0CTraceFileAndLineInfo@ATL@@QAE@PBDH@Z
_TEXT	SEGMENT PARA USE32 PUBLIC 'CODE'
_TEXT	ENDS
;	COMDAT ?__LINE__Var@?1??AtlThrow@ATL@@YGXJ@Z@4JA
_DATA	SEGMENT DWORD USE32 PUBLIC 'DATA'
_DATA	ENDS
;	COMDAT ??_C@_0FC@IPKABFFL@c?3?2program?5files?2microsoft?5visua@
CONST	SEGMENT DWORD USE32 PUBLIC 'CONST'
CONST	ENDS
;	COMDAT ??_C@_0BF@IAAKIJDJ@AtlThrow?3?5hr?5?$DN?50x?$CFx?6?$AA@
CONST	SEGMENT DWORD USE32 PUBLIC 'CONST'
CONST	ENDS
;	COMDAT ??BCTraceCategory@ATL@@QBEKXZ
_TEXT	SEGMENT PARA USE32 PUBLIC 'CODE'
_TEXT	ENDS
;	COMDAT ?CopyChars@?$CSimpleStringT@D$0A@@ATL@@SAXPADPBDH@Z
_TEXT	SEGMENT PARA USE32 PUBLIC 'CODE'
_TEXT	ENDS
;	COMDAT ?SetString@?$CSimpleStringT@D$0A@@ATL@@QAEXPBDH@Z
_TEXT	SEGMENT PARA USE32 PUBLIC 'CODE'
_TEXT	ENDS
;	COMDAT ?Empty@?$CSimpleStringT@D$0A@@ATL@@QAEXXZ
_TEXT	SEGMENT PARA USE32 PUBLIC 'CODE'
_TEXT	ENDS
;	COMDAT ?SetLength@?$CSimpleStringT@D$0A@@ATL@@AAEXH@Z
_TEXT	SEGMENT PARA USE32 PUBLIC 'CODE'
_TEXT	ENDS
;	COMDAT ??_C@_0N@ILOMLJGA@nLength?5?$DO?$DN?50?$AA@
CONST	SEGMENT DWORD USE32 PUBLIC 'CONST'
CONST	ENDS
;	COMDAT ??_C@_0CD@EEFFJEGJ@nLength?5?$DM?$DN?5GetData?$CI?$CJ?9?$DOnAllocLeng@
CONST	SEGMENT DWORD USE32 PUBLIC 'CONST'
CONST	ENDS
;	COMDAT ?CopyCharsOverlapped@?$CSimpleStringT@D$0A@@ATL@@SAXPADPBDH@Z
_TEXT	SEGMENT PARA USE32 PUBLIC 'CODE'
_TEXT	ENDS
;	COMDAT ?IsLocked@CStringData@ATL@@QBE_NXZ
_TEXT	SEGMENT PARA USE32 PUBLIC 'CODE'
_TEXT	ENDS
;	COMDAT ?GetData@?$CSimpleStringT@D$0A@@ATL@@ABEPAUCStringData@2@XZ
_TEXT	SEGMENT PARA USE32 PUBLIC 'CODE'
_TEXT	ENDS
;	COMDAT ?ReleaseBufferSetLength@?$CSimpleStringT@D$0A@@ATL@@QAEXH@Z
_TEXT	SEGMENT PARA USE32 PUBLIC 'CODE'
_TEXT	ENDS
;	COMDAT ??_C@_0BA@GNIEOBOF@nNewLength?5?$DO?$DN?50?$AA@
CONST	SEGMENT DWORD USE32 PUBLIC 'CONST'
CONST	ENDS
;	COMDAT ?GetBuffer@?$CSimpleStringT@D$0A@@ATL@@QAEPADH@Z
_TEXT	SEGMENT PARA USE32 PUBLIC 'CODE'
_TEXT	ENDS
;	COMDAT ?PrepareWrite@?$CSimpleStringT@D$0A@@ATL@@AAEPADH@Z
_TEXT	SEGMENT PARA USE32 PUBLIC 'CODE'
_TEXT	ENDS
;	COMDAT ?PrepareWrite2@?$CSimpleStringT@D$0A@@ATL@@AAEXH@Z
_TEXT	SEGMENT PARA USE32 PUBLIC 'CODE'
_TEXT	ENDS
;	COMDAT ?IsShared@CStringData@ATL@@QBE_NXZ
_TEXT	SEGMENT PARA USE32 PUBLIC 'CODE'
_TEXT	ENDS
;	COMDAT ?Fork@?$CSimpleStringT@D$0A@@ATL@@AAEXH@Z
_TEXT	SEGMENT PARA USE32 PUBLIC 'CODE'
_TEXT	ENDS
;	COMDAT ?Reallocate@?$CSimpleStringT@D$0A@@ATL@@AAEXH@Z
_TEXT	SEGMENT PARA USE32 PUBLIC 'CODE'
_TEXT	ENDS
;	COMDAT ??_C@_0CB@GFHAPKDK@pOldData?9?$DOnAllocLength?5?$DM?5nLength@
CONST	SEGMENT DWORD USE32 PUBLIC 'CONST'
CONST	ENDS
;	COMDAT ?GetString@?$CSimpleStringT@D$0A@@ATL@@QBEPBDXZ
_TEXT	SEGMENT PARA USE32 PUBLIC 'CODE'
_TEXT	ENDS
;	COMDAT ??_C@_0FB@BCKJDECD@c?3?2program?5files?2microsoft?5visua@
CONST	SEGMENT DWORD USE32 PUBLIC 'CONST'
CONST	ENDS
;	COMDAT ?AtlIsValidString@ATL@@YAHPBDI@Z
_TEXT	SEGMENT PARA USE32 PUBLIC 'CODE'
_TEXT	ENDS
;	COMDAT ??_R0PAVCDaoException@@@8
_DATA	SEGMENT DWORD USE32 PUBLIC 'DATA'
_DATA	ENDS
;	COMDAT ??0?$CStringT@DV?$StrTraitMFC@DV?$ChTraitsCRT@D@ATL@@@@@ATL@@QAE@ABV01@@Z
_TEXT	SEGMENT PARA USE32 PUBLIC 'CODE'
_TEXT	ENDS
;	COMDAT ??0?$CSimpleStringT@D$0A@@ATL@@QAE@ABV01@@Z
_TEXT	SEGMENT PARA USE32 PUBLIC 'CODE'
_TEXT	ENDS
;	COMDAT ??1?$CSimpleStringT@D$0A@@ATL@@QAE@XZ
_TEXT	SEGMENT PARA USE32 PUBLIC 'CODE'
_TEXT	ENDS
;	COMDAT ??B?$CSimpleStringT@D$0A@@ATL@@QBEPBDXZ
_TEXT	SEGMENT PARA USE32 PUBLIC 'CODE'
_TEXT	ENDS
;	COMDAT ?GetLength@?$CSimpleStringT@D$0A@@ATL@@QBEHXZ
_TEXT	SEGMENT PARA USE32 PUBLIC 'CODE'
_TEXT	ENDS
;	COMDAT ?_messageEntries@CArrayEdit@@0QBUAFX_MSGMAP_ENTRY@@B
CONST	SEGMENT DWORD USE32 PUBLIC 'CONST'
CONST	ENDS
;	COMDAT ?messageMap@CArrayEdit@@1UAFX_MSGMAP@@B
CONST	SEGMENT DWORD USE32 PUBLIC 'CONST'
CONST	ENDS
;	COMDAT ??_C@_00CNPNBAHC@?$AA@
CONST	SEGMENT DWORD USE32 PUBLIC 'CONST'
CONST	ENDS
;	COMDAT ??0?$CStringT@DV?$StrTraitMFC@DV?$ChTraitsCRT@D@ATL@@@@@ATL@@QAE@PBD@Z
_TEXT	SEGMENT PARA USE32 PUBLIC 'CODE'
_TEXT	ENDS
;	COMDAT ??0?$CSimpleStringT@D$0A@@ATL@@QAE@PAUIAtlStringMgr@1@@Z
_TEXT	SEGMENT PARA USE32 PUBLIC 'CODE'
_TEXT	ENDS
;	COMDAT ??_C@_0BA@GOIMFHNK@pStringMgr?5?$CB?$DN?50?$AA@
CONST	SEGMENT DWORD USE32 PUBLIC 'CONST'
CONST	ENDS
;	COMDAT ?GetDefaultManager@?$StrTraitMFC@DV?$ChTraitsCRT@D@ATL@@@@SAPAUIAtlStringMgr@ATL@@XZ
_TEXT	SEGMENT PARA USE32 PUBLIC 'CODE'
_TEXT	ENDS
;	COMDAT ?CheckImplicitLoad@?$CStringT@DV?$StrTraitMFC@DV?$ChTraitsCRT@D@ATL@@@@@ATL@@AAE_NPBX@Z
_TEXT	SEGMENT PARA USE32 PUBLIC 'CODE'
_TEXT	ENDS
;	COMDAT ?LoadStringA@?$CStringT@DV?$StrTraitMFC@DV?$ChTraitsCRT@D@ATL@@@@@ATL@@QAEHI@Z
_TEXT	SEGMENT PARA USE32 PUBLIC 'CODE'
_TEXT	ENDS
;	COMDAT ?FindStringResourceInstance@?$StrTraitMFC@DV?$ChTraitsCRT@D@ATL@@@@SAPAUHINSTANCE__@@I@Z
_TEXT	SEGMENT PARA USE32 PUBLIC 'CODE'
_TEXT	ENDS
;	COMDAT ?LoadStringA@?$CStringT@DV?$StrTraitMFC@DV?$ChTraitsCRT@D@ATL@@@@@ATL@@QAEHPAUHINSTANCE__@@I@Z
_TEXT	SEGMENT PARA USE32 PUBLIC 'CODE'
_TEXT	ENDS
;	COMDAT ?AtlGetStringResourceImage@ATL@@YAPBUATLSTRINGRESOURCEIMAGE@1@PAUHINSTANCE__@@I@Z
_TEXT	SEGMENT PARA USE32 PUBLIC 'CODE'
_TEXT	ENDS
;	COMDAT ?_AtlGetStringResourceImage@ATL@@YAPBUATLSTRINGRESOURCEIMAGE@1@PAUHINSTANCE__@@PAUHRSRC__@@I@Z
_TEXT	SEGMENT PARA USE32 PUBLIC 'CODE'
_TEXT	ENDS
;	COMDAT ?GetBaseTypeLength@?$ChTraitsCRT@D@ATL@@SAHPBGH@Z
_TEXT	SEGMENT PARA USE32 PUBLIC 'CODE'
_TEXT	ENDS
;	COMDAT ?_AtlGetConversionACP@ATL@@YGIXZ
_TEXT	SEGMENT PARA USE32 PUBLIC 'CODE'
_TEXT	ENDS
;	COMDAT ?g_pfnGetThreadACP@ATL@@3P6GIXZA
_DATA	SEGMENT DWORD USE32 PUBLIC 'DATA'
_DATA	ENDS
;	COMDAT ?_AtlGetThreadACPThunk@ATL@@YGIXZ
_TEXT	SEGMENT PARA USE32 PUBLIC 'CODE'
_TEXT	ENDS
;	COMDAT ?_AtlGetThreadACPReal@ATL@@YGIXZ
_TEXT	SEGMENT PARA USE32 PUBLIC 'CODE'
_TEXT	ENDS
;	COMDAT ?_AtlGetThreadACPFake@ATL@@YGIXZ
_TEXT	SEGMENT PARA USE32 PUBLIC 'CODE'
_TEXT	ENDS
;	COMDAT ?InterlockedExchangePointer@@YGPAXPAPAXPAX@Z
_TEXT	SEGMENT PARA USE32 PUBLIC 'CODE'
_TEXT	ENDS
;	COMDAT ?ConvertToBaseType@?$ChTraitsCRT@D@ATL@@SAXPADHPBGH@Z
_TEXT	SEGMENT PARA USE32 PUBLIC 'CODE'
_TEXT	ENDS
;	COMDAT ??_C@_0CJ@FJEKGMMD@Warning?3?5implicit?5LoadString?$CI?$CFu?$CJ@
CONST	SEGMENT DWORD USE32 PUBLIC 'CONST'
CONST	ENDS
;	COMDAT ??1?$CStringT@DV?$StrTraitMFC@DV?$ChTraitsCRT@D@ATL@@@@@ATL@@QAE@XZ
_TEXT	SEGMENT PARA USE32 PUBLIC 'CODE'
_TEXT	ENDS
;	COMDAT ??0?$CStringT@DV?$StrTraitMFC@DV?$ChTraitsCRT@D@ATL@@@@@ATL@@QAE@XZ
_TEXT	SEGMENT PARA USE32 PUBLIC 'CODE'
_TEXT	ENDS
;	COMDAT ??_7CArrayEdit@@6B@
CONST	SEGMENT DWORD USE32 PUBLIC 'CONST'
CONST	ENDS
;	COMDAT ?classCArrayEdit@CArrayEdit@@2UCRuntimeClass@@B
CONST	SEGMENT DWORD USE32 PUBLIC 'CONST'
CONST	ENDS
;	COMDAT ??_7CRSymbol@@6B@
CONST	SEGMENT DWORD USE32 PUBLIC 'CONST'
CONST	ENDS
;	COMDAT ??_7CSymbol@@6B@
CONST	SEGMENT DWORD USE32 PUBLIC 'CONST'
CONST	ENDS
;	COMDAT ??4?$CStringT@DV?$StrTraitMFC@DV?$ChTraitsCRT@D@ATL@@@@@ATL@@QAEAAV01@PBD@Z
_TEXT	SEGMENT PARA USE32 PUBLIC 'CODE'
_TEXT	ENDS
;	COMDAT ??4?$CSimpleStringT@D$0A@@ATL@@QAEAAV01@PBD@Z
_TEXT	SEGMENT PARA USE32 PUBLIC 'CODE'
_TEXT	ENDS
;	COMDAT ?SetString@?$CSimpleStringT@D$0A@@ATL@@QAEXPBD@Z
_TEXT	SEGMENT PARA USE32 PUBLIC 'CODE'
_TEXT	ENDS
;	COMDAT ?StringLength@?$CSimpleStringT@D$0A@@ATL@@SAHPBD@Z
_TEXT	SEGMENT PARA USE32 PUBLIC 'CODE'
_TEXT	ENDS
sxdata	SEGMENT DWORD USE32 'SXDATA'
sxdata	ENDS
FLAT	GROUP _DATA, CONST, _BSS
	ASSUME	CS: FLAT, DS: FLAT, SS: FLAT
endif

INCLUDELIB LIBCMTD
INCLUDELIB OLDNAMES

PUBLIC	??_C@_0L@LDGEMALF@CArrayEdit?$AA@		; `string'
PUBLIC	?g_pfnGetThreadACP@ATL@@3P6GIXZA		; ATL::g_pfnGetThreadACP
PUBLIC	?_AtlGetThreadACPThunk@ATL@@YGIXZ		; ATL::_AtlGetThreadACPThunk
PUBLIC	?classCArrayEdit@CArrayEdit@@2UCRuntimeClass@@B	; CArrayEdit::classCArrayEdit
PUBLIC	?_messageEntries@CArrayEdit@@0QBUAFX_MSGMAP_ENTRY@@B ; CArrayEdit::_messageEntries
PUBLIC	?messageMap@CArrayEdit@@1UAFX_MSGMAP@@B		; CArrayEdit::messageMap
PUBLIC	?OnBnClickedDelete@CArrayEdit@@QAEXXZ		; CArrayEdit::OnBnClickedDelete
PUBLIC	?OnBnClickedAdd@CArrayEdit@@QAEXXZ		; CArrayEdit::OnBnClickedAdd
PUBLIC	?OnCbnSelchangeCombo1@CArrayEdit@@QAEXXZ	; CArrayEdit::OnCbnSelchangeCombo1
PUBLIC	?OnLbnSelchangeList1@CArrayEdit@@QAEXXZ		; CArrayEdit::OnLbnSelchangeList1
PUBLIC	?OnBnClickedInsert@CArrayEdit@@QAEXXZ		; CArrayEdit::OnBnClickedInsert
EXTRN	?messageMap@CDialog@@1UAFX_MSGMAP@@B:QWORD	; CDialog::messageMap
EXTRN	?classCDialog@CDialog@@2UCRuntimeClass@@B:BYTE	; CDialog::classCDialog
;	COMDAT ??_C@_0L@LDGEMALF@CArrayEdit?$AA@
CONST	SEGMENT
??_C@_0L@LDGEMALF@CArrayEdit?$AA@ DB 'CArrayEdit', 00H	; `string'
CONST	ENDS
;	COMDAT ?classCArrayEdit@CArrayEdit@@2UCRuntimeClass@@B
CONST	SEGMENT
?classCArrayEdit@CArrayEdit@@2UCRuntimeClass@@B DD FLAT:??_C@_0L@LDGEMALF@CArrayEdit?$AA@ ; CArrayEdit::classCArrayEdit
	DD	08cH
	DD	0ffffH
	DD	00H
	DD	FLAT:?classCDialog@CDialog@@2UCRuntimeClass@@B
	DD	00H
	DD	00H
CONST	ENDS
;	COMDAT ?_messageEntries@CArrayEdit@@0QBUAFX_MSGMAP_ENTRY@@B
CONST	SEGMENT
?_messageEntries@CArrayEdit@@0QBUAFX_MSGMAP_ENTRY@@B DD 0111H ; CArrayEdit::_messageEntries
	DD	00H
	DD	04H
	DD	04H
	DD	035H
	DD	FLAT:?OnBnClickedDelete@CArrayEdit@@QAEXXZ
	DD	0111H
	DD	00H
	DD	03H
	DD	03H
	DD	035H
	DD	FLAT:?OnBnClickedAdd@CArrayEdit@@QAEXXZ
	DD	0111H
	DD	01H
	DD	0400H
	DD	0400H
	DD	035H
	DD	FLAT:?OnCbnSelchangeCombo1@CArrayEdit@@QAEXXZ
	DD	0111H
	DD	01H
	DD	0401H
	DD	0401H
	DD	035H
	DD	FLAT:?OnLbnSelchangeList1@CArrayEdit@@QAEXXZ
	DD	0111H
	DD	00H
	DD	05H
	DD	05H
	DD	035H
	DD	FLAT:?OnBnClickedInsert@CArrayEdit@@QAEXXZ
	DD	00H
	DD	00H
	DD	00H
	DD	00H
	DD	00H
	DD	00H
CONST	ENDS
;	COMDAT ?messageMap@CArrayEdit@@1UAFX_MSGMAP@@B
CONST	SEGMENT
?messageMap@CArrayEdit@@1UAFX_MSGMAP@@B DD FLAT:?messageMap@CDialog@@1UAFX_MSGMAP@@B ; CArrayEdit::messageMap
	DD	FLAT:?_messageEntries@CArrayEdit@@0QBUAFX_MSGMAP_ENTRY@@B
CONST	ENDS
;	COMDAT ?g_pfnGetThreadACP@ATL@@3P6GIXZA
_DATA	SEGMENT
?g_pfnGetThreadACP@ATL@@3P6GIXZA DD FLAT:?_AtlGetThreadACPThunk@ATL@@YGIXZ ; ATL::g_pfnGetThreadACP
_DATA	ENDS
PUBLIC	??1CSymbol@@QAE@XZ				; CSymbol::~CSymbol
PUBLIC	??_ECSymbol@@QAEPAXI@Z				; CSymbol::`vector deleting destructor'
EXTRN	??_M@YGXPAXIHP6EX0@Z@Z:NEAR			; `eh vector destructor iterator'
EXTRN	??3@YAXPAX@Z:NEAR				; operator delete
EXTRN	__RTC_InitBase:NEAR
EXTRN	__RTC_Shutdown:NEAR
EXTRN	__RTC_CheckEsp:NEAR
EXTRN	??_V@YAXPAX@Z:NEAR				; operator delete[]
;	COMDAT rtc$IMZ
rtc$IMZ	SEGMENT
__RTC_InitBase.rtc$IMZ DD FLAT:__RTC_InitBase
rtc$IMZ	ENDS
;	COMDAT rtc$TMZ
rtc$TMZ	SEGMENT
__RTC_Shutdown.rtc$TMZ DD FLAT:__RTC_Shutdown
; Function compile flags: /Odt /RTCcsu /ZI
rtc$TMZ	ENDS
;	COMDAT ??_ECSymbol@@QAEPAXI@Z
_TEXT	SEGMENT
_this$ = -8						; size = 4
___flags$ = 8						; size = 4
??_ECSymbol@@QAEPAXI@Z PROC NEAR			; CSymbol::`vector deleting destructor', COMDAT
; _this$ = ecx
	push	ebp
	mov	ebp, esp
	sub	esp, 204				; 000000ccH
	push	ebx
	push	esi
	push	edi
	push	ecx
	lea	edi, DWORD PTR [ebp-204]
	mov	ecx, 51					; 00000033H
	mov	eax, -858993460				; ccccccccH
	rep stosd
	pop	ecx
	mov	DWORD PTR _this$[ebp], ecx
	mov	eax, DWORD PTR ___flags$[ebp]
	and	eax, 2
	je	SHORT $L93135
	push	OFFSET FLAT:??1CSymbol@@QAE@XZ		; CSymbol::~CSymbol
	mov	eax, DWORD PTR _this$[ebp]
	mov	ecx, DWORD PTR [eax-4]
	push	ecx
	push	164					; 000000a4H
	mov	edx, DWORD PTR _this$[ebp]
	push	edx
	call	??_M@YGXPAXIHP6EX0@Z@Z
	mov	eax, DWORD PTR ___flags$[ebp]
	and	eax, 1
	je	SHORT $L93136
	mov	eax, DWORD PTR _this$[ebp]
	sub	eax, 4
	push	eax
	call	??_V@YAXPAX@Z				; operator delete[]
	add	esp, 4
$L93136:
	mov	eax, DWORD PTR _this$[ebp]
	sub	eax, 4
	jmp	SHORT $L93134
$L93135:
	mov	ecx, DWORD PTR _this$[ebp]
	call	??1CSymbol@@QAE@XZ			; CSymbol::~CSymbol
	mov	eax, DWORD PTR ___flags$[ebp]
	and	eax, 1
	je	SHORT $L93138
	mov	eax, DWORD PTR _this$[ebp]
	push	eax
	call	??3@YAXPAX@Z				; operator delete
	add	esp, 4
$L93138:
	mov	eax, DWORD PTR _this$[ebp]
$L93134:
	pop	edi
	pop	esi
	pop	ebx
	add	esp, 204				; 000000ccH
	cmp	ebp, esp
	call	__RTC_CheckEsp
	mov	esp, ebp
	pop	ebp
	ret	4
??_ECSymbol@@QAEPAXI@Z ENDP				; CSymbol::`vector deleting destructor'
_TEXT	ENDS
PUBLIC	??_7CSymbol@@6B@				; CSymbol::`vftable'
EXTRN	?Read@CSymbol@@UAEHPAU_iobuf@@@Z:NEAR		; CSymbol::Read
;	COMDAT ??_7CSymbol@@6B@
; File c:\astrow32dev\tbt32\symbol.hpp
CONST	SEGMENT
??_7CSymbol@@6B@ DD FLAT:?Read@CSymbol@@UAEHPAU_iobuf@@@Z ; CSymbol::`vftable'
; Function compile flags: /Odt /RTCcsu /ZI
CONST	ENDS
;	COMDAT ??1CSymbol@@QAE@XZ
_TEXT	SEGMENT
_this$ = -8						; size = 4
??1CSymbol@@QAE@XZ PROC NEAR				; CSymbol::~CSymbol, COMDAT
; _this$ = ecx

; 14   : 	~CSymbol() {}

	push	ebp
	mov	ebp, esp
	sub	esp, 204				; 000000ccH
	push	ebx
	push	esi
	push	edi
	push	ecx
	lea	edi, DWORD PTR [ebp-204]
	mov	ecx, 51					; 00000033H
	mov	eax, -858993460				; ccccccccH
	rep stosd
	pop	ecx
	mov	DWORD PTR _this$[ebp], ecx
	mov	eax, DWORD PTR _this$[ebp]
	mov	DWORD PTR [eax], OFFSET FLAT:??_7CSymbol@@6B@
	pop	edi
	pop	esi
	pop	ebx
	mov	esp, ebp
	pop	ebp
	ret	0
??1CSymbol@@QAE@XZ ENDP					; CSymbol::~CSymbol
_TEXT	ENDS
PUBLIC	??1CRSymbol@@QAE@XZ				; CRSymbol::~CRSymbol
PUBLIC	??_ECRSymbol@@QAEPAXI@Z				; CRSymbol::`vector deleting destructor'
; Function compile flags: /Odt /RTCcsu /ZI
;	COMDAT ??_ECRSymbol@@QAEPAXI@Z
_TEXT	SEGMENT
_this$ = -8						; size = 4
___flags$ = 8						; size = 4
??_ECRSymbol@@QAEPAXI@Z PROC NEAR			; CRSymbol::`vector deleting destructor', COMDAT
; _this$ = ecx
	push	ebp
	mov	ebp, esp
	sub	esp, 204				; 000000ccH
	push	ebx
	push	esi
	push	edi
	push	ecx
	lea	edi, DWORD PTR [ebp-204]
	mov	ecx, 51					; 00000033H
	mov	eax, -858993460				; ccccccccH
	rep stosd
	pop	ecx
	mov	DWORD PTR _this$[ebp], ecx
	mov	eax, DWORD PTR ___flags$[ebp]
	and	eax, 2
	je	SHORT $L93186
	push	OFFSET FLAT:??1CRSymbol@@QAE@XZ		; CRSymbol::~CRSymbol
	mov	eax, DWORD PTR _this$[ebp]
	mov	ecx, DWORD PTR [eax-4]
	push	ecx
	push	164					; 000000a4H
	mov	edx, DWORD PTR _this$[ebp]
	push	edx
	call	??_M@YGXPAXIHP6EX0@Z@Z
	mov	eax, DWORD PTR ___flags$[ebp]
	and	eax, 1
	je	SHORT $L93187
	mov	eax, DWORD PTR _this$[ebp]
	sub	eax, 4
	push	eax
	call	??_V@YAXPAX@Z				; operator delete[]
	add	esp, 4
$L93187:
	mov	eax, DWORD PTR _this$[ebp]
	sub	eax, 4
	jmp	SHORT $L93185
$L93186:
	mov	ecx, DWORD PTR _this$[ebp]
	call	??1CRSymbol@@QAE@XZ			; CRSymbol::~CRSymbol
	mov	eax, DWORD PTR ___flags$[ebp]
	and	eax, 1
	je	SHORT $L93189
	mov	eax, DWORD PTR _this$[ebp]
	push	eax
	call	??3@YAXPAX@Z				; operator delete
	add	esp, 4
$L93189:
	mov	eax, DWORD PTR _this$[ebp]
$L93185:
	pop	edi
	pop	esi
	pop	ebx
	add	esp, 204				; 000000ccH
	cmp	ebp, esp
	call	__RTC_CheckEsp
	mov	esp, ebp
	pop	ebp
	ret	4
??_ECRSymbol@@QAEPAXI@Z ENDP				; CRSymbol::`vector deleting destructor'
_TEXT	ENDS
PUBLIC	??_7CRSymbol@@6B@				; CRSymbol::`vftable'
EXTRN	?Read@CRSymbol@@UAEHPAU_iobuf@@@Z:NEAR		; CRSymbol::Read
;	COMDAT ??_7CRSymbol@@6B@
CONST	SEGMENT
??_7CRSymbol@@6B@ DD FLAT:?Read@CRSymbol@@UAEHPAU_iobuf@@@Z ; CRSymbol::`vftable'
; Function compile flags: /Odt /RTCcsu /ZI
CONST	ENDS
;	COMDAT ??1CRSymbol@@QAE@XZ
_TEXT	SEGMENT
_this$ = -8						; size = 4
??1CRSymbol@@QAE@XZ PROC NEAR				; CRSymbol::~CRSymbol, COMDAT
; _this$ = ecx

; 28   : 	~CRSymbol() {}

	push	ebp
	mov	ebp, esp
	sub	esp, 204				; 000000ccH
	push	ebx
	push	esi
	push	edi
	push	ecx
	lea	edi, DWORD PTR [ebp-204]
	mov	ecx, 51					; 00000033H
	mov	eax, -858993460				; ccccccccH
	rep stosd
	pop	ecx
	mov	DWORD PTR _this$[ebp], ecx
	mov	eax, DWORD PTR _this$[ebp]
	mov	DWORD PTR [eax], OFFSET FLAT:??_7CRSymbol@@6B@
	mov	ecx, DWORD PTR _this$[ebp]
	call	??1CSymbol@@QAE@XZ			; CSymbol::~CSymbol
	pop	edi
	pop	esi
	pop	ebx
	add	esp, 204				; 000000ccH
	cmp	ebp, esp
	call	__RTC_CheckEsp
	mov	esp, ebp
	pop	ebp
	ret	0
??1CRSymbol@@QAE@XZ ENDP				; CRSymbol::~CRSymbol
_TEXT	ENDS
PUBLIC	?GetRuntimeClass@CArrayEdit@@UBEPAUCRuntimeClass@@XZ ; CArrayEdit::GetRuntimeClass
; Function compile flags: /Odt /RTCcsu /ZI
; File c:\astrow32dev\tbt32\arrayedit.cpp
;	COMDAT ?GetRuntimeClass@CArrayEdit@@UBEPAUCRuntimeClass@@XZ
_TEXT	SEGMENT
_this$ = -8						; size = 4
?GetRuntimeClass@CArrayEdit@@UBEPAUCRuntimeClass@@XZ PROC NEAR ; CArrayEdit::GetRuntimeClass, COMDAT
; _this$ = ecx

; 16   : IMPLEMENT_DYNAMIC(CArrayEdit, CDialog)

	push	ebp
	mov	ebp, esp
	sub	esp, 204				; 000000ccH
	push	ebx
	push	esi
	push	edi
	push	ecx
	lea	edi, DWORD PTR [ebp-204]
	mov	ecx, 51					; 00000033H
	mov	eax, -858993460				; ccccccccH
	rep stosd
	pop	ecx
	mov	DWORD PTR _this$[ebp], ecx
	mov	eax, OFFSET FLAT:?classCArrayEdit@CArrayEdit@@2UCRuntimeClass@@B ; CArrayEdit::classCArrayEdit
	pop	edi
	pop	esi
	pop	ebx
	mov	esp, ebp
	pop	ebp
	ret	0
?GetRuntimeClass@CArrayEdit@@UBEPAUCRuntimeClass@@XZ ENDP ; CArrayEdit::GetRuntimeClass
_TEXT	ENDS
PUBLIC	??_C@_00CNPNBAHC@?$AA@				; `string'
PUBLIC	??0?$CStringT@DV?$StrTraitMFC@DV?$ChTraitsCRT@D@ATL@@@@@ATL@@QAE@XZ ; ATL::CStringT<char,StrTraitMFC<char,ATL::ChTraitsCRT<char> > >::CStringT<char,StrTraitMFC<char,ATL::ChTraitsCRT<char> > >
PUBLIC	??0?$CStringT@DV?$StrTraitMFC@DV?$ChTraitsCRT@D@ATL@@@@@ATL@@QAE@PBD@Z ; ATL::CStringT<char,StrTraitMFC<char,ATL::ChTraitsCRT<char> > >::CStringT<char,StrTraitMFC<char,ATL::ChTraitsCRT<char> > >
PUBLIC	??1?$CStringT@DV?$StrTraitMFC@DV?$ChTraitsCRT@D@ATL@@@@@ATL@@QAE@XZ ; ATL::CStringT<char,StrTraitMFC<char,ATL::ChTraitsCRT<char> > >::~CStringT<char,StrTraitMFC<char,ATL::ChTraitsCRT<char> > >
PUBLIC	??4?$CStringT@DV?$StrTraitMFC@DV?$ChTraitsCRT@D@ATL@@@@@ATL@@QAEAAV01@PBD@Z ; ATL::CStringT<char,StrTraitMFC<char,ATL::ChTraitsCRT<char> > >::operator=
PUBLIC	??0CArrayEdit@@QAE@PAVCWnd@@@Z			; CArrayEdit::CArrayEdit
PUBLIC	?DoDataExchange@CArrayEdit@@MAEXPAVCDataExchange@@@Z ; CArrayEdit::DoDataExchange
PUBLIC	?GetMessageMap@CArrayEdit@@MBEPBUAFX_MSGMAP@@XZ	; CArrayEdit::GetMessageMap
PUBLIC	?OnInitDialog@CArrayEdit@@UAEHXZ		; CArrayEdit::OnInitDialog
PUBLIC	?OnOK@CArrayEdit@@MAEXXZ			; CArrayEdit::OnOK
PUBLIC	??_7CArrayEdit@@6B@				; CArrayEdit::`vftable'
PUBLIC	??_GCArrayEdit@@UAEPAXI@Z			; CArrayEdit::`scalar deleting destructor'
EXTRN	?GetScrollBarCtrl@CWnd@@UBEPAVCScrollBar@@H@Z:NEAR ; CWnd::GetScrollBarCtrl
EXTRN	?Serialize@CObject@@UAEXAAVCArchive@@@Z:NEAR	; CObject::Serialize
EXTRN	?WinHelpA@CWnd@@UAEXKI@Z:NEAR			; CWnd::WinHelpA
EXTRN	?HtmlHelpA@CWnd@@UAEXKI@Z:NEAR			; CWnd::HtmlHelpA
EXTRN	?WinHelpInternal@CWnd@@UAEXKI@Z:NEAR		; CWnd::WinHelpInternal
EXTRN	?ContinueModal@CWnd@@UAEHXZ:NEAR		; CWnd::ContinueModal
EXTRN	?EndModalLoop@CWnd@@UAEXH@Z:NEAR		; CWnd::EndModalLoop
EXTRN	?GetInterfaceMap@CWnd@@MBEPBUAFX_INTERFACEMAP@@XZ:NEAR ; CWnd::GetInterfaceMap
EXTRN	?EnsureStdObj@CWnd@@UAEJXZ:NEAR			; CWnd::EnsureStdObj
EXTRN	?get_accParent@CWnd@@UAEJPAPAUIDispatch@@@Z:NEAR ; CWnd::get_accParent
EXTRN	?get_accChildCount@CWnd@@UAEJPAJ@Z:NEAR		; CWnd::get_accChildCount
EXTRN	?get_accChild@CWnd@@UAEJUtagVARIANT@@PAPAUIDispatch@@@Z:NEAR ; CWnd::get_accChild
EXTRN	?get_accName@CWnd@@UAEJUtagVARIANT@@PAPAG@Z:NEAR ; CWnd::get_accName
EXTRN	?get_accValue@CWnd@@UAEJUtagVARIANT@@PAPAG@Z:NEAR ; CWnd::get_accValue
EXTRN	?get_accDescription@CWnd@@UAEJUtagVARIANT@@PAPAG@Z:NEAR ; CWnd::get_accDescription
EXTRN	?IsInvokeAllowed@CCmdTarget@@UAEHJ@Z:NEAR	; CCmdTarget::IsInvokeAllowed
EXTRN	?get_accRole@CWnd@@UAEJUtagVARIANT@@PAU2@@Z:NEAR ; CWnd::get_accRole
EXTRN	?get_accState@CWnd@@UAEJUtagVARIANT@@PAU2@@Z:NEAR ; CWnd::get_accState
EXTRN	?get_accHelp@CWnd@@UAEJUtagVARIANT@@PAPAG@Z:NEAR ; CWnd::get_accHelp
EXTRN	?GetDispatchIID@CCmdTarget@@UAEHPAU_GUID@@@Z:NEAR ; CCmdTarget::GetDispatchIID
EXTRN	?GetTypeInfoCount@CCmdTarget@@UAEIXZ:NEAR	; CCmdTarget::GetTypeInfoCount
EXTRN	?GetTypeLibCache@CCmdTarget@@UAEPAVCTypeLibCache@@XZ:NEAR ; CCmdTarget::GetTypeLibCache
EXTRN	?get_accHelpTopic@CWnd@@UAEJPAPAGUtagVARIANT@@PAJ@Z:NEAR ; CWnd::get_accHelpTopic
EXTRN	?GetTypeLib@CCmdTarget@@UAEJKPAPAUITypeLib@@@Z:NEAR ; CCmdTarget::GetTypeLib
EXTRN	?get_accKeyboardShortcut@CWnd@@UAEJUtagVARIANT@@PAPAG@Z:NEAR ; CWnd::get_accKeyboardShortcut
EXTRN	?get_accFocus@CWnd@@UAEJPAUtagVARIANT@@@Z:NEAR	; CWnd::get_accFocus
EXTRN	?get_accSelection@CWnd@@UAEJPAUtagVARIANT@@@Z:NEAR ; CWnd::get_accSelection
EXTRN	?get_accDefaultAction@CWnd@@UAEJUtagVARIANT@@PAPAG@Z:NEAR ; CWnd::get_accDefaultAction
EXTRN	?accSelect@CWnd@@UAEJJUtagVARIANT@@@Z:NEAR	; CWnd::accSelect
EXTRN	?accLocation@CWnd@@UAEJPAJ000UtagVARIANT@@@Z:NEAR ; CWnd::accLocation
EXTRN	?GetCommandMap@CCmdTarget@@MBEPBUAFX_OLECMDMAP@@XZ:NEAR ; CCmdTarget::GetCommandMap
EXTRN	?accNavigate@CWnd@@UAEJJUtagVARIANT@@PAU2@@Z:NEAR ; CWnd::accNavigate
EXTRN	?accHitTest@CWnd@@UAEJJJPAUtagVARIANT@@@Z:NEAR	; CWnd::accHitTest
EXTRN	?accDoDefaultAction@CWnd@@UAEJUtagVARIANT@@@Z:NEAR ; CWnd::accDoDefaultAction
EXTRN	?GetDispatchMap@CCmdTarget@@MBEPBUAFX_DISPMAP@@XZ:NEAR ; CCmdTarget::GetDispatchMap
EXTRN	?put_accName@CWnd@@UAEJUtagVARIANT@@PAG@Z:NEAR	; CWnd::put_accName
EXTRN	?put_accValue@CWnd@@UAEJUtagVARIANT@@PAG@Z:NEAR	; CWnd::put_accValue
EXTRN	?GetConnectionMap@CCmdTarget@@MBEPBUAFX_CONNECTIONMAP@@XZ:NEAR ; CCmdTarget::GetConnectionMap
EXTRN	?SetProxy@CWnd@@UAEJPAUIAccessibleProxy@@@Z:NEAR ; CWnd::SetProxy
EXTRN	?CreateAccessibleProxy@CWnd@@UAEJIJPAJ@Z:NEAR	; CWnd::CreateAccessibleProxy
EXTRN	?GetEventSinkMap@CCmdTarget@@MBEPBUAFX_EVENTSINKMAP@@XZ:NEAR ; CCmdTarget::GetEventSinkMap
EXTRN	?OnCommand@CWnd@@MAEHIJ@Z:NEAR			; CWnd::OnCommand
EXTRN	?OnNotify@CWnd@@MAEHIJPAJ@Z:NEAR		; CWnd::OnNotify
EXTRN	?OnCreateAggregates@CCmdTarget@@UAEHXZ:NEAR	; CCmdTarget::OnCreateAggregates
EXTRN	?GetInterfaceHook@CCmdTarget@@UAEPAUIUnknown@@PBX@Z:NEAR ; CCmdTarget::GetInterfaceHook
EXTRN	__except_list:DWORD
EXTRN	___CxxFrameHandler:NEAR
EXTRN	?GetExtraConnectionPoints@CCmdTarget@@MAEHPAVCPtrArray@@@Z:NEAR ; CCmdTarget::GetExtraConnectionPoints
EXTRN	?GetConnectionHook@CCmdTarget@@MAEPAUIConnectionPoint@@ABU_GUID@@@Z:NEAR ; CCmdTarget::GetConnectionHook
EXTRN	?PreSubclassWindow@CWnd@@UAEXXZ:NEAR		; CWnd::PreSubclassWindow
EXTRN	?Create@CWnd@@UAEHPBD0KABUtagRECT@@PAV1@IPAUCCreateContext@@@Z:NEAR ; CWnd::Create
EXTRN	?CreateEx@CWnd@@UAEHKPBD0KHHHHPAUHWND__@@PAUHMENU__@@PAX@Z:NEAR ; CWnd::CreateEx
EXTRN	?CreateEx@CWnd@@UAEHKPBD0KABUtagRECT@@PAV1@IPAX@Z:NEAR ; CWnd::CreateEx
EXTRN	?DestroyWindow@CWnd@@UAEHXZ:NEAR		; CWnd::DestroyWindow
EXTRN	?PreCreateWindow@CWnd@@UAEHAAUtagCREATESTRUCTA@@@Z:NEAR ; CWnd::PreCreateWindow
EXTRN	?CalcWindowRect@CWnd@@UAEXPAUtagRECT@@I@Z:NEAR	; CWnd::CalcWindowRect
EXTRN	?GetSuperWndProcAddr@CWnd@@MAEPAP6GJPAUHWND__@@IIJ@ZXZ:NEAR ; CWnd::GetSuperWndProcAddr
EXTRN	?BeginModalState@CWnd@@UAEXXZ:NEAR		; CWnd::BeginModalState
EXTRN	?EndModalState@CWnd@@UAEXXZ:NEAR		; CWnd::EndModalState
EXTRN	?OnAmbientProperty@CWnd@@UAEHPAVCOleControlSite@@JPAUtagVARIANT@@@Z:NEAR ; CWnd::OnAmbientProperty
EXTRN	?WindowProc@CWnd@@MAEJIIJ@Z:NEAR		; CWnd::WindowProc
EXTRN	?OnWndMsg@CWnd@@MAEHIIJPAJ@Z:NEAR		; CWnd::OnWndMsg
EXTRN	?DefWindowProcA@CWnd@@MAEJIIJ@Z:NEAR		; CWnd::DefWindowProcA
EXTRN	?PostNcDestroy@CWnd@@MAEXXZ:NEAR		; CWnd::PostNcDestroy
EXTRN	?OnChildNotify@CWnd@@MAEHIIJPAJ@Z:NEAR		; CWnd::OnChildNotify
EXTRN	?IsFrameWnd@CWnd@@UBEHXZ:NEAR			; CWnd::IsFrameWnd
EXTRN	?OnFinalRelease@CWnd@@UAEXXZ:NEAR		; CWnd::OnFinalRelease
EXTRN	??_ECArrayEdit@@UAEPAXI@Z:NEAR			; CArrayEdit::`vector deleting destructor'
EXTRN	?CreateControlContainer@CWnd@@MAEHPAPAVCOleControlContainer@@@Z:NEAR ; CWnd::CreateControlContainer
EXTRN	?CreateControlSite@CWnd@@MAEHPAVCOleControlContainer@@PAPAVCOleControlSite@@IABU_GUID@@@Z:NEAR ; CWnd::CreateControlSite
EXTRN	?Create@CDialog@@UAEHPBDPAVCWnd@@@Z:NEAR	; CDialog::Create
EXTRN	?Create@CDialog@@UAEHIPAVCWnd@@@Z:NEAR		; CDialog::Create
EXTRN	?CreateIndirect@CDialog@@UAEHPBUDLGTEMPLATE@@PAVCWnd@@PAX@Z:NEAR ; CDialog::CreateIndirect
EXTRN	?CreateIndirect@CDialog@@UAEHPAXPAVCWnd@@@Z:NEAR ; CDialog::CreateIndirect
EXTRN	?OnToolHitTest@CWnd@@UBEHVCPoint@@PAUtagTOOLINFOA@@@Z:NEAR ; CWnd::OnToolHitTest
EXTRN	??0CDialog@@QAE@IPAVCWnd@@@Z:NEAR		; CDialog::CDialog
EXTRN	?DoModal@CDialog@@UAEHXZ:NEAR			; CDialog::DoModal
EXTRN	?OnSetFont@CDialog@@UAEXPAVCFont@@@Z:NEAR	; CDialog::OnSetFont
EXTRN	?OnCancel@CDialog@@MAEXXZ:NEAR			; CDialog::OnCancel
EXTRN	??1CDialog@@UAE@XZ:NEAR				; CDialog::~CDialog
EXTRN	?AssertValid@CDialog@@UBEXXZ:NEAR		; CDialog::AssertValid
EXTRN	?Dump@CDialog@@UBEXAAVCDumpContext@@@Z:NEAR	; CDialog::Dump
EXTRN	?PreTranslateMessage@CDialog@@UAEHPAUtagMSG@@@Z:NEAR ; CDialog::PreTranslateMessage
EXTRN	?OnCmdMsg@CDialog@@UAEHIHPAXPAUAFX_CMDHANDLERINFO@@@Z:NEAR ; CDialog::OnCmdMsg
EXTRN	?CheckAutoCenter@CDialog@@UAEHXZ:NEAR		; CDialog::CheckAutoCenter
EXTRN	?SetOccDialogInfo@CDialog@@MAEHPAU_AFX_OCC_DIALOG_INFO@@@Z:NEAR ; CDialog::SetOccDialogInfo
EXTRN	?PreInitDialog@CDialog@@MAEXXZ:NEAR		; CDialog::PreInitDialog
;	COMDAT xdata$x
xdata$x	SEGMENT
__unwindtable$??0CArrayEdit@@QAE@PAVCWnd@@@Z DD 0ffffffffH
	DD	FLAT:__unwindfunclet$??0CArrayEdit@@QAE@PAVCWnd@@@Z$0
	DD	00H
	DD	FLAT:__unwindfunclet$??0CArrayEdit@@QAE@PAVCWnd@@@Z$1
	DD	01H
	DD	FLAT:__unwindfunclet$??0CArrayEdit@@QAE@PAVCWnd@@@Z$2
	DD	02H
	DD	FLAT:__unwindfunclet$??0CArrayEdit@@QAE@PAVCWnd@@@Z$3
	DD	03H
	DD	FLAT:__unwindfunclet$??0CArrayEdit@@QAE@PAVCWnd@@@Z$4
	DD	04H
	DD	FLAT:__unwindfunclet$??0CArrayEdit@@QAE@PAVCWnd@@@Z$5
__ehfuncinfo$??0CArrayEdit@@QAE@PAVCWnd@@@Z DD 019930520H
	DD	06H
	DD	FLAT:__unwindtable$??0CArrayEdit@@QAE@PAVCWnd@@@Z
	DD	2 DUP(00H)
	DD	2 DUP(00H)
xdata$x	ENDS
;	COMDAT ??_7CArrayEdit@@6B@
CONST	SEGMENT
??_7CArrayEdit@@6B@ DD FLAT:?GetRuntimeClass@CArrayEdit@@UBEPAUCRuntimeClass@@XZ ; CArrayEdit::`vftable'
	DD	FLAT:??_ECArrayEdit@@UAEPAXI@Z
	DD	FLAT:?Serialize@CObject@@UAEXAAVCArchive@@@Z
	DD	FLAT:?AssertValid@CDialog@@UBEXXZ
	DD	FLAT:?Dump@CDialog@@UBEXAAVCDumpContext@@@Z
	DD	FLAT:?OnCmdMsg@CDialog@@UAEHIHPAXPAUAFX_CMDHANDLERINFO@@@Z
	DD	FLAT:?OnFinalRelease@CWnd@@UAEXXZ
	DD	FLAT:?IsInvokeAllowed@CCmdTarget@@UAEHJ@Z
	DD	FLAT:?GetDispatchIID@CCmdTarget@@UAEHPAU_GUID@@@Z
	DD	FLAT:?GetTypeInfoCount@CCmdTarget@@UAEIXZ
	DD	FLAT:?GetTypeLibCache@CCmdTarget@@UAEPAVCTypeLibCache@@XZ
	DD	FLAT:?GetTypeLib@CCmdTarget@@UAEJKPAPAUITypeLib@@@Z
	DD	FLAT:?GetMessageMap@CArrayEdit@@MBEPBUAFX_MSGMAP@@XZ
	DD	FLAT:?GetCommandMap@CCmdTarget@@MBEPBUAFX_OLECMDMAP@@XZ
	DD	FLAT:?GetDispatchMap@CCmdTarget@@MBEPBUAFX_DISPMAP@@XZ
	DD	FLAT:?GetConnectionMap@CCmdTarget@@MBEPBUAFX_CONNECTIONMAP@@XZ
	DD	FLAT:?GetInterfaceMap@CWnd@@MBEPBUAFX_INTERFACEMAP@@XZ
	DD	FLAT:?GetEventSinkMap@CCmdTarget@@MBEPBUAFX_EVENTSINKMAP@@XZ
	DD	FLAT:?OnCreateAggregates@CCmdTarget@@UAEHXZ
	DD	FLAT:?GetInterfaceHook@CCmdTarget@@UAEPAUIUnknown@@PBX@Z
	DD	FLAT:?GetExtraConnectionPoints@CCmdTarget@@MAEHPAVCPtrArray@@@Z
	DD	FLAT:?GetConnectionHook@CCmdTarget@@MAEPAUIConnectionPoint@@ABU_GUID@@@Z
	DD	FLAT:?PreSubclassWindow@CWnd@@UAEXXZ
	DD	FLAT:?Create@CWnd@@UAEHPBD0KABUtagRECT@@PAV1@IPAUCCreateContext@@@Z
	DD	FLAT:?CreateEx@CWnd@@UAEHKPBD0KABUtagRECT@@PAV1@IPAX@Z
	DD	FLAT:?CreateEx@CWnd@@UAEHKPBD0KHHHHPAUHWND__@@PAUHMENU__@@PAX@Z
	DD	FLAT:?DestroyWindow@CWnd@@UAEHXZ
	DD	FLAT:?PreCreateWindow@CWnd@@UAEHAAUtagCREATESTRUCTA@@@Z
	DD	FLAT:?CalcWindowRect@CWnd@@UAEXPAUtagRECT@@I@Z
	DD	FLAT:?OnToolHitTest@CWnd@@UBEHVCPoint@@PAUtagTOOLINFOA@@@Z
	DD	FLAT:?GetScrollBarCtrl@CWnd@@UBEPAVCScrollBar@@H@Z
	DD	FLAT:?WinHelpA@CWnd@@UAEXKI@Z
	DD	FLAT:?HtmlHelpA@CWnd@@UAEXKI@Z
	DD	FLAT:?WinHelpInternal@CWnd@@UAEXKI@Z
	DD	FLAT:?ContinueModal@CWnd@@UAEHXZ
	DD	FLAT:?EndModalLoop@CWnd@@UAEXH@Z
	DD	FLAT:?EnsureStdObj@CWnd@@UAEJXZ
	DD	FLAT:?get_accParent@CWnd@@UAEJPAPAUIDispatch@@@Z
	DD	FLAT:?get_accChildCount@CWnd@@UAEJPAJ@Z
	DD	FLAT:?get_accChild@CWnd@@UAEJUtagVARIANT@@PAPAUIDispatch@@@Z
	DD	FLAT:?get_accName@CWnd@@UAEJUtagVARIANT@@PAPAG@Z
	DD	FLAT:?get_accValue@CWnd@@UAEJUtagVARIANT@@PAPAG@Z
	DD	FLAT:?get_accDescription@CWnd@@UAEJUtagVARIANT@@PAPAG@Z
	DD	FLAT:?get_accRole@CWnd@@UAEJUtagVARIANT@@PAU2@@Z
	DD	FLAT:?get_accState@CWnd@@UAEJUtagVARIANT@@PAU2@@Z
	DD	FLAT:?get_accHelp@CWnd@@UAEJUtagVARIANT@@PAPAG@Z
	DD	FLAT:?get_accHelpTopic@CWnd@@UAEJPAPAGUtagVARIANT@@PAJ@Z
	DD	FLAT:?get_accKeyboardShortcut@CWnd@@UAEJUtagVARIANT@@PAPAG@Z
	DD	FLAT:?get_accFocus@CWnd@@UAEJPAUtagVARIANT@@@Z
	DD	FLAT:?get_accSelection@CWnd@@UAEJPAUtagVARIANT@@@Z
	DD	FLAT:?get_accDefaultAction@CWnd@@UAEJUtagVARIANT@@PAPAG@Z
	DD	FLAT:?accSelect@CWnd@@UAEJJUtagVARIANT@@@Z
	DD	FLAT:?accLocation@CWnd@@UAEJPAJ000UtagVARIANT@@@Z
	DD	FLAT:?accNavigate@CWnd@@UAEJJUtagVARIANT@@PAU2@@Z
	DD	FLAT:?accHitTest@CWnd@@UAEJJJPAUtagVARIANT@@@Z
	DD	FLAT:?accDoDefaultAction@CWnd@@UAEJUtagVARIANT@@@Z
	DD	FLAT:?put_accName@CWnd@@UAEJUtagVARIANT@@PAG@Z
	DD	FLAT:?put_accValue@CWnd@@UAEJUtagVARIANT@@PAG@Z
	DD	FLAT:?SetProxy@CWnd@@UAEJPAUIAccessibleProxy@@@Z
	DD	FLAT:?CreateAccessibleProxy@CWnd@@UAEJIJPAJ@Z
	DD	FLAT:?OnCommand@CWnd@@MAEHIJ@Z
	DD	FLAT:?OnNotify@CWnd@@MAEHIJPAJ@Z
	DD	FLAT:?GetSuperWndProcAddr@CWnd@@MAEPAP6GJPAUHWND__@@IIJ@ZXZ
	DD	FLAT:?DoDataExchange@CArrayEdit@@MAEXPAVCDataExchange@@@Z
	DD	FLAT:?BeginModalState@CWnd@@UAEXXZ
	DD	FLAT:?EndModalState@CWnd@@UAEXXZ
	DD	FLAT:?PreTranslateMessage@CDialog@@UAEHPAUtagMSG@@@Z
	DD	FLAT:?OnAmbientProperty@CWnd@@UAEHPAVCOleControlSite@@JPAUtagVARIANT@@@Z
	DD	FLAT:?WindowProc@CWnd@@MAEJIIJ@Z
	DD	FLAT:?OnWndMsg@CWnd@@MAEHIIJPAJ@Z
	DD	FLAT:?DefWindowProcA@CWnd@@MAEJIIJ@Z
	DD	FLAT:?PostNcDestroy@CWnd@@MAEXXZ
	DD	FLAT:?OnChildNotify@CWnd@@MAEHIIJPAJ@Z
	DD	FLAT:?CheckAutoCenter@CDialog@@UAEHXZ
	DD	FLAT:?IsFrameWnd@CWnd@@UBEHXZ
	DD	FLAT:?CreateControlContainer@CWnd@@MAEHPAPAVCOleControlContainer@@@Z
	DD	FLAT:?CreateControlSite@CWnd@@MAEHPAVCOleControlContainer@@PAPAVCOleControlSite@@IABU_GUID@@@Z
	DD	FLAT:?SetOccDialogInfo@CDialog@@MAEHPAU_AFX_OCC_DIALOG_INFO@@@Z
	DD	FLAT:?Create@CDialog@@UAEHIPAVCWnd@@@Z
	DD	FLAT:?Create@CDialog@@UAEHPBDPAVCWnd@@@Z
	DD	FLAT:?CreateIndirect@CDialog@@UAEHPAXPAVCWnd@@@Z
	DD	FLAT:?CreateIndirect@CDialog@@UAEHPBUDLGTEMPLATE@@PAVCWnd@@PAX@Z
	DD	FLAT:?DoModal@CDialog@@UAEHXZ
	DD	FLAT:?OnInitDialog@CArrayEdit@@UAEHXZ
	DD	FLAT:?OnSetFont@CDialog@@UAEXPAVCFont@@@Z
	DD	FLAT:?OnOK@CArrayEdit@@MAEXXZ
	DD	FLAT:?OnCancel@CDialog@@MAEXXZ
	DD	FLAT:?PreInitDialog@CDialog@@MAEXXZ
CONST	ENDS
;	COMDAT ??_C@_00CNPNBAHC@?$AA@
CONST	SEGMENT
??_C@_00CNPNBAHC@?$AA@ DB 00H				; `string'
; Function compile flags: /Odt /RTCcsu /ZI
CONST	ENDS
;	COMDAT ??0CArrayEdit@@QAE@PAVCWnd@@@Z
_TEXT	SEGMENT
_this$ = -20						; size = 4
__$EHRec$ = -12						; size = 12
_pParent$ = 8						; size = 4
??0CArrayEdit@@QAE@PAVCWnd@@@Z PROC NEAR		; CArrayEdit::CArrayEdit, COMDAT
; _this$ = ecx

; 20   : {

	push	ebp
	mov	ebp, esp
	push	-1
	push	__ehhandler$??0CArrayEdit@@QAE@PAVCWnd@@@Z
	mov	eax, DWORD PTR fs:__except_list
	push	eax
	mov	DWORD PTR fs:__except_list, esp
	sub	esp, 204				; 000000ccH
	push	ebx
	push	esi
	push	edi
	push	ecx
	lea	edi, DWORD PTR [ebp-216]
	mov	ecx, 51					; 00000033H
	mov	eax, -858993460				; ccccccccH
	rep stosd
	pop	ecx
	mov	DWORD PTR _this$[ebp], ecx
	mov	eax, DWORD PTR _pParent$[ebp]
	push	eax
	push	143					; 0000008fH
	mov	ecx, DWORD PTR _this$[ebp]
	call	??0CDialog@@QAE@IPAVCWnd@@@Z		; CDialog::CDialog
	mov	DWORD PTR __$EHRec$[ebp+8], 0
	mov	eax, DWORD PTR _this$[ebp]
	mov	DWORD PTR [eax], OFFSET FLAT:??_7CArrayEdit@@6B@
	mov	ecx, DWORD PTR _this$[ebp]
	add	ecx, 112				; 00000070H
	call	??0?$CStringT@DV?$StrTraitMFC@DV?$ChTraitsCRT@D@ATL@@@@@ATL@@QAE@XZ ; ATL::CStringT<char,StrTraitMFC<char,ATL::ChTraitsCRT<char> > >::CStringT<char,StrTraitMFC<char,ATL::ChTraitsCRT<char> > >
	mov	BYTE PTR __$EHRec$[ebp+8], 1
	mov	ecx, DWORD PTR _this$[ebp]
	add	ecx, 120				; 00000078H
	call	??0?$CStringT@DV?$StrTraitMFC@DV?$ChTraitsCRT@D@ATL@@@@@ATL@@QAE@XZ ; ATL::CStringT<char,StrTraitMFC<char,ATL::ChTraitsCRT<char> > >::CStringT<char,StrTraitMFC<char,ATL::ChTraitsCRT<char> > >
	mov	BYTE PTR __$EHRec$[ebp+8], 2
	mov	ecx, DWORD PTR _this$[ebp]
	add	ecx, 128				; 00000080H
	call	??0?$CStringT@DV?$StrTraitMFC@DV?$ChTraitsCRT@D@ATL@@@@@ATL@@QAE@XZ ; ATL::CStringT<char,StrTraitMFC<char,ATL::ChTraitsCRT<char> > >::CStringT<char,StrTraitMFC<char,ATL::ChTraitsCRT<char> > >
	mov	BYTE PTR __$EHRec$[ebp+8], 3
	mov	ecx, DWORD PTR _this$[ebp]
	add	ecx, 132				; 00000084H
	call	??0?$CStringT@DV?$StrTraitMFC@DV?$ChTraitsCRT@D@ATL@@@@@ATL@@QAE@XZ ; ATL::CStringT<char,StrTraitMFC<char,ATL::ChTraitsCRT<char> > >::CStringT<char,StrTraitMFC<char,ATL::ChTraitsCRT<char> > >
	mov	BYTE PTR __$EHRec$[ebp+8], 4
	push	OFFSET FLAT:??_C@_00CNPNBAHC@?$AA@
	mov	ecx, DWORD PTR _this$[ebp]
	add	ecx, 136				; 00000088H
	call	??0?$CStringT@DV?$StrTraitMFC@DV?$ChTraitsCRT@D@ATL@@@@@ATL@@QAE@PBD@Z ; ATL::CStringT<char,StrTraitMFC<char,ATL::ChTraitsCRT<char> > >::CStringT<char,StrTraitMFC<char,ATL::ChTraitsCRT<char> > >
	mov	BYTE PTR __$EHRec$[ebp+8], 5

; 21   :  m_index = -1;

	mov	eax, DWORD PTR _this$[ebp]
	mov	DWORD PTR [eax+116], -1

; 22   :  m_orig = "";

	push	OFFSET FLAT:??_C@_00CNPNBAHC@?$AA@
	mov	ecx, DWORD PTR _this$[ebp]
	add	ecx, 120				; 00000078H
	call	??4?$CStringT@DV?$StrTraitMFC@DV?$ChTraitsCRT@D@ATL@@@@@ATL@@QAEAAV01@PBD@Z ; ATL::CStringT<char,StrTraitMFC<char,ATL::ChTraitsCRT<char> > >::operator=

; 23   :  m_item = "";

	push	OFFSET FLAT:??_C@_00CNPNBAHC@?$AA@
	mov	ecx, DWORD PTR _this$[ebp]
	add	ecx, 112				; 00000070H
	call	??4?$CStringT@DV?$StrTraitMFC@DV?$ChTraitsCRT@D@ATL@@@@@ATL@@QAEAAV01@PBD@Z ; ATL::CStringT<char,StrTraitMFC<char,ATL::ChTraitsCRT<char> > >::operator=

; 24   :  m_bModified = FALSE;

	mov	eax, DWORD PTR _this$[ebp]
	mov	DWORD PTR [eax+124], 0

; 25   : }

	mov	DWORD PTR __$EHRec$[ebp+8], -1
	mov	eax, DWORD PTR _this$[ebp]
	mov	ecx, DWORD PTR __$EHRec$[ebp]
	mov	DWORD PTR fs:__except_list, ecx
	pop	edi
	pop	esi
	pop	ebx
	add	esp, 216				; 000000d8H
	cmp	ebp, esp
	call	__RTC_CheckEsp
	mov	esp, ebp
	pop	ebp
	ret	4
_TEXT	ENDS
;	COMDAT text$x
text$x	SEGMENT
__unwindfunclet$??0CArrayEdit@@QAE@PAVCWnd@@@Z$0:
	mov	ecx, DWORD PTR _this$[ebp]
	jmp	??1CDialog@@UAE@XZ			; CDialog::~CDialog
__unwindfunclet$??0CArrayEdit@@QAE@PAVCWnd@@@Z$1:
	mov	ecx, DWORD PTR _this$[ebp]
	add	ecx, 112				; 00000070H
	jmp	??1?$CStringT@DV?$StrTraitMFC@DV?$ChTraitsCRT@D@ATL@@@@@ATL@@QAE@XZ ; ATL::CStringT<char,StrTraitMFC<char,ATL::ChTraitsCRT<char> > >::~CStringT<char,StrTraitMFC<char,ATL::ChTraitsCRT<char> > >
__unwindfunclet$??0CArrayEdit@@QAE@PAVCWnd@@@Z$2:
	mov	ecx, DWORD PTR _this$[ebp]
	add	ecx, 120				; 00000078H
	jmp	??1?$CStringT@DV?$StrTraitMFC@DV?$ChTraitsCRT@D@ATL@@@@@ATL@@QAE@XZ ; ATL::CStringT<char,StrTraitMFC<char,ATL::ChTraitsCRT<char> > >::~CStringT<char,StrTraitMFC<char,ATL::ChTraitsCRT<char> > >
__unwindfunclet$??0CArrayEdit@@QAE@PAVCWnd@@@Z$3:
	mov	ecx, DWORD PTR _this$[ebp]
	add	ecx, 128				; 00000080H
	jmp	??1?$CStringT@DV?$StrTraitMFC@DV?$ChTraitsCRT@D@ATL@@@@@ATL@@QAE@XZ ; ATL::CStringT<char,StrTraitMFC<char,ATL::ChTraitsCRT<char> > >::~CStringT<char,StrTraitMFC<char,ATL::ChTraitsCRT<char> > >
__unwindfunclet$??0CArrayEdit@@QAE@PAVCWnd@@@Z$4:
	mov	ecx, DWORD PTR _this$[ebp]
	add	ecx, 132				; 00000084H
	jmp	??1?$CStringT@DV?$StrTraitMFC@DV?$ChTraitsCRT@D@ATL@@@@@ATL@@QAE@XZ ; ATL::CStringT<char,StrTraitMFC<char,ATL::ChTraitsCRT<char> > >::~CStringT<char,StrTraitMFC<char,ATL::ChTraitsCRT<char> > >
__unwindfunclet$??0CArrayEdit@@QAE@PAVCWnd@@@Z$5:
	mov	ecx, DWORD PTR _this$[ebp]
	add	ecx, 136				; 00000088H
	jmp	??1?$CStringT@DV?$StrTraitMFC@DV?$ChTraitsCRT@D@ATL@@@@@ATL@@QAE@XZ ; ATL::CStringT<char,StrTraitMFC<char,ATL::ChTraitsCRT<char> > >::~CStringT<char,StrTraitMFC<char,ATL::ChTraitsCRT<char> > >
__ehhandler$??0CArrayEdit@@QAE@PAVCWnd@@@Z:
	mov	eax, OFFSET FLAT:__ehfuncinfo$??0CArrayEdit@@QAE@PAVCWnd@@@Z
	jmp	___CxxFrameHandler
text$x	ENDS
??0CArrayEdit@@QAE@PAVCWnd@@@Z ENDP			; CArrayEdit::CArrayEdit
PUBLIC	??1CArrayEdit@@UAE@XZ				; CArrayEdit::~CArrayEdit
EXTRN	??3CObject@@SGXPAX@Z:NEAR			; CObject::operator delete
; Function compile flags: /Odt /RTCcsu /ZI
;	COMDAT ??_GCArrayEdit@@UAEPAXI@Z
_TEXT	SEGMENT
_this$ = -8						; size = 4
___flags$ = 8						; size = 4
??_GCArrayEdit@@UAEPAXI@Z PROC NEAR			; CArrayEdit::`scalar deleting destructor', COMDAT
; _this$ = ecx
	push	ebp
	mov	ebp, esp
	sub	esp, 204				; 000000ccH
	push	ebx
	push	esi
	push	edi
	push	ecx
	lea	edi, DWORD PTR [ebp-204]
	mov	ecx, 51					; 00000033H
	mov	eax, -858993460				; ccccccccH
	rep stosd
	pop	ecx
	mov	DWORD PTR _this$[ebp], ecx
	mov	ecx, DWORD PTR _this$[ebp]
	call	??1CArrayEdit@@UAE@XZ			; CArrayEdit::~CArrayEdit
	mov	eax, DWORD PTR ___flags$[ebp]
	and	eax, 1
	je	SHORT $L93285
	mov	eax, DWORD PTR _this$[ebp]
	push	eax
	call	??3CObject@@SGXPAX@Z			; CObject::operator delete
$L93285:
	mov	eax, DWORD PTR _this$[ebp]
	pop	edi
	pop	esi
	pop	ebx
	add	esp, 204				; 000000ccH
	cmp	ebp, esp
	call	__RTC_CheckEsp
	mov	esp, ebp
	pop	ebp
	ret	4
??_GCArrayEdit@@UAEPAXI@Z ENDP				; CArrayEdit::`scalar deleting destructor'
; Function compile flags: /Odt /RTCcsu /ZI
_TEXT	ENDS
;	COMDAT ??1CArrayEdit@@UAE@XZ
_TEXT	SEGMENT
_this$ = -8						; size = 4
??1CArrayEdit@@UAE@XZ PROC NEAR				; CArrayEdit::~CArrayEdit, COMDAT
; _this$ = ecx

; 28   : {

	push	ebp
	mov	ebp, esp
	sub	esp, 204				; 000000ccH
	push	ebx
	push	esi
	push	edi
	push	ecx
	lea	edi, DWORD PTR [ebp-204]
	mov	ecx, 51					; 00000033H
	mov	eax, -858993460				; ccccccccH
	rep stosd
	pop	ecx
	mov	DWORD PTR _this$[ebp], ecx
	mov	eax, DWORD PTR _this$[ebp]
	mov	DWORD PTR [eax], OFFSET FLAT:??_7CArrayEdit@@6B@

; 29   : }

	mov	ecx, DWORD PTR _this$[ebp]
	add	ecx, 136				; 00000088H
	call	??1?$CStringT@DV?$StrTraitMFC@DV?$ChTraitsCRT@D@ATL@@@@@ATL@@QAE@XZ ; ATL::CStringT<char,StrTraitMFC<char,ATL::ChTraitsCRT<char> > >::~CStringT<char,StrTraitMFC<char,ATL::ChTraitsCRT<char> > >
	mov	ecx, DWORD PTR _this$[ebp]
	add	ecx, 132				; 00000084H
	call	??1?$CStringT@DV?$StrTraitMFC@DV?$ChTraitsCRT@D@ATL@@@@@ATL@@QAE@XZ ; ATL::CStringT<char,StrTraitMFC<char,ATL::ChTraitsCRT<char> > >::~CStringT<char,StrTraitMFC<char,ATL::ChTraitsCRT<char> > >
	mov	ecx, DWORD PTR _this$[ebp]
	add	ecx, 128				; 00000080H
	call	??1?$CStringT@DV?$StrTraitMFC@DV?$ChTraitsCRT@D@ATL@@@@@ATL@@QAE@XZ ; ATL::CStringT<char,StrTraitMFC<char,ATL::ChTraitsCRT<char> > >::~CStringT<char,StrTraitMFC<char,ATL::ChTraitsCRT<char> > >
	mov	ecx, DWORD PTR _this$[ebp]
	add	ecx, 120				; 00000078H
	call	??1?$CStringT@DV?$StrTraitMFC@DV?$ChTraitsCRT@D@ATL@@@@@ATL@@QAE@XZ ; ATL::CStringT<char,StrTraitMFC<char,ATL::ChTraitsCRT<char> > >::~CStringT<char,StrTraitMFC<char,ATL::ChTraitsCRT<char> > >
	mov	ecx, DWORD PTR _this$[ebp]
	add	ecx, 112				; 00000070H
	call	??1?$CStringT@DV?$StrTraitMFC@DV?$ChTraitsCRT@D@ATL@@@@@ATL@@QAE@XZ ; ATL::CStringT<char,StrTraitMFC<char,ATL::ChTraitsCRT<char> > >::~CStringT<char,StrTraitMFC<char,ATL::ChTraitsCRT<char> > >
	mov	ecx, DWORD PTR _this$[ebp]
	call	??1CDialog@@UAE@XZ			; CDialog::~CDialog
	pop	edi
	pop	esi
	pop	ebx
	add	esp, 204				; 000000ccH
	cmp	ebp, esp
	call	__RTC_CheckEsp
	mov	esp, ebp
	pop	ebp
	ret	0
??1CArrayEdit@@UAE@XZ ENDP				; CArrayEdit::~CArrayEdit
_TEXT	ENDS
EXTRN	?DDX_Text@@YGXPAVCDataExchange@@HAAV?$CStringT@DV?$StrTraitMFC@DV?$ChTraitsCRT@D@ATL@@@@@ATL@@@Z:NEAR ; DDX_Text
EXTRN	?DoDataExchange@CWnd@@MAEXPAVCDataExchange@@@Z:NEAR ; CWnd::DoDataExchange
; Function compile flags: /Odt /RTCcsu /ZI
;	COMDAT ?DoDataExchange@CArrayEdit@@MAEXPAVCDataExchange@@@Z
_TEXT	SEGMENT
_this$ = -8						; size = 4
_pDX$ = 8						; size = 4
?DoDataExchange@CArrayEdit@@MAEXPAVCDataExchange@@@Z PROC NEAR ; CArrayEdit::DoDataExchange, COMDAT
; _this$ = ecx

; 32   : {

	push	ebp
	mov	ebp, esp
	sub	esp, 204				; 000000ccH
	push	ebx
	push	esi
	push	edi
	push	ecx
	lea	edi, DWORD PTR [ebp-204]
	mov	ecx, 51					; 00000033H
	mov	eax, -858993460				; ccccccccH
	rep stosd
	pop	ecx
	mov	DWORD PTR _this$[ebp], ecx

; 33   : 	CDialog::DoDataExchange(pDX);

	mov	eax, DWORD PTR _pDX$[ebp]
	push	eax
	mov	ecx, DWORD PTR _this$[ebp]
	call	?DoDataExchange@CWnd@@MAEXPAVCDataExchange@@@Z ; CWnd::DoDataExchange

; 34   : 	DDX_Text(pDX, IDC_EDIT1, m_Edit);

	mov	eax, DWORD PTR _this$[ebp]
	add	eax, 136				; 00000088H
	push	eax
	push	1017					; 000003f9H
	mov	ecx, DWORD PTR _pDX$[ebp]
	push	ecx
	call	?DDX_Text@@YGXPAVCDataExchange@@HAAV?$CStringT@DV?$StrTraitMFC@DV?$ChTraitsCRT@D@ATL@@@@@ATL@@@Z ; DDX_Text

; 35   : }

	pop	edi
	pop	esi
	pop	ebx
	add	esp, 204				; 000000ccH
	cmp	ebp, esp
	call	__RTC_CheckEsp
	mov	esp, ebp
	pop	ebp
	ret	4
?DoDataExchange@CArrayEdit@@MAEXPAVCDataExchange@@@Z ENDP ; CArrayEdit::DoDataExchange
; Function compile flags: /Odt /RTCcsu /ZI
_TEXT	ENDS
;	COMDAT ?GetMessageMap@CArrayEdit@@MBEPBUAFX_MSGMAP@@XZ
_TEXT	SEGMENT
_this$ = -8						; size = 4
?GetMessageMap@CArrayEdit@@MBEPBUAFX_MSGMAP@@XZ PROC NEAR ; CArrayEdit::GetMessageMap, COMDAT
; _this$ = ecx

; 38   : BEGIN_MESSAGE_MAP(CArrayEdit, CDialog)

	push	ebp
	mov	ebp, esp
	sub	esp, 204				; 000000ccH
	push	ebx
	push	esi
	push	edi
	push	ecx
	lea	edi, DWORD PTR [ebp-204]
	mov	ecx, 51					; 00000033H
	mov	eax, -858993460				; ccccccccH
	rep stosd
	pop	ecx
	mov	DWORD PTR _this$[ebp], ecx
	mov	eax, OFFSET FLAT:?messageMap@CArrayEdit@@1UAFX_MSGMAP@@B ; CArrayEdit::messageMap
	pop	edi
	pop	esi
	pop	ebx
	mov	esp, ebp
	pop	ebp
	ret	0
?GetMessageMap@CArrayEdit@@MBEPBUAFX_MSGMAP@@XZ ENDP	; CArrayEdit::GetMessageMap
_TEXT	ENDS
EXTRN	?UpdateData@CWnd@@QAEHH@Z:NEAR			; CWnd::UpdateData
EXTRN	?DeleteString@CListBox@@QAEHI@Z:NEAR		; CListBox::DeleteString
EXTRN	?GetDlgItem@CWnd@@QBEPAV1@H@Z:NEAR		; CWnd::GetDlgItem
; Function compile flags: /Odt /RTCcsu /ZI
;	COMDAT ?OnBnClickedDelete@CArrayEdit@@QAEXXZ
_TEXT	SEGMENT
_pBox$93321 = -20					; size = 4
_this$ = -8						; size = 4
?OnBnClickedDelete@CArrayEdit@@QAEXXZ PROC NEAR		; CArrayEdit::OnBnClickedDelete, COMDAT
; _this$ = ecx

; 50   : {

	push	ebp
	mov	ebp, esp
	sub	esp, 216				; 000000d8H
	push	ebx
	push	esi
	push	edi
	push	ecx
	lea	edi, DWORD PTR [ebp-216]
	mov	ecx, 54					; 00000036H
	mov	eax, -858993460				; ccccccccH
	rep stosd
	pop	ecx
	mov	DWORD PTR _this$[ebp], ecx

; 51   : 	// TODO: Add your control notification handler code here
; 52   : 	if ( m_index != -1 ) {

	mov	eax, DWORD PTR _this$[ebp]
	cmp	DWORD PTR [eax+116], -1
	je	SHORT $L93319

; 53   : 	   CListBox *pBox = (CListBox *)GetDlgItem(IDC_LIST1);

	push	1025					; 00000401H
	mov	ecx, DWORD PTR _this$[ebp]
	call	?GetDlgItem@CWnd@@QBEPAV1@H@Z		; CWnd::GetDlgItem
	mov	DWORD PTR _pBox$93321[ebp], eax

; 54   : 	   pBox->DeleteString(m_index);

	mov	eax, DWORD PTR _this$[ebp]
	mov	ecx, DWORD PTR [eax+116]
	push	ecx
	mov	ecx, DWORD PTR _pBox$93321[ebp]
	call	?DeleteString@CListBox@@QAEHI@Z		; CListBox::DeleteString

; 55   : 	   m_orig = "";

	push	OFFSET FLAT:??_C@_00CNPNBAHC@?$AA@
	mov	ecx, DWORD PTR _this$[ebp]
	add	ecx, 120				; 00000078H
	call	??4?$CStringT@DV?$StrTraitMFC@DV?$ChTraitsCRT@D@ATL@@@@@ATL@@QAEAAV01@PBD@Z ; ATL::CStringT<char,StrTraitMFC<char,ATL::ChTraitsCRT<char> > >::operator=

; 56   : 	   m_Edit = "";

	push	OFFSET FLAT:??_C@_00CNPNBAHC@?$AA@
	mov	ecx, DWORD PTR _this$[ebp]
	add	ecx, 136				; 00000088H
	call	??4?$CStringT@DV?$StrTraitMFC@DV?$ChTraitsCRT@D@ATL@@@@@ATL@@QAEAAV01@PBD@Z ; ATL::CStringT<char,StrTraitMFC<char,ATL::ChTraitsCRT<char> > >::operator=

; 57   : 	   m_index = -1;

	mov	eax, DWORD PTR _this$[ebp]
	mov	DWORD PTR [eax+116], -1

; 58   : 	   UpdateData(FALSE);

	push	0
	mov	ecx, DWORD PTR _this$[ebp]
	call	?UpdateData@CWnd@@QAEHH@Z		; CWnd::UpdateData

; 59   : 	   m_bModified = TRUE;

	mov	eax, DWORD PTR _this$[ebp]
	mov	DWORD PTR [eax+124], 1
$L93319:

; 60   : 	   }
; 61   : }

	pop	edi
	pop	esi
	pop	ebx
	add	esp, 216				; 000000d8H
	cmp	ebp, esp
	call	__RTC_CheckEsp
	mov	esp, ebp
	pop	ebp
	ret	0
?OnBnClickedDelete@CArrayEdit@@QAEXXZ ENDP		; CArrayEdit::OnBnClickedDelete
_TEXT	ENDS
PUBLIC	??B?$CSimpleStringT@D$0A@@ATL@@QBEPBDXZ		; ATL::CSimpleStringT<char,0>::operator char const *
PUBLIC	?GetLength@?$CSimpleStringT@D$0A@@ATL@@QBEHXZ	; ATL::CSimpleStringT<char,0>::GetLength
EXTRN	?AddString@CListBox@@QAEHPBD@Z:NEAR		; CListBox::AddString
; Function compile flags: /Odt /RTCcsu /ZI
;	COMDAT ?OnBnClickedAdd@CArrayEdit@@QAEXXZ
_TEXT	SEGMENT
_pBox$93327 = -20					; size = 4
_this$ = -8						; size = 4
?OnBnClickedAdd@CArrayEdit@@QAEXXZ PROC NEAR		; CArrayEdit::OnBnClickedAdd, COMDAT
; _this$ = ecx

; 64   : {

	push	ebp
	mov	ebp, esp
	sub	esp, 216				; 000000d8H
	push	ebx
	push	esi
	push	edi
	push	ecx
	lea	edi, DWORD PTR [ebp-216]
	mov	ecx, 54					; 00000036H
	mov	eax, -858993460				; ccccccccH
	rep stosd
	pop	ecx
	mov	DWORD PTR _this$[ebp], ecx

; 65   : 	// TODO: Add your control notification handler code here
; 66   : 	UpdateData(TRUE);

	push	1
	mov	ecx, DWORD PTR _this$[ebp]
	call	?UpdateData@CWnd@@QAEHH@Z		; CWnd::UpdateData

; 67   : 	if ( m_Edit.GetLength() > 1 ) {

	mov	ecx, DWORD PTR _this$[ebp]
	add	ecx, 136				; 00000088H
	call	?GetLength@?$CSimpleStringT@D$0A@@ATL@@QBEHXZ ; ATL::CSimpleStringT<char,0>::GetLength
	cmp	eax, 1
	jle	SHORT $L93325

; 68   : 	   CListBox *pBox = (CListBox *)GetDlgItem(IDC_LIST1);

	push	1025					; 00000401H
	mov	ecx, DWORD PTR _this$[ebp]
	call	?GetDlgItem@CWnd@@QBEPAV1@H@Z		; CWnd::GetDlgItem
	mov	DWORD PTR _pBox$93327[ebp], eax

; 69   : 	   pBox->AddString(m_Edit);

	mov	ecx, DWORD PTR _this$[ebp]
	add	ecx, 136				; 00000088H
	call	??B?$CSimpleStringT@D$0A@@ATL@@QBEPBDXZ	; ATL::CSimpleStringT<char,0>::operator char const *
	push	eax
	mov	ecx, DWORD PTR _pBox$93327[ebp]
	call	?AddString@CListBox@@QAEHPBD@Z		; CListBox::AddString

; 70   : 	   m_bModified = TRUE;

	mov	eax, DWORD PTR _this$[ebp]
	mov	DWORD PTR [eax+124], 1

; 71   : 	   m_orig="";

	push	OFFSET FLAT:??_C@_00CNPNBAHC@?$AA@
	mov	ecx, DWORD PTR _this$[ebp]
	add	ecx, 120				; 00000078H
	call	??4?$CStringT@DV?$StrTraitMFC@DV?$ChTraitsCRT@D@ATL@@@@@ATL@@QAEAAV01@PBD@Z ; ATL::CStringT<char,StrTraitMFC<char,ATL::ChTraitsCRT<char> > >::operator=

; 72   : 	   m_Edit="";

	push	OFFSET FLAT:??_C@_00CNPNBAHC@?$AA@
	mov	ecx, DWORD PTR _this$[ebp]
	add	ecx, 136				; 00000088H
	call	??4?$CStringT@DV?$StrTraitMFC@DV?$ChTraitsCRT@D@ATL@@@@@ATL@@QAEAAV01@PBD@Z ; ATL::CStringT<char,StrTraitMFC<char,ATL::ChTraitsCRT<char> > >::operator=

; 73   : 	   UpdateData(FALSE);

	push	0
	mov	ecx, DWORD PTR _this$[ebp]
	call	?UpdateData@CWnd@@QAEHH@Z		; CWnd::UpdateData
$L93325:

; 74   : 	}
; 75   : 
; 76   : }

	pop	edi
	pop	esi
	pop	ebx
	add	esp, 216				; 000000d8H
	cmp	ebp, esp
	call	__RTC_CheckEsp
	mov	esp, ebp
	pop	ebp
	ret	0
?OnBnClickedAdd@CArrayEdit@@QAEXXZ ENDP			; CArrayEdit::OnBnClickedAdd
_TEXT	ENDS
PUBLIC	??9ATL@@YA_NABV?$CStringT@DV?$StrTraitMFC@DV?$ChTraitsCRT@D@ATL@@@@@0@0@Z ; ATL::operator!=
PUBLIC	?FillList@CArrayEdit@@IAEXAAV?$CStringT@DV?$StrTraitMFC@DV?$ChTraitsCRT@D@ATL@@@@@ATL@@@Z ; CArrayEdit::FillList
PUBLIC	?DoSave@CArrayEdit@@IAEXXZ			; CArrayEdit::DoSave
EXTRN	?InsertString@CListBox@@QAEHHPBD@Z:NEAR		; CListBox::InsertString
EXTRN	?GetCurSel@CComboBox@@QBEHXZ:NEAR		; CComboBox::GetCurSel
EXTRN	?GetLBText@CComboBox@@QBEXHAAV?$CStringT@DV?$StrTraitMFC@DV?$ChTraitsCRT@D@ATL@@@@@ATL@@@Z:NEAR ; CComboBox::GetLBText
EXTRN	@_RTC_CheckStackVars@8:NEAR
EXTRN	?GetWindowTextA@CWnd@@QBEXAAV?$CStringT@DV?$StrTraitMFC@DV?$ChTraitsCRT@D@ATL@@@@@ATL@@@Z:NEAR ; CWnd::GetWindowTextA
;	COMDAT xdata$x
xdata$x	SEGMENT
__unwindtable$?OnCbnSelchangeCombo1@CArrayEdit@@QAEXXZ DD 0ffffffffH
	DD	FLAT:__unwindfunclet$?OnCbnSelchangeCombo1@CArrayEdit@@QAEXXZ$0
__ehfuncinfo$?OnCbnSelchangeCombo1@CArrayEdit@@QAEXXZ DD 019930520H
	DD	01H
	DD	FLAT:__unwindtable$?OnCbnSelchangeCombo1@CArrayEdit@@QAEXXZ
	DD	2 DUP(00H)
	DD	2 DUP(00H)
; Function compile flags: /Odt /RTCcsu /ZI
xdata$x	ENDS
;	COMDAT ?OnCbnSelchangeCombo1@CArrayEdit@@QAEXXZ
_TEXT	SEGMENT
_pBox2$ = -68						; size = 4
_sel$ = -56						; size = 4
_pBox$ = -44						; size = 4
_m_combo$ = -32						; size = 4
_this$ = -20						; size = 4
__$EHRec$ = -12						; size = 12
?OnCbnSelchangeCombo1@CArrayEdit@@QAEXXZ PROC NEAR	; CArrayEdit::OnCbnSelchangeCombo1, COMDAT
; _this$ = ecx

; 79   : {

	push	ebp
	mov	ebp, esp
	push	-1
	push	__ehhandler$?OnCbnSelchangeCombo1@CArrayEdit@@QAEXXZ
	mov	eax, DWORD PTR fs:__except_list
	push	eax
	mov	DWORD PTR fs:__except_list, esp
	sub	esp, 252				; 000000fcH
	push	ebx
	push	esi
	push	edi
	push	ecx
	lea	edi, DWORD PTR [ebp-264]
	mov	ecx, 63					; 0000003fH
	mov	eax, -858993460				; ccccccccH
	rep stosd
	pop	ecx
	mov	DWORD PTR _this$[ebp], ecx

; 80   : 	// TODO: Add your control notification handler code here
; 81   :    CString m_combo;

	lea	ecx, DWORD PTR _m_combo$[ebp]
	call	??0?$CStringT@DV?$StrTraitMFC@DV?$ChTraitsCRT@D@ATL@@@@@ATL@@QAE@XZ ; ATL::CStringT<char,StrTraitMFC<char,ATL::ChTraitsCRT<char> > >::CStringT<char,StrTraitMFC<char,ATL::ChTraitsCRT<char> > >
	mov	DWORD PTR __$EHRec$[ebp+8], 0

; 82   :    CComboBox *pBox = (CComboBox *)GetDlgItem(IDC_COMBO1);

	push	1024					; 00000400H
	mov	ecx, DWORD PTR _this$[ebp]
	call	?GetDlgItem@CWnd@@QBEPAV1@H@Z		; CWnd::GetDlgItem
	mov	DWORD PTR _pBox$[ebp], eax

; 83   :    int sel = pBox->GetCurSel();

	mov	ecx, DWORD PTR _pBox$[ebp]
	call	?GetCurSel@CComboBox@@QBEHXZ		; CComboBox::GetCurSel
	mov	DWORD PTR _sel$[ebp], eax

; 84   :     if ( sel != CB_ERR )

	cmp	DWORD PTR _sel$[ebp], -1
	je	SHORT $L93336

; 85   : 		pBox->GetLBText(sel,m_combo);

	lea	eax, DWORD PTR _m_combo$[ebp]
	push	eax
	mov	ecx, DWORD PTR _sel$[ebp]
	push	ecx
	mov	ecx, DWORD PTR _pBox$[ebp]
	call	?GetLBText@CComboBox@@QBEXHAAV?$CStringT@DV?$StrTraitMFC@DV?$ChTraitsCRT@D@ATL@@@@@ATL@@@Z ; CComboBox::GetLBText

; 86   : 	else

	jmp	SHORT $L93337
$L93336:

; 87   : 	    pBox->GetWindowText(m_combo);

	lea	eax, DWORD PTR _m_combo$[ebp]
	push	eax
	mov	ecx, DWORD PTR _pBox$[ebp]
	call	?GetWindowTextA@CWnd@@QBEXAAV?$CStringT@DV?$StrTraitMFC@DV?$ChTraitsCRT@D@ATL@@@@@ATL@@@Z ; CWnd::GetWindowTextA
$L93337:

; 88   : 	CListBox *pBox2 = (CListBox *)GetDlgItem(IDC_LIST1);

	push	1025					; 00000401H
	mov	ecx, DWORD PTR _this$[ebp]
	call	?GetDlgItem@CWnd@@QBEPAV1@H@Z		; CWnd::GetDlgItem
	mov	DWORD PTR _pBox2$[ebp], eax

; 89   : 	UpdateData(TRUE);

	push	1
	mov	ecx, DWORD PTR _this$[ebp]
	call	?UpdateData@CWnd@@QAEHH@Z		; CWnd::UpdateData

; 90   : 	if ( m_Edit != m_orig && m_orig.GetLength()>1 && m_index != -1)

	mov	eax, DWORD PTR _this$[ebp]
	add	eax, 120				; 00000078H
	push	eax
	mov	ecx, DWORD PTR _this$[ebp]
	add	ecx, 136				; 00000088H
	push	ecx
	call	??9ATL@@YA_NABV?$CStringT@DV?$StrTraitMFC@DV?$ChTraitsCRT@D@ATL@@@@@0@0@Z ; ATL::operator!=
	add	esp, 8
	movzx	edx, al
	test	edx, edx
	je	SHORT $L93340
	mov	ecx, DWORD PTR _this$[ebp]
	add	ecx, 120				; 00000078H
	call	?GetLength@?$CSimpleStringT@D$0A@@ATL@@QBEHXZ ; ATL::CSimpleStringT<char,0>::GetLength
	cmp	eax, 1
	jle	SHORT $L93340
	mov	eax, DWORD PTR _this$[ebp]
	cmp	DWORD PTR [eax+116], -1
	je	SHORT $L93340

; 91   : 	   pBox2->DeleteString(m_index);

	mov	eax, DWORD PTR _this$[ebp]
	mov	ecx, DWORD PTR [eax+116]
	push	ecx
	mov	ecx, DWORD PTR _pBox2$[ebp]
	call	?DeleteString@CListBox@@QAEHI@Z		; CListBox::DeleteString
$L93340:

; 92   : 	if ( m_Edit != m_orig && m_Edit.GetLength()>1 && m_index != -1)

	mov	eax, DWORD PTR _this$[ebp]
	add	eax, 120				; 00000078H
	push	eax
	mov	ecx, DWORD PTR _this$[ebp]
	add	ecx, 136				; 00000088H
	push	ecx
	call	??9ATL@@YA_NABV?$CStringT@DV?$StrTraitMFC@DV?$ChTraitsCRT@D@ATL@@@@@0@0@Z ; ATL::operator!=
	add	esp, 8
	movzx	edx, al
	test	edx, edx
	je	SHORT $L93341
	mov	ecx, DWORD PTR _this$[ebp]
	add	ecx, 136				; 00000088H
	call	?GetLength@?$CSimpleStringT@D$0A@@ATL@@QBEHXZ ; ATL::CSimpleStringT<char,0>::GetLength
	cmp	eax, 1
	jle	SHORT $L93341
	mov	eax, DWORD PTR _this$[ebp]
	cmp	DWORD PTR [eax+116], -1
	je	SHORT $L93341

; 93   : 		pBox2->InsertString(m_index, m_Edit);

	mov	ecx, DWORD PTR _this$[ebp]
	add	ecx, 136				; 00000088H
	call	??B?$CSimpleStringT@D$0A@@ATL@@QBEPBDXZ	; ATL::CSimpleStringT<char,0>::operator char const *
	push	eax
	mov	eax, DWORD PTR _this$[ebp]
	mov	ecx, DWORD PTR [eax+116]
	push	ecx
	mov	ecx, DWORD PTR _pBox2$[ebp]
	call	?InsertString@CListBox@@QAEHHPBD@Z	; CListBox::InsertString

; 94   : 	else if ( m_Edit.GetLength() > 1 && m_index == -1 )

	jmp	SHORT $L93342
$L93341:
	mov	ecx, DWORD PTR _this$[ebp]
	add	ecx, 136				; 00000088H
	call	?GetLength@?$CSimpleStringT@D$0A@@ATL@@QBEHXZ ; ATL::CSimpleStringT<char,0>::GetLength
	cmp	eax, 1
	jle	SHORT $L93342
	mov	eax, DWORD PTR _this$[ebp]
	cmp	DWORD PTR [eax+116], -1
	jne	SHORT $L93342

; 95   : 		pBox2->AddString(m_Edit);

	mov	ecx, DWORD PTR _this$[ebp]
	add	ecx, 136				; 00000088H
	call	??B?$CSimpleStringT@D$0A@@ATL@@QBEPBDXZ	; ATL::CSimpleStringT<char,0>::operator char const *
	push	eax
	mov	ecx, DWORD PTR _pBox2$[ebp]
	call	?AddString@CListBox@@QAEHPBD@Z		; CListBox::AddString
$L93342:

; 96   : 	if ( m_bModified == TRUE )

	mov	eax, DWORD PTR _this$[ebp]
	cmp	DWORD PTR [eax+124], 1
	jne	SHORT $L93344

; 97   : 		DoSave();

	mov	ecx, DWORD PTR _this$[ebp]
	call	?DoSave@CArrayEdit@@IAEXXZ		; CArrayEdit::DoSave
$L93344:

; 98   : 	FillList(m_combo);

	lea	eax, DWORD PTR _m_combo$[ebp]
	push	eax
	mov	ecx, DWORD PTR _this$[ebp]
	call	?FillList@CArrayEdit@@IAEXAAV?$CStringT@DV?$StrTraitMFC@DV?$ChTraitsCRT@D@ATL@@@@@ATL@@@Z ; CArrayEdit::FillList

; 99   :    
; 100  : }

	mov	DWORD PTR __$EHRec$[ebp+8], -1
	lea	ecx, DWORD PTR _m_combo$[ebp]
	call	??1?$CStringT@DV?$StrTraitMFC@DV?$ChTraitsCRT@D@ATL@@@@@ATL@@QAE@XZ ; ATL::CStringT<char,StrTraitMFC<char,ATL::ChTraitsCRT<char> > >::~CStringT<char,StrTraitMFC<char,ATL::ChTraitsCRT<char> > >
	push	edx
	mov	ecx, ebp
	push	eax
	lea	edx, DWORD PTR $L93693
	call	@_RTC_CheckStackVars@8
	pop	eax
	pop	edx
	mov	ecx, DWORD PTR __$EHRec$[ebp]
	mov	DWORD PTR fs:__except_list, ecx
	pop	edi
	pop	esi
	pop	ebx
	add	esp, 264				; 00000108H
	cmp	ebp, esp
	call	__RTC_CheckEsp
	mov	esp, ebp
	pop	ebp
	ret	0
$L93693:
	DD	1
	DD	$L93692
$L93692:
	DD	-32					; ffffffe0H
	DD	4
	DD	$L93690
$L93690:
	DB	109					; 0000006dH
	DB	95					; 0000005fH
	DB	99					; 00000063H
	DB	111					; 0000006fH
	DB	109					; 0000006dH
	DB	98					; 00000062H
	DB	111					; 0000006fH
	DB	0
_TEXT	ENDS
;	COMDAT text$x
text$x	SEGMENT
__unwindfunclet$?OnCbnSelchangeCombo1@CArrayEdit@@QAEXXZ$0:
	lea	ecx, DWORD PTR _m_combo$[ebp]
	jmp	??1?$CStringT@DV?$StrTraitMFC@DV?$ChTraitsCRT@D@ATL@@@@@ATL@@QAE@XZ ; ATL::CStringT<char,StrTraitMFC<char,ATL::ChTraitsCRT<char> > >::~CStringT<char,StrTraitMFC<char,ATL::ChTraitsCRT<char> > >
__ehhandler$?OnCbnSelchangeCombo1@CArrayEdit@@QAEXXZ:
	mov	eax, OFFSET FLAT:__ehfuncinfo$?OnCbnSelchangeCombo1@CArrayEdit@@QAEXXZ
	jmp	___CxxFrameHandler
text$x	ENDS
?OnCbnSelchangeCombo1@CArrayEdit@@QAEXXZ ENDP		; CArrayEdit::OnCbnSelchangeCombo1
PUBLIC	??4?$CStringT@DV?$StrTraitMFC@DV?$ChTraitsCRT@D@ATL@@@@@ATL@@QAEAAV01@ABV01@@Z ; ATL::CStringT<char,StrTraitMFC<char,ATL::ChTraitsCRT<char> > >::operator=
EXTRN	?GetCurSel@CListBox@@QBEHXZ:NEAR		; CListBox::GetCurSel
EXTRN	?GetText@CListBox@@QBEXHAAV?$CStringT@DV?$StrTraitMFC@DV?$ChTraitsCRT@D@ATL@@@@@ATL@@@Z:NEAR ; CListBox::GetText
; Function compile flags: /Odt /RTCcsu /ZI
;	COMDAT ?OnLbnSelchangeList1@CArrayEdit@@QAEXXZ
_TEXT	SEGMENT
_sel$ = -32						; size = 4
_pBox$ = -20						; size = 4
_this$ = -8						; size = 4
?OnLbnSelchangeList1@CArrayEdit@@QAEXXZ PROC NEAR	; CArrayEdit::OnLbnSelchangeList1, COMDAT
; _this$ = ecx

; 103  : {

	push	ebp
	mov	ebp, esp
	sub	esp, 228				; 000000e4H
	push	ebx
	push	esi
	push	edi
	push	ecx
	lea	edi, DWORD PTR [ebp-228]
	mov	ecx, 57					; 00000039H
	mov	eax, -858993460				; ccccccccH
	rep stosd
	pop	ecx
	mov	DWORD PTR _this$[ebp], ecx

; 104  : 	// TODO: Add your control notification handler code here
; 105  : 	CListBox *pBox = (CListBox *)GetDlgItem(IDC_LIST1);

	push	1025					; 00000401H
	mov	ecx, DWORD PTR _this$[ebp]
	call	?GetDlgItem@CWnd@@QBEPAV1@H@Z		; CWnd::GetDlgItem
	mov	DWORD PTR _pBox$[ebp], eax

; 106  : 	UpdateData(TRUE);

	push	1
	mov	ecx, DWORD PTR _this$[ebp]
	call	?UpdateData@CWnd@@QAEHH@Z		; CWnd::UpdateData

; 107  : 	if ( m_Edit != m_orig && m_orig.GetLength()>0 && m_index != -1 && m_Edit.GetLength()>0)

	mov	eax, DWORD PTR _this$[ebp]
	add	eax, 120				; 00000078H
	push	eax
	mov	ecx, DWORD PTR _this$[ebp]
	add	ecx, 136				; 00000088H
	push	ecx
	call	??9ATL@@YA_NABV?$CStringT@DV?$StrTraitMFC@DV?$ChTraitsCRT@D@ATL@@@@@0@0@Z ; ATL::operator!=
	add	esp, 8
	movzx	edx, al
	test	edx, edx
	je	SHORT $L93350
	mov	ecx, DWORD PTR _this$[ebp]
	add	ecx, 120				; 00000078H
	call	?GetLength@?$CSimpleStringT@D$0A@@ATL@@QBEHXZ ; ATL::CSimpleStringT<char,0>::GetLength
	test	eax, eax
	jle	SHORT $L93350
	mov	eax, DWORD PTR _this$[ebp]
	cmp	DWORD PTR [eax+116], -1
	je	SHORT $L93350
	mov	ecx, DWORD PTR _this$[ebp]
	add	ecx, 136				; 00000088H
	call	?GetLength@?$CSimpleStringT@D$0A@@ATL@@QBEHXZ ; ATL::CSimpleStringT<char,0>::GetLength
	test	eax, eax
	jle	SHORT $L93350

; 108  : 	   pBox->DeleteString(m_index);

	mov	eax, DWORD PTR _this$[ebp]
	mov	ecx, DWORD PTR [eax+116]
	push	ecx
	mov	ecx, DWORD PTR _pBox$[ebp]
	call	?DeleteString@CListBox@@QAEHI@Z		; CListBox::DeleteString
$L93350:

; 109  : 	if ( m_Edit != m_orig && m_Edit.GetLength()>0 && m_index != -1)

	mov	eax, DWORD PTR _this$[ebp]
	add	eax, 120				; 00000078H
	push	eax
	mov	ecx, DWORD PTR _this$[ebp]
	add	ecx, 136				; 00000088H
	push	ecx
	call	??9ATL@@YA_NABV?$CStringT@DV?$StrTraitMFC@DV?$ChTraitsCRT@D@ATL@@@@@0@0@Z ; ATL::operator!=
	add	esp, 8
	movzx	edx, al
	test	edx, edx
	je	SHORT $L93351
	mov	ecx, DWORD PTR _this$[ebp]
	add	ecx, 136				; 00000088H
	call	?GetLength@?$CSimpleStringT@D$0A@@ATL@@QBEHXZ ; ATL::CSimpleStringT<char,0>::GetLength
	test	eax, eax
	jle	SHORT $L93351
	mov	eax, DWORD PTR _this$[ebp]
	cmp	DWORD PTR [eax+116], -1
	je	SHORT $L93351

; 110  : 		pBox->InsertString(m_index, m_Edit);

	mov	ecx, DWORD PTR _this$[ebp]
	add	ecx, 136				; 00000088H
	call	??B?$CSimpleStringT@D$0A@@ATL@@QBEPBDXZ	; ATL::CSimpleStringT<char,0>::operator char const *
	push	eax
	mov	eax, DWORD PTR _this$[ebp]
	mov	ecx, DWORD PTR [eax+116]
	push	ecx
	mov	ecx, DWORD PTR _pBox$[ebp]
	call	?InsertString@CListBox@@QAEHHPBD@Z	; CListBox::InsertString

; 111  : 	else if ( m_Edit.GetLength() > 1 && m_index == -1 )

	jmp	SHORT $L93352
$L93351:
	mov	ecx, DWORD PTR _this$[ebp]
	add	ecx, 136				; 00000088H
	call	?GetLength@?$CSimpleStringT@D$0A@@ATL@@QBEHXZ ; ATL::CSimpleStringT<char,0>::GetLength
	cmp	eax, 1
	jle	SHORT $L93352
	mov	eax, DWORD PTR _this$[ebp]
	cmp	DWORD PTR [eax+116], -1
	jne	SHORT $L93352

; 112  : 		pBox->AddString(m_Edit);

	mov	ecx, DWORD PTR _this$[ebp]
	add	ecx, 136				; 00000088H
	call	??B?$CSimpleStringT@D$0A@@ATL@@QBEPBDXZ	; ATL::CSimpleStringT<char,0>::operator char const *
	push	eax
	mov	ecx, DWORD PTR _pBox$[ebp]
	call	?AddString@CListBox@@QAEHPBD@Z		; CListBox::AddString
$L93352:

; 113  : 	int sel = pBox->GetCurSel();

	mov	ecx, DWORD PTR _pBox$[ebp]
	call	?GetCurSel@CListBox@@QBEHXZ		; CListBox::GetCurSel
	mov	DWORD PTR _sel$[ebp], eax

; 114  : 	m_index = sel;

	mov	eax, DWORD PTR _this$[ebp]
	mov	ecx, DWORD PTR _sel$[ebp]
	mov	DWORD PTR [eax+116], ecx

; 115  : 	pBox->GetText(sel,m_Edit);

	mov	eax, DWORD PTR _this$[ebp]
	add	eax, 136				; 00000088H
	push	eax
	mov	ecx, DWORD PTR _sel$[ebp]
	push	ecx
	mov	ecx, DWORD PTR _pBox$[ebp]
	call	?GetText@CListBox@@QBEXHAAV?$CStringT@DV?$StrTraitMFC@DV?$ChTraitsCRT@D@ATL@@@@@ATL@@@Z ; CListBox::GetText

; 116  : 	m_orig = m_Edit;

	mov	eax, DWORD PTR _this$[ebp]
	add	eax, 136				; 00000088H
	push	eax
	mov	ecx, DWORD PTR _this$[ebp]
	add	ecx, 120				; 00000078H
	call	??4?$CStringT@DV?$StrTraitMFC@DV?$ChTraitsCRT@D@ATL@@@@@ATL@@QAEAAV01@ABV01@@Z ; ATL::CStringT<char,StrTraitMFC<char,ATL::ChTraitsCRT<char> > >::operator=

; 117  : 	m_bModified = TRUE;

	mov	eax, DWORD PTR _this$[ebp]
	mov	DWORD PTR [eax+124], 1

; 118  : 	UpdateData(FALSE);

	push	0
	mov	ecx, DWORD PTR _this$[ebp]
	call	?UpdateData@CWnd@@QAEHH@Z		; CWnd::UpdateData

; 119  : 
; 120  : }

	pop	edi
	pop	esi
	pop	ebx
	add	esp, 228				; 000000e4H
	cmp	ebp, esp
	call	__RTC_CheckEsp
	mov	esp, ebp
	pop	ebp
	ret	0
?OnLbnSelchangeList1@CArrayEdit@@QAEXXZ ENDP		; CArrayEdit::OnLbnSelchangeList1
_TEXT	ENDS
EXTRN	?pRepSymbols@@3PAVCRSymbolAry@@A:DWORD		; pRepSymbols
EXTRN	?toArrayCombo@CSymbolAry@@QAEHPAVCComboBox@@AAV?$CStringT@DV?$StrTraitMFC@DV?$ChTraitsCRT@D@ATL@@@@@ATL@@@Z:NEAR ; CSymbolAry::toArrayCombo
EXTRN	?OnInitDialog@CDialog@@UAEHXZ:NEAR		; CDialog::OnInitDialog
; Function compile flags: /Odt /RTCcsu /ZI
;	COMDAT ?OnInitDialog@CArrayEdit@@UAEHXZ
_TEXT	SEGMENT
_pbox$ = -20						; size = 4
_this$ = -8						; size = 4
?OnInitDialog@CArrayEdit@@UAEHXZ PROC NEAR		; CArrayEdit::OnInitDialog, COMDAT
; _this$ = ecx

; 123  : {

	push	ebp
	mov	ebp, esp
	sub	esp, 216				; 000000d8H
	push	ebx
	push	esi
	push	edi
	push	ecx
	lea	edi, DWORD PTR [ebp-216]
	mov	ecx, 54					; 00000036H
	mov	eax, -858993460				; ccccccccH
	rep stosd
	pop	ecx
	mov	DWORD PTR _this$[ebp], ecx

; 124  : 	CDialog::OnInitDialog();

	mov	ecx, DWORD PTR _this$[ebp]
	call	?OnInitDialog@CDialog@@UAEHXZ		; CDialog::OnInitDialog

; 125  : 
; 126  : 	// TODO:  Add extra initialization here
; 127  : 	CComboBox *pbox = (CComboBox *)GetDlgItem(IDC_COMBO1);

	push	1024					; 00000400H
	mov	ecx, DWORD PTR _this$[ebp]
	call	?GetDlgItem@CWnd@@QBEPAV1@H@Z		; CWnd::GetDlgItem
	mov	DWORD PTR _pbox$[ebp], eax

; 128  :     pRepSymbols->toArrayCombo(pbox, m_symtypes);

	mov	eax, DWORD PTR _this$[ebp]
	add	eax, 132				; 00000084H
	push	eax
	mov	ecx, DWORD PTR _pbox$[ebp]
	push	ecx
	mov	ecx, DWORD PTR ?pRepSymbols@@3PAVCRSymbolAry@@A ; pRepSymbols
	call	?toArrayCombo@CSymbolAry@@QAEHPAVCComboBox@@AAV?$CStringT@DV?$StrTraitMFC@DV?$ChTraitsCRT@D@ATL@@@@@ATL@@@Z ; CSymbolAry::toArrayCombo

; 129  : 	return TRUE;  // return TRUE unless you set the focus to a control

	mov	eax, 1

; 130  : 	// EXCEPTION: OCX Property Pages should return FALSE
; 131  : }

	pop	edi
	pop	esi
	pop	ebx
	add	esp, 216				; 000000d8H
	cmp	ebp, esp
	call	__RTC_CheckEsp
	mov	esp, ebp
	pop	ebp
	ret	0
?OnInitDialog@CArrayEdit@@UAEHXZ ENDP			; CArrayEdit::OnInitDialog
_TEXT	ENDS
EXTRN	?OnOK@CDialog@@MAEXXZ:NEAR			; CDialog::OnOK
; Function compile flags: /Odt /RTCcsu /ZI
;	COMDAT ?OnOK@CArrayEdit@@MAEXXZ
_TEXT	SEGMENT
_pBox2$ = -20						; size = 4
_this$ = -8						; size = 4
?OnOK@CArrayEdit@@MAEXXZ PROC NEAR			; CArrayEdit::OnOK, COMDAT
; _this$ = ecx

; 134  : {

	push	ebp
	mov	ebp, esp
	sub	esp, 216				; 000000d8H
	push	ebx
	push	esi
	push	edi
	push	ecx
	lea	edi, DWORD PTR [ebp-216]
	mov	ecx, 54					; 00000036H
	mov	eax, -858993460				; ccccccccH
	rep stosd
	pop	ecx
	mov	DWORD PTR _this$[ebp], ecx

; 135  : 	// TODO: Add your specialized code here and/or call the base class
; 136  :     CListBox *pBox2 = (CListBox *)GetDlgItem(IDC_LIST1);

	push	1025					; 00000401H
	mov	ecx, DWORD PTR _this$[ebp]
	call	?GetDlgItem@CWnd@@QBEPAV1@H@Z		; CWnd::GetDlgItem
	mov	DWORD PTR _pBox2$[ebp], eax

; 137  : 	UpdateData(TRUE);

	push	1
	mov	ecx, DWORD PTR _this$[ebp]
	call	?UpdateData@CWnd@@QAEHH@Z		; CWnd::UpdateData

; 138  : 	if ( m_Edit != m_orig && m_orig.GetLength()>1 && m_index != -1)

	mov	eax, DWORD PTR _this$[ebp]
	add	eax, 120				; 00000078H
	push	eax
	mov	ecx, DWORD PTR _this$[ebp]
	add	ecx, 136				; 00000088H
	push	ecx
	call	??9ATL@@YA_NABV?$CStringT@DV?$StrTraitMFC@DV?$ChTraitsCRT@D@ATL@@@@@0@0@Z ; ATL::operator!=
	add	esp, 8
	movzx	edx, al
	test	edx, edx
	je	SHORT $L93368
	mov	ecx, DWORD PTR _this$[ebp]
	add	ecx, 120				; 00000078H
	call	?GetLength@?$CSimpleStringT@D$0A@@ATL@@QBEHXZ ; ATL::CSimpleStringT<char,0>::GetLength
	cmp	eax, 1
	jle	SHORT $L93368
	mov	eax, DWORD PTR _this$[ebp]
	cmp	DWORD PTR [eax+116], -1
	je	SHORT $L93368

; 139  : 	   pBox2->DeleteString(m_index);

	mov	eax, DWORD PTR _this$[ebp]
	mov	ecx, DWORD PTR [eax+116]
	push	ecx
	mov	ecx, DWORD PTR _pBox2$[ebp]
	call	?DeleteString@CListBox@@QAEHI@Z		; CListBox::DeleteString
$L93368:

; 140  : 	if ( m_Edit != m_orig && m_Edit.GetLength()>1 && m_index != -1)

	mov	eax, DWORD PTR _this$[ebp]
	add	eax, 120				; 00000078H
	push	eax
	mov	ecx, DWORD PTR _this$[ebp]
	add	ecx, 136				; 00000088H
	push	ecx
	call	??9ATL@@YA_NABV?$CStringT@DV?$StrTraitMFC@DV?$ChTraitsCRT@D@ATL@@@@@0@0@Z ; ATL::operator!=
	add	esp, 8
	movzx	edx, al
	test	edx, edx
	je	SHORT $L93369
	mov	ecx, DWORD PTR _this$[ebp]
	add	ecx, 136				; 00000088H
	call	?GetLength@?$CSimpleStringT@D$0A@@ATL@@QBEHXZ ; ATL::CSimpleStringT<char,0>::GetLength
	cmp	eax, 1
	jle	SHORT $L93369
	mov	eax, DWORD PTR _this$[ebp]
	cmp	DWORD PTR [eax+116], -1
	je	SHORT $L93369

; 141  : 		pBox2->InsertString(m_index, m_Edit);

	mov	ecx, DWORD PTR _this$[ebp]
	add	ecx, 136				; 00000088H
	call	??B?$CSimpleStringT@D$0A@@ATL@@QBEPBDXZ	; ATL::CSimpleStringT<char,0>::operator char const *
	push	eax
	mov	eax, DWORD PTR _this$[ebp]
	mov	ecx, DWORD PTR [eax+116]
	push	ecx
	mov	ecx, DWORD PTR _pBox2$[ebp]
	call	?InsertString@CListBox@@QAEHHPBD@Z	; CListBox::InsertString

; 142  : 	else if ( m_Edit.GetLength() > 1 && m_index == -1 )

	jmp	SHORT $L93370
$L93369:
	mov	ecx, DWORD PTR _this$[ebp]
	add	ecx, 136				; 00000088H
	call	?GetLength@?$CSimpleStringT@D$0A@@ATL@@QBEHXZ ; ATL::CSimpleStringT<char,0>::GetLength
	cmp	eax, 1
	jle	SHORT $L93370
	mov	eax, DWORD PTR _this$[ebp]
	cmp	DWORD PTR [eax+116], -1
	jne	SHORT $L93370

; 143  : 		pBox2->AddString(m_Edit);

	mov	ecx, DWORD PTR _this$[ebp]
	add	ecx, 136				; 00000088H
	call	??B?$CSimpleStringT@D$0A@@ATL@@QBEPBDXZ	; ATL::CSimpleStringT<char,0>::operator char const *
	push	eax
	mov	ecx, DWORD PTR _pBox2$[ebp]
	call	?AddString@CListBox@@QAEHPBD@Z		; CListBox::AddString
$L93370:

; 144  : 	if ( m_bModified == TRUE )

	mov	eax, DWORD PTR _this$[ebp]
	cmp	DWORD PTR [eax+124], 1
	jne	SHORT $L93372

; 145  : 		DoSave();

	mov	ecx, DWORD PTR _this$[ebp]
	call	?DoSave@CArrayEdit@@IAEXXZ		; CArrayEdit::DoSave
$L93372:

; 146  : 	CDialog::OnOK();

	mov	ecx, DWORD PTR _this$[ebp]
	call	?OnOK@CDialog@@MAEXXZ			; CDialog::OnOK

; 147  : }

	pop	edi
	pop	esi
	pop	ebx
	add	esp, 216				; 000000d8H
	cmp	ebp, esp
	call	__RTC_CheckEsp
	mov	esp, ebp
	pop	ebp
	ret	0
?OnOK@CArrayEdit@@MAEXXZ ENDP				; CArrayEdit::OnOK
_TEXT	ENDS
PUBLIC	?InterlockedExchangePointer@@YGPAXPAPAXPAX@Z	; InterlockedExchangePointer
PUBLIC	?_AtlGetThreadACPFake@ATL@@YGIXZ		; ATL::_AtlGetThreadACPFake
PUBLIC	?_AtlGetThreadACPReal@ATL@@YGIXZ		; ATL::_AtlGetThreadACPReal
EXTRN	__imp__GetVersionExA@4:NEAR
EXTRN	___security_cookie:DWORD
EXTRN	@__security_check_cookie@4:NEAR
; Function compile flags: /Odt /RTCcsu /ZI
; File c:\program files\microsoft visual studio .net 2003\vc7\atlmfc\include\atlconv.h
;	COMDAT ?_AtlGetThreadACPThunk@ATL@@YGIXZ
_TEXT	SEGMENT
_pfnGetThreadACP$ = -168				; size = 4
_ver$ = -156						; size = 148
__$ArrayPad$ = -4					; size = 4
__$ReturnAddr$ = 4					; size = 4
?_AtlGetThreadACPThunk@ATL@@YGIXZ PROC NEAR		; ATL::_AtlGetThreadACPThunk, COMDAT

; 134  : {

	push	ebp
	mov	ebp, esp
	sub	esp, 364				; 0000016cH
	push	ebx
	push	esi
	push	edi
	lea	edi, DWORD PTR [ebp-364]
	mov	ecx, 91					; 0000005bH
	mov	eax, -858993460				; ccccccccH
	rep stosd
	mov	eax, DWORD PTR ___security_cookie
	mov	DWORD PTR __$ArrayPad$[ebp], eax

; 135  : 	OSVERSIONINFO ver;
; 136  : 	ATLGETTHREADACP pfnGetThreadACP;
; 137  : 
; 138  : 	ver.dwOSVersionInfoSize = sizeof( ver );

	mov	DWORD PTR _ver$[ebp], 148		; 00000094H

; 139  : 	::GetVersionEx( &ver );

	mov	esi, esp
	lea	eax, DWORD PTR _ver$[ebp]
	push	eax
	call	DWORD PTR __imp__GetVersionExA@4
	cmp	esi, esp
	call	__RTC_CheckEsp

; 140  : 	if( (ver.dwPlatformId == VER_PLATFORM_WIN32_NT) && (ver.dwMajorVersion >= 5) )

	cmp	DWORD PTR _ver$[ebp+16], 2
	jne	SHORT $L23727
	cmp	DWORD PTR _ver$[ebp+4], 5
	jb	SHORT $L23727

; 141  : 	{
; 142  : 		// On Win2K, CP_THREAD_ACP is supported
; 143  : 		pfnGetThreadACP = _AtlGetThreadACPReal;

	mov	DWORD PTR _pfnGetThreadACP$[ebp], OFFSET FLAT:?_AtlGetThreadACPReal@ATL@@YGIXZ ; ATL::_AtlGetThreadACPReal

; 144  : 	}
; 145  : 	else

	jmp	SHORT $L23728
$L23727:

; 146  : 	{
; 147  : 		pfnGetThreadACP = _AtlGetThreadACPFake;

	mov	DWORD PTR _pfnGetThreadACP$[ebp], OFFSET FLAT:?_AtlGetThreadACPFake@ATL@@YGIXZ ; ATL::_AtlGetThreadACPFake
$L23728:

; 148  : 	}
; 149  : 	InterlockedExchangePointer( reinterpret_cast< void** >(&g_pfnGetThreadACP), pfnGetThreadACP );

	mov	eax, DWORD PTR _pfnGetThreadACP$[ebp]
	push	eax
	push	OFFSET FLAT:?g_pfnGetThreadACP@ATL@@3P6GIXZA ; ATL::g_pfnGetThreadACP
	call	?InterlockedExchangePointer@@YGPAXPAPAXPAX@Z ; InterlockedExchangePointer

; 150  : 
; 151  : 	return( g_pfnGetThreadACP() );

	mov	esi, esp
	call	DWORD PTR ?g_pfnGetThreadACP@ATL@@3P6GIXZA ; ATL::g_pfnGetThreadACP
	cmp	esi, esp
	call	__RTC_CheckEsp

; 152  : }

	push	edx
	mov	ecx, ebp
	push	eax
	lea	edx, DWORD PTR $L93711
	call	@_RTC_CheckStackVars@8
	pop	eax
	pop	edx
	mov	ecx, DWORD PTR __$ArrayPad$[ebp]
	call	@__security_check_cookie@4
	pop	edi
	pop	esi
	pop	ebx
	add	esp, 364				; 0000016cH
	cmp	ebp, esp
	call	__RTC_CheckEsp
	mov	esp, ebp
	pop	ebp
	ret	0
$L93711:
	DD	1
	DD	$L93710
$L93710:
	DD	-156					; ffffff64H
	DD	148					; 00000094H
	DD	$L93707
$L93707:
	DB	118					; 00000076H
	DB	101					; 00000065H
	DB	114					; 00000072H
	DB	0
?_AtlGetThreadACPThunk@ATL@@YGIXZ ENDP			; ATL::_AtlGetThreadACPThunk
_TEXT	ENDS
EXTRN	__imp__InterlockedExchange@8:NEAR
; Function compile flags: /Odt /RTCcsu /ZI
;	COMDAT ?InterlockedExchangePointer@@YGPAXPAPAXPAX@Z
_TEXT	SEGMENT
_pp$ = 8						; size = 4
_pNew$ = 12						; size = 4
?InterlockedExchangePointer@@YGPAXPAPAXPAX@Z PROC NEAR	; InterlockedExchangePointer, COMDAT

; 91   : {

	push	ebp
	mov	ebp, esp
	sub	esp, 192				; 000000c0H
	push	ebx
	push	esi
	push	edi
	lea	edi, DWORD PTR [ebp-192]
	mov	ecx, 48					; 00000030H
	mov	eax, -858993460				; ccccccccH
	rep stosd

; 92   : 	return( reinterpret_cast<void*>(static_cast<LONG_PTR>(::InterlockedExchange(reinterpret_cast<LONG*>(pp), static_cast<LONG>(reinterpret_cast<LONG_PTR>(pNew))))) );

	mov	esi, esp
	mov	eax, DWORD PTR _pNew$[ebp]
	push	eax
	mov	ecx, DWORD PTR _pp$[ebp]
	push	ecx
	call	DWORD PTR __imp__InterlockedExchange@8
	cmp	esi, esp
	call	__RTC_CheckEsp

; 93   : }

	pop	edi
	pop	esi
	pop	ebx
	add	esp, 192				; 000000c0H
	cmp	ebp, esp
	call	__RTC_CheckEsp
	mov	esp, ebp
	pop	ebp
	ret	8
?InterlockedExchangePointer@@YGPAXPAPAXPAX@Z ENDP	; InterlockedExchangePointer
_TEXT	ENDS
EXTRN	__imp__GetACP@0:NEAR
EXTRN	__imp__GetLocaleInfoA@16:NEAR
EXTRN	__imp__GetThreadLocale@0:NEAR
; Function compile flags: /Odt /RTCcsu /ZI
;	COMDAT ?_AtlGetThreadACPFake@ATL@@YGIXZ
_TEXT	SEGMENT
_pch$23715 = -52					; size = 4
_szACP$ = -40						; size = 7
_lcidThread$ = -24					; size = 4
_nACP$ = -12						; size = 4
__$ArrayPad$ = -4					; size = 4
__$ReturnAddr$ = 4					; size = 4
?_AtlGetThreadACPFake@ATL@@YGIXZ PROC NEAR		; ATL::_AtlGetThreadACPFake, COMDAT

; 101  : {

	push	ebp
	mov	ebp, esp
	sub	esp, 248				; 000000f8H
	push	ebx
	push	esi
	push	edi
	lea	edi, DWORD PTR [ebp-248]
	mov	ecx, 62					; 0000003eH
	mov	eax, -858993460				; ccccccccH
	rep stosd
	mov	eax, DWORD PTR ___security_cookie
	mov	DWORD PTR __$ArrayPad$[ebp], eax

; 102  : 	UINT nACP = 0;

	mov	DWORD PTR _nACP$[ebp], 0

; 103  : 
; 104  : 	LCID lcidThread = ::GetThreadLocale();

	mov	esi, esp
	call	DWORD PTR __imp__GetThreadLocale@0
	cmp	esi, esp
	call	__RTC_CheckEsp
	mov	DWORD PTR _lcidThread$[ebp], eax

; 105  : 
; 106  : 	char szACP[7];
; 107  : 	// GetLocaleInfoA will fail for a Unicode-only LCID, but those are only supported on 
; 108  : 	// Windows 2000.  Since Windows 2000 supports CP_THREAD_ACP, this code path is never
; 109  : 	// executed on Windows 2000.
; 110  : 	if (::GetLocaleInfoA(lcidThread, LOCALE_IDEFAULTANSICODEPAGE, szACP, 7) != 0)

	mov	esi, esp
	push	7
	lea	eax, DWORD PTR _szACP$[ebp]
	push	eax
	push	4100					; 00001004H
	mov	ecx, DWORD PTR _lcidThread$[ebp]
	push	ecx
	call	DWORD PTR __imp__GetLocaleInfoA@16
	cmp	esi, esp
	call	__RTC_CheckEsp
	test	eax, eax
	je	SHORT $L23714

; 111  : 	{
; 112  : 		char* pch = szACP;

	lea	eax, DWORD PTR _szACP$[ebp]
	mov	DWORD PTR _pch$23715[ebp], eax
$L23717:

; 113  : 		while (*pch != '\0')

	mov	eax, DWORD PTR _pch$23715[ebp]
	movsx	ecx, BYTE PTR [eax]
	test	ecx, ecx
	je	SHORT $L23714

; 114  : 		{
; 115  : 			nACP *= 10;

	mov	eax, DWORD PTR _nACP$[ebp]
	imul	eax, 10					; 0000000aH
	mov	DWORD PTR _nACP$[ebp], eax

; 116  : 			nACP += *pch++ - '0';

	mov	eax, DWORD PTR _pch$23715[ebp]
	movsx	ecx, BYTE PTR [eax]
	mov	edx, DWORD PTR _nACP$[ebp]
	lea	eax, DWORD PTR [edx+ecx-48]
	mov	DWORD PTR _nACP$[ebp], eax
	mov	ecx, DWORD PTR _pch$23715[ebp]
	add	ecx, 1
	mov	DWORD PTR _pch$23715[ebp], ecx

; 117  : 		}

	jmp	SHORT $L23717
$L23714:

; 118  : 	}
; 119  : 	// Use the Default ANSI Code Page if we were unable to get the thread ACP or if one does not exist.
; 120  : 	if (nACP == 0)

	cmp	DWORD PTR _nACP$[ebp], 0
	jne	SHORT $L23719

; 121  : 		nACP = ::GetACP();

	mov	esi, esp
	call	DWORD PTR __imp__GetACP@0
	cmp	esi, esp
	call	__RTC_CheckEsp
	mov	DWORD PTR _nACP$[ebp], eax
$L23719:

; 122  : 
; 123  : 	return nACP;

	mov	eax, DWORD PTR _nACP$[ebp]

; 124  : }

	push	edx
	mov	ecx, ebp
	push	eax
	lea	edx, DWORD PTR $L93721
	call	@_RTC_CheckStackVars@8
	pop	eax
	pop	edx
	mov	ecx, DWORD PTR __$ArrayPad$[ebp]
	call	@__security_check_cookie@4
	pop	edi
	pop	esi
	pop	ebx
	add	esp, 248				; 000000f8H
	cmp	ebp, esp
	call	__RTC_CheckEsp
	mov	esp, ebp
	pop	ebp
	ret	0
$L93721:
	DD	1
	DD	$L93720
$L93720:
	DD	-40					; ffffffd8H
	DD	7
	DD	$L93718
$L93718:
	DB	115					; 00000073H
	DB	122					; 0000007aH
	DB	65					; 00000041H
	DB	67					; 00000043H
	DB	80					; 00000050H
	DB	0
?_AtlGetThreadACPFake@ATL@@YGIXZ ENDP			; ATL::_AtlGetThreadACPFake
; Function compile flags: /Odt /RTCcsu /ZI
_TEXT	ENDS
;	COMDAT ?_AtlGetThreadACPReal@ATL@@YGIXZ
_TEXT	SEGMENT
?_AtlGetThreadACPReal@ATL@@YGIXZ PROC NEAR		; ATL::_AtlGetThreadACPReal, COMDAT

; 127  : {

	push	ebp
	mov	ebp, esp
	sub	esp, 192				; 000000c0H
	push	ebx
	push	esi
	push	edi
	lea	edi, DWORD PTR [ebp-192]
	mov	ecx, 48					; 00000030H
	mov	eax, -858993460				; ccccccccH
	rep stosd

; 128  : 	return( CP_THREAD_ACP );

	mov	eax, 3

; 129  : }

	pop	edi
	pop	esi
	pop	ebx
	mov	esp, ebp
	pop	ebp
	ret	0
?_AtlGetThreadACPReal@ATL@@YGIXZ ENDP			; ATL::_AtlGetThreadACPReal
_TEXT	ENDS
PUBLIC	??1CDReportText@@UAE@XZ				; CDReportText::~CDReportText
PUBLIC	??_C@_05ECMNLKDI@?$CF?$FL?$FO?9?$FN?$AA@	; `string'
PUBLIC	??_C@_0FM@HGLAIJD@select?5?$CK?5from?5ReportText?5where?5t@ ; `string'
PUBLIC	??_R0PAVCDaoException@@@8			; CDaoException * `RTTI Type Descriptor'
PUBLIC	??_C@_0BC@PNMIDJEG@Error?5on?5Database?$AA@	; `string'
PUBLIC	??0?$CStringT@DV?$StrTraitMFC@DV?$ChTraitsCRT@D@ATL@@@@@ATL@@QAE@ABV01@@Z ; ATL::CStringT<char,StrTraitMFC<char,ATL::ChTraitsCRT<char> > >::CStringT<char,StrTraitMFC<char,ATL::ChTraitsCRT<char> > >
PUBLIC	?Trim@?$CStringT@DV?$StrTraitMFC@DV?$ChTraitsCRT@D@ATL@@@@@ATL@@QAEAAV12@XZ ; ATL::CStringT<char,StrTraitMFC<char,ATL::ChTraitsCRT<char> > >::Trim
EXTRN	??0CDReportText@@QAE@PAVCDaoDatabase@@@Z:NEAR	; CDReportText::CDReportText
EXTRN	?alert_box@@YAHPADPBDZZ:NEAR			; alert_box
EXTRN	?GetCurLanguage@@YAAAV?$CStringT@DV?$StrTraitMFC@DV?$ChTraitsCRT@D@ATL@@@@@ATL@@XZ:NEAR ; GetCurLanguage
EXTRN	??_7type_info@@6B@:DWORD			; type_info::`vftable'
EXTRN	?GetCount@CListBox@@QBEHXZ:NEAR			; CListBox::GetCount
EXTRN	_sprintf:NEAR
EXTRN	_sscanf:NEAR
EXTRN	?GetTextLen@CListBox@@QBEHH@Z:NEAR		; CListBox::GetTextLen
EXTRN	@_RTC_Check_4_to_2@4:NEAR
EXTRN	?Open@CDaoRecordset@@UAEXHPBDH@Z:NEAR		; CDaoRecordset::Open
EXTRN	?Close@CDaoRecordset@@UAEXXZ:NEAR		; CDaoRecordset::Close
EXTRN	?IsBOF@CDaoRecordset@@QBEHXZ:NEAR		; CDaoRecordset::IsBOF
EXTRN	?IsEOF@CDaoRecordset@@QBEHXZ:NEAR		; CDaoRecordset::IsEOF
EXTRN	?MoveNext@CDaoRecordset@@QAEXXZ:NEAR		; CDaoRecordset::MoveNext
EXTRN	?AddNew@CDaoRecordset@@UAEXXZ:NEAR		; CDaoRecordset::AddNew
EXTRN	?Edit@CDaoRecordset@@UAEXXZ:NEAR		; CDaoRecordset::Edit
EXTRN	?Update@CDaoRecordset@@UAEXXZ:NEAR		; CDaoRecordset::Update
EXTRN	?Delete@CDaoRecordset@@UAEXXZ:NEAR		; CDaoRecordset::Delete
EXTRN	?CancelUpdate@CDaoRecordset@@UAEXXZ:NEAR	; CDaoRecordset::CancelUpdate
EXTRN	_memset:NEAR
EXTRN	_strcpy:NEAR
;	COMDAT xdata$x
; File c:\astrow32dev\tbt32\arrayedit.cpp
xdata$x	SEGMENT
__unwindtable$?DoSave@CArrayEdit@@IAEXXZ DD 0ffffffffH
	DD	FLAT:__unwindfunclet$?DoSave@CArrayEdit@@IAEXXZ$2
	DD	00H
	DD	00H
	DD	01H
	DD	FLAT:__unwindfunclet$?DoSave@CArrayEdit@@IAEXXZ$3
	DD	02H
	DD	FLAT:__unwindfunclet$?DoSave@CArrayEdit@@IAEXXZ$4
	DD	03H
	DD	FLAT:__unwindfunclet$?DoSave@CArrayEdit@@IAEXXZ$5
	DD	00H
	DD	00H
__catchsym$?DoSave@CArrayEdit@@IAEXXZ$6 DD 00H
	DD	FLAT:??_R0PAVCDaoException@@@8
	DD	0fffffbb0H
	DD	FLAT:__catch$?DoSave@CArrayEdit@@IAEXXZ$0
__tryblocktable$?DoSave@CArrayEdit@@IAEXXZ DD 01H
	DD	04H
	DD	05H
	DD	01H
	DD	FLAT:__catchsym$?DoSave@CArrayEdit@@IAEXXZ$6
__ehfuncinfo$?DoSave@CArrayEdit@@IAEXXZ DD 019930520H
	DD	06H
	DD	FLAT:__unwindtable$?DoSave@CArrayEdit@@IAEXXZ
	DD	01H
	DD	FLAT:__tryblocktable$?DoSave@CArrayEdit@@IAEXXZ
	DD	2 DUP(00H)
xdata$x	ENDS
;	COMDAT ??_C@_05ECMNLKDI@?$CF?$FL?$FO?9?$FN?$AA@
CONST	SEGMENT
??_C@_05ECMNLKDI@?$CF?$FL?$FO?9?$FN?$AA@ DB '%[^-]', 00H ; `string'
CONST	ENDS
;	COMDAT ??_C@_0FM@HGLAIJD@select?5?$CK?5from?5ReportText?5where?5t@
CONST	SEGMENT
??_C@_0FM@HGLAIJD@select?5?$CK?5from?5ReportText?5where?5t@ DB 'select * '
	DB	'from ReportText where textkey=''%s'' and texttype=''%s'' and '
	DB	'lang=''%s'' order by iIndex', 00H		; `string'
CONST	ENDS
;	COMDAT ??_C@_0BC@PNMIDJEG@Error?5on?5Database?$AA@
CONST	SEGMENT
??_C@_0BC@PNMIDJEG@Error?5on?5Database?$AA@ DB 'Error on Database', 00H ; `string'
CONST	ENDS
;	COMDAT ??_R0PAVCDaoException@@@8
_DATA	SEGMENT
??_R0PAVCDaoException@@@8 DD FLAT:??_7type_info@@6B@	; CDaoException * `RTTI Type Descriptor'
	DD	00H
	DB	'.PAVCDaoException@@', 00H
; Function compile flags: /Odt /RTCcsu /ZI
_DATA	ENDS
;	COMDAT ?DoSave@CArrayEdit@@IAEXXZ
_TEXT	SEGMENT
tv220 = -1320						; size = 4
tv217 = -1320						; size = 4
tv228 = -1316						; size = 4
tv227 = -1316						; size = 4
tv226 = -1316						; size = 4
tv225 = -1316						; size = 4
tv224 = -1316						; size = 4
tv223 = -1316						; size = 4
tv222 = -1316						; size = 4
tv221 = -1316						; size = 4
tv219 = -1316						; size = 4
tv68 = -1316						; size = 4
$T93727 = -1308						; size = 4
_e$93408 = -1104					; size = 4
_cnt$93393 = -1092					; size = 4
_Lang$93389 = -1080					; size = 4
_theSet$93388 = -1068					; size = 172
_tt$ = -888						; size = 4
_iInd$ = -876						; size = 4
_iKey$ = -864						; size = 4
_pBox$ = -852						; size = 4
_errbuf$ = -840						; size = 500
_alang$ = -332						; size = 11
_ttp$ = -312						; size = 35
_item$ = -268						; size = 35
_key1$ = -224						; size = 25
_sqlbuf$ = -188						; size = 150
_this$ = -28						; size = 4
__$ArrayPad$ = -20					; size = 4
__$EHRec$ = -16						; size = 16
__$ReturnAddr$ = 4					; size = 4
?DoSave@CArrayEdit@@IAEXXZ PROC NEAR			; CArrayEdit::DoSave, COMDAT
; _this$ = ecx

; 150  : {

	push	ebp
	mov	ebp, esp
	push	-1
	push	__ehhandler$?DoSave@CArrayEdit@@IAEXXZ
	mov	eax, DWORD PTR fs:__except_list
	push	eax
	mov	DWORD PTR fs:__except_list, esp
	push	ecx
	sub	esp, 1304				; 00000518H
	push	ebx
	push	esi
	push	edi
	push	ecx
	lea	edi, DWORD PTR [ebp-1320]
	mov	ecx, 326				; 00000146H
	mov	eax, -858993460				; ccccccccH
	rep stosd
	pop	ecx
	mov	eax, DWORD PTR ___security_cookie
	mov	DWORD PTR __$ArrayPad$[ebp], eax
	mov	DWORD PTR __$EHRec$[ebp], esp
	mov	DWORD PTR _this$[ebp], ecx

; 151  :  char sqlbuf[150], key1[25], item[35], ttp[35], alang[11];
; 152  :  TCHAR errbuf[500];
; 153  :  CListBox *pBox = (CListBox *)GetDlgItem(IDC_LIST1);

	push	1025					; 00000401H
	mov	ecx, DWORD PTR _this$[ebp]
	call	?GetDlgItem@CWnd@@QBEPAV1@H@Z		; CWnd::GetDlgItem
	mov	DWORD PTR _pBox$[ebp], eax

; 154  :  int iKey, iInd;
; 155  :  CString tt;

	lea	ecx, DWORD PTR _tt$[ebp]
	call	??0?$CStringT@DV?$StrTraitMFC@DV?$ChTraitsCRT@D@ATL@@@@@ATL@@QAE@XZ ; ATL::CStringT<char,StrTraitMFC<char,ATL::ChTraitsCRT<char> > >::CStringT<char,StrTraitMFC<char,ATL::ChTraitsCRT<char> > >
	mov	DWORD PTR __$EHRec$[ebp+12], 0

; 156  :  try {

	mov	BYTE PTR __$EHRec$[ebp+12], 1

; 157  :    CDReportText theSet;

	push	0
	lea	ecx, DWORD PTR _theSet$93388[ebp]
	call	??0CDReportText@@QAE@PAVCDaoDatabase@@@Z ; CDReportText::CDReportText
	mov	DWORD PTR tv68[ebp], eax
	mov	BYTE PTR __$EHRec$[ebp+12], 2

; 158  :    CString Lang = GetCurLanguage();

	call	?GetCurLanguage@@YAAAV?$CStringT@DV?$StrTraitMFC@DV?$ChTraitsCRT@D@ATL@@@@@ATL@@XZ ; GetCurLanguage
	mov	DWORD PTR tv219[ebp], eax
	mov	eax, DWORD PTR tv219[ebp]
	push	eax
	lea	ecx, DWORD PTR _Lang$93389[ebp]
	call	??0?$CStringT@DV?$StrTraitMFC@DV?$ChTraitsCRT@D@ATL@@@@@ATL@@QAE@ABV01@@Z ; ATL::CStringT<char,StrTraitMFC<char,ATL::ChTraitsCRT<char> > >::CStringT<char,StrTraitMFC<char,ATL::ChTraitsCRT<char> > >
	mov	DWORD PTR tv220[ebp], eax
	mov	BYTE PTR __$EHRec$[ebp+12], 3

; 159  :    memset(alang,0,11);

	push	11					; 0000000bH
	push	0
	lea	eax, DWORD PTR _alang$[ebp]
	push	eax
	call	_memset
	add	esp, 12					; 0000000cH

; 160  : #ifdef _UNICODE
; 161  :    memset(item,0,35);
; 162  :    memset(ttp,0,35);
; 163  :    wcstombs(item,m_item,m_item.GetLength());
; 164  :    wcstombs(ttp,m_texttype,m_texttype.GetLength());
; 165  :    wcstombs(alang, (LPCTSTR)Lang, Lang.GetLength());
; 166  : #else
; 167  :    strcpy(item,m_item);

	mov	ecx, DWORD PTR _this$[ebp]
	add	ecx, 112				; 00000070H
	call	??B?$CSimpleStringT@D$0A@@ATL@@QBEPBDXZ	; ATL::CSimpleStringT<char,0>::operator char const *
	push	eax
	lea	eax, DWORD PTR _item$[ebp]
	push	eax
	call	_strcpy
	add	esp, 8

; 168  :    strcpy(ttp,m_texttype);

	mov	ecx, DWORD PTR _this$[ebp]
	add	ecx, 128				; 00000080H
	call	??B?$CSimpleStringT@D$0A@@ATL@@QBEPBDXZ	; ATL::CSimpleStringT<char,0>::operator char const *
	push	eax
	lea	eax, DWORD PTR _ttp$[ebp]
	push	eax
	call	_strcpy
	add	esp, 8

; 169  :    strcpy(alang,Lang);

	lea	ecx, DWORD PTR _Lang$93389[ebp]
	call	??B?$CSimpleStringT@D$0A@@ATL@@QBEPBDXZ	; ATL::CSimpleStringT<char,0>::operator char const *
	push	eax
	lea	eax, DWORD PTR _alang$[ebp]
	push	eax
	call	_strcpy
	add	esp, 8

; 170  : #endif
; 171  :    sscanf(item,"%[^-]", key1 );

	lea	eax, DWORD PTR _key1$[ebp]
	push	eax
	push	OFFSET FLAT:??_C@_05ECMNLKDI@?$CF?$FL?$FO?9?$FN?$AA@
	lea	ecx, DWORD PTR _item$[ebp]
	push	ecx
	call	_sscanf
	add	esp, 12					; 0000000cH

; 172  : 
; 173  :   
; 174  :    sprintf( sqlbuf, "select * from ReportText where textkey='%s' and texttype='%s' and lang='%s' order by iIndex", \
; 175  : 	   key1, ttp, alang);

	lea	eax, DWORD PTR _alang$[ebp]
	push	eax
	lea	ecx, DWORD PTR _ttp$[ebp]
	push	ecx
	lea	edx, DWORD PTR _key1$[ebp]
	push	edx
	push	OFFSET FLAT:??_C@_0FM@HGLAIJD@select?5?$CK?5from?5ReportText?5where?5t@
	lea	eax, DWORD PTR _sqlbuf$[ebp]
	push	eax
	call	_sprintf
	add	esp, 20					; 00000014H

; 176  :    theSet.Open(dbOpenDynaset,CString(sqlbuf));

	lea	eax, DWORD PTR _sqlbuf$[ebp]
	push	eax
	lea	ecx, DWORD PTR $T93727[ebp]
	call	??0?$CStringT@DV?$StrTraitMFC@DV?$ChTraitsCRT@D@ATL@@@@@ATL@@QAE@PBD@Z ; ATL::CStringT<char,StrTraitMFC<char,ATL::ChTraitsCRT<char> > >::CStringT<char,StrTraitMFC<char,ATL::ChTraitsCRT<char> > >
	mov	DWORD PTR tv221[ebp], eax
	mov	ecx, DWORD PTR tv221[ebp]
	mov	DWORD PTR tv217[ebp], ecx
	mov	BYTE PTR __$EHRec$[ebp+12], 4
	push	0
	mov	ecx, DWORD PTR tv217[ebp]
	call	??B?$CSimpleStringT@D$0A@@ATL@@QBEPBDXZ	; ATL::CSimpleStringT<char,0>::operator char const *
	push	eax
	push	2
	lea	ecx, DWORD PTR _theSet$93388[ebp]
	call	?Open@CDaoRecordset@@UAEXHPBDH@Z	; CDaoRecordset::Open
	mov	BYTE PTR __$EHRec$[ebp+12], 3
	lea	ecx, DWORD PTR $T93727[ebp]
	call	??1?$CStringT@DV?$StrTraitMFC@DV?$ChTraitsCRT@D@ATL@@@@@ATL@@QAE@XZ ; ATL::CStringT<char,StrTraitMFC<char,ATL::ChTraitsCRT<char> > >::~CStringT<char,StrTraitMFC<char,ATL::ChTraitsCRT<char> > >

; 177  :    int cnt = pBox->GetCount();

	mov	ecx, DWORD PTR _pBox$[ebp]
	call	?GetCount@CListBox@@QBEHXZ		; CListBox::GetCount
	mov	DWORD PTR tv222[ebp], eax
	mov	eax, DWORD PTR tv222[ebp]
	mov	DWORD PTR _cnt$93393[ebp], eax

; 178  :    iInd = 0;

	mov	DWORD PTR _iInd$[ebp], 0

; 179  :    if ( !theSet.IsBOF() ) {

	lea	ecx, DWORD PTR _theSet$93388[ebp]
	call	?IsBOF@CDaoRecordset@@QBEHXZ		; CDaoRecordset::IsBOF
	mov	DWORD PTR tv223[ebp], eax
	cmp	DWORD PTR tv223[ebp], 0
	jne	$L93394

; 180  : 	   tt = theSet.m_texttype;

	lea	eax, DWORD PTR _theSet$93388[ebp+152]
	push	eax
	lea	ecx, DWORD PTR _tt$[ebp]
	call	??4?$CStringT@DV?$StrTraitMFC@DV?$ChTraitsCRT@D@ATL@@@@@ATL@@QAEAAV01@ABV01@@Z ; ATL::CStringT<char,StrTraitMFC<char,ATL::ChTraitsCRT<char> > >::operator=

; 181  : 	   iKey = theSet.m_iTextKey;

	movsx	eax, WORD PTR _theSet$93388[ebp+162]
	mov	DWORD PTR _iKey$[ebp], eax
$L93396:

; 182  : 	   while ( !theSet.IsEOF() ) {

	lea	ecx, DWORD PTR _theSet$93388[ebp]
	call	?IsEOF@CDaoRecordset@@QBEHXZ		; CDaoRecordset::IsEOF
	mov	DWORD PTR tv224[ebp], eax
	cmp	DWORD PTR tv224[ebp], 0
	jne	$L93397

; 183  : 		  theSet.Edit();

	lea	ecx, DWORD PTR _theSet$93388[ebp]
	call	?Edit@CDaoRecordset@@UAEXXZ		; CDaoRecordset::Edit

; 184  : 		  if (pBox->GetTextLen(iInd)== LB_ERR ) {

	mov	eax, DWORD PTR _iInd$[ebp]
	push	eax
	mov	ecx, DWORD PTR _pBox$[ebp]
	call	?GetTextLen@CListBox@@QBEHH@Z		; CListBox::GetTextLen
	mov	DWORD PTR tv225[ebp], eax
	cmp	DWORD PTR tv225[ebp], -1
	jne	SHORT $L93398

; 185  : 			 theSet.CancelUpdate();

	lea	ecx, DWORD PTR _theSet$93388[ebp]
	call	?CancelUpdate@CDaoRecordset@@UAEXXZ	; CDaoRecordset::CancelUpdate
$L93400:

; 186  : 			 while ( !theSet.IsEOF() ) {

	lea	ecx, DWORD PTR _theSet$93388[ebp]
	call	?IsEOF@CDaoRecordset@@QBEHXZ		; CDaoRecordset::IsEOF
	mov	DWORD PTR tv226[ebp], eax
	cmp	DWORD PTR tv226[ebp], 0
	jne	SHORT $L93401

; 187  : 			    theSet.Delete();

	lea	ecx, DWORD PTR _theSet$93388[ebp]
	call	?Delete@CDaoRecordset@@UAEXXZ		; CDaoRecordset::Delete

; 188  : 				theSet.MoveNext();

	lea	ecx, DWORD PTR _theSet$93388[ebp]
	call	?MoveNext@CDaoRecordset@@QAEXXZ		; CDaoRecordset::MoveNext

; 189  : 			    iInd++;

	mov	eax, DWORD PTR _iInd$[ebp]
	add	eax, 1
	mov	DWORD PTR _iInd$[ebp], eax

; 190  : 			    }

	jmp	SHORT $L93400
$L93401:

; 191  : 			 break;

	jmp	SHORT $L93397
$L93398:

; 192  : 		     }
; 193  : 		  pBox->GetText(iInd,theSet.m_text);

	lea	eax, DWORD PTR _theSet$93388[ebp+164]
	push	eax
	mov	ecx, DWORD PTR _iInd$[ebp]
	push	ecx
	mov	ecx, DWORD PTR _pBox$[ebp]
	call	?GetText@CListBox@@QBEXHAAV?$CStringT@DV?$StrTraitMFC@DV?$ChTraitsCRT@D@ATL@@@@@ATL@@@Z ; CListBox::GetText

; 194  : 	      theSet.Update();

	lea	ecx, DWORD PTR _theSet$93388[ebp]
	call	?Update@CDaoRecordset@@UAEXXZ		; CDaoRecordset::Update

; 195  : 		  theSet.MoveNext();

	lea	ecx, DWORD PTR _theSet$93388[ebp]
	call	?MoveNext@CDaoRecordset@@QAEXXZ		; CDaoRecordset::MoveNext

; 196  :           iInd++;

	mov	eax, DWORD PTR _iInd$[ebp]
	add	eax, 1
	mov	DWORD PTR _iInd$[ebp], eax

; 197  : 	   }

	jmp	$L93396
$L93397:

; 198  : 	   for ( ; iInd < cnt; iInd++ ) {

	jmp	SHORT $L93402
$L93403:
	mov	eax, DWORD PTR _iInd$[ebp]
	add	eax, 1
	mov	DWORD PTR _iInd$[ebp], eax
$L93402:
	mov	eax, DWORD PTR _iInd$[ebp]
	cmp	eax, DWORD PTR _cnt$93393[ebp]
	jge	$L93394

; 199  : 	      theSet.AddNew();

	lea	ecx, DWORD PTR _theSet$93388[ebp]
	call	?AddNew@CDaoRecordset@@UAEXXZ		; CDaoRecordset::AddNew

; 200  : 		  if ( pBox->GetTextLen(iInd)> 0 )

	mov	eax, DWORD PTR _iInd$[ebp]
	push	eax
	mov	ecx, DWORD PTR _pBox$[ebp]
	call	?GetTextLen@CListBox@@QBEHH@Z		; CListBox::GetTextLen
	mov	DWORD PTR tv227[ebp], eax
	cmp	DWORD PTR tv227[ebp], 0
	jle	SHORT $L93405

; 201  : 		     pBox->GetText(iInd,theSet.m_text);

	lea	eax, DWORD PTR _theSet$93388[ebp+164]
	push	eax
	mov	ecx, DWORD PTR _iInd$[ebp]
	push	ecx
	mov	ecx, DWORD PTR _pBox$[ebp]
	call	?GetText@CListBox@@QBEXHAAV?$CStringT@DV?$StrTraitMFC@DV?$ChTraitsCRT@D@ATL@@@@@ATL@@@Z ; CListBox::GetText

; 202  : 		  else

	jmp	SHORT $L93406
$L93405:

; 203  : 			  theSet.m_text = "";

	push	OFFSET FLAT:??_C@_00CNPNBAHC@?$AA@
	lea	ecx, DWORD PTR _theSet$93388[ebp+164]
	call	??4?$CStringT@DV?$StrTraitMFC@DV?$ChTraitsCRT@D@ATL@@@@@ATL@@QAEAAV01@PBD@Z ; ATL::CStringT<char,StrTraitMFC<char,ATL::ChTraitsCRT<char> > >::operator=
$L93406:

; 204  : 		  if ( theSet.m_text.Trim().GetLength() == 0 && iInd == cnt-1 ) {

	lea	ecx, DWORD PTR _theSet$93388[ebp+164]
	call	?Trim@?$CStringT@DV?$StrTraitMFC@DV?$ChTraitsCRT@D@ATL@@@@@ATL@@QAEAAV12@XZ ; ATL::CStringT<char,StrTraitMFC<char,ATL::ChTraitsCRT<char> > >::Trim
	mov	DWORD PTR tv228[ebp], eax
	mov	ecx, DWORD PTR tv228[ebp]
	call	?GetLength@?$CSimpleStringT@D$0A@@ATL@@QBEHXZ ; ATL::CSimpleStringT<char,0>::GetLength
	test	eax, eax
	jne	SHORT $L93407
	mov	eax, DWORD PTR _cnt$93393[ebp]
	sub	eax, 1
	cmp	DWORD PTR _iInd$[ebp], eax
	jne	SHORT $L93407

; 205  : 			  theSet.CancelUpdate();

	lea	ecx, DWORD PTR _theSet$93388[ebp]
	call	?CancelUpdate@CDaoRecordset@@UAEXXZ	; CDaoRecordset::CancelUpdate

; 206  : 			  break;

	jmp	SHORT $L93394
$L93407:

; 207  : 		     }
; 208  : 		  theSet.m_iIndex = iInd;

	mov	ecx, DWORD PTR _iInd$[ebp]
	call	@_RTC_Check_4_to_2@4
	mov	WORD PTR _theSet$93388[ebp+160], ax

; 209  : 		  theSet.m_texttype = tt;

	lea	eax, DWORD PTR _tt$[ebp]
	push	eax
	lea	ecx, DWORD PTR _theSet$93388[ebp+152]
	call	??4?$CStringT@DV?$StrTraitMFC@DV?$ChTraitsCRT@D@ATL@@@@@ATL@@QAEAAV01@ABV01@@Z ; ATL::CStringT<char,StrTraitMFC<char,ATL::ChTraitsCRT<char> > >::operator=

; 210  : 		  theSet.m_textkey = key1;

	lea	eax, DWORD PTR _key1$[ebp]
	push	eax
	lea	ecx, DWORD PTR _theSet$93388[ebp+156]
	call	??4?$CStringT@DV?$StrTraitMFC@DV?$ChTraitsCRT@D@ATL@@@@@ATL@@QAEAAV01@PBD@Z ; ATL::CStringT<char,StrTraitMFC<char,ATL::ChTraitsCRT<char> > >::operator=

; 211  : 		  theSet.m_iTextKey= iKey;

	mov	ecx, DWORD PTR _iKey$[ebp]
	call	@_RTC_Check_4_to_2@4
	mov	WORD PTR _theSet$93388[ebp+162], ax

; 212  : 		  theSet.Update();

	lea	ecx, DWORD PTR _theSet$93388[ebp]
	call	?Update@CDaoRecordset@@UAEXXZ		; CDaoRecordset::Update

; 213  : 	   }

	jmp	$L93403
$L93394:

; 214  :    } 
; 215  :    theSet.Close();

	lea	ecx, DWORD PTR _theSet$93388[ebp]
	call	?Close@CDaoRecordset@@UAEXXZ		; CDaoRecordset::Close

; 216  : }

	mov	BYTE PTR __$EHRec$[ebp+12], 2
	lea	ecx, DWORD PTR _Lang$93389[ebp]
	call	??1?$CStringT@DV?$StrTraitMFC@DV?$ChTraitsCRT@D@ATL@@@@@ATL@@QAE@XZ ; ATL::CStringT<char,StrTraitMFC<char,ATL::ChTraitsCRT<char> > >::~CStringT<char,StrTraitMFC<char,ATL::ChTraitsCRT<char> > >
	mov	BYTE PTR __$EHRec$[ebp+12], 1
	lea	ecx, DWORD PTR _theSet$93388[ebp]
	call	??1CDReportText@@UAE@XZ
	jmp	SHORT $L93728
__catch$?DoSave@CArrayEdit@@IAEXXZ$0:

; 217  :  catch ( CDaoException *e ) {
; 218  :    e->GetErrorMessage(errbuf,499);

	mov	esi, esp
	push	0
	push	499					; 000001f3H
	lea	eax, DWORD PTR _errbuf$[ebp]
	push	eax
	mov	ecx, DWORD PTR _e$93408[ebp]
	mov	edx, DWORD PTR [ecx]
	mov	ecx, DWORD PTR _e$93408[ebp]
	call	DWORD PTR [edx+20]
	cmp	esi, esp
	call	__RTC_CheckEsp

; 219  :    alert_box(_T("Error on Database"), errbuf );

	lea	eax, DWORD PTR _errbuf$[ebp]
	push	eax
	push	OFFSET FLAT:??_C@_0BC@PNMIDJEG@Error?5on?5Database?$AA@
	call	?alert_box@@YAHPADPBDZZ			; alert_box
	add	esp, 8

; 220  :   }

	mov	eax, $L93734
	ret	0
$L93734:
	jmp	SHORT __tryend$?DoSave@CArrayEdit@@IAEXXZ$1
$L93728:
	mov	DWORD PTR __$EHRec$[ebp+12], 0
__tryend$?DoSave@CArrayEdit@@IAEXXZ$1:

; 221  :  m_bModified = FALSE;

	mov	eax, DWORD PTR _this$[ebp]
	mov	DWORD PTR [eax+124], 0

; 222  : }

	mov	DWORD PTR __$EHRec$[ebp+12], -1
	lea	ecx, DWORD PTR _tt$[ebp]
	call	??1?$CStringT@DV?$StrTraitMFC@DV?$ChTraitsCRT@D@ATL@@@@@ATL@@QAE@XZ ; ATL::CStringT<char,StrTraitMFC<char,ATL::ChTraitsCRT<char> > >::~CStringT<char,StrTraitMFC<char,ATL::ChTraitsCRT<char> > >
	push	edx
	mov	ecx, ebp
	push	eax
	lea	edx, DWORD PTR $L93751
	call	@_RTC_CheckStackVars@8
	pop	eax
	pop	edx
	mov	ecx, DWORD PTR __$EHRec$[ebp+4]
	mov	DWORD PTR fs:__except_list, ecx
	mov	ecx, DWORD PTR __$ArrayPad$[ebp]
	call	@__security_check_cookie@4
	pop	edi
	pop	esi
	pop	ebx
	add	esp, 1320				; 00000528H
	cmp	ebp, esp
	call	__RTC_CheckEsp
	mov	esp, ebp
	pop	ebp
	ret	0
$L93751:
	DD	10					; 0000000aH
	DD	$L93750
$L93750:
	DD	-188					; ffffff44H
	DD	150					; 00000096H
	DD	$L93738
	DD	-224					; ffffff20H
	DD	25					; 00000019H
	DD	$L93739
	DD	-268					; fffffef4H
	DD	35					; 00000023H
	DD	$L93740
	DD	-312					; fffffec8H
	DD	35					; 00000023H
	DD	$L93741
	DD	-332					; fffffeb4H
	DD	11					; 0000000bH
	DD	$L93742
	DD	-840					; fffffcb8H
	DD	500					; 000001f4H
	DD	$L93743
	DD	-888					; fffffc88H
	DD	4
	DD	$L93744
	DD	-1068					; fffffbd4H
	DD	172					; 000000acH
	DD	$L93745
	DD	-1080					; fffffbc8H
	DD	4
	DD	$L93746
	DD	-1104					; fffffbb0H
	DD	4
	DD	$L93747
$L93747:
	DB	101					; 00000065H
	DB	0
$L93746:
	DB	76					; 0000004cH
	DB	97					; 00000061H
	DB	110					; 0000006eH
	DB	103					; 00000067H
	DB	0
$L93745:
	DB	116					; 00000074H
	DB	104					; 00000068H
	DB	101					; 00000065H
	DB	83					; 00000053H
	DB	101					; 00000065H
	DB	116					; 00000074H
	DB	0
$L93744:
	DB	116					; 00000074H
	DB	116					; 00000074H
	DB	0
$L93743:
	DB	101					; 00000065H
	DB	114					; 00000072H
	DB	114					; 00000072H
	DB	98					; 00000062H
	DB	117					; 00000075H
	DB	102					; 00000066H
	DB	0
$L93742:
	DB	97					; 00000061H
	DB	108					; 0000006cH
	DB	97					; 00000061H
	DB	110					; 0000006eH
	DB	103					; 00000067H
	DB	0
$L93741:
	DB	116					; 00000074H
	DB	116					; 00000074H
	DB	112					; 00000070H
	DB	0
$L93740:
	DB	105					; 00000069H
	DB	116					; 00000074H
	DB	101					; 00000065H
	DB	109					; 0000006dH
	DB	0
$L93739:
	DB	107					; 0000006bH
	DB	101					; 00000065H
	DB	121					; 00000079H
	DB	49					; 00000031H
	DB	0
$L93738:
	DB	115					; 00000073H
	DB	113					; 00000071H
	DB	108					; 0000006cH
	DB	98					; 00000062H
	DB	117					; 00000075H
	DB	102					; 00000066H
	DB	0
_TEXT	ENDS
;	COMDAT text$x
text$x	SEGMENT
__unwindfunclet$?DoSave@CArrayEdit@@IAEXXZ$2:
	lea	ecx, DWORD PTR _tt$[ebp]
	jmp	??1?$CStringT@DV?$StrTraitMFC@DV?$ChTraitsCRT@D@ATL@@@@@ATL@@QAE@XZ ; ATL::CStringT<char,StrTraitMFC<char,ATL::ChTraitsCRT<char> > >::~CStringT<char,StrTraitMFC<char,ATL::ChTraitsCRT<char> > >
__unwindfunclet$?DoSave@CArrayEdit@@IAEXXZ$3:
	lea	ecx, DWORD PTR _theSet$93388[ebp]
	jmp	??1CDReportText@@UAE@XZ
__unwindfunclet$?DoSave@CArrayEdit@@IAEXXZ$4:
	lea	ecx, DWORD PTR _Lang$93389[ebp]
	jmp	??1?$CStringT@DV?$StrTraitMFC@DV?$ChTraitsCRT@D@ATL@@@@@ATL@@QAE@XZ ; ATL::CStringT<char,StrTraitMFC<char,ATL::ChTraitsCRT<char> > >::~CStringT<char,StrTraitMFC<char,ATL::ChTraitsCRT<char> > >
__unwindfunclet$?DoSave@CArrayEdit@@IAEXXZ$5:
	lea	ecx, DWORD PTR $T93727[ebp]
	jmp	??1?$CStringT@DV?$StrTraitMFC@DV?$ChTraitsCRT@D@ATL@@@@@ATL@@QAE@XZ ; ATL::CStringT<char,StrTraitMFC<char,ATL::ChTraitsCRT<char> > >::~CStringT<char,StrTraitMFC<char,ATL::ChTraitsCRT<char> > >
__ehhandler$?DoSave@CArrayEdit@@IAEXXZ:
	mov	eax, OFFSET FLAT:__ehfuncinfo$?DoSave@CArrayEdit@@IAEXXZ
	jmp	___CxxFrameHandler
text$x	ENDS
?DoSave@CArrayEdit@@IAEXXZ ENDP				; CArrayEdit::DoSave
EXTRN	??1CDaoRecordset@@UAE@XZ:NEAR			; CDaoRecordset::~CDaoRecordset
; Function compile flags: /Odt /RTCcsu /ZI
;	COMDAT ??1CDReportText@@UAE@XZ
_TEXT	SEGMENT
_this$ = -8						; size = 4
??1CDReportText@@UAE@XZ PROC NEAR			; CDReportText::~CDReportText, COMDAT
; _this$ = ecx
	push	ebp
	mov	ebp, esp
	sub	esp, 204				; 000000ccH
	push	ebx
	push	esi
	push	edi
	push	ecx
	lea	edi, DWORD PTR [ebp-204]
	mov	ecx, 51					; 00000033H
	mov	eax, -858993460				; ccccccccH
	rep stosd
	pop	ecx
	mov	DWORD PTR _this$[ebp], ecx
	mov	ecx, DWORD PTR _this$[ebp]
	add	ecx, 168				; 000000a8H
	call	??1?$CStringT@DV?$StrTraitMFC@DV?$ChTraitsCRT@D@ATL@@@@@ATL@@QAE@XZ ; ATL::CStringT<char,StrTraitMFC<char,ATL::ChTraitsCRT<char> > >::~CStringT<char,StrTraitMFC<char,ATL::ChTraitsCRT<char> > >
	mov	ecx, DWORD PTR _this$[ebp]
	add	ecx, 164				; 000000a4H
	call	??1?$CStringT@DV?$StrTraitMFC@DV?$ChTraitsCRT@D@ATL@@@@@ATL@@QAE@XZ ; ATL::CStringT<char,StrTraitMFC<char,ATL::ChTraitsCRT<char> > >::~CStringT<char,StrTraitMFC<char,ATL::ChTraitsCRT<char> > >
	mov	ecx, DWORD PTR _this$[ebp]
	add	ecx, 156				; 0000009cH
	call	??1?$CStringT@DV?$StrTraitMFC@DV?$ChTraitsCRT@D@ATL@@@@@ATL@@QAE@XZ ; ATL::CStringT<char,StrTraitMFC<char,ATL::ChTraitsCRT<char> > >::~CStringT<char,StrTraitMFC<char,ATL::ChTraitsCRT<char> > >
	mov	ecx, DWORD PTR _this$[ebp]
	add	ecx, 152				; 00000098H
	call	??1?$CStringT@DV?$StrTraitMFC@DV?$ChTraitsCRT@D@ATL@@@@@ATL@@QAE@XZ ; ATL::CStringT<char,StrTraitMFC<char,ATL::ChTraitsCRT<char> > >::~CStringT<char,StrTraitMFC<char,ATL::ChTraitsCRT<char> > >
	mov	ecx, DWORD PTR _this$[ebp]
	call	??1CDaoRecordset@@UAE@XZ		; CDaoRecordset::~CDaoRecordset
	pop	edi
	pop	esi
	pop	ebx
	add	esp, 204				; 000000ccH
	cmp	ebp, esp
	call	__RTC_CheckEsp
	mov	esp, ebp
	pop	ebp
	ret	0
??1CDReportText@@UAE@XZ ENDP				; CDReportText::~CDReportText
_TEXT	ENDS
PUBLIC	??_C@_0FM@IILOLICC@select?5?$CK?5from?5ReportText?5where?5t@ ; `string'
EXTRN	?ResetContent@CListBox@@QAEXXZ:NEAR		; CListBox::ResetContent
;	COMDAT xdata$x
xdata$x	SEGMENT
__unwindtable$?FillList@CArrayEdit@@IAEXAAV?$CStringT@DV?$StrTraitMFC@DV?$ChTraitsCRT@D@ATL@@@@@ATL@@@Z DD 0ffffffffH
	DD	00H
	DD	00H
	DD	FLAT:__unwindfunclet$?FillList@CArrayEdit@@IAEXAAV?$CStringT@DV?$StrTraitMFC@DV?$ChTraitsCRT@D@ATL@@@@@ATL@@@Z$2
	DD	01H
	DD	FLAT:__unwindfunclet$?FillList@CArrayEdit@@IAEXAAV?$CStringT@DV?$StrTraitMFC@DV?$ChTraitsCRT@D@ATL@@@@@ATL@@@Z$3
	DD	02H
	DD	FLAT:__unwindfunclet$?FillList@CArrayEdit@@IAEXAAV?$CStringT@DV?$StrTraitMFC@DV?$ChTraitsCRT@D@ATL@@@@@ATL@@@Z$4
	DD	02H
	DD	FLAT:__unwindfunclet$?FillList@CArrayEdit@@IAEXAAV?$CStringT@DV?$StrTraitMFC@DV?$ChTraitsCRT@D@ATL@@@@@ATL@@@Z$5
	DD	0ffffffffH
	DD	00H
__catchsym$?FillList@CArrayEdit@@IAEXAAV?$CStringT@DV?$StrTraitMFC@DV?$ChTraitsCRT@D@ATL@@@@@ATL@@@Z$6 DD 00H
	DD	FLAT:??_R0PAVCDaoException@@@8
	DD	0fffffbb4H
	DD	FLAT:__catch$?FillList@CArrayEdit@@IAEXAAV?$CStringT@DV?$StrTraitMFC@DV?$ChTraitsCRT@D@ATL@@@@@ATL@@@Z$0
__tryblocktable$?FillList@CArrayEdit@@IAEXAAV?$CStringT@DV?$StrTraitMFC@DV?$ChTraitsCRT@D@ATL@@@@@ATL@@@Z DD 00H
	DD	04H
	DD	05H
	DD	01H
	DD	FLAT:__catchsym$?FillList@CArrayEdit@@IAEXAAV?$CStringT@DV?$StrTraitMFC@DV?$ChTraitsCRT@D@ATL@@@@@ATL@@@Z$6
__ehfuncinfo$?FillList@CArrayEdit@@IAEXAAV?$CStringT@DV?$StrTraitMFC@DV?$ChTraitsCRT@D@ATL@@@@@ATL@@@Z DD 019930520H
	DD	06H
	DD	FLAT:__unwindtable$?FillList@CArrayEdit@@IAEXAAV?$CStringT@DV?$StrTraitMFC@DV?$ChTraitsCRT@D@ATL@@@@@ATL@@@Z
	DD	01H
	DD	FLAT:__tryblocktable$?FillList@CArrayEdit@@IAEXAAV?$CStringT@DV?$StrTraitMFC@DV?$ChTraitsCRT@D@ATL@@@@@ATL@@@Z
	DD	2 DUP(00H)
xdata$x	ENDS
;	COMDAT ??_C@_0FM@IILOLICC@select?5?$CK?5from?5ReportText?5where?5t@
CONST	SEGMENT
??_C@_0FM@IILOLICC@select?5?$CK?5from?5ReportText?5where?5t@ DB 'select *'
	DB	' from ReportText where textkey=''%s'' and texttype=''%s'' and'
	DB	' Lang=''%s'' order by iIndex', 00H		; `string'
; Function compile flags: /Odt /RTCcsu /ZI
CONST	ENDS
;	COMDAT ?FillList@CArrayEdit@@IAEXAAV?$CStringT@DV?$StrTraitMFC@DV?$ChTraitsCRT@D@ATL@@@@@ATL@@@Z
_TEXT	SEGMENT
tv210 = -1316						; size = 4
tv205 = -1316						; size = 4
tv214 = -1312						; size = 4
tv213 = -1312						; size = 4
tv212 = -1312						; size = 4
tv211 = -1312						; size = 4
tv209 = -1312						; size = 4
tv208 = -1312						; size = 4
tv151 = -1312						; size = 4
$T93767 = -1304						; size = 4
_e$93437 = -1100					; size = 4
_t$93431 = -1088					; size = 4
_Lang$93427 = -1076					; size = 4
_theSet$93426 = -1064					; size = 172
_pBox$ = -884						; size = 4
_errbuf$ = -872						; size = 500
_alang$ = -364						; size = 11
_ttp$ = -344						; size = 50
_sbuf$ = -284						; size = 50
_key1$ = -224						; size = 25
_sqlbuf$ = -188						; size = 150
_this$ = -28						; size = 4
__$ArrayPad$ = -20					; size = 4
__$EHRec$ = -16						; size = 16
__$ReturnAddr$ = 4					; size = 4
_s$ = 8							; size = 4
?FillList@CArrayEdit@@IAEXAAV?$CStringT@DV?$StrTraitMFC@DV?$ChTraitsCRT@D@ATL@@@@@ATL@@@Z PROC NEAR ; CArrayEdit::FillList, COMDAT
; _this$ = ecx

; 225  : {

	push	ebp
	mov	ebp, esp
	push	-1
	push	__ehhandler$?FillList@CArrayEdit@@IAEXAAV?$CStringT@DV?$StrTraitMFC@DV?$ChTraitsCRT@D@ATL@@@@@ATL@@@Z
	mov	eax, DWORD PTR fs:__except_list
	push	eax
	mov	DWORD PTR fs:__except_list, esp
	push	ecx
	sub	esp, 1300				; 00000514H
	push	ebx
	push	esi
	push	edi
	push	ecx
	lea	edi, DWORD PTR [ebp-1316]
	mov	ecx, 325				; 00000145H
	mov	eax, -858993460				; ccccccccH
	rep stosd
	pop	ecx
	mov	eax, DWORD PTR ___security_cookie
	mov	DWORD PTR __$ArrayPad$[ebp], eax
	mov	DWORD PTR __$EHRec$[ebp], esp
	mov	DWORD PTR _this$[ebp], ecx

; 226  :  char sqlbuf[150], key1[25],sbuf[50], ttp[50], alang[11];
; 227  :  TCHAR errbuf[500];
; 228  :  CListBox *pBox = (CListBox *)GetDlgItem(IDC_LIST1);

	push	1025					; 00000401H
	mov	ecx, DWORD PTR _this$[ebp]
	call	?GetDlgItem@CWnd@@QBEPAV1@H@Z		; CWnd::GetDlgItem
	mov	DWORD PTR _pBox$[ebp], eax

; 229  :  memset(sbuf,0,50);

	push	50					; 00000032H
	push	0
	lea	eax, DWORD PTR _sbuf$[ebp]
	push	eax
	call	_memset
	add	esp, 12					; 0000000cH

; 230  :  memset(ttp,0,50);

	push	50					; 00000032H
	push	0
	lea	eax, DWORD PTR _ttp$[ebp]
	push	eax
	call	_memset
	add	esp, 12					; 0000000cH

; 231  :  try {

	mov	DWORD PTR __$EHRec$[ebp+12], 0

; 232  :    CDReportText theSet;

	push	0
	lea	ecx, DWORD PTR _theSet$93426[ebp]
	call	??0CDReportText@@QAE@PAVCDaoDatabase@@@Z ; CDReportText::CDReportText
	mov	DWORD PTR tv208[ebp], eax
	mov	BYTE PTR __$EHRec$[ebp+12], 1

; 233  :    CString Lang = GetCurLanguage();

	call	?GetCurLanguage@@YAAAV?$CStringT@DV?$StrTraitMFC@DV?$ChTraitsCRT@D@ATL@@@@@ATL@@XZ ; GetCurLanguage
	mov	DWORD PTR tv209[ebp], eax
	mov	eax, DWORD PTR tv209[ebp]
	push	eax
	lea	ecx, DWORD PTR _Lang$93427[ebp]
	call	??0?$CStringT@DV?$StrTraitMFC@DV?$ChTraitsCRT@D@ATL@@@@@ATL@@QAE@ABV01@@Z ; ATL::CStringT<char,StrTraitMFC<char,ATL::ChTraitsCRT<char> > >::CStringT<char,StrTraitMFC<char,ATL::ChTraitsCRT<char> > >
	mov	DWORD PTR tv210[ebp], eax
	mov	BYTE PTR __$EHRec$[ebp+12], 2

; 234  :    memset(alang,0,11);

	push	11					; 0000000bH
	push	0
	lea	eax, DWORD PTR _alang$[ebp]
	push	eax
	call	_memset
	add	esp, 12					; 0000000cH

; 235  :    #ifdef _UNICODE
; 236  :    wcstombs(alang, (LPCTSTR)Lang,Lang.GetLength());
; 237  :    wcstombs(sbuf,s,s.GetLength());
; 238  :    wcstombs(ttp,m_texttype,m_texttype.GetLength());
; 239  : #else
; 240  :    strcpy(sbuf,s);

	mov	ecx, DWORD PTR _s$[ebp]
	call	??B?$CSimpleStringT@D$0A@@ATL@@QBEPBDXZ	; ATL::CSimpleStringT<char,0>::operator char const *
	push	eax
	lea	eax, DWORD PTR _sbuf$[ebp]
	push	eax
	call	_strcpy
	add	esp, 8

; 241  :    strcpy(alang,(LPCTSTR)Lang);

	lea	ecx, DWORD PTR _Lang$93427[ebp]
	call	??B?$CSimpleStringT@D$0A@@ATL@@QBEPBDXZ	; ATL::CSimpleStringT<char,0>::operator char const *
	push	eax
	lea	eax, DWORD PTR _alang$[ebp]
	push	eax
	call	_strcpy
	add	esp, 8

; 242  :    strcpy(ttp,m_texttype);

	mov	ecx, DWORD PTR _this$[ebp]
	add	ecx, 128				; 00000080H
	call	??B?$CSimpleStringT@D$0A@@ATL@@QBEPBDXZ	; ATL::CSimpleStringT<char,0>::operator char const *
	push	eax
	lea	eax, DWORD PTR _ttp$[ebp]
	push	eax
	call	_strcpy
	add	esp, 8

; 243  : #endif
; 244  :    sscanf(sbuf,"%[^-]", key1 );

	lea	eax, DWORD PTR _key1$[ebp]
	push	eax
	push	OFFSET FLAT:??_C@_05ECMNLKDI@?$CF?$FL?$FO?9?$FN?$AA@
	lea	ecx, DWORD PTR _sbuf$[ebp]
	push	ecx
	call	_sscanf
	add	esp, 12					; 0000000cH

; 245  :    sprintf( sqlbuf, "select * from ReportText where textkey='%s' and texttype='%s' and Lang='%s' order by iIndex", key1, ttp, alang);

	lea	eax, DWORD PTR _alang$[ebp]
	push	eax
	lea	ecx, DWORD PTR _ttp$[ebp]
	push	ecx
	lea	edx, DWORD PTR _key1$[ebp]
	push	edx
	push	OFFSET FLAT:??_C@_0FM@IILOLICC@select?5?$CK?5from?5ReportText?5where?5t@
	lea	eax, DWORD PTR _sqlbuf$[ebp]
	push	eax
	call	_sprintf
	add	esp, 20					; 00000014H

; 246  :    theSet.Open(dbOpenDynaset,CString(sqlbuf));

	lea	eax, DWORD PTR _sqlbuf$[ebp]
	push	eax
	lea	ecx, DWORD PTR $T93767[ebp]
	call	??0?$CStringT@DV?$StrTraitMFC@DV?$ChTraitsCRT@D@ATL@@@@@ATL@@QAE@PBD@Z ; ATL::CStringT<char,StrTraitMFC<char,ATL::ChTraitsCRT<char> > >::CStringT<char,StrTraitMFC<char,ATL::ChTraitsCRT<char> > >
	mov	DWORD PTR tv211[ebp], eax
	mov	ecx, DWORD PTR tv211[ebp]
	mov	DWORD PTR tv205[ebp], ecx
	mov	BYTE PTR __$EHRec$[ebp+12], 3
	push	0
	mov	ecx, DWORD PTR tv205[ebp]
	call	??B?$CSimpleStringT@D$0A@@ATL@@QBEPBDXZ	; ATL::CSimpleStringT<char,0>::operator char const *
	push	eax
	push	2
	lea	ecx, DWORD PTR _theSet$93426[ebp]
	call	?Open@CDaoRecordset@@UAEXHPBDH@Z	; CDaoRecordset::Open
	mov	BYTE PTR __$EHRec$[ebp+12], 2
	lea	ecx, DWORD PTR $T93767[ebp]
	call	??1?$CStringT@DV?$StrTraitMFC@DV?$ChTraitsCRT@D@ATL@@@@@ATL@@QAE@XZ ; ATL::CStringT<char,StrTraitMFC<char,ATL::ChTraitsCRT<char> > >::~CStringT<char,StrTraitMFC<char,ATL::ChTraitsCRT<char> > >

; 247  :    pBox->ResetContent();

	mov	ecx, DWORD PTR _pBox$[ebp]
	call	?ResetContent@CListBox@@QAEXXZ		; CListBox::ResetContent

; 248  :    CString t;

	lea	ecx, DWORD PTR _t$93431[ebp]
	call	??0?$CStringT@DV?$StrTraitMFC@DV?$ChTraitsCRT@D@ATL@@@@@ATL@@QAE@XZ ; ATL::CStringT<char,StrTraitMFC<char,ATL::ChTraitsCRT<char> > >::CStringT<char,StrTraitMFC<char,ATL::ChTraitsCRT<char> > >
	mov	BYTE PTR __$EHRec$[ebp+12], 4

; 249  :    if ( !theSet.IsBOF() ) {

	lea	ecx, DWORD PTR _theSet$93426[ebp]
	call	?IsBOF@CDaoRecordset@@QBEHXZ		; CDaoRecordset::IsBOF
	mov	DWORD PTR tv151[ebp], eax
	cmp	DWORD PTR tv151[ebp], 0
	jne	$L93432

; 250  : 	   pBox->AddString(theSet.m_text);

	lea	ecx, DWORD PTR _theSet$93426[ebp+164]
	call	??B?$CSimpleStringT@D$0A@@ATL@@QBEPBDXZ	; ATL::CSimpleStringT<char,0>::operator char const *
	push	eax
	mov	ecx, DWORD PTR _pBox$[ebp]
	call	?AddString@CListBox@@QAEHPBD@Z		; CListBox::AddString
$L93434:

; 251  : 	   while ( !theSet.IsEOF() ) {

	lea	ecx, DWORD PTR _theSet$93426[ebp]
	call	?IsEOF@CDaoRecordset@@QBEHXZ		; CDaoRecordset::IsEOF
	mov	DWORD PTR tv212[ebp], eax
	cmp	DWORD PTR tv212[ebp], 0
	jne	SHORT $L93435

; 252  : 	      theSet.MoveNext();

	lea	ecx, DWORD PTR _theSet$93426[ebp]
	call	?MoveNext@CDaoRecordset@@QAEXXZ		; CDaoRecordset::MoveNext

; 253  : 		  pBox->AddString(theSet.m_text);

	lea	ecx, DWORD PTR _theSet$93426[ebp+164]
	call	??B?$CSimpleStringT@D$0A@@ATL@@QBEPBDXZ	; ATL::CSimpleStringT<char,0>::operator char const *
	push	eax
	mov	ecx, DWORD PTR _pBox$[ebp]
	call	?AddString@CListBox@@QAEHPBD@Z		; CListBox::AddString

; 254  : 	      t = theSet.m_text;   

	lea	eax, DWORD PTR _theSet$93426[ebp+164]
	push	eax
	lea	ecx, DWORD PTR _t$93431[ebp]
	call	??4?$CStringT@DV?$StrTraitMFC@DV?$ChTraitsCRT@D@ATL@@@@@ATL@@QAEAAV01@ABV01@@Z ; ATL::CStringT<char,StrTraitMFC<char,ATL::ChTraitsCRT<char> > >::operator=

; 255  : 	   }

	jmp	SHORT $L93434
$L93435:

; 256  : 	   if ( t.Trim().GetLength()==0)

	lea	ecx, DWORD PTR _t$93431[ebp]
	call	?Trim@?$CStringT@DV?$StrTraitMFC@DV?$ChTraitsCRT@D@ATL@@@@@ATL@@QAEAAV12@XZ ; ATL::CStringT<char,StrTraitMFC<char,ATL::ChTraitsCRT<char> > >::Trim
	mov	DWORD PTR tv213[ebp], eax
	mov	ecx, DWORD PTR tv213[ebp]
	call	?GetLength@?$CSimpleStringT@D$0A@@ATL@@QBEHXZ ; ATL::CSimpleStringT<char,0>::GetLength
	test	eax, eax
	jne	SHORT $L93432

; 257  : 		   pBox->DeleteString(pBox->GetCount()-1);

	mov	ecx, DWORD PTR _pBox$[ebp]
	call	?GetCount@CListBox@@QBEHXZ		; CListBox::GetCount
	mov	DWORD PTR tv214[ebp], eax
	mov	eax, DWORD PTR tv214[ebp]
	sub	eax, 1
	push	eax
	mov	ecx, DWORD PTR _pBox$[ebp]
	call	?DeleteString@CListBox@@QAEHI@Z		; CListBox::DeleteString
$L93432:

; 258  :    } 
; 259  :    theSet.Close();

	lea	ecx, DWORD PTR _theSet$93426[ebp]
	call	?Close@CDaoRecordset@@UAEXXZ		; CDaoRecordset::Close

; 260  : }

	mov	BYTE PTR __$EHRec$[ebp+12], 2
	lea	ecx, DWORD PTR _t$93431[ebp]
	call	??1?$CStringT@DV?$StrTraitMFC@DV?$ChTraitsCRT@D@ATL@@@@@ATL@@QAE@XZ ; ATL::CStringT<char,StrTraitMFC<char,ATL::ChTraitsCRT<char> > >::~CStringT<char,StrTraitMFC<char,ATL::ChTraitsCRT<char> > >
	mov	BYTE PTR __$EHRec$[ebp+12], 1
	lea	ecx, DWORD PTR _Lang$93427[ebp]
	call	??1?$CStringT@DV?$StrTraitMFC@DV?$ChTraitsCRT@D@ATL@@@@@ATL@@QAE@XZ ; ATL::CStringT<char,StrTraitMFC<char,ATL::ChTraitsCRT<char> > >::~CStringT<char,StrTraitMFC<char,ATL::ChTraitsCRT<char> > >
	mov	BYTE PTR __$EHRec$[ebp+12], 0
	lea	ecx, DWORD PTR _theSet$93426[ebp]
	call	??1CDReportText@@UAE@XZ
	jmp	SHORT $L93768
__catch$?FillList@CArrayEdit@@IAEXAAV?$CStringT@DV?$StrTraitMFC@DV?$ChTraitsCRT@D@ATL@@@@@ATL@@@Z$0:

; 261  :  catch ( CDaoException *e ) {
; 262  :    e->GetErrorMessage(errbuf,499);

	mov	esi, esp
	push	0
	push	499					; 000001f3H
	lea	eax, DWORD PTR _errbuf$[ebp]
	push	eax
	mov	ecx, DWORD PTR _e$93437[ebp]
	mov	edx, DWORD PTR [ecx]
	mov	ecx, DWORD PTR _e$93437[ebp]
	call	DWORD PTR [edx+20]
	cmp	esi, esp
	call	__RTC_CheckEsp

; 263  :    alert_box(_T("Error on Database"), errbuf );

	lea	eax, DWORD PTR _errbuf$[ebp]
	push	eax
	push	OFFSET FLAT:??_C@_0BC@PNMIDJEG@Error?5on?5Database?$AA@
	call	?alert_box@@YAHPADPBDZZ			; alert_box
	add	esp, 8

; 264  :   }

	mov	eax, $L93774
	ret	0
$L93774:
	jmp	SHORT __tryend$?FillList@CArrayEdit@@IAEXAAV?$CStringT@DV?$StrTraitMFC@DV?$ChTraitsCRT@D@ATL@@@@@ATL@@@Z$1
$L93768:
	mov	DWORD PTR __$EHRec$[ebp+12], -1
__tryend$?FillList@CArrayEdit@@IAEXAAV?$CStringT@DV?$StrTraitMFC@DV?$ChTraitsCRT@D@ATL@@@@@ATL@@@Z$1:

; 265  :  m_item = s;

	mov	eax, DWORD PTR _s$[ebp]
	push	eax
	mov	ecx, DWORD PTR _this$[ebp]
	add	ecx, 112				; 00000070H
	call	??4?$CStringT@DV?$StrTraitMFC@DV?$ChTraitsCRT@D@ATL@@@@@ATL@@QAEAAV01@ABV01@@Z ; ATL::CStringT<char,StrTraitMFC<char,ATL::ChTraitsCRT<char> > >::operator=

; 266  :  m_bModified = FALSE;

	mov	eax, DWORD PTR _this$[ebp]
	mov	DWORD PTR [eax+124], 0

; 267  :  m_Edit = "";

	push	OFFSET FLAT:??_C@_00CNPNBAHC@?$AA@
	mov	ecx, DWORD PTR _this$[ebp]
	add	ecx, 136				; 00000088H
	call	??4?$CStringT@DV?$StrTraitMFC@DV?$ChTraitsCRT@D@ATL@@@@@ATL@@QAEAAV01@PBD@Z ; ATL::CStringT<char,StrTraitMFC<char,ATL::ChTraitsCRT<char> > >::operator=

; 268  :  m_orig = "";

	push	OFFSET FLAT:??_C@_00CNPNBAHC@?$AA@
	mov	ecx, DWORD PTR _this$[ebp]
	add	ecx, 120				; 00000078H
	call	??4?$CStringT@DV?$StrTraitMFC@DV?$ChTraitsCRT@D@ATL@@@@@ATL@@QAEAAV01@PBD@Z ; ATL::CStringT<char,StrTraitMFC<char,ATL::ChTraitsCRT<char> > >::operator=

; 269  :  m_index = -1;

	mov	eax, DWORD PTR _this$[ebp]
	mov	DWORD PTR [eax+116], -1

; 270  :  UpdateData(FALSE);

	push	0
	mov	ecx, DWORD PTR _this$[ebp]
	call	?UpdateData@CWnd@@QAEHH@Z		; CWnd::UpdateData

; 271  : }

	push	edx
	mov	ecx, ebp
	push	eax
	lea	edx, DWORD PTR $L93790
	call	@_RTC_CheckStackVars@8
	pop	eax
	pop	edx
	mov	ecx, DWORD PTR __$EHRec$[ebp+4]
	mov	DWORD PTR fs:__except_list, ecx
	mov	ecx, DWORD PTR __$ArrayPad$[ebp]
	call	@__security_check_cookie@4
	pop	edi
	pop	esi
	pop	ebx
	add	esp, 1316				; 00000524H
	cmp	ebp, esp
	call	__RTC_CheckEsp
	mov	esp, ebp
	pop	ebp
	ret	4
$L93790:
	DD	10					; 0000000aH
	DD	$L93789
$L93789:
	DD	-188					; ffffff44H
	DD	150					; 00000096H
	DD	$L93777
	DD	-224					; ffffff20H
	DD	25					; 00000019H
	DD	$L93778
	DD	-284					; fffffee4H
	DD	50					; 00000032H
	DD	$L93779
	DD	-344					; fffffea8H
	DD	50					; 00000032H
	DD	$L93780
	DD	-364					; fffffe94H
	DD	11					; 0000000bH
	DD	$L93781
	DD	-872					; fffffc98H
	DD	500					; 000001f4H
	DD	$L93782
	DD	-1064					; fffffbd8H
	DD	172					; 000000acH
	DD	$L93783
	DD	-1076					; fffffbccH
	DD	4
	DD	$L93784
	DD	-1088					; fffffbc0H
	DD	4
	DD	$L93785
	DD	-1100					; fffffbb4H
	DD	4
	DD	$L93786
$L93786:
	DB	101					; 00000065H
	DB	0
$L93785:
	DB	116					; 00000074H
	DB	0
$L93784:
	DB	76					; 0000004cH
	DB	97					; 00000061H
	DB	110					; 0000006eH
	DB	103					; 00000067H
	DB	0
$L93783:
	DB	116					; 00000074H
	DB	104					; 00000068H
	DB	101					; 00000065H
	DB	83					; 00000053H
	DB	101					; 00000065H
	DB	116					; 00000074H
	DB	0
$L93782:
	DB	101					; 00000065H
	DB	114					; 00000072H
	DB	114					; 00000072H
	DB	98					; 00000062H
	DB	117					; 00000075H
	DB	102					; 00000066H
	DB	0
$L93781:
	DB	97					; 00000061H
	DB	108					; 0000006cH
	DB	97					; 00000061H
	DB	110					; 0000006eH
	DB	103					; 00000067H
	DB	0
$L93780:
	DB	116					; 00000074H
	DB	116					; 00000074H
	DB	112					; 00000070H
	DB	0
$L93779:
	DB	115					; 00000073H
	DB	98					; 00000062H
	DB	117					; 00000075H
	DB	102					; 00000066H
	DB	0
$L93778:
	DB	107					; 0000006bH
	DB	101					; 00000065H
	DB	121					; 00000079H
	DB	49					; 00000031H
	DB	0
$L93777:
	DB	115					; 00000073H
	DB	113					; 00000071H
	DB	108					; 0000006cH
	DB	98					; 00000062H
	DB	117					; 00000075H
	DB	102					; 00000066H
	DB	0
_TEXT	ENDS
;	COMDAT text$x
text$x	SEGMENT
__unwindfunclet$?FillList@CArrayEdit@@IAEXAAV?$CStringT@DV?$StrTraitMFC@DV?$ChTraitsCRT@D@ATL@@@@@ATL@@@Z$2:
	lea	ecx, DWORD PTR _theSet$93426[ebp]
	jmp	??1CDReportText@@UAE@XZ
__unwindfunclet$?FillList@CArrayEdit@@IAEXAAV?$CStringT@DV?$StrTraitMFC@DV?$ChTraitsCRT@D@ATL@@@@@ATL@@@Z$3:
	lea	ecx, DWORD PTR _Lang$93427[ebp]
	jmp	??1?$CStringT@DV?$StrTraitMFC@DV?$ChTraitsCRT@D@ATL@@@@@ATL@@QAE@XZ ; ATL::CStringT<char,StrTraitMFC<char,ATL::ChTraitsCRT<char> > >::~CStringT<char,StrTraitMFC<char,ATL::ChTraitsCRT<char> > >
__unwindfunclet$?FillList@CArrayEdit@@IAEXAAV?$CStringT@DV?$StrTraitMFC@DV?$ChTraitsCRT@D@ATL@@@@@ATL@@@Z$4:
	lea	ecx, DWORD PTR $T93767[ebp]
	jmp	??1?$CStringT@DV?$StrTraitMFC@DV?$ChTraitsCRT@D@ATL@@@@@ATL@@QAE@XZ ; ATL::CStringT<char,StrTraitMFC<char,ATL::ChTraitsCRT<char> > >::~CStringT<char,StrTraitMFC<char,ATL::ChTraitsCRT<char> > >
__unwindfunclet$?FillList@CArrayEdit@@IAEXAAV?$CStringT@DV?$StrTraitMFC@DV?$ChTraitsCRT@D@ATL@@@@@ATL@@@Z$5:
	lea	ecx, DWORD PTR _t$93431[ebp]
	jmp	??1?$CStringT@DV?$StrTraitMFC@DV?$ChTraitsCRT@D@ATL@@@@@ATL@@QAE@XZ ; ATL::CStringT<char,StrTraitMFC<char,ATL::ChTraitsCRT<char> > >::~CStringT<char,StrTraitMFC<char,ATL::ChTraitsCRT<char> > >
__ehhandler$?FillList@CArrayEdit@@IAEXAAV?$CStringT@DV?$StrTraitMFC@DV?$ChTraitsCRT@D@ATL@@@@@ATL@@@Z:
	mov	eax, OFFSET FLAT:__ehfuncinfo$?FillList@CArrayEdit@@IAEXAAV?$CStringT@DV?$StrTraitMFC@DV?$ChTraitsCRT@D@ATL@@@@@ATL@@@Z
	jmp	___CxxFrameHandler
text$x	ENDS
?FillList@CArrayEdit@@IAEXAAV?$CStringT@DV?$StrTraitMFC@DV?$ChTraitsCRT@D@ATL@@@@@ATL@@@Z ENDP ; CArrayEdit::FillList
; Function compile flags: /Odt /RTCcsu /ZI
;	COMDAT ?OnBnClickedInsert@CArrayEdit@@QAEXXZ
_TEXT	SEGMENT
_pBox$ = -20						; size = 4
_this$ = -8						; size = 4
?OnBnClickedInsert@CArrayEdit@@QAEXXZ PROC NEAR		; CArrayEdit::OnBnClickedInsert, COMDAT
; _this$ = ecx

; 274  : {

	push	ebp
	mov	ebp, esp
	sub	esp, 216				; 000000d8H
	push	ebx
	push	esi
	push	edi
	push	ecx
	lea	edi, DWORD PTR [ebp-216]
	mov	ecx, 54					; 00000036H
	mov	eax, -858993460				; ccccccccH
	rep stosd
	pop	ecx
	mov	DWORD PTR _this$[ebp], ecx

; 275  : 	// TODO: Add your control notification handler code here
; 276  :    CListBox *pBox = (CListBox *)GetDlgItem(IDC_LIST1);

	push	1025					; 00000401H
	mov	ecx, DWORD PTR _this$[ebp]
	call	?GetDlgItem@CWnd@@QBEPAV1@H@Z		; CWnd::GetDlgItem
	mov	DWORD PTR _pBox$[ebp], eax

; 277  :    UpdateData(TRUE);

	push	1
	mov	ecx, DWORD PTR _this$[ebp]
	call	?UpdateData@CWnd@@QAEHH@Z		; CWnd::UpdateData

; 278  :    if ( m_Edit.GetLength() > 0 && m_index != -1) {

	mov	ecx, DWORD PTR _this$[ebp]
	add	ecx, 136				; 00000088H
	call	?GetLength@?$CSimpleStringT@D$0A@@ATL@@QBEHXZ ; ATL::CSimpleStringT<char,0>::GetLength
	test	eax, eax
	jle	SHORT $L93440
	mov	eax, DWORD PTR _this$[ebp]
	cmp	DWORD PTR [eax+116], -1
	je	SHORT $L93440

; 279  : 	   pBox->InsertString(m_index,m_Edit);

	mov	ecx, DWORD PTR _this$[ebp]
	add	ecx, 136				; 00000088H
	call	??B?$CSimpleStringT@D$0A@@ATL@@QBEPBDXZ	; ATL::CSimpleStringT<char,0>::operator char const *
	push	eax
	mov	eax, DWORD PTR _this$[ebp]
	mov	ecx, DWORD PTR [eax+116]
	push	ecx
	mov	ecx, DWORD PTR _pBox$[ebp]
	call	?InsertString@CListBox@@QAEHHPBD@Z	; CListBox::InsertString

; 280  : 	   m_orig = m_Edit;

	mov	eax, DWORD PTR _this$[ebp]
	add	eax, 136				; 00000088H
	push	eax
	mov	ecx, DWORD PTR _this$[ebp]
	add	ecx, 120				; 00000078H
	call	??4?$CStringT@DV?$StrTraitMFC@DV?$ChTraitsCRT@D@ATL@@@@@ATL@@QAEAAV01@ABV01@@Z ; ATL::CStringT<char,StrTraitMFC<char,ATL::ChTraitsCRT<char> > >::operator=

; 281  :        m_bModified = TRUE;

	mov	eax, DWORD PTR _this$[ebp]
	mov	DWORD PTR [eax+124], 1
$L93440:

; 282  :        }
; 283  : }

	pop	edi
	pop	esi
	pop	ebx
	add	esp, 216				; 000000d8H
	cmp	ebp, esp
	call	__RTC_CheckEsp
	mov	esp, ebp
	pop	ebp
	ret	0
?OnBnClickedInsert@CArrayEdit@@QAEXXZ ENDP		; CArrayEdit::OnBnClickedInsert
_TEXT	ENDS
PUBLIC	??4?$CSimpleStringT@D$0A@@ATL@@QAEAAV01@ABV01@@Z ; ATL::CSimpleStringT<char,0>::operator=
; Function compile flags: /Odt /RTCcsu /ZI
; File c:\program files\microsoft visual studio .net 2003\vc7\atlmfc\include\cstringt.h
;	COMDAT ??4?$CStringT@DV?$StrTraitMFC@DV?$ChTraitsCRT@D@ATL@@@@@ATL@@QAEAAV01@ABV01@@Z
_TEXT	SEGMENT
_this$ = -8						; size = 4
_strSrc$ = 8						; size = 4
??4?$CStringT@DV?$StrTraitMFC@DV?$ChTraitsCRT@D@ATL@@@@@ATL@@QAEAAV01@ABV01@@Z PROC NEAR ; ATL::CStringT<char,StrTraitMFC<char,ATL::ChTraitsCRT<char> > >::operator=, COMDAT
; _this$ = ecx

; 967  : 	{

	push	ebp
	mov	ebp, esp
	sub	esp, 204				; 000000ccH
	push	ebx
	push	esi
	push	edi
	push	ecx
	lea	edi, DWORD PTR [ebp-204]
	mov	ecx, 51					; 00000033H
	mov	eax, -858993460				; ccccccccH
	rep stosd
	pop	ecx
	mov	DWORD PTR _this$[ebp], ecx

; 968  : 		CThisSimpleString::operator=( strSrc );

	mov	eax, DWORD PTR _strSrc$[ebp]
	push	eax
	mov	ecx, DWORD PTR _this$[ebp]
	call	??4?$CSimpleStringT@D$0A@@ATL@@QAEAAV01@ABV01@@Z ; ATL::CSimpleStringT<char,0>::operator=

; 969  : 
; 970  : 		return( *this );

	mov	eax, DWORD PTR _this$[ebp]

; 971  : 	}

	pop	edi
	pop	esi
	pop	ebx
	add	esp, 204				; 000000ccH
	cmp	ebp, esp
	call	__RTC_CheckEsp
	mov	esp, ebp
	pop	ebp
	ret	4
??4?$CStringT@DV?$StrTraitMFC@DV?$ChTraitsCRT@D@ATL@@@@@ATL@@QAEAAV01@ABV01@@Z ENDP ; ATL::CStringT<char,StrTraitMFC<char,ATL::ChTraitsCRT<char> > >::operator=
_TEXT	ENDS
PUBLIC	?TrimRight@?$CStringT@DV?$StrTraitMFC@DV?$ChTraitsCRT@D@ATL@@@@@ATL@@QAEAAV12@XZ ; ATL::CStringT<char,StrTraitMFC<char,ATL::ChTraitsCRT<char> > >::TrimRight
PUBLIC	?TrimLeft@?$CStringT@DV?$StrTraitMFC@DV?$ChTraitsCRT@D@ATL@@@@@ATL@@QAEAAV12@XZ ; ATL::CStringT<char,StrTraitMFC<char,ATL::ChTraitsCRT<char> > >::TrimLeft
; Function compile flags: /Odt /RTCcsu /ZI
;	COMDAT ?Trim@?$CStringT@DV?$StrTraitMFC@DV?$ChTraitsCRT@D@ATL@@@@@ATL@@QAEAAV12@XZ
_TEXT	SEGMENT
_this$ = -8						; size = 4
?Trim@?$CStringT@DV?$StrTraitMFC@DV?$ChTraitsCRT@D@ATL@@@@@ATL@@QAEAAV12@XZ PROC NEAR ; ATL::CStringT<char,StrTraitMFC<char,ATL::ChTraitsCRT<char> > >::Trim, COMDAT
; _this$ = ecx

; 1530 : 	{

	push	ebp
	mov	ebp, esp
	sub	esp, 204				; 000000ccH
	push	ebx
	push	esi
	push	edi
	push	ecx
	lea	edi, DWORD PTR [ebp-204]
	mov	ecx, 51					; 00000033H
	mov	eax, -858993460				; ccccccccH
	rep stosd
	pop	ecx
	mov	DWORD PTR _this$[ebp], ecx

; 1531 : 		return( TrimRight().TrimLeft() );

	mov	ecx, DWORD PTR _this$[ebp]
	call	?TrimRight@?$CStringT@DV?$StrTraitMFC@DV?$ChTraitsCRT@D@ATL@@@@@ATL@@QAEAAV12@XZ ; ATL::CStringT<char,StrTraitMFC<char,ATL::ChTraitsCRT<char> > >::TrimRight
	mov	ecx, eax
	call	?TrimLeft@?$CStringT@DV?$StrTraitMFC@DV?$ChTraitsCRT@D@ATL@@@@@ATL@@QAEAAV12@XZ ; ATL::CStringT<char,StrTraitMFC<char,ATL::ChTraitsCRT<char> > >::TrimLeft

; 1532 : 	}

	pop	edi
	pop	esi
	pop	ebx
	add	esp, 204				; 000000ccH
	cmp	ebp, esp
	call	__RTC_CheckEsp
	mov	esp, ebp
	pop	ebp
	ret	0
?Trim@?$CStringT@DV?$StrTraitMFC@DV?$ChTraitsCRT@D@ATL@@@@@ATL@@QAEAAV12@XZ ENDP ; ATL::CStringT<char,StrTraitMFC<char,ATL::ChTraitsCRT<char> > >::Trim
_TEXT	ENDS
PUBLIC	?Compare@?$CStringT@DV?$StrTraitMFC@DV?$ChTraitsCRT@D@ATL@@@@@ATL@@QBEHPBD@Z ; ATL::CStringT<char,StrTraitMFC<char,ATL::ChTraitsCRT<char> > >::Compare
EXTRN	@_RTC_Check_4_to_1@4:NEAR
; Function compile flags: /Odt /RTCcsu /ZI
;	COMDAT ??9ATL@@YA_NABV?$CStringT@DV?$StrTraitMFC@DV?$ChTraitsCRT@D@ATL@@@@@0@0@Z
_TEXT	SEGMENT
_str1$ = 8						; size = 4
_str2$ = 12						; size = 4
??9ATL@@YA_NABV?$CStringT@DV?$StrTraitMFC@DV?$ChTraitsCRT@D@ATL@@@@@0@0@Z PROC NEAR ; ATL::operator!=, COMDAT

; 2115 : 	{

	push	ebp
	mov	ebp, esp
	sub	esp, 192				; 000000c0H
	push	ebx
	push	esi
	push	edi
	lea	edi, DWORD PTR [ebp-192]
	mov	ecx, 48					; 00000030H
	mov	eax, -858993460				; ccccccccH
	rep stosd

; 2116 : 		return( str1.Compare( str2 ) != 0 );

	mov	ecx, DWORD PTR _str2$[ebp]
	call	??B?$CSimpleStringT@D$0A@@ATL@@QBEPBDXZ	; ATL::CSimpleStringT<char,0>::operator char const *
	push	eax
	mov	ecx, DWORD PTR _str1$[ebp]
	call	?Compare@?$CStringT@DV?$StrTraitMFC@DV?$ChTraitsCRT@D@ATL@@@@@ATL@@QBEHPBD@Z ; ATL::CStringT<char,StrTraitMFC<char,ATL::ChTraitsCRT<char> > >::Compare
	neg	eax
	sbb	eax, eax
	neg	eax
	mov	ecx, eax
	call	@_RTC_Check_4_to_1@4

; 2117 : 	}

	pop	edi
	pop	esi
	pop	ebx
	add	esp, 192				; 000000c0H
	cmp	ebp, esp
	call	__RTC_CheckEsp
	mov	esp, ebp
	pop	ebp
	ret	0
??9ATL@@YA_NABV?$CStringT@DV?$StrTraitMFC@DV?$ChTraitsCRT@D@ATL@@@@@0@0@Z ENDP ; ATL::operator!=
_TEXT	ENDS
PUBLIC	??_C@_0BI@GIMJKKKN@AtlIsValidString?$CI?5psz?5?$CJ?$AA@ ; `string'
PUBLIC	??_C@_0FB@BCKJDECD@c?3?2program?5files?2microsoft?5visua@ ; `string'
PUBLIC	?AtlIsValidString@ATL@@YAHPBDI@Z		; ATL::AtlIsValidString
PUBLIC	?GetString@?$CSimpleStringT@D$0A@@ATL@@QBEPBDXZ	; ATL::CSimpleStringT<char,0>::GetString
PUBLIC	?StringCompare@?$ChTraitsCRT@D@ATL@@SAHPBD0@Z	; ATL::ChTraitsCRT<char>::StringCompare
EXTRN	__CrtDbgReport:NEAR
;	COMDAT ??_C@_0BI@GIMJKKKN@AtlIsValidString?$CI?5psz?5?$CJ?$AA@
CONST	SEGMENT
??_C@_0BI@GIMJKKKN@AtlIsValidString?$CI?5psz?5?$CJ?$AA@ DB 'AtlIsValidStr'
	DB	'ing( psz )', 00H				; `string'
CONST	ENDS
;	COMDAT ??_C@_0FB@BCKJDECD@c?3?2program?5files?2microsoft?5visua@
CONST	SEGMENT
??_C@_0FB@BCKJDECD@c?3?2program?5files?2microsoft?5visua@ DB 'c:\program '
	DB	'files\microsoft visual studio .net 2003\vc7\atlmfc\include\cs'
	DB	'tringt.h', 00H				; `string'
; Function compile flags: /Odt /RTCcsu /ZI
CONST	ENDS
;	COMDAT ?Compare@?$CStringT@DV?$StrTraitMFC@DV?$ChTraitsCRT@D@ATL@@@@@ATL@@QBEHPBD@Z
_TEXT	SEGMENT
_this$ = -8						; size = 4
_psz$ = 8						; size = 4
?Compare@?$CStringT@DV?$StrTraitMFC@DV?$ChTraitsCRT@D@ATL@@@@@ATL@@QBEHPBD@Z PROC NEAR ; ATL::CStringT<char,StrTraitMFC<char,ATL::ChTraitsCRT<char> > >::Compare, COMDAT
; _this$ = ecx

; 1087 : 	{

	push	ebp
	mov	ebp, esp
	sub	esp, 204				; 000000ccH
	push	ebx
	push	esi
	push	edi
	push	ecx
	lea	edi, DWORD PTR [ebp-204]
	mov	ecx, 51					; 00000033H
	mov	eax, -858993460				; ccccccccH
	rep stosd
	pop	ecx
	mov	DWORD PTR _this$[ebp], ecx

; 1088 : 		ATLASSERT( AtlIsValidString( psz ) );

	push	-1
	mov	eax, DWORD PTR _psz$[ebp]
	push	eax
	call	?AtlIsValidString@ATL@@YAHPBDI@Z	; ATL::AtlIsValidString
	add	esp, 8
	test	eax, eax
	jne	SHORT $L93807
	push	OFFSET FLAT:??_C@_0BI@GIMJKKKN@AtlIsValidString?$CI?5psz?5?$CJ?$AA@
	push	0
	push	1088					; 00000440H
	push	OFFSET FLAT:??_C@_0FB@BCKJDECD@c?3?2program?5files?2microsoft?5visua@
	push	2
	call	__CrtDbgReport
	add	esp, 20					; 00000014H
	cmp	eax, 1
	jne	SHORT $L93807
	int	3
$L93807:

; 1089 : 		return( StringTraits::StringCompare( GetString(), psz ) );

	mov	eax, DWORD PTR _psz$[ebp]
	push	eax
	mov	ecx, DWORD PTR _this$[ebp]
	call	?GetString@?$CSimpleStringT@D$0A@@ATL@@QBEPBDXZ ; ATL::CSimpleStringT<char,0>::GetString
	push	eax
	call	?StringCompare@?$ChTraitsCRT@D@ATL@@SAHPBD0@Z ; ATL::ChTraitsCRT<char>::StringCompare
	add	esp, 8

; 1090 : 	}

	pop	edi
	pop	esi
	pop	ebx
	add	esp, 204				; 000000ccH
	cmp	ebp, esp
	call	__RTC_CheckEsp
	mov	esp, ebp
	pop	ebp
	ret	4
?Compare@?$CStringT@DV?$StrTraitMFC@DV?$ChTraitsCRT@D@ATL@@@@@ATL@@QBEHPBD@Z ENDP ; ATL::CStringT<char,StrTraitMFC<char,ATL::ChTraitsCRT<char> > >::Compare
_TEXT	ENDS
PUBLIC	?Truncate@?$CSimpleStringT@D$0A@@ATL@@QAEXH@Z	; ATL::CSimpleStringT<char,0>::Truncate
PUBLIC	?CharNextA@?$ChTraitsCRT@D@ATL@@SAPADPBD@Z	; ATL::ChTraitsCRT<char>::CharNextA
PUBLIC	?IsSpace@?$ChTraitsCRT@D@ATL@@SAHD@Z		; ATL::ChTraitsCRT<char>::IsSpace
; Function compile flags: /Odt /RTCcsu /ZI
;	COMDAT ?TrimRight@?$CStringT@DV?$StrTraitMFC@DV?$ChTraitsCRT@D@ATL@@@@@ATL@@QAEAAV12@XZ
_TEXT	SEGMENT
_iLast$93464 = -44					; size = 4
_pszLast$ = -32						; size = 4
_psz$ = -20						; size = 4
_this$ = -8						; size = 4
?TrimRight@?$CStringT@DV?$StrTraitMFC@DV?$ChTraitsCRT@D@ATL@@@@@ATL@@QAEAAV12@XZ PROC NEAR ; ATL::CStringT<char,StrTraitMFC<char,ATL::ChTraitsCRT<char> > >::TrimRight, COMDAT
; _this$ = ecx

; 1470 : 	{

	push	ebp
	mov	ebp, esp
	sub	esp, 240				; 000000f0H
	push	ebx
	push	esi
	push	edi
	push	ecx
	lea	edi, DWORD PTR [ebp-240]
	mov	ecx, 60					; 0000003cH
	mov	eax, -858993460				; ccccccccH
	rep stosd
	pop	ecx
	mov	DWORD PTR _this$[ebp], ecx

; 1471 : 		// find beginning of trailing spaces by starting
; 1472 : 		// at beginning (DBCS aware)
; 1473 : 
; 1474 : 		PCXSTR psz = GetString();

	mov	ecx, DWORD PTR _this$[ebp]
	call	?GetString@?$CSimpleStringT@D$0A@@ATL@@QBEPBDXZ ; ATL::CSimpleStringT<char,0>::GetString
	mov	DWORD PTR _psz$[ebp], eax

; 1475 : 		PCXSTR pszLast = NULL;

	mov	DWORD PTR _pszLast$[ebp], 0
$L93458:

; 1476 : 
; 1477 : 		while( *psz != 0 )

	mov	eax, DWORD PTR _psz$[ebp]
	movsx	ecx, BYTE PTR [eax]
	test	ecx, ecx
	je	SHORT $L93459

; 1478 : 		{
; 1479 : 			if( StringTraits::IsSpace( *psz ) )

	mov	eax, DWORD PTR _psz$[ebp]
	mov	cl, BYTE PTR [eax]
	push	ecx
	call	?IsSpace@?$ChTraitsCRT@D@ATL@@SAHD@Z	; ATL::ChTraitsCRT<char>::IsSpace
	add	esp, 4
	test	eax, eax
	je	SHORT $L93460

; 1480 : 			{
; 1481 : 				if( pszLast == NULL )

	cmp	DWORD PTR _pszLast$[ebp], 0
	jne	SHORT $L93461

; 1482 : 					pszLast = psz;

	mov	eax, DWORD PTR _psz$[ebp]
	mov	DWORD PTR _pszLast$[ebp], eax
$L93461:

; 1483 : 			}
; 1484 : 			else

	jmp	SHORT $L93462
$L93460:

; 1485 : 			{
; 1486 : 				pszLast = NULL;

	mov	DWORD PTR _pszLast$[ebp], 0
$L93462:

; 1487 : 			}
; 1488 : 			psz = StringTraits::CharNext( psz );

	mov	eax, DWORD PTR _psz$[ebp]
	push	eax
	call	?CharNextA@?$ChTraitsCRT@D@ATL@@SAPADPBD@Z ; ATL::ChTraitsCRT<char>::CharNextA
	add	esp, 4
	mov	DWORD PTR _psz$[ebp], eax

; 1489 : 		}

	jmp	SHORT $L93458
$L93459:

; 1490 : 
; 1491 : 		if( pszLast != NULL )

	cmp	DWORD PTR _pszLast$[ebp], 0
	je	SHORT $L93463

; 1492 : 		{
; 1493 : 			// truncate at trailing space start
; 1494 : 			int iLast = int( pszLast-GetString() );

	mov	ecx, DWORD PTR _this$[ebp]
	call	?GetString@?$CSimpleStringT@D$0A@@ATL@@QBEPBDXZ ; ATL::CSimpleStringT<char,0>::GetString
	mov	ecx, DWORD PTR _pszLast$[ebp]
	sub	ecx, eax
	mov	DWORD PTR _iLast$93464[ebp], ecx

; 1495 : 
; 1496 : 			Truncate( iLast );

	mov	eax, DWORD PTR _iLast$93464[ebp]
	push	eax
	mov	ecx, DWORD PTR _this$[ebp]
	call	?Truncate@?$CSimpleStringT@D$0A@@ATL@@QAEXH@Z ; ATL::CSimpleStringT<char,0>::Truncate
$L93463:

; 1497 : 		}
; 1498 : 
; 1499 : 		return( *this );

	mov	eax, DWORD PTR _this$[ebp]

; 1500 : 	}

	pop	edi
	pop	esi
	pop	ebx
	add	esp, 240				; 000000f0H
	cmp	ebp, esp
	call	__RTC_CheckEsp
	mov	esp, ebp
	pop	ebp
	ret	0
?TrimRight@?$CStringT@DV?$StrTraitMFC@DV?$ChTraitsCRT@D@ATL@@@@@ATL@@QAEAAV12@XZ ENDP ; ATL::CStringT<char,StrTraitMFC<char,ATL::ChTraitsCRT<char> > >::TrimRight
_TEXT	ENDS
PUBLIC	?GetBuffer@?$CSimpleStringT@D$0A@@ATL@@QAEPADH@Z ; ATL::CSimpleStringT<char,0>::GetBuffer
PUBLIC	?ReleaseBufferSetLength@?$CSimpleStringT@D$0A@@ATL@@QAEXH@Z ; ATL::CSimpleStringT<char,0>::ReleaseBufferSetLength
EXTRN	_memmove:NEAR
; Function compile flags: /Odt /RTCcsu /ZI
;	COMDAT ?TrimLeft@?$CStringT@DV?$StrTraitMFC@DV?$ChTraitsCRT@D@ATL@@@@@ATL@@QAEAAV12@XZ
_TEXT	SEGMENT
_nDataLength$93474 = -56				; size = 4
_pszBuffer$93473 = -44					; size = 4
_iFirst$93472 = -32					; size = 4
_psz$ = -20						; size = 4
_this$ = -8						; size = 4
?TrimLeft@?$CStringT@DV?$StrTraitMFC@DV?$ChTraitsCRT@D@ATL@@@@@ATL@@QAEAAV12@XZ PROC NEAR ; ATL::CStringT<char,StrTraitMFC<char,ATL::ChTraitsCRT<char> > >::TrimLeft, COMDAT
; _this$ = ecx

; 1504 : 	{

	push	ebp
	mov	ebp, esp
	sub	esp, 252				; 000000fcH
	push	ebx
	push	esi
	push	edi
	push	ecx
	lea	edi, DWORD PTR [ebp-252]
	mov	ecx, 63					; 0000003fH
	mov	eax, -858993460				; ccccccccH
	rep stosd
	pop	ecx
	mov	DWORD PTR _this$[ebp], ecx

; 1505 : 		// find first non-space character
; 1506 : 
; 1507 : 		PCXSTR psz = GetString();

	mov	ecx, DWORD PTR _this$[ebp]
	call	?GetString@?$CSimpleStringT@D$0A@@ATL@@QBEPBDXZ ; ATL::CSimpleStringT<char,0>::GetString
	mov	DWORD PTR _psz$[ebp], eax
$L93469:

; 1508 : 
; 1509 : 		while( StringTraits::IsSpace( *psz ) )

	mov	eax, DWORD PTR _psz$[ebp]
	mov	cl, BYTE PTR [eax]
	push	ecx
	call	?IsSpace@?$ChTraitsCRT@D@ATL@@SAHD@Z	; ATL::ChTraitsCRT<char>::IsSpace
	add	esp, 4
	test	eax, eax
	je	SHORT $L93470

; 1510 : 		{
; 1511 : 			psz = StringTraits::CharNext( psz );

	mov	eax, DWORD PTR _psz$[ebp]
	push	eax
	call	?CharNextA@?$ChTraitsCRT@D@ATL@@SAPADPBD@Z ; ATL::ChTraitsCRT<char>::CharNextA
	add	esp, 4
	mov	DWORD PTR _psz$[ebp], eax

; 1512 : 		}

	jmp	SHORT $L93469
$L93470:

; 1513 : 
; 1514 : 		if( psz != GetString() )

	mov	ecx, DWORD PTR _this$[ebp]
	call	?GetString@?$CSimpleStringT@D$0A@@ATL@@QBEPBDXZ ; ATL::CSimpleStringT<char,0>::GetString
	cmp	DWORD PTR _psz$[ebp], eax
	je	SHORT $L93471

; 1515 : 		{
; 1516 : 			// fix up data and length
; 1517 : 			int iFirst = int( psz-GetString() );

	mov	ecx, DWORD PTR _this$[ebp]
	call	?GetString@?$CSimpleStringT@D$0A@@ATL@@QBEPBDXZ ; ATL::CSimpleStringT<char,0>::GetString
	mov	ecx, DWORD PTR _psz$[ebp]
	sub	ecx, eax
	mov	DWORD PTR _iFirst$93472[ebp], ecx

; 1518 : 			PXSTR pszBuffer = GetBuffer( GetLength() );

	mov	ecx, DWORD PTR _this$[ebp]
	call	?GetLength@?$CSimpleStringT@D$0A@@ATL@@QBEHXZ ; ATL::CSimpleStringT<char,0>::GetLength
	push	eax
	mov	ecx, DWORD PTR _this$[ebp]
	call	?GetBuffer@?$CSimpleStringT@D$0A@@ATL@@QAEPADH@Z ; ATL::CSimpleStringT<char,0>::GetBuffer
	mov	DWORD PTR _pszBuffer$93473[ebp], eax

; 1519 : 			psz = pszBuffer+iFirst;

	mov	eax, DWORD PTR _pszBuffer$93473[ebp]
	add	eax, DWORD PTR _iFirst$93472[ebp]
	mov	DWORD PTR _psz$[ebp], eax

; 1520 : 			int nDataLength = GetLength()-iFirst;

	mov	ecx, DWORD PTR _this$[ebp]
	call	?GetLength@?$CSimpleStringT@D$0A@@ATL@@QBEHXZ ; ATL::CSimpleStringT<char,0>::GetLength
	sub	eax, DWORD PTR _iFirst$93472[ebp]
	mov	DWORD PTR _nDataLength$93474[ebp], eax

; 1521 : 			memmove( pszBuffer, psz, (nDataLength+1)*sizeof( XCHAR ) );

	mov	eax, DWORD PTR _nDataLength$93474[ebp]
	add	eax, 1
	push	eax
	mov	ecx, DWORD PTR _psz$[ebp]
	push	ecx
	mov	edx, DWORD PTR _pszBuffer$93473[ebp]
	push	edx
	call	_memmove
	add	esp, 12					; 0000000cH

; 1522 : 			ReleaseBufferSetLength( nDataLength );

	mov	eax, DWORD PTR _nDataLength$93474[ebp]
	push	eax
	mov	ecx, DWORD PTR _this$[ebp]
	call	?ReleaseBufferSetLength@?$CSimpleStringT@D$0A@@ATL@@QAEXH@Z ; ATL::CSimpleStringT<char,0>::ReleaseBufferSetLength
$L93471:

; 1523 : 		}
; 1524 : 
; 1525 : 		return( *this );

	mov	eax, DWORD PTR _this$[ebp]

; 1526 : 	}

	pop	edi
	pop	esi
	pop	ebx
	add	esp, 252				; 000000fcH
	cmp	ebp, esp
	call	__RTC_CheckEsp
	mov	esp, ebp
	pop	ebp
	ret	0
?TrimLeft@?$CStringT@DV?$StrTraitMFC@DV?$ChTraitsCRT@D@ATL@@@@@ATL@@QAEAAV12@XZ ENDP ; ATL::CStringT<char,StrTraitMFC<char,ATL::ChTraitsCRT<char> > >::TrimLeft
_TEXT	ENDS
PUBLIC	?IsLocked@CStringData@ATL@@QBE_NXZ		; ATL::CStringData::IsLocked
PUBLIC	?Release@CStringData@ATL@@QAEXXZ		; ATL::CStringData::Release
PUBLIC	?SetString@?$CSimpleStringT@D$0A@@ATL@@QAEXPBDH@Z ; ATL::CSimpleStringT<char,0>::SetString
PUBLIC	?Attach@?$CSimpleStringT@D$0A@@ATL@@AAEXPAUCStringData@2@@Z ; ATL::CSimpleStringT<char,0>::Attach
PUBLIC	?GetData@?$CSimpleStringT@D$0A@@ATL@@ABEPAUCStringData@2@XZ ; ATL::CSimpleStringT<char,0>::GetData
PUBLIC	?CloneData@?$CSimpleStringT@D$0A@@ATL@@CAPAUCStringData@2@PAU32@@Z ; ATL::CSimpleStringT<char,0>::CloneData
; Function compile flags: /Odt /RTCcsu /ZI
; File c:\program files\microsoft visual studio .net 2003\vc7\atlmfc\include\atlsimpstr.h
;	COMDAT ??4?$CSimpleStringT@D$0A@@ATL@@QAEAAV01@ABV01@@Z
_TEXT	SEGMENT
_pNewData$93484 = -44					; size = 4
_pOldData$ = -32					; size = 4
_pSrcData$ = -20					; size = 4
_this$ = -8						; size = 4
_strSrc$ = 8						; size = 4
??4?$CSimpleStringT@D$0A@@ATL@@QAEAAV01@ABV01@@Z PROC NEAR ; ATL::CSimpleStringT<char,0>::operator=, COMDAT
; _this$ = ecx

; 273  : 	{

	push	ebp
	mov	ebp, esp
	sub	esp, 240				; 000000f0H
	push	ebx
	push	esi
	push	edi
	push	ecx
	lea	edi, DWORD PTR [ebp-240]
	mov	ecx, 60					; 0000003cH
	mov	eax, -858993460				; ccccccccH
	rep stosd
	pop	ecx
	mov	DWORD PTR _this$[ebp], ecx

; 274  : 		CStringData* pSrcData = strSrc.GetData();

	mov	ecx, DWORD PTR _strSrc$[ebp]
	call	?GetData@?$CSimpleStringT@D$0A@@ATL@@ABEPAUCStringData@2@XZ ; ATL::CSimpleStringT<char,0>::GetData
	mov	DWORD PTR _pSrcData$[ebp], eax

; 275  : 		CStringData* pOldData = GetData();

	mov	ecx, DWORD PTR _this$[ebp]
	call	?GetData@?$CSimpleStringT@D$0A@@ATL@@ABEPAUCStringData@2@XZ ; ATL::CSimpleStringT<char,0>::GetData
	mov	DWORD PTR _pOldData$[ebp], eax

; 276  : 		if( pSrcData != pOldData)

	mov	eax, DWORD PTR _pSrcData$[ebp]
	cmp	eax, DWORD PTR _pOldData$[ebp]
	je	SHORT $L93480

; 277  : 		{
; 278  : 			if( pOldData->IsLocked() || pSrcData->pStringMgr != pOldData->pStringMgr )

	mov	ecx, DWORD PTR _pOldData$[ebp]
	call	?IsLocked@CStringData@ATL@@QBE_NXZ	; ATL::CStringData::IsLocked
	movzx	eax, al
	test	eax, eax
	jne	SHORT $L93482
	mov	eax, DWORD PTR _pSrcData$[ebp]
	mov	ecx, DWORD PTR _pOldData$[ebp]
	mov	edx, DWORD PTR [eax]
	cmp	edx, DWORD PTR [ecx]
	je	SHORT $L93481
$L93482:

; 279  : 			{
; 280  : 				SetString( strSrc.GetString(), strSrc.GetLength() );

	mov	ecx, DWORD PTR _strSrc$[ebp]
	call	?GetLength@?$CSimpleStringT@D$0A@@ATL@@QBEHXZ ; ATL::CSimpleStringT<char,0>::GetLength
	push	eax
	mov	ecx, DWORD PTR _strSrc$[ebp]
	call	?GetString@?$CSimpleStringT@D$0A@@ATL@@QBEPBDXZ ; ATL::CSimpleStringT<char,0>::GetString
	push	eax
	mov	ecx, DWORD PTR _this$[ebp]
	call	?SetString@?$CSimpleStringT@D$0A@@ATL@@QAEXPBDH@Z ; ATL::CSimpleStringT<char,0>::SetString

; 281  : 			}
; 282  : 			else

	jmp	SHORT $L93480
$L93481:

; 283  : 			{
; 284  : 				CStringData* pNewData = CloneData( pSrcData );

	mov	eax, DWORD PTR _pSrcData$[ebp]
	push	eax
	call	?CloneData@?$CSimpleStringT@D$0A@@ATL@@CAPAUCStringData@2@PAU32@@Z ; ATL::CSimpleStringT<char,0>::CloneData
	add	esp, 4
	mov	DWORD PTR _pNewData$93484[ebp], eax

; 285  : 				pOldData->Release();

	mov	ecx, DWORD PTR _pOldData$[ebp]
	call	?Release@CStringData@ATL@@QAEXXZ	; ATL::CStringData::Release

; 286  : 				Attach( pNewData );

	mov	eax, DWORD PTR _pNewData$93484[ebp]
	push	eax
	mov	ecx, DWORD PTR _this$[ebp]
	call	?Attach@?$CSimpleStringT@D$0A@@ATL@@AAEXPAUCStringData@2@@Z ; ATL::CSimpleStringT<char,0>::Attach
$L93480:

; 287  : 			}
; 288  : 		}
; 289  : 
; 290  : 		return( *this );

	mov	eax, DWORD PTR _this$[ebp]

; 291  : 	}

	pop	edi
	pop	esi
	pop	ebx
	add	esp, 240				; 000000f0H
	cmp	ebp, esp
	call	__RTC_CheckEsp
	mov	esp, ebp
	pop	ebp
	ret	4
??4?$CSimpleStringT@D$0A@@ATL@@QAEAAV01@ABV01@@Z ENDP	; ATL::CSimpleStringT<char,0>::operator=
_TEXT	ENDS
PUBLIC	??_C@_0FD@JDCNPMMG@c?3?2program?5files?2microsoft?5visua@ ; `string'
PUBLIC	??_C@_0BK@JOOHECM@nNewLength?5?$DM?$DN?5GetLength?$CI?$CJ?$AA@ ; `string'
;	COMDAT ??_C@_0BK@JOOHECM@nNewLength?5?$DM?$DN?5GetLength?$CI?$CJ?$AA@
CONST	SEGMENT
??_C@_0BK@JOOHECM@nNewLength?5?$DM?$DN?5GetLength?$CI?$CJ?$AA@ DB 'nNewLe'
	DB	'ngth <= GetLength()', 00H			; `string'
CONST	ENDS
;	COMDAT ??_C@_0FD@JDCNPMMG@c?3?2program?5files?2microsoft?5visua@
CONST	SEGMENT
??_C@_0FD@JDCNPMMG@c?3?2program?5files?2microsoft?5visua@ DB 'c:\program '
	DB	'files\microsoft visual studio .net 2003\vc7\atlmfc\include\at'
	DB	'lsimpstr.h', 00H				; `string'
; Function compile flags: /Odt /RTCcsu /ZI
CONST	ENDS
;	COMDAT ?Truncate@?$CSimpleStringT@D$0A@@ATL@@QAEXH@Z
_TEXT	SEGMENT
_this$ = -8						; size = 4
_nNewLength$ = 8					; size = 4
?Truncate@?$CSimpleStringT@D$0A@@ATL@@QAEXH@Z PROC NEAR	; ATL::CSimpleStringT<char,0>::Truncate, COMDAT
; _this$ = ecx

; 551  : 	{

	push	ebp
	mov	ebp, esp
	sub	esp, 204				; 000000ccH
	push	ebx
	push	esi
	push	edi
	push	ecx
	lea	edi, DWORD PTR [ebp-204]
	mov	ecx, 51					; 00000033H
	mov	eax, -858993460				; ccccccccH
	rep stosd
	pop	ecx
	mov	DWORD PTR _this$[ebp], ecx

; 552  : 		ATLASSERT( nNewLength <= GetLength() );

	mov	ecx, DWORD PTR _this$[ebp]
	call	?GetLength@?$CSimpleStringT@D$0A@@ATL@@QBEHXZ ; ATL::CSimpleStringT<char,0>::GetLength
	cmp	DWORD PTR _nNewLength$[ebp], eax
	jle	SHORT $L93816
	push	OFFSET FLAT:??_C@_0BK@JOOHECM@nNewLength?5?$DM?$DN?5GetLength?$CI?$CJ?$AA@
	push	0
	push	552					; 00000228H
	push	OFFSET FLAT:??_C@_0FD@JDCNPMMG@c?3?2program?5files?2microsoft?5visua@
	push	2
	call	__CrtDbgReport
	add	esp, 20					; 00000014H
	cmp	eax, 1
	jne	SHORT $L93816
	int	3
$L93816:

; 553  : 		GetBuffer( nNewLength );

	mov	eax, DWORD PTR _nNewLength$[ebp]
	push	eax
	mov	ecx, DWORD PTR _this$[ebp]
	call	?GetBuffer@?$CSimpleStringT@D$0A@@ATL@@QAEPADH@Z ; ATL::CSimpleStringT<char,0>::GetBuffer

; 554  : 		ReleaseBufferSetLength( nNewLength );

	mov	eax, DWORD PTR _nNewLength$[ebp]
	push	eax
	mov	ecx, DWORD PTR _this$[ebp]
	call	?ReleaseBufferSetLength@?$CSimpleStringT@D$0A@@ATL@@QAEXH@Z ; ATL::CSimpleStringT<char,0>::ReleaseBufferSetLength

; 555  : 	}

	pop	edi
	pop	esi
	pop	ebx
	add	esp, 204				; 000000ccH
	cmp	ebp, esp
	call	__RTC_CheckEsp
	mov	esp, ebp
	pop	ebp
	ret	4
?Truncate@?$CSimpleStringT@D$0A@@ATL@@QAEXH@Z ENDP	; ATL::CSimpleStringT<char,0>::Truncate
_TEXT	ENDS
EXTRN	__mbsinc:NEAR
; Function compile flags: /Odt /RTCcsu /ZI
; File c:\program files\microsoft visual studio .net 2003\vc7\atlmfc\include\cstringt.h
;	COMDAT ?CharNextA@?$ChTraitsCRT@D@ATL@@SAPADPBD@Z
_TEXT	SEGMENT
_p$ = 8							; size = 4
?CharNextA@?$ChTraitsCRT@D@ATL@@SAPADPBD@Z PROC NEAR	; ATL::ChTraitsCRT<char>::CharNextA, COMDAT

; 320  : 	{

	push	ebp
	mov	ebp, esp
	sub	esp, 192				; 000000c0H
	push	ebx
	push	esi
	push	edi
	lea	edi, DWORD PTR [ebp-192]
	mov	ecx, 48					; 00000030H
	mov	eax, -858993460				; ccccccccH
	rep stosd

; 321  : 		return reinterpret_cast< char* >( _mbsinc( reinterpret_cast< const unsigned char* >( p ) ) );

	mov	eax, DWORD PTR _p$[ebp]
	push	eax
	call	__mbsinc
	add	esp, 4

; 322  : 	}

	pop	edi
	pop	esi
	pop	ebx
	add	esp, 192				; 000000c0H
	cmp	ebp, esp
	call	__RTC_CheckEsp
	mov	esp, ebp
	pop	ebp
	ret	0
?CharNextA@?$ChTraitsCRT@D@ATL@@SAPADPBD@Z ENDP		; ATL::ChTraitsCRT<char>::CharNextA
_TEXT	ENDS
EXTRN	__ismbcspace:NEAR
; Function compile flags: /Odt /RTCcsu /ZI
;	COMDAT ?IsSpace@?$ChTraitsCRT@D@ATL@@SAHD@Z
_TEXT	SEGMENT
_ch$ = 8						; size = 1
?IsSpace@?$ChTraitsCRT@D@ATL@@SAHD@Z PROC NEAR		; ATL::ChTraitsCRT<char>::IsSpace, COMDAT

; 330  : 	{

	push	ebp
	mov	ebp, esp
	sub	esp, 192				; 000000c0H
	push	ebx
	push	esi
	push	edi
	lea	edi, DWORD PTR [ebp-192]
	mov	ecx, 48					; 00000030H
	mov	eax, -858993460				; ccccccccH
	rep stosd

; 331  : 		return _ismbcspace( ch );

	movsx	eax, BYTE PTR _ch$[ebp]
	push	eax
	call	__ismbcspace
	add	esp, 4

; 332  : 	}

	pop	edi
	pop	esi
	pop	ebx
	add	esp, 192				; 000000c0H
	cmp	ebp, esp
	call	__RTC_CheckEsp
	mov	esp, ebp
	pop	ebp
	ret	0
?IsSpace@?$ChTraitsCRT@D@ATL@@SAHD@Z ENDP		; ATL::ChTraitsCRT<char>::IsSpace
_TEXT	ENDS
EXTRN	__mbscmp:NEAR
; Function compile flags: /Odt /RTCcsu /ZI
;	COMDAT ?StringCompare@?$ChTraitsCRT@D@ATL@@SAHPBD0@Z
_TEXT	SEGMENT
_pszA$ = 8						; size = 4
_pszB$ = 12						; size = 4
?StringCompare@?$ChTraitsCRT@D@ATL@@SAHPBD0@Z PROC NEAR	; ATL::ChTraitsCRT<char>::StringCompare, COMDAT

; 335  : 	{

	push	ebp
	mov	ebp, esp
	sub	esp, 192				; 000000c0H
	push	ebx
	push	esi
	push	edi
	lea	edi, DWORD PTR [ebp-192]
	mov	ecx, 48					; 00000030H
	mov	eax, -858993460				; ccccccccH
	rep stosd

; 336  : 		return _mbscmp( reinterpret_cast< const unsigned char* >( pszA ), reinterpret_cast< const unsigned char* >( pszB ) );

	mov	eax, DWORD PTR _pszB$[ebp]
	push	eax
	mov	ecx, DWORD PTR _pszA$[ebp]
	push	ecx
	call	__mbscmp
	add	esp, 8

; 337  : 	}

	pop	edi
	pop	esi
	pop	ebx
	add	esp, 192				; 000000c0H
	cmp	ebp, esp
	call	__RTC_CheckEsp
	mov	esp, ebp
	pop	ebp
	ret	0
?StringCompare@?$ChTraitsCRT@D@ATL@@SAHPBD0@Z ENDP	; ATL::ChTraitsCRT<char>::StringCompare
_TEXT	ENDS
EXTRN	__imp__IsBadStringPtrA@8:NEAR
; Function compile flags: /Odt /RTCcsu /ZI
; File c:\program files\microsoft visual studio .net 2003\vc7\atlmfc\include\atlcore.h
;	COMDAT ?AtlIsValidString@ATL@@YAHPBDI@Z
_TEXT	SEGMENT
_psz$ = 8						; size = 4
_nMaxLength$ = 12					; size = 4
?AtlIsValidString@ATL@@YAHPBDI@Z PROC NEAR		; ATL::AtlIsValidString, COMDAT

; 72   : {

	push	ebp
	mov	ebp, esp
	sub	esp, 192				; 000000c0H
	push	ebx
	push	esi
	push	edi
	lea	edi, DWORD PTR [ebp-192]
	mov	ecx, 48					; 00000030H
	mov	eax, -858993460				; ccccccccH
	rep stosd

; 73   : #if defined(_DEBUG)
; 74   : 	if (psz == NULL)

	cmp	DWORD PTR _psz$[ebp], 0
	jne	SHORT $L25139

; 75   : 		return FALSE;

	xor	eax, eax
	jmp	SHORT $L25138
$L25139:

; 76   : 	return ::IsBadStringPtrA(psz, nMaxLength) == 0;

	mov	esi, esp
	mov	eax, DWORD PTR _nMaxLength$[ebp]
	push	eax
	mov	ecx, DWORD PTR _psz$[ebp]
	push	ecx
	call	DWORD PTR __imp__IsBadStringPtrA@8
	cmp	esi, esp
	call	__RTC_CheckEsp
	neg	eax
	sbb	eax, eax
	inc	eax
$L25138:

; 77   : #else
; 78   : 	(nMaxLength);
; 79   : 	return (psz != NULL);
; 80   : #endif
; 81   : }

	pop	edi
	pop	esi
	pop	ebx
	add	esp, 192				; 000000c0H
	cmp	ebp, esp
	call	__RTC_CheckEsp
	mov	esp, ebp
	pop	ebp
	ret	0
?AtlIsValidString@ATL@@YAHPBDI@Z ENDP			; ATL::AtlIsValidString
; Function compile flags: /Odt /RTCcsu /ZI
; File c:\program files\microsoft visual studio .net 2003\vc7\atlmfc\include\atlsimpstr.h
_TEXT	ENDS
;	COMDAT ?IsLocked@CStringData@ATL@@QBE_NXZ
_TEXT	SEGMENT
_this$ = -8						; size = 4
?IsLocked@CStringData@ATL@@QBE_NXZ PROC NEAR		; ATL::CStringData::IsLocked, COMDAT
; _this$ = ecx

; 75   : 	{

	push	ebp
	mov	ebp, esp
	sub	esp, 204				; 000000ccH
	push	ebx
	push	esi
	push	edi
	push	ecx
	lea	edi, DWORD PTR [ebp-204]
	mov	ecx, 51					; 00000033H
	mov	eax, -858993460				; ccccccccH
	rep stosd
	pop	ecx
	mov	DWORD PTR _this$[ebp], ecx

; 76   : 		return nRefs < 0;

	mov	eax, DWORD PTR _this$[ebp]
	xor	ecx, ecx
	cmp	DWORD PTR [eax+12], 0
	setl	cl
	call	@_RTC_Check_4_to_1@4

; 77   : 	}

	pop	edi
	pop	esi
	pop	ebx
	add	esp, 204				; 000000ccH
	cmp	ebp, esp
	call	__RTC_CheckEsp
	mov	esp, ebp
	pop	ebp
	ret	0
?IsLocked@CStringData@ATL@@QBE_NXZ ENDP			; ATL::CStringData::IsLocked
_TEXT	ENDS
PUBLIC	??_C@_0L@OIIMFBNE@nRefs?5?$CB?$DN?50?$AA@	; `string'
;	COMDAT ??_C@_0L@OIIMFBNE@nRefs?5?$CB?$DN?50?$AA@
CONST	SEGMENT
??_C@_0L@OIIMFBNE@nRefs?5?$CB?$DN?50?$AA@ DB 'nRefs != 0', 00H ; `string'
; Function compile flags: /Odt /RTCcsu /ZI
CONST	ENDS
;	COMDAT ?Release@CStringData@ATL@@QAEXXZ
_TEXT	SEGMENT
_this$ = -8						; size = 4
?Release@CStringData@ATL@@QAEXXZ PROC NEAR		; ATL::CStringData::Release, COMDAT
; _this$ = ecx

; 92   : 	{

	push	ebp
	mov	ebp, esp
	sub	esp, 204				; 000000ccH
	push	ebx
	push	esi
	push	edi
	push	ecx
	lea	edi, DWORD PTR [ebp-204]
	mov	ecx, 51					; 00000033H
	mov	eax, -858993460				; ccccccccH
	rep stosd
	pop	ecx
	mov	DWORD PTR _this$[ebp], ecx

; 93   : 		ATLASSERT( nRefs != 0 );

	mov	eax, DWORD PTR _this$[ebp]
	cmp	DWORD PTR [eax+12], 0
	jne	SHORT $L93829
	push	OFFSET FLAT:??_C@_0L@OIIMFBNE@nRefs?5?$CB?$DN?50?$AA@
	push	0
	push	93					; 0000005dH
	push	OFFSET FLAT:??_C@_0FD@JDCNPMMG@c?3?2program?5files?2microsoft?5visua@
	push	2
	call	__CrtDbgReport
	add	esp, 20					; 00000014H
	cmp	eax, 1
	jne	SHORT $L93829
	int	3
$L93829:

; 94   : 
; 95   : 		if( _InterlockedDecrement( &nRefs ) <= 0 )

	mov	eax, DWORD PTR _this$[ebp]
	add	eax, 12					; 0000000cH
	or	ecx, -1
	lock	 xadd	 DWORD PTR [eax], ecx
	dec	ecx
	test	ecx, ecx
	jg	SHORT $L25707

; 96   : 		{
; 97   : 			pStringMgr->Free( this );

	mov	esi, esp
	mov	eax, DWORD PTR _this$[ebp]
	push	eax
	mov	ecx, DWORD PTR _this$[ebp]
	mov	edx, DWORD PTR [ecx]
	mov	eax, DWORD PTR _this$[ebp]
	mov	ecx, DWORD PTR [eax]
	mov	edx, DWORD PTR [edx]
	call	DWORD PTR [edx+4]
	cmp	esi, esp
	call	__RTC_CheckEsp
$L25707:

; 98   : 		}
; 99   : 	}

	pop	edi
	pop	esi
	pop	ebx
	add	esp, 204				; 000000ccH
	cmp	ebp, esp
	call	__RTC_CheckEsp
	mov	esp, ebp
	pop	ebp
	ret	0
?Release@CStringData@ATL@@QAEXXZ ENDP			; ATL::CStringData::Release
_TEXT	ENDS
PUBLIC	??0?$CSimpleStringT@D$0A@@ATL@@QAE@PAUIAtlStringMgr@1@@Z ; ATL::CSimpleStringT<char,0>::CSimpleStringT<char,0>
PUBLIC	?GetDefaultManager@?$StrTraitMFC@DV?$ChTraitsCRT@D@ATL@@@@SAPAUIAtlStringMgr@ATL@@XZ ; StrTraitMFC<char,ATL::ChTraitsCRT<char> >::GetDefaultManager
; Function compile flags: /Odt /RTCcsu /ZI
; File c:\program files\microsoft visual studio .net 2003\vc7\atlmfc\include\cstringt.h
;	COMDAT ??0?$CStringT@DV?$StrTraitMFC@DV?$ChTraitsCRT@D@ATL@@@@@ATL@@QAE@XZ
_TEXT	SEGMENT
_this$ = -8						; size = 4
??0?$CStringT@DV?$StrTraitMFC@DV?$ChTraitsCRT@D@ATL@@@@@ATL@@QAE@XZ PROC NEAR ; ATL::CStringT<char,StrTraitMFC<char,ATL::ChTraitsCRT<char> > >::CStringT<char,StrTraitMFC<char,ATL::ChTraitsCRT<char> > >, COMDAT
; _this$ = ecx

; 796  : 	{

	push	ebp
	mov	ebp, esp
	sub	esp, 204				; 000000ccH
	push	ebx
	push	esi
	push	edi
	push	ecx
	lea	edi, DWORD PTR [ebp-204]
	mov	ecx, 51					; 00000033H
	mov	eax, -858993460				; ccccccccH
	rep stosd
	pop	ecx
	mov	DWORD PTR _this$[ebp], ecx
	call	?GetDefaultManager@?$StrTraitMFC@DV?$ChTraitsCRT@D@ATL@@@@SAPAUIAtlStringMgr@ATL@@XZ ; StrTraitMFC<char,ATL::ChTraitsCRT<char> >::GetDefaultManager
	push	eax
	mov	ecx, DWORD PTR _this$[ebp]
	call	??0?$CSimpleStringT@D$0A@@ATL@@QAE@PAUIAtlStringMgr@1@@Z ; ATL::CSimpleStringT<char,0>::CSimpleStringT<char,0>

; 797  : 	}

	mov	eax, DWORD PTR _this$[ebp]
	pop	edi
	pop	esi
	pop	ebx
	add	esp, 204				; 000000ccH
	cmp	ebp, esp
	call	__RTC_CheckEsp
	mov	esp, ebp
	pop	ebp
	ret	0
??0?$CStringT@DV?$StrTraitMFC@DV?$ChTraitsCRT@D@ATL@@@@@ATL@@QAE@XZ ENDP ; ATL::CStringT<char,StrTraitMFC<char,ATL::ChTraitsCRT<char> > >::CStringT<char,StrTraitMFC<char,ATL::ChTraitsCRT<char> > >
_TEXT	ENDS
PUBLIC	??0?$CSimpleStringT@D$0A@@ATL@@QAE@ABV01@@Z	; ATL::CSimpleStringT<char,0>::CSimpleStringT<char,0>
; Function compile flags: /Odt /RTCcsu /ZI
;	COMDAT ??0?$CStringT@DV?$StrTraitMFC@DV?$ChTraitsCRT@D@ATL@@@@@ATL@@QAE@ABV01@@Z
_TEXT	SEGMENT
_this$ = -8						; size = 4
_strSrc$ = 8						; size = 4
??0?$CStringT@DV?$StrTraitMFC@DV?$ChTraitsCRT@D@ATL@@@@@ATL@@QAE@ABV01@@Z PROC NEAR ; ATL::CStringT<char,StrTraitMFC<char,ATL::ChTraitsCRT<char> > >::CStringT<char,StrTraitMFC<char,ATL::ChTraitsCRT<char> > >, COMDAT
; _this$ = ecx

; 814  : 	{

	push	ebp
	mov	ebp, esp
	sub	esp, 204				; 000000ccH
	push	ebx
	push	esi
	push	edi
	push	ecx
	lea	edi, DWORD PTR [ebp-204]
	mov	ecx, 51					; 00000033H
	mov	eax, -858993460				; ccccccccH
	rep stosd
	pop	ecx
	mov	DWORD PTR _this$[ebp], ecx
	mov	eax, DWORD PTR _strSrc$[ebp]
	push	eax
	mov	ecx, DWORD PTR _this$[ebp]
	call	??0?$CSimpleStringT@D$0A@@ATL@@QAE@ABV01@@Z ; ATL::CSimpleStringT<char,0>::CSimpleStringT<char,0>

; 815  : 	}

	mov	eax, DWORD PTR _this$[ebp]
	pop	edi
	pop	esi
	pop	ebx
	add	esp, 204				; 000000ccH
	cmp	ebp, esp
	call	__RTC_CheckEsp
	mov	esp, ebp
	pop	ebp
	ret	4
??0?$CStringT@DV?$StrTraitMFC@DV?$ChTraitsCRT@D@ATL@@@@@ATL@@QAE@ABV01@@Z ENDP ; ATL::CStringT<char,StrTraitMFC<char,ATL::ChTraitsCRT<char> > >::CStringT<char,StrTraitMFC<char,ATL::ChTraitsCRT<char> > >
_TEXT	ENDS
PUBLIC	?CheckImplicitLoad@?$CStringT@DV?$StrTraitMFC@DV?$ChTraitsCRT@D@ATL@@@@@ATL@@AAE_NPBX@Z ; ATL::CStringT<char,StrTraitMFC<char,ATL::ChTraitsCRT<char> > >::CheckImplicitLoad
PUBLIC	??1?$CSimpleStringT@D$0A@@ATL@@QAE@XZ		; ATL::CSimpleStringT<char,0>::~CSimpleStringT<char,0>
;	COMDAT xdata$x
xdata$x	SEGMENT
__unwindtable$??0?$CStringT@DV?$StrTraitMFC@DV?$ChTraitsCRT@D@ATL@@@@@ATL@@QAE@PBD@Z DD 0ffffffffH
	DD	FLAT:__unwindfunclet$??0?$CStringT@DV?$StrTraitMFC@DV?$ChTraitsCRT@D@ATL@@@@@ATL@@QAE@PBD@Z$0
__ehfuncinfo$??0?$CStringT@DV?$StrTraitMFC@DV?$ChTraitsCRT@D@ATL@@@@@ATL@@QAE@PBD@Z DD 019930520H
	DD	01H
	DD	FLAT:__unwindtable$??0?$CStringT@DV?$StrTraitMFC@DV?$ChTraitsCRT@D@ATL@@@@@ATL@@QAE@PBD@Z
	DD	2 DUP(00H)
	DD	2 DUP(00H)
; Function compile flags: /Odt /RTCcsu /ZI
xdata$x	ENDS
;	COMDAT ??0?$CStringT@DV?$StrTraitMFC@DV?$ChTraitsCRT@D@ATL@@@@@ATL@@QAE@PBD@Z
_TEXT	SEGMENT
_this$ = -20						; size = 4
__$EHRec$ = -12						; size = 12
_pszSrc$ = 8						; size = 4
??0?$CStringT@DV?$StrTraitMFC@DV?$ChTraitsCRT@D@ATL@@@@@ATL@@QAE@PBD@Z PROC NEAR ; ATL::CStringT<char,StrTraitMFC<char,ATL::ChTraitsCRT<char> > >::CStringT<char,StrTraitMFC<char,ATL::ChTraitsCRT<char> > >, COMDAT
; _this$ = ecx

; 830  : 	{

	push	ebp
	mov	ebp, esp
	push	-1
	push	__ehhandler$??0?$CStringT@DV?$StrTraitMFC@DV?$ChTraitsCRT@D@ATL@@@@@ATL@@QAE@PBD@Z
	mov	eax, DWORD PTR fs:__except_list
	push	eax
	mov	DWORD PTR fs:__except_list, esp
	sub	esp, 204				; 000000ccH
	push	ebx
	push	esi
	push	edi
	push	ecx
	lea	edi, DWORD PTR [ebp-216]
	mov	ecx, 51					; 00000033H
	mov	eax, -858993460				; ccccccccH
	rep stosd
	pop	ecx
	mov	DWORD PTR _this$[ebp], ecx
	call	?GetDefaultManager@?$StrTraitMFC@DV?$ChTraitsCRT@D@ATL@@@@SAPAUIAtlStringMgr@ATL@@XZ ; StrTraitMFC<char,ATL::ChTraitsCRT<char> >::GetDefaultManager
	push	eax
	mov	ecx, DWORD PTR _this$[ebp]
	call	??0?$CSimpleStringT@D$0A@@ATL@@QAE@PAUIAtlStringMgr@1@@Z ; ATL::CSimpleStringT<char,0>::CSimpleStringT<char,0>
	mov	DWORD PTR __$EHRec$[ebp+8], 0

; 831  : 		if( !CheckImplicitLoad( pszSrc ) )

	mov	eax, DWORD PTR _pszSrc$[ebp]
	push	eax
	mov	ecx, DWORD PTR _this$[ebp]
	call	?CheckImplicitLoad@?$CStringT@DV?$StrTraitMFC@DV?$ChTraitsCRT@D@ATL@@@@@ATL@@AAE_NPBX@Z ; ATL::CStringT<char,StrTraitMFC<char,ATL::ChTraitsCRT<char> > >::CheckImplicitLoad
	movzx	ecx, al
	test	ecx, ecx
	jne	SHORT $L92648

; 832  : 		{
; 833  : 			// nDestLength is in XCHARs
; 834  : 			*this = pszSrc;

	mov	eax, DWORD PTR _pszSrc$[ebp]
	push	eax
	mov	ecx, DWORD PTR _this$[ebp]
	call	??4?$CStringT@DV?$StrTraitMFC@DV?$ChTraitsCRT@D@ATL@@@@@ATL@@QAEAAV01@PBD@Z ; ATL::CStringT<char,StrTraitMFC<char,ATL::ChTraitsCRT<char> > >::operator=
$L92648:

; 835  : 		}
; 836  : 	}

	mov	DWORD PTR __$EHRec$[ebp+8], -1
	mov	eax, DWORD PTR _this$[ebp]
	mov	ecx, DWORD PTR __$EHRec$[ebp]
	mov	DWORD PTR fs:__except_list, ecx
	pop	edi
	pop	esi
	pop	ebx
	add	esp, 216				; 000000d8H
	cmp	ebp, esp
	call	__RTC_CheckEsp
	mov	esp, ebp
	pop	ebp
	ret	4
_TEXT	ENDS
;	COMDAT text$x
text$x	SEGMENT
__unwindfunclet$??0?$CStringT@DV?$StrTraitMFC@DV?$ChTraitsCRT@D@ATL@@@@@ATL@@QAE@PBD@Z$0:
	mov	ecx, DWORD PTR _this$[ebp]
	jmp	??1?$CSimpleStringT@D$0A@@ATL@@QAE@XZ	; ATL::CSimpleStringT<char,0>::~CSimpleStringT<char,0>
__ehhandler$??0?$CStringT@DV?$StrTraitMFC@DV?$ChTraitsCRT@D@ATL@@@@@ATL@@QAE@PBD@Z:
	mov	eax, OFFSET FLAT:__ehfuncinfo$??0?$CStringT@DV?$StrTraitMFC@DV?$ChTraitsCRT@D@ATL@@@@@ATL@@QAE@PBD@Z
	jmp	___CxxFrameHandler
text$x	ENDS
??0?$CStringT@DV?$StrTraitMFC@DV?$ChTraitsCRT@D@ATL@@@@@ATL@@QAE@PBD@Z ENDP ; ATL::CStringT<char,StrTraitMFC<char,ATL::ChTraitsCRT<char> > >::CStringT<char,StrTraitMFC<char,ATL::ChTraitsCRT<char> > >
; Function compile flags: /Odt /RTCcsu /ZI
;	COMDAT ??1?$CStringT@DV?$StrTraitMFC@DV?$ChTraitsCRT@D@ATL@@@@@ATL@@QAE@XZ
_TEXT	SEGMENT
_this$ = -8						; size = 4
??1?$CStringT@DV?$StrTraitMFC@DV?$ChTraitsCRT@D@ATL@@@@@ATL@@QAE@XZ PROC NEAR ; ATL::CStringT<char,StrTraitMFC<char,ATL::ChTraitsCRT<char> > >::~CStringT<char,StrTraitMFC<char,ATL::ChTraitsCRT<char> > >, COMDAT
; _this$ = ecx

; 962  : 	{

	push	ebp
	mov	ebp, esp
	sub	esp, 204				; 000000ccH
	push	ebx
	push	esi
	push	edi
	push	ecx
	lea	edi, DWORD PTR [ebp-204]
	mov	ecx, 51					; 00000033H
	mov	eax, -858993460				; ccccccccH
	rep stosd
	pop	ecx
	mov	DWORD PTR _this$[ebp], ecx

; 963  : 	}

	mov	ecx, DWORD PTR _this$[ebp]
	call	??1?$CSimpleStringT@D$0A@@ATL@@QAE@XZ	; ATL::CSimpleStringT<char,0>::~CSimpleStringT<char,0>
	pop	edi
	pop	esi
	pop	ebx
	add	esp, 204				; 000000ccH
	cmp	ebp, esp
	call	__RTC_CheckEsp
	mov	esp, ebp
	pop	ebp
	ret	0
??1?$CStringT@DV?$StrTraitMFC@DV?$ChTraitsCRT@D@ATL@@@@@ATL@@QAE@XZ ENDP ; ATL::CStringT<char,StrTraitMFC<char,ATL::ChTraitsCRT<char> > >::~CStringT<char,StrTraitMFC<char,ATL::ChTraitsCRT<char> > >
; Function compile flags: /Odt /RTCcsu /ZI
; File c:\program files\microsoft visual studio .net 2003\vc7\atlmfc\include\atlsimpstr.h
_TEXT	ENDS
;	COMDAT ??B?$CSimpleStringT@D$0A@@ATL@@QBEPBDXZ
_TEXT	SEGMENT
_this$ = -8						; size = 4
??B?$CSimpleStringT@D$0A@@ATL@@QBEPBDXZ PROC NEAR	; ATL::CSimpleStringT<char,0>::operator char const *, COMDAT
; _this$ = ecx

; 378  : 	{

	push	ebp
	mov	ebp, esp
	sub	esp, 204				; 000000ccH
	push	ebx
	push	esi
	push	edi
	push	ecx
	lea	edi, DWORD PTR [ebp-204]
	mov	ecx, 51					; 00000033H
	mov	eax, -858993460				; ccccccccH
	rep stosd
	pop	ecx
	mov	DWORD PTR _this$[ebp], ecx

; 379  : 		return( m_pszData );

	mov	eax, DWORD PTR _this$[ebp]
	mov	eax, DWORD PTR [eax]

; 380  : 	}

	pop	edi
	pop	esi
	pop	ebx
	mov	esp, ebp
	pop	ebp
	ret	0
??B?$CSimpleStringT@D$0A@@ATL@@QBEPBDXZ ENDP		; ATL::CSimpleStringT<char,0>::operator char const *
; Function compile flags: /Odt /RTCcsu /ZI
_TEXT	ENDS
;	COMDAT ?GetLength@?$CSimpleStringT@D$0A@@ATL@@QBEHXZ
_TEXT	SEGMENT
_this$ = -8						; size = 4
?GetLength@?$CSimpleStringT@D$0A@@ATL@@QBEHXZ PROC NEAR	; ATL::CSimpleStringT<char,0>::GetLength, COMDAT
; _this$ = ecx

; 500  : 	{

	push	ebp
	mov	ebp, esp
	sub	esp, 204				; 000000ccH
	push	ebx
	push	esi
	push	edi
	push	ecx
	lea	edi, DWORD PTR [ebp-204]
	mov	ecx, 51					; 00000033H
	mov	eax, -858993460				; ccccccccH
	rep stosd
	pop	ecx
	mov	DWORD PTR _this$[ebp], ecx

; 501  : 		return( GetData()->nDataLength );

	mov	ecx, DWORD PTR _this$[ebp]
	call	?GetData@?$CSimpleStringT@D$0A@@ATL@@ABEPAUCStringData@2@XZ ; ATL::CSimpleStringT<char,0>::GetData
	mov	eax, DWORD PTR [eax+4]

; 502  : 	}

	pop	edi
	pop	esi
	pop	ebx
	add	esp, 204				; 000000ccH
	cmp	ebp, esp
	call	__RTC_CheckEsp
	mov	esp, ebp
	pop	ebp
	ret	0
?GetLength@?$CSimpleStringT@D$0A@@ATL@@QBEHXZ ENDP	; ATL::CSimpleStringT<char,0>::GetLength
_TEXT	ENDS
PUBLIC	??4?$CSimpleStringT@D$0A@@ATL@@QAEAAV01@PBD@Z	; ATL::CSimpleStringT<char,0>::operator=
; Function compile flags: /Odt /RTCcsu /ZI
; File c:\program files\microsoft visual studio .net 2003\vc7\atlmfc\include\cstringt.h
;	COMDAT ??4?$CStringT@DV?$StrTraitMFC@DV?$ChTraitsCRT@D@ATL@@@@@ATL@@QAEAAV01@PBD@Z
_TEXT	SEGMENT
_this$ = -8						; size = 4
_pszSrc$ = 8						; size = 4
??4?$CStringT@DV?$StrTraitMFC@DV?$ChTraitsCRT@D@ATL@@@@@ATL@@QAEAAV01@PBD@Z PROC NEAR ; ATL::CStringT<char,StrTraitMFC<char,ATL::ChTraitsCRT<char> > >::operator=, COMDAT
; _this$ = ecx

; 982  : 	{

	push	ebp
	mov	ebp, esp
	sub	esp, 204				; 000000ccH
	push	ebx
	push	esi
	push	edi
	push	ecx
	lea	edi, DWORD PTR [ebp-204]
	mov	ecx, 51					; 00000033H
	mov	eax, -858993460				; ccccccccH
	rep stosd
	pop	ecx
	mov	DWORD PTR _this$[ebp], ecx

; 983  : 		CThisSimpleString::operator=( pszSrc );

	mov	eax, DWORD PTR _pszSrc$[ebp]
	push	eax
	mov	ecx, DWORD PTR _this$[ebp]
	call	??4?$CSimpleStringT@D$0A@@ATL@@QAEAAV01@PBD@Z ; ATL::CSimpleStringT<char,0>::operator=

; 984  : 
; 985  : 		return( *this );

	mov	eax, DWORD PTR _this$[ebp]

; 986  : 	}

	pop	edi
	pop	esi
	pop	ebx
	add	esp, 204				; 000000ccH
	cmp	ebp, esp
	call	__RTC_CheckEsp
	mov	esp, ebp
	pop	ebp
	ret	4
??4?$CStringT@DV?$StrTraitMFC@DV?$ChTraitsCRT@D@ATL@@@@@ATL@@QAEAAV01@PBD@Z ENDP ; ATL::CStringT<char,StrTraitMFC<char,ATL::ChTraitsCRT<char> > >::operator=
_TEXT	ENDS
PUBLIC	??_C@_0CJ@FJEKGMMD@Warning?3?5implicit?5LoadString?$CI?$CFu?$CJ@ ; `string'
PUBLIC	??BCTraceCategory@ATL@@QBEKXZ			; ATL::CTraceCategory::operator unsigned long
PUBLIC	??0CTraceFileAndLineInfo@ATL@@QAE@PBDH@Z	; ATL::CTraceFileAndLineInfo::CTraceFileAndLineInfo
PUBLIC	??RCTraceFileAndLineInfo@ATL@@QBAXKIPBDZZ	; ATL::CTraceFileAndLineInfo::operator()
PUBLIC	?LoadStringA@?$CStringT@DV?$StrTraitMFC@DV?$ChTraitsCRT@D@ATL@@@@@ATL@@QAEHI@Z ; ATL::CStringT<char,StrTraitMFC<char,ATL::ChTraitsCRT<char> > >::LoadStringA
EXTRN	?atlTraceString@ATL@@3VCTraceCategory@1@A:DWORD	; ATL::atlTraceString
;	COMDAT ??_C@_0CJ@FJEKGMMD@Warning?3?5implicit?5LoadString?$CI?$CFu?$CJ@
CONST	SEGMENT
??_C@_0CJ@FJEKGMMD@Warning?3?5implicit?5LoadString?$CI?$CFu?$CJ@ DB 'Warn'
	DB	'ing: implicit LoadString(%u) failed', 0aH, 00H ; `string'
; Function compile flags: /Odt /RTCcsu /ZI
CONST	ENDS
;	COMDAT ?CheckImplicitLoad@?$CStringT@DV?$StrTraitMFC@DV?$ChTraitsCRT@D@ATL@@@@@ATL@@AAE_NPBX@Z
_TEXT	SEGMENT
$T93854 = -240						; size = 8
_nID$92783 = -32					; size = 4
_bRet$ = -17						; size = 1
_this$ = -8						; size = 4
_pv$ = 8						; size = 4
?CheckImplicitLoad@?$CStringT@DV?$StrTraitMFC@DV?$ChTraitsCRT@D@ATL@@@@@ATL@@AAE_NPBX@Z PROC NEAR ; ATL::CStringT<char,StrTraitMFC<char,ATL::ChTraitsCRT<char> > >::CheckImplicitLoad, COMDAT
; _this$ = ecx

; 2229 : 	{

	push	ebp
	mov	ebp, esp
	sub	esp, 244				; 000000f4H
	push	ebx
	push	esi
	push	edi
	push	ecx
	lea	edi, DWORD PTR [ebp-244]
	mov	ecx, 61					; 0000003dH
	mov	eax, -858993460				; ccccccccH
	rep stosd
	pop	ecx
	mov	DWORD PTR _this$[ebp], ecx

; 2230 : 		bool bRet = false;

	mov	BYTE PTR _bRet$[ebp], 0

; 2231 : 
; 2232 : 		if( (pv != NULL) && IS_INTRESOURCE( pv ) )

	cmp	DWORD PTR _pv$[ebp], 0
	je	SHORT $L92782
	mov	eax, DWORD PTR _pv$[ebp]
	shr	eax, 16					; 00000010H
	test	eax, eax
	jne	SHORT $L92782

; 2233 : 		{
; 2234 : 			UINT nID = LOWORD( reinterpret_cast< DWORD_PTR >( pv ) );

	mov	ecx, DWORD PTR _pv$[ebp]
	and	ecx, 65535				; 0000ffffH
	call	@_RTC_Check_4_to_2@4
	movzx	eax, ax
	mov	DWORD PTR _nID$92783[ebp], eax

; 2235 : 			if( !LoadString( nID ) )

	mov	eax, DWORD PTR _nID$92783[ebp]
	push	eax
	mov	ecx, DWORD PTR _this$[ebp]
	call	?LoadStringA@?$CStringT@DV?$StrTraitMFC@DV?$ChTraitsCRT@D@ATL@@@@@ATL@@QAEHI@Z ; ATL::CStringT<char,StrTraitMFC<char,ATL::ChTraitsCRT<char> > >::LoadStringA
	test	eax, eax
	jne	SHORT $L92787

; 2236 : 			{
; 2237 : 				ATLTRACE( atlTraceString, 2, _T( "Warning: implicit LoadString(%u) failed\n" ), nID );

	mov	eax, DWORD PTR _nID$92783[ebp]
	push	eax
	push	OFFSET FLAT:??_C@_0CJ@FJEKGMMD@Warning?3?5implicit?5LoadString?$CI?$CFu?$CJ@
	push	2
	mov	ecx, OFFSET FLAT:?atlTraceString@ATL@@3VCTraceCategory@1@A ; ATL::atlTraceString
	call	??BCTraceCategory@ATL@@QBEKXZ		; ATL::CTraceCategory::operator unsigned long
	push	eax
	push	2237					; 000008bdH
	push	OFFSET FLAT:??_C@_0FB@BCKJDECD@c?3?2program?5files?2microsoft?5visua@
	lea	ecx, DWORD PTR $T93854[ebp]
	call	??0CTraceFileAndLineInfo@ATL@@QAE@PBDH@Z ; ATL::CTraceFileAndLineInfo::CTraceFileAndLineInfo
	push	eax
	call	??RCTraceFileAndLineInfo@ATL@@QBAXKIPBDZZ ; ATL::CTraceFileAndLineInfo::operator()
	add	esp, 20					; 00000014H
$L92787:

; 2238 : 			}
; 2239 : 			bRet = true;

	mov	BYTE PTR _bRet$[ebp], 1
$L92782:

; 2240 : 		}
; 2241 : 
; 2242 : 		return( bRet );

	mov	al, BYTE PTR _bRet$[ebp]

; 2243 : 	}

	pop	edi
	pop	esi
	pop	ebx
	add	esp, 244				; 000000f4H
	cmp	ebp, esp
	call	__RTC_CheckEsp
	mov	esp, ebp
	pop	ebp
	ret	4
?CheckImplicitLoad@?$CStringT@DV?$StrTraitMFC@DV?$ChTraitsCRT@D@ATL@@@@@ATL@@AAE_NPBX@Z ENDP ; ATL::CStringT<char,StrTraitMFC<char,ATL::ChTraitsCRT<char> > >::CheckImplicitLoad
; Function compile flags: /Odt /RTCcsu /ZI
; File c:\program files\microsoft visual studio .net 2003\vc7\atlmfc\include\atltrace.h
_TEXT	ENDS
;	COMDAT ??0CTraceFileAndLineInfo@ATL@@QAE@PBDH@Z
_TEXT	SEGMENT
_this$ = -8						; size = 4
_pszFileName$ = 8					; size = 4
_nLineNo$ = 12						; size = 4
??0CTraceFileAndLineInfo@ATL@@QAE@PBDH@Z PROC NEAR	; ATL::CTraceFileAndLineInfo::CTraceFileAndLineInfo, COMDAT
; _this$ = ecx

; 158  : 	{}

	push	ebp
	mov	ebp, esp
	sub	esp, 204				; 000000ccH
	push	ebx
	push	esi
	push	edi
	push	ecx
	lea	edi, DWORD PTR [ebp-204]
	mov	ecx, 51					; 00000033H
	mov	eax, -858993460				; ccccccccH
	rep stosd
	pop	ecx
	mov	DWORD PTR _this$[ebp], ecx
	mov	eax, DWORD PTR _this$[ebp]
	mov	ecx, DWORD PTR _pszFileName$[ebp]
	mov	DWORD PTR [eax], ecx
	mov	eax, DWORD PTR _this$[ebp]
	mov	ecx, DWORD PTR _nLineNo$[ebp]
	mov	DWORD PTR [eax+4], ecx
	mov	eax, DWORD PTR _this$[ebp]
	pop	edi
	pop	esi
	pop	ebx
	mov	esp, ebp
	pop	ebp
	ret	8
??0CTraceFileAndLineInfo@ATL@@QAE@PBDH@Z ENDP		; ATL::CTraceFileAndLineInfo::CTraceFileAndLineInfo
_TEXT	ENDS
PUBLIC	?TraceV@CTrace@ATL@@QBAXPBDHKI0PAD@Z		; ATL::CTrace::TraceV
EXTRN	?s_trace@CTrace@ATL@@2V12@A:QWORD		; ATL::CTrace::s_trace
; Function compile flags: /Odt /RTCcsu /ZI
;	COMDAT ??RCTraceFileAndLineInfo@ATL@@QBAXKIPBDZZ
_TEXT	SEGMENT
_ptr$ = -8						; size = 4
_this$ = 8						; size = 4
_dwCategory$ = 12					; size = 4
_nLevel$ = 16						; size = 4
_pszFmt$ = 20						; size = 4
??RCTraceFileAndLineInfo@ATL@@QBAXKIPBDZZ PROC NEAR	; ATL::CTraceFileAndLineInfo::operator(), COMDAT

; 161  : 	{

	push	ebp
	mov	ebp, esp
	sub	esp, 204				; 000000ccH
	push	ebx
	push	esi
	push	edi
	lea	edi, DWORD PTR [ebp-204]
	mov	ecx, 51					; 00000033H
	mov	eax, -858993460				; ccccccccH
	rep stosd

; 162  : 		va_list ptr; va_start(ptr, pszFmt);

	lea	eax, DWORD PTR _pszFmt$[ebp+4]
	mov	DWORD PTR _ptr$[ebp], eax

; 163  : 		ATL::CTrace::s_trace.TraceV(m_pszFileName, m_nLineNo, dwCategory, nLevel, pszFmt, ptr);

	mov	eax, DWORD PTR _ptr$[ebp]
	push	eax
	mov	ecx, DWORD PTR _pszFmt$[ebp]
	push	ecx
	mov	edx, DWORD PTR _nLevel$[ebp]
	push	edx
	mov	eax, DWORD PTR _dwCategory$[ebp]
	push	eax
	mov	ecx, DWORD PTR _this$[ebp]
	mov	edx, DWORD PTR [ecx+4]
	push	edx
	mov	eax, DWORD PTR _this$[ebp]
	mov	ecx, DWORD PTR [eax]
	push	ecx
	push	OFFSET FLAT:?s_trace@CTrace@ATL@@2V12@A
	call	?TraceV@CTrace@ATL@@QBAXPBDHKI0PAD@Z	; ATL::CTrace::TraceV
	add	esp, 28					; 0000001cH

; 164  : 		va_end(ptr);

	mov	DWORD PTR _ptr$[ebp], 0

; 165  : 	}

	pop	edi
	pop	esi
	pop	ebx
	add	esp, 204				; 000000ccH
	cmp	ebp, esp
	call	__RTC_CheckEsp
	mov	esp, ebp
	pop	ebp
	ret	0
??RCTraceFileAndLineInfo@ATL@@QBAXKIPBDZZ ENDP		; ATL::CTraceFileAndLineInfo::operator()
_TEXT	ENDS
EXTRN	_AtlTraceVA:NEAR
; Function compile flags: /Odt /RTCcsu /ZI
;	COMDAT ?TraceV@CTrace@ATL@@QBAXPBDHKI0PAD@Z
_TEXT	SEGMENT
_this$ = 8						; size = 4
_pszFileName$ = 12					; size = 4
_nLine$ = 16						; size = 4
_dwCategory$ = 20					; size = 4
_nLevel$ = 24						; size = 4
_pszFmt$ = 28						; size = 4
_args$ = 32						; size = 4
?TraceV@CTrace@ATL@@QBAXPBDHKI0PAD@Z PROC NEAR		; ATL::CTrace::TraceV, COMDAT

; 121  : 	{

	push	ebp
	mov	ebp, esp
	sub	esp, 192				; 000000c0H
	push	ebx
	push	esi
	push	edi
	lea	edi, DWORD PTR [ebp-192]
	mov	ecx, 48					; 00000030H
	mov	eax, -858993460				; ccccccccH
	rep stosd

; 122  : 		AtlTraceVA(m_dwModule, pszFileName, nLine, dwCategory, nLevel, pszFmt, args);

	mov	eax, DWORD PTR _args$[ebp]
	push	eax
	mov	ecx, DWORD PTR _pszFmt$[ebp]
	push	ecx
	mov	edx, DWORD PTR _nLevel$[ebp]
	push	edx
	mov	eax, DWORD PTR _dwCategory$[ebp]
	push	eax
	mov	ecx, DWORD PTR _nLine$[ebp]
	push	ecx
	mov	edx, DWORD PTR _pszFileName$[ebp]
	push	edx
	mov	eax, DWORD PTR _this$[ebp]
	mov	ecx, DWORD PTR [eax+4]
	push	ecx
	call	_AtlTraceVA
	add	esp, 28					; 0000001cH

; 123  : 	}

	pop	edi
	pop	esi
	pop	ebx
	add	esp, 192				; 000000c0H
	cmp	ebp, esp
	call	__RTC_CheckEsp
	mov	esp, ebp
	pop	ebp
	ret	0
?TraceV@CTrace@ATL@@QBAXPBDHKI0PAD@Z ENDP		; ATL::CTrace::TraceV
; Function compile flags: /Odt /RTCcsu /ZI
_TEXT	ENDS
;	COMDAT ??BCTraceCategory@ATL@@QBEKXZ
_TEXT	SEGMENT
_this$ = -8						; size = 4
??BCTraceCategory@ATL@@QBEKXZ PROC NEAR			; ATL::CTraceCategory::operator unsigned long, COMDAT
; _this$ = ecx

; 202  : {

	push	ebp
	mov	ebp, esp
	sub	esp, 204				; 000000ccH
	push	ebx
	push	esi
	push	edi
	push	ecx
	lea	edi, DWORD PTR [ebp-204]
	mov	ecx, 51					; 00000033H
	mov	eax, -858993460				; ccccccccH
	rep stosd
	pop	ecx
	mov	DWORD PTR _this$[ebp], ecx

; 203  : 	return( m_dwCategory );

	mov	eax, DWORD PTR _this$[ebp]
	mov	eax, DWORD PTR [eax]

; 204  : }

	pop	edi
	pop	esi
	pop	ebx
	mov	esp, ebp
	pop	ebp
	ret	0
??BCTraceCategory@ATL@@QBEKXZ ENDP			; ATL::CTraceCategory::operator unsigned long
_TEXT	ENDS
PUBLIC	?FindStringResourceInstance@?$StrTraitMFC@DV?$ChTraitsCRT@D@ATL@@@@SAPAUHINSTANCE__@@I@Z ; StrTraitMFC<char,ATL::ChTraitsCRT<char> >::FindStringResourceInstance
PUBLIC	?LoadStringA@?$CStringT@DV?$StrTraitMFC@DV?$ChTraitsCRT@D@ATL@@@@@ATL@@QAEHPAUHINSTANCE__@@I@Z ; ATL::CStringT<char,StrTraitMFC<char,ATL::ChTraitsCRT<char> > >::LoadStringA
; Function compile flags: /Odt /RTCcsu /ZI
; File c:\program files\microsoft visual studio .net 2003\vc7\atlmfc\include\cstringt.h
;	COMDAT ?LoadStringA@?$CStringT@DV?$StrTraitMFC@DV?$ChTraitsCRT@D@ATL@@@@@ATL@@QAEHI@Z
_TEXT	SEGMENT
_hInst$ = -20						; size = 4
_this$ = -8						; size = 4
_nID$ = 8						; size = 4
?LoadStringA@?$CStringT@DV?$StrTraitMFC@DV?$ChTraitsCRT@D@ATL@@@@@ATL@@QAEHI@Z PROC NEAR ; ATL::CStringT<char,StrTraitMFC<char,ATL::ChTraitsCRT<char> > >::LoadStringA, COMDAT
; _this$ = ecx

; 1969 : 	{

	push	ebp
	mov	ebp, esp
	sub	esp, 216				; 000000d8H
	push	ebx
	push	esi
	push	edi
	push	ecx
	lea	edi, DWORD PTR [ebp-216]
	mov	ecx, 54					; 00000036H
	mov	eax, -858993460				; ccccccccH
	rep stosd
	pop	ecx
	mov	DWORD PTR _this$[ebp], ecx

; 1970 : 		HINSTANCE hInst = StringTraits::FindStringResourceInstance( nID );

	mov	eax, DWORD PTR _nID$[ebp]
	push	eax
	call	?FindStringResourceInstance@?$StrTraitMFC@DV?$ChTraitsCRT@D@ATL@@@@SAPAUHINSTANCE__@@I@Z ; StrTraitMFC<char,ATL::ChTraitsCRT<char> >::FindStringResourceInstance
	add	esp, 4
	mov	DWORD PTR _hInst$[ebp], eax

; 1971 : 		if( hInst == NULL )

	cmp	DWORD PTR _hInst$[ebp], 0
	jne	SHORT $L92676

; 1972 : 		{
; 1973 : 			return( FALSE );

	xor	eax, eax
	jmp	SHORT $L92674
$L92676:

; 1974 : 		}
; 1975 : 
; 1976 : 		return( LoadString( hInst, nID ) );		

	mov	eax, DWORD PTR _nID$[ebp]
	push	eax
	mov	ecx, DWORD PTR _hInst$[ebp]
	push	ecx
	mov	ecx, DWORD PTR _this$[ebp]
	call	?LoadStringA@?$CStringT@DV?$StrTraitMFC@DV?$ChTraitsCRT@D@ATL@@@@@ATL@@QAEHPAUHINSTANCE__@@I@Z ; ATL::CStringT<char,StrTraitMFC<char,ATL::ChTraitsCRT<char> > >::LoadStringA
$L92674:

; 1977 : 	}

	pop	edi
	pop	esi
	pop	ebx
	add	esp, 216				; 000000d8H
	cmp	ebp, esp
	call	__RTC_CheckEsp
	mov	esp, ebp
	pop	ebp
	ret	4
?LoadStringA@?$CStringT@DV?$StrTraitMFC@DV?$ChTraitsCRT@D@ATL@@@@@ATL@@QAEHI@Z ENDP ; ATL::CStringT<char,StrTraitMFC<char,ATL::ChTraitsCRT<char> > >::LoadStringA
_TEXT	ENDS
PUBLIC	?AtlGetStringResourceImage@ATL@@YAPBUATLSTRINGRESOURCEIMAGE@1@PAUHINSTANCE__@@I@Z ; ATL::AtlGetStringResourceImage
PUBLIC	?GetBaseTypeLength@?$ChTraitsCRT@D@ATL@@SAHPBGH@Z ; ATL::ChTraitsCRT<char>::GetBaseTypeLength
PUBLIC	?ConvertToBaseType@?$ChTraitsCRT@D@ATL@@SAXPADHPBGH@Z ; ATL::ChTraitsCRT<char>::ConvertToBaseType
; Function compile flags: /Odt /RTCcsu /ZI
;	COMDAT ?LoadStringA@?$CStringT@DV?$StrTraitMFC@DV?$ChTraitsCRT@D@ATL@@@@@ATL@@QAEHPAUHINSTANCE__@@I@Z
_TEXT	SEGMENT
_pszBuffer$ = -44					; size = 4
_nLength$ = -32						; size = 4
_pImage$ = -20						; size = 4
_this$ = -8						; size = 4
_hInstance$ = 8						; size = 4
_nID$ = 12						; size = 4
?LoadStringA@?$CStringT@DV?$StrTraitMFC@DV?$ChTraitsCRT@D@ATL@@@@@ATL@@QAEHPAUHINSTANCE__@@I@Z PROC NEAR ; ATL::CStringT<char,StrTraitMFC<char,ATL::ChTraitsCRT<char> > >::LoadStringA, COMDAT
; _this$ = ecx

; 1981 : 	{

	push	ebp
	mov	ebp, esp
	sub	esp, 240				; 000000f0H
	push	ebx
	push	esi
	push	edi
	push	ecx
	lea	edi, DWORD PTR [ebp-240]
	mov	ecx, 60					; 0000003cH
	mov	eax, -858993460				; ccccccccH
	rep stosd
	pop	ecx
	mov	DWORD PTR _this$[ebp], ecx

; 1982 : 		const ATLSTRINGRESOURCEIMAGE* pImage = AtlGetStringResourceImage( hInstance, nID );

	mov	eax, DWORD PTR _nID$[ebp]
	push	eax
	mov	ecx, DWORD PTR _hInstance$[ebp]
	push	ecx
	call	?AtlGetStringResourceImage@ATL@@YAPBUATLSTRINGRESOURCEIMAGE@1@PAUHINSTANCE__@@I@Z ; ATL::AtlGetStringResourceImage
	add	esp, 8
	mov	DWORD PTR _pImage$[ebp], eax

; 1983 : 		if( pImage == NULL )

	cmp	DWORD PTR _pImage$[ebp], 0
	jne	SHORT $L92775

; 1984 : 		{
; 1985 : 			return( FALSE );

	xor	eax, eax
	jmp	SHORT $L92773
$L92775:

; 1986 : 		}
; 1987 : 
; 1988 : 		int nLength = StringTraits::GetBaseTypeLength( pImage->achString, pImage->nLength );

	mov	eax, DWORD PTR _pImage$[ebp]
	movzx	ecx, WORD PTR [eax]
	push	ecx
	mov	edx, DWORD PTR _pImage$[ebp]
	add	edx, 2
	push	edx
	call	?GetBaseTypeLength@?$ChTraitsCRT@D@ATL@@SAHPBGH@Z ; ATL::ChTraitsCRT<char>::GetBaseTypeLength
	add	esp, 8
	mov	DWORD PTR _nLength$[ebp], eax

; 1989 : 		PXSTR pszBuffer = GetBuffer( nLength );

	mov	eax, DWORD PTR _nLength$[ebp]
	push	eax
	mov	ecx, DWORD PTR _this$[ebp]
	call	?GetBuffer@?$CSimpleStringT@D$0A@@ATL@@QAEPADH@Z ; ATL::CSimpleStringT<char,0>::GetBuffer
	mov	DWORD PTR _pszBuffer$[ebp], eax

; 1990 : 		StringTraits::ConvertToBaseType( pszBuffer, nLength, pImage->achString, pImage->nLength );

	mov	eax, DWORD PTR _pImage$[ebp]
	movzx	ecx, WORD PTR [eax]
	push	ecx
	mov	edx, DWORD PTR _pImage$[ebp]
	add	edx, 2
	push	edx
	mov	eax, DWORD PTR _nLength$[ebp]
	push	eax
	mov	ecx, DWORD PTR _pszBuffer$[ebp]
	push	ecx
	call	?ConvertToBaseType@?$ChTraitsCRT@D@ATL@@SAXPADHPBGH@Z ; ATL::ChTraitsCRT<char>::ConvertToBaseType
	add	esp, 16					; 00000010H

; 1991 : 		ReleaseBufferSetLength( nLength );

	mov	eax, DWORD PTR _nLength$[ebp]
	push	eax
	mov	ecx, DWORD PTR _this$[ebp]
	call	?ReleaseBufferSetLength@?$CSimpleStringT@D$0A@@ATL@@QAEXH@Z ; ATL::CSimpleStringT<char,0>::ReleaseBufferSetLength

; 1992 : 
; 1993 : 		return( TRUE );

	mov	eax, 1
$L92773:

; 1994 : 	}

	pop	edi
	pop	esi
	pop	ebx
	add	esp, 240				; 000000f0H
	cmp	ebp, esp
	call	__RTC_CheckEsp
	mov	esp, ebp
	pop	ebp
	ret	8
?LoadStringA@?$CStringT@DV?$StrTraitMFC@DV?$ChTraitsCRT@D@ATL@@@@@ATL@@QAEHPAUHINSTANCE__@@I@Z ENDP ; ATL::CStringT<char,StrTraitMFC<char,ATL::ChTraitsCRT<char> > >::LoadStringA
_TEXT	ENDS
PUBLIC	?_AtlGetStringResourceImage@ATL@@YAPBUATLSTRINGRESOURCEIMAGE@1@PAUHINSTANCE__@@PAUHRSRC__@@I@Z ; ATL::_AtlGetStringResourceImage
EXTRN	__imp__FindResourceA@12:NEAR
; Function compile flags: /Odt /RTCcsu /ZI
; File c:\program files\microsoft visual studio .net 2003\vc7\atlmfc\include\atlcore.h
;	COMDAT ?AtlGetStringResourceImage@ATL@@YAPBUATLSTRINGRESOURCEIMAGE@1@PAUHINSTANCE__@@I@Z
_TEXT	SEGMENT
_hResource$ = -8					; size = 4
_hInstance$ = 8						; size = 4
_id$ = 12						; size = 4
?AtlGetStringResourceImage@ATL@@YAPBUATLSTRINGRESOURCEIMAGE@1@PAUHINSTANCE__@@I@Z PROC NEAR ; ATL::AtlGetStringResourceImage, COMDAT

; 280  : {

	push	ebp
	mov	ebp, esp
	sub	esp, 204				; 000000ccH
	push	ebx
	push	esi
	push	edi
	lea	edi, DWORD PTR [ebp-204]
	mov	ecx, 51					; 00000033H
	mov	eax, -858993460				; ccccccccH
	rep stosd

; 281  : 	HRSRC hResource;
; 282  : 
; 283  : 	hResource = ::FindResource( hInstance, MAKEINTRESOURCE( ((id>>4)+1) ), RT_STRING );

	mov	esi, esp
	push	6
	mov	ecx, DWORD PTR _id$[ebp]
	shr	ecx, 4
	add	ecx, 1
	call	@_RTC_Check_4_to_2@4
	movzx	eax, ax
	push	eax
	mov	ecx, DWORD PTR _hInstance$[ebp]
	push	ecx
	call	DWORD PTR __imp__FindResourceA@12
	cmp	esi, esp
	call	__RTC_CheckEsp
	mov	DWORD PTR _hResource$[ebp], eax

; 284  : 	if( hResource == NULL )

	cmp	DWORD PTR _hResource$[ebp], 0
	jne	SHORT $L25360

; 285  : 	{
; 286  : 		return( NULL );

	xor	eax, eax
	jmp	SHORT $L25352
$L25360:

; 287  : 	}
; 288  : 
; 289  : 	return _AtlGetStringResourceImage( hInstance, hResource, id );

	mov	eax, DWORD PTR _id$[ebp]
	push	eax
	mov	ecx, DWORD PTR _hResource$[ebp]
	push	ecx
	mov	edx, DWORD PTR _hInstance$[ebp]
	push	edx
	call	?_AtlGetStringResourceImage@ATL@@YAPBUATLSTRINGRESOURCEIMAGE@1@PAUHINSTANCE__@@PAUHRSRC__@@I@Z ; ATL::_AtlGetStringResourceImage
	add	esp, 12					; 0000000cH
$L25352:

; 290  : }

	pop	edi
	pop	esi
	pop	ebx
	add	esp, 204				; 000000ccH
	cmp	ebp, esp
	call	__RTC_CheckEsp
	mov	esp, ebp
	pop	ebp
	ret	0
?AtlGetStringResourceImage@ATL@@YAPBUATLSTRINGRESOURCEIMAGE@1@PAUHINSTANCE__@@I@Z ENDP ; ATL::AtlGetStringResourceImage
_TEXT	ENDS
EXTRN	__imp__LockResource@4:NEAR
EXTRN	__imp__LoadResource@8:NEAR
EXTRN	__imp__SizeofResource@8:NEAR
; Function compile flags: /Odt /RTCcsu /ZI
;	COMDAT ?_AtlGetStringResourceImage@ATL@@YAPBUATLSTRINGRESOURCEIMAGE@1@PAUHINSTANCE__@@PAUHRSRC__@@I@Z
_TEXT	SEGMENT
_iIndex$ = -56						; size = 4
_hGlobal$ = -44						; size = 4
_nResourceSize$ = -32					; size = 4
_pImageEnd$ = -20					; size = 4
_pImage$ = -8						; size = 4
_hInstance$ = 8						; size = 4
_hResource$ = 12					; size = 4
_id$ = 16						; size = 4
?_AtlGetStringResourceImage@ATL@@YAPBUATLSTRINGRESOURCEIMAGE@1@PAUHINSTANCE__@@PAUHRSRC__@@I@Z PROC NEAR ; ATL::_AtlGetStringResourceImage, COMDAT

; 239  : {

	push	ebp
	mov	ebp, esp
	sub	esp, 252				; 000000fcH
	push	ebx
	push	esi
	push	edi
	lea	edi, DWORD PTR [ebp-252]
	mov	ecx, 63					; 0000003fH
	mov	eax, -858993460				; ccccccccH
	rep stosd

; 240  : 	const ATLSTRINGRESOURCEIMAGE* pImage;
; 241  : 	const ATLSTRINGRESOURCEIMAGE* pImageEnd;
; 242  : 	ULONG nResourceSize;
; 243  : 	HGLOBAL hGlobal;
; 244  : 	UINT iIndex;
; 245  : 
; 246  : 	hGlobal = ::LoadResource( hInstance, hResource );

	mov	esi, esp
	mov	eax, DWORD PTR _hResource$[ebp]
	push	eax
	mov	ecx, DWORD PTR _hInstance$[ebp]
	push	ecx
	call	DWORD PTR __imp__LoadResource@8
	cmp	esi, esp
	call	__RTC_CheckEsp
	mov	DWORD PTR _hGlobal$[ebp], eax

; 247  : 	if( hGlobal == NULL )

	cmp	DWORD PTR _hGlobal$[ebp], 0
	jne	SHORT $L25337

; 248  : 	{
; 249  : 		return( NULL );

	xor	eax, eax
	jmp	$L25331
$L25337:

; 250  : 	}
; 251  : 
; 252  : 	pImage = (const ATLSTRINGRESOURCEIMAGE*)::LockResource( hGlobal );

	mov	esi, esp
	mov	eax, DWORD PTR _hGlobal$[ebp]
	push	eax
	call	DWORD PTR __imp__LockResource@4
	cmp	esi, esp
	call	__RTC_CheckEsp
	mov	DWORD PTR _pImage$[ebp], eax

; 253  : 	if( pImage == NULL )

	cmp	DWORD PTR _pImage$[ebp], 0
	jne	SHORT $L25339

; 254  : 	{
; 255  : 		return( NULL );

	xor	eax, eax
	jmp	SHORT $L25331
$L25339:

; 256  : 	}
; 257  : 
; 258  : 	nResourceSize = ::SizeofResource( hInstance, hResource );

	mov	esi, esp
	mov	eax, DWORD PTR _hResource$[ebp]
	push	eax
	mov	ecx, DWORD PTR _hInstance$[ebp]
	push	ecx
	call	DWORD PTR __imp__SizeofResource@8
	cmp	esi, esp
	call	__RTC_CheckEsp
	mov	DWORD PTR _nResourceSize$[ebp], eax

; 259  : 	pImageEnd = (const ATLSTRINGRESOURCEIMAGE*)(LPBYTE( pImage )+nResourceSize);

	mov	eax, DWORD PTR _pImage$[ebp]
	add	eax, DWORD PTR _nResourceSize$[ebp]
	mov	DWORD PTR _pImageEnd$[ebp], eax

; 260  : 	iIndex = id&0x000f;

	mov	eax, DWORD PTR _id$[ebp]
	and	eax, 15					; 0000000fH
	mov	DWORD PTR _iIndex$[ebp], eax
$L25342:

; 261  : 
; 262  : 	while( (iIndex > 0) && (pImage < pImageEnd) )

	cmp	DWORD PTR _iIndex$[ebp], 0
	jbe	SHORT $L25343
	mov	eax, DWORD PTR _pImage$[ebp]
	cmp	eax, DWORD PTR _pImageEnd$[ebp]
	jae	SHORT $L25343

; 263  : 	{
; 264  : 		pImage = (const ATLSTRINGRESOURCEIMAGE*)(LPBYTE( pImage )+(sizeof( ATLSTRINGRESOURCEIMAGE )+(pImage->nLength*sizeof( WCHAR ))));

	mov	eax, DWORD PTR _pImage$[ebp]
	movzx	ecx, WORD PTR [eax]
	mov	edx, DWORD PTR _pImage$[ebp]
	lea	eax, DWORD PTR [edx+ecx*2+2]
	mov	DWORD PTR _pImage$[ebp], eax

; 265  : 		iIndex--;

	mov	eax, DWORD PTR _iIndex$[ebp]
	sub	eax, 1
	mov	DWORD PTR _iIndex$[ebp], eax

; 266  : 	}

	jmp	SHORT $L25342
$L25343:

; 267  : 	if( pImage >= pImageEnd )

	mov	eax, DWORD PTR _pImage$[ebp]
	cmp	eax, DWORD PTR _pImageEnd$[ebp]
	jb	SHORT $L25347

; 268  : 	{
; 269  : 		return( NULL );

	xor	eax, eax
	jmp	SHORT $L25331
$L25347:

; 270  : 	}
; 271  : 	if( pImage->nLength == 0 )

	mov	eax, DWORD PTR _pImage$[ebp]
	movzx	ecx, WORD PTR [eax]
	test	ecx, ecx
	jne	SHORT $L25348

; 272  : 	{
; 273  : 		return( NULL );

	xor	eax, eax
	jmp	SHORT $L25331
$L25348:

; 274  : 	}
; 275  : 
; 276  : 	return( pImage );

	mov	eax, DWORD PTR _pImage$[ebp]
$L25331:

; 277  : }

	pop	edi
	pop	esi
	pop	ebx
	add	esp, 252				; 000000fcH
	cmp	ebp, esp
	call	__RTC_CheckEsp
	mov	esp, ebp
	pop	ebp
	ret	0
?_AtlGetStringResourceImage@ATL@@YAPBUATLSTRINGRESOURCEIMAGE@1@PAUHINSTANCE__@@PAUHRSRC__@@I@Z ENDP ; ATL::_AtlGetStringResourceImage
_TEXT	ENDS
PUBLIC	??_C@_0BA@GOIMFHNK@pStringMgr?5?$CB?$DN?50?$AA@	; `string'
;	COMDAT ??_C@_0BA@GOIMFHNK@pStringMgr?5?$CB?$DN?50?$AA@
; File c:\program files\microsoft visual studio .net 2003\vc7\atlmfc\include\atlsimpstr.h
CONST	SEGMENT
??_C@_0BA@GOIMFHNK@pStringMgr?5?$CB?$DN?50?$AA@ DB 'pStringMgr != 0', 00H ; `string'
; Function compile flags: /Odt /RTCcsu /ZI
CONST	ENDS
;	COMDAT ??0?$CSimpleStringT@D$0A@@ATL@@QAE@PAUIAtlStringMgr@1@@Z
_TEXT	SEGMENT
_pData$ = -20						; size = 4
_this$ = -8						; size = 4
_pStringMgr$ = 8					; size = 4
??0?$CSimpleStringT@D$0A@@ATL@@QAE@PAUIAtlStringMgr@1@@Z PROC NEAR ; ATL::CSimpleStringT<char,0>::CSimpleStringT<char,0>, COMDAT
; _this$ = ecx

; 210  : 	explicit CSimpleStringT( IAtlStringMgr* pStringMgr ) throw()

	push	ebp
	mov	ebp, esp
	sub	esp, 216				; 000000d8H
	push	ebx
	push	esi
	push	edi
	push	ecx
	lea	edi, DWORD PTR [ebp-216]
	mov	ecx, 54					; 00000036H
	mov	eax, -858993460				; ccccccccH
	rep stosd
	pop	ecx
	mov	DWORD PTR _this$[ebp], ecx

; 211  : 	{
; 212  : 		ATLASSERT( pStringMgr != NULL );

	cmp	DWORD PTR _pStringMgr$[ebp], 0
	jne	SHORT $L93873
	push	OFFSET FLAT:??_C@_0BA@GOIMFHNK@pStringMgr?5?$CB?$DN?50?$AA@
	push	0
	push	212					; 000000d4H
	push	OFFSET FLAT:??_C@_0FD@JDCNPMMG@c?3?2program?5files?2microsoft?5visua@
	push	2
	call	__CrtDbgReport
	add	esp, 20					; 00000014H
	cmp	eax, 1
	jne	SHORT $L93873
	int	3
$L93873:

; 213  : 		CStringData* pData = pStringMgr->GetNilString();

	mov	eax, DWORD PTR _pStringMgr$[ebp]
	mov	edx, DWORD PTR [eax]
	mov	esi, esp
	mov	ecx, DWORD PTR _pStringMgr$[ebp]
	call	DWORD PTR [edx+12]
	cmp	esi, esp
	call	__RTC_CheckEsp
	mov	DWORD PTR _pData$[ebp], eax

; 214  : 		Attach( pData );

	mov	eax, DWORD PTR _pData$[ebp]
	push	eax
	mov	ecx, DWORD PTR _this$[ebp]
	call	?Attach@?$CSimpleStringT@D$0A@@ATL@@AAEXPAUCStringData@2@@Z ; ATL::CSimpleStringT<char,0>::Attach

; 215  : 	}

	mov	eax, DWORD PTR _this$[ebp]
	pop	edi
	pop	esi
	pop	ebx
	add	esp, 216				; 000000d8H
	cmp	ebp, esp
	call	__RTC_CheckEsp
	mov	esp, ebp
	pop	ebp
	ret	4
??0?$CSimpleStringT@D$0A@@ATL@@QAE@PAUIAtlStringMgr@1@@Z ENDP ; ATL::CSimpleStringT<char,0>::CSimpleStringT<char,0>
; Function compile flags: /Odt /RTCcsu /ZI
_TEXT	ENDS
;	COMDAT ??0?$CSimpleStringT@D$0A@@ATL@@QAE@ABV01@@Z
_TEXT	SEGMENT
_pNewData$ = -32					; size = 4
_pSrcData$ = -20					; size = 4
_this$ = -8						; size = 4
_strSrc$ = 8						; size = 4
??0?$CSimpleStringT@D$0A@@ATL@@QAE@ABV01@@Z PROC NEAR	; ATL::CSimpleStringT<char,0>::CSimpleStringT<char,0>, COMDAT
; _this$ = ecx

; 217  : 	CSimpleStringT( const CSimpleStringT& strSrc )

	push	ebp
	mov	ebp, esp
	sub	esp, 228				; 000000e4H
	push	ebx
	push	esi
	push	edi
	push	ecx
	lea	edi, DWORD PTR [ebp-228]
	mov	ecx, 57					; 00000039H
	mov	eax, -858993460				; ccccccccH
	rep stosd
	pop	ecx
	mov	DWORD PTR _this$[ebp], ecx

; 218  : 	{
; 219  : 		CStringData* pSrcData = strSrc.GetData();

	mov	ecx, DWORD PTR _strSrc$[ebp]
	call	?GetData@?$CSimpleStringT@D$0A@@ATL@@ABEPAUCStringData@2@XZ ; ATL::CSimpleStringT<char,0>::GetData
	mov	DWORD PTR _pSrcData$[ebp], eax

; 220  : 		CStringData* pNewData = CloneData( pSrcData );

	mov	eax, DWORD PTR _pSrcData$[ebp]
	push	eax
	call	?CloneData@?$CSimpleStringT@D$0A@@ATL@@CAPAUCStringData@2@PAU32@@Z ; ATL::CSimpleStringT<char,0>::CloneData
	add	esp, 4
	mov	DWORD PTR _pNewData$[ebp], eax

; 221  : 		Attach( pNewData );

	mov	eax, DWORD PTR _pNewData$[ebp]
	push	eax
	mov	ecx, DWORD PTR _this$[ebp]
	call	?Attach@?$CSimpleStringT@D$0A@@ATL@@AAEXPAUCStringData@2@@Z ; ATL::CSimpleStringT<char,0>::Attach

; 222  : 	}

	mov	eax, DWORD PTR _this$[ebp]
	pop	edi
	pop	esi
	pop	ebx
	add	esp, 228				; 000000e4H
	cmp	ebp, esp
	call	__RTC_CheckEsp
	mov	esp, ebp
	pop	ebp
	ret	4
??0?$CSimpleStringT@D$0A@@ATL@@QAE@ABV01@@Z ENDP	; ATL::CSimpleStringT<char,0>::CSimpleStringT<char,0>
; Function compile flags: /Odt /RTCcsu /ZI
_TEXT	ENDS
;	COMDAT ??1?$CSimpleStringT@D$0A@@ATL@@QAE@XZ
_TEXT	SEGMENT
_pData$ = -20						; size = 4
_this$ = -8						; size = 4
??1?$CSimpleStringT@D$0A@@ATL@@QAE@XZ PROC NEAR		; ATL::CSimpleStringT<char,0>::~CSimpleStringT<char,0>, COMDAT
; _this$ = ecx

; 262  : 	{

	push	ebp
	mov	ebp, esp
	sub	esp, 216				; 000000d8H
	push	ebx
	push	esi
	push	edi
	push	ecx
	lea	edi, DWORD PTR [ebp-216]
	mov	ecx, 54					; 00000036H
	mov	eax, -858993460				; ccccccccH
	rep stosd
	pop	ecx
	mov	DWORD PTR _this$[ebp], ecx

; 263  : 		CStringData* pData = GetData();

	mov	ecx, DWORD PTR _this$[ebp]
	call	?GetData@?$CSimpleStringT@D$0A@@ATL@@ABEPAUCStringData@2@XZ ; ATL::CSimpleStringT<char,0>::GetData
	mov	DWORD PTR _pData$[ebp], eax

; 264  : 		pData->Release();

	mov	ecx, DWORD PTR _pData$[ebp]
	call	?Release@CStringData@ATL@@QAEXXZ	; ATL::CStringData::Release

; 265  : 	}

	pop	edi
	pop	esi
	pop	ebx
	add	esp, 216				; 000000d8H
	cmp	ebp, esp
	call	__RTC_CheckEsp
	mov	esp, ebp
	pop	ebp
	ret	0
??1?$CSimpleStringT@D$0A@@ATL@@QAE@XZ ENDP		; ATL::CSimpleStringT<char,0>::~CSimpleStringT<char,0>
_TEXT	ENDS
PUBLIC	?PrepareWrite@?$CSimpleStringT@D$0A@@ATL@@AAEPADH@Z ; ATL::CSimpleStringT<char,0>::PrepareWrite
; Function compile flags: /Odt /RTCcsu /ZI
;	COMDAT ?GetBuffer@?$CSimpleStringT@D$0A@@ATL@@QAEPADH@Z
_TEXT	SEGMENT
_this$ = -8						; size = 4
_nMinBufferLength$ = 8					; size = 4
?GetBuffer@?$CSimpleStringT@D$0A@@ATL@@QAEPADH@Z PROC NEAR ; ATL::CSimpleStringT<char,0>::GetBuffer, COMDAT
; _this$ = ecx

; 489  : 	{

	push	ebp
	mov	ebp, esp
	sub	esp, 204				; 000000ccH
	push	ebx
	push	esi
	push	edi
	push	ecx
	lea	edi, DWORD PTR [ebp-204]
	mov	ecx, 51					; 00000033H
	mov	eax, -858993460				; ccccccccH
	rep stosd
	pop	ecx
	mov	DWORD PTR _this$[ebp], ecx

; 490  : 		return( PrepareWrite( nMinBufferLength ) );

	mov	eax, DWORD PTR _nMinBufferLength$[ebp]
	push	eax
	mov	ecx, DWORD PTR _this$[ebp]
	call	?PrepareWrite@?$CSimpleStringT@D$0A@@ATL@@AAEPADH@Z ; ATL::CSimpleStringT<char,0>::PrepareWrite

; 491  : 	}

	pop	edi
	pop	esi
	pop	ebx
	add	esp, 204				; 000000ccH
	cmp	ebp, esp
	call	__RTC_CheckEsp
	mov	esp, ebp
	pop	ebp
	ret	4
?GetBuffer@?$CSimpleStringT@D$0A@@ATL@@QAEPADH@Z ENDP	; ATL::CSimpleStringT<char,0>::GetBuffer
_TEXT	ENDS
PUBLIC	??_C@_0BA@GNIEOBOF@nNewLength?5?$DO?$DN?50?$AA@	; `string'
PUBLIC	?SetLength@?$CSimpleStringT@D$0A@@ATL@@AAEXH@Z	; ATL::CSimpleStringT<char,0>::SetLength
;	COMDAT ??_C@_0BA@GNIEOBOF@nNewLength?5?$DO?$DN?50?$AA@
CONST	SEGMENT
??_C@_0BA@GNIEOBOF@nNewLength?5?$DO?$DN?50?$AA@ DB 'nNewLength >= 0', 00H ; `string'
; Function compile flags: /Odt /RTCcsu /ZI
CONST	ENDS
;	COMDAT ?ReleaseBufferSetLength@?$CSimpleStringT@D$0A@@ATL@@QAEXH@Z
_TEXT	SEGMENT
_this$ = -8						; size = 4
_nNewLength$ = 8					; size = 4
?ReleaseBufferSetLength@?$CSimpleStringT@D$0A@@ATL@@QAEXH@Z PROC NEAR ; ATL::CSimpleStringT<char,0>::ReleaseBufferSetLength, COMDAT
; _this$ = ecx

; 546  : 	{

	push	ebp
	mov	ebp, esp
	sub	esp, 204				; 000000ccH
	push	ebx
	push	esi
	push	edi
	push	ecx
	lea	edi, DWORD PTR [ebp-204]
	mov	ecx, 51					; 00000033H
	mov	eax, -858993460				; ccccccccH
	rep stosd
	pop	ecx
	mov	DWORD PTR _this$[ebp], ecx

; 547  : 		ATLASSERT( nNewLength >= 0 );

	cmp	DWORD PTR _nNewLength$[ebp], 0
	jge	SHORT $L93882
	push	OFFSET FLAT:??_C@_0BA@GNIEOBOF@nNewLength?5?$DO?$DN?50?$AA@
	push	0
	push	547					; 00000223H
	push	OFFSET FLAT:??_C@_0FD@JDCNPMMG@c?3?2program?5files?2microsoft?5visua@
	push	2
	call	__CrtDbgReport
	add	esp, 20					; 00000014H
	cmp	eax, 1
	jne	SHORT $L93882
	int	3
$L93882:

; 548  : 		SetLength( nNewLength );

	mov	eax, DWORD PTR _nNewLength$[ebp]
	push	eax
	mov	ecx, DWORD PTR _this$[ebp]
	call	?SetLength@?$CSimpleStringT@D$0A@@ATL@@AAEXH@Z ; ATL::CSimpleStringT<char,0>::SetLength

; 549  : 	}

	pop	edi
	pop	esi
	pop	ebx
	add	esp, 204				; 000000ccH
	cmp	ebp, esp
	call	__RTC_CheckEsp
	mov	esp, ebp
	pop	ebp
	ret	4
?ReleaseBufferSetLength@?$CSimpleStringT@D$0A@@ATL@@QAEXH@Z ENDP ; ATL::CSimpleStringT<char,0>::ReleaseBufferSetLength
; Function compile flags: /Odt /RTCcsu /ZI
_TEXT	ENDS
;	COMDAT ?GetData@?$CSimpleStringT@D$0A@@ATL@@ABEPAUCStringData@2@XZ
_TEXT	SEGMENT
_this$ = -8						; size = 4
?GetData@?$CSimpleStringT@D$0A@@ATL@@ABEPAUCStringData@2@XZ PROC NEAR ; ATL::CSimpleStringT<char,0>::GetData, COMDAT
; _this$ = ecx

; 730  : 	{

	push	ebp
	mov	ebp, esp
	sub	esp, 204				; 000000ccH
	push	ebx
	push	esi
	push	edi
	push	ecx
	lea	edi, DWORD PTR [ebp-204]
	mov	ecx, 51					; 00000033H
	mov	eax, -858993460				; ccccccccH
	rep stosd
	pop	ecx
	mov	DWORD PTR _this$[ebp], ecx

; 731  : 		return( reinterpret_cast< CStringData* >( m_pszData )-1 );

	mov	eax, DWORD PTR _this$[ebp]
	mov	eax, DWORD PTR [eax]
	sub	eax, 16					; 00000010H

; 732  : 	}

	pop	edi
	pop	esi
	pop	ebx
	mov	esp, ebp
	pop	ebp
	ret	0
?GetData@?$CSimpleStringT@D$0A@@ATL@@ABEPAUCStringData@2@XZ ENDP ; ATL::CSimpleStringT<char,0>::GetData
_TEXT	ENDS
PUBLIC	?PrepareWrite2@?$CSimpleStringT@D$0A@@ATL@@AAEXH@Z ; ATL::CSimpleStringT<char,0>::PrepareWrite2
; Function compile flags: /Odt /RTCcsu /ZI
;	COMDAT ?PrepareWrite@?$CSimpleStringT@D$0A@@ATL@@AAEPADH@Z
_TEXT	SEGMENT
_nTooShort$ = -44					; size = 4
_nShared$ = -32						; size = 4
_pOldData$ = -20					; size = 4
_this$ = -8						; size = 4
_nLength$ = 8						; size = 4
?PrepareWrite@?$CSimpleStringT@D$0A@@ATL@@AAEPADH@Z PROC NEAR ; ATL::CSimpleStringT<char,0>::PrepareWrite, COMDAT
; _this$ = ecx

; 734  : 	{

	push	ebp
	mov	ebp, esp
	sub	esp, 240				; 000000f0H
	push	ebx
	push	esi
	push	edi
	push	ecx
	lea	edi, DWORD PTR [ebp-240]
	mov	ecx, 60					; 0000003cH
	mov	eax, -858993460				; ccccccccH
	rep stosd
	pop	ecx
	mov	DWORD PTR _this$[ebp], ecx

; 735  : 		CStringData* pOldData = GetData();

	mov	ecx, DWORD PTR _this$[ebp]
	call	?GetData@?$CSimpleStringT@D$0A@@ATL@@ABEPAUCStringData@2@XZ ; ATL::CSimpleStringT<char,0>::GetData
	mov	DWORD PTR _pOldData$[ebp], eax

; 736  : 		int nShared = 1-pOldData->nRefs;  // nShared < 0 means true, >= 0 means false

	mov	eax, DWORD PTR _pOldData$[ebp]
	mov	ecx, 1
	sub	ecx, DWORD PTR [eax+12]
	mov	DWORD PTR _nShared$[ebp], ecx

; 737  : 		int nTooShort = pOldData->nAllocLength-nLength;  // nTooShort < 0 means true, >= 0 means false

	mov	eax, DWORD PTR _pOldData$[ebp]
	mov	ecx, DWORD PTR [eax+8]
	sub	ecx, DWORD PTR _nLength$[ebp]
	mov	DWORD PTR _nTooShort$[ebp], ecx

; 738  : 		if( (nShared|nTooShort) < 0 )  // If either sign bit is set (i.e. either is less than zero), we need to copy data

	mov	eax, DWORD PTR _nShared$[ebp]
	or	eax, DWORD PTR _nTooShort$[ebp]
	jge	SHORT $L92828

; 739  : 		{
; 740  : 			PrepareWrite2( nLength );

	mov	eax, DWORD PTR _nLength$[ebp]
	push	eax
	mov	ecx, DWORD PTR _this$[ebp]
	call	?PrepareWrite2@?$CSimpleStringT@D$0A@@ATL@@AAEXH@Z ; ATL::CSimpleStringT<char,0>::PrepareWrite2
$L92828:

; 741  : 		}
; 742  : 
; 743  : 		return( m_pszData );

	mov	eax, DWORD PTR _this$[ebp]
	mov	eax, DWORD PTR [eax]

; 744  : 	}

	pop	edi
	pop	esi
	pop	ebx
	add	esp, 240				; 000000f0H
	cmp	ebp, esp
	call	__RTC_CheckEsp
	mov	esp, ebp
	pop	ebp
	ret	4
?PrepareWrite@?$CSimpleStringT@D$0A@@ATL@@AAEPADH@Z ENDP ; ATL::CSimpleStringT<char,0>::PrepareWrite
_TEXT	ENDS
PUBLIC	?AtlThrow@ATL@@YGXJ@Z				; ATL::AtlThrow
PUBLIC	??_C@_0N@ILOMLJGA@nLength?5?$DO?$DN?50?$AA@	; `string'
PUBLIC	??_C@_0CD@EEFFJEGJ@nLength?5?$DM?$DN?5GetData?$CI?$CJ?9?$DOnAllocLeng@ ; `string'
;	COMDAT ??_C@_0N@ILOMLJGA@nLength?5?$DO?$DN?50?$AA@
CONST	SEGMENT
??_C@_0N@ILOMLJGA@nLength?5?$DO?$DN?50?$AA@ DB 'nLength >= 0', 00H ; `string'
CONST	ENDS
;	COMDAT ??_C@_0CD@EEFFJEGJ@nLength?5?$DM?$DN?5GetData?$CI?$CJ?9?$DOnAllocLeng@
CONST	SEGMENT
??_C@_0CD@EEFFJEGJ@nLength?5?$DM?$DN?5GetData?$CI?$CJ?9?$DOnAllocLeng@ DB 'n'
	DB	'Length <= GetData()->nAllocLength', 00H	; `string'
; Function compile flags: /Odt /RTCcsu /ZI
CONST	ENDS
;	COMDAT ?SetLength@?$CSimpleStringT@D$0A@@ATL@@AAEXH@Z
_TEXT	SEGMENT
_this$ = -8						; size = 4
_nLength$ = 8						; size = 4
?SetLength@?$CSimpleStringT@D$0A@@ATL@@AAEXH@Z PROC NEAR ; ATL::CSimpleStringT<char,0>::SetLength, COMDAT
; _this$ = ecx

; 789  : 	{

	push	ebp
	mov	ebp, esp
	sub	esp, 204				; 000000ccH
	push	ebx
	push	esi
	push	edi
	push	ecx
	lea	edi, DWORD PTR [ebp-204]
	mov	ecx, 51					; 00000033H
	mov	eax, -858993460				; ccccccccH
	rep stosd
	pop	ecx
	mov	DWORD PTR _this$[ebp], ecx

; 790  : 		ATLASSERT( nLength >= 0 );

	cmp	DWORD PTR _nLength$[ebp], 0
	jge	SHORT $L93889
	push	OFFSET FLAT:??_C@_0N@ILOMLJGA@nLength?5?$DO?$DN?50?$AA@
	push	0
	push	790					; 00000316H
	push	OFFSET FLAT:??_C@_0FD@JDCNPMMG@c?3?2program?5files?2microsoft?5visua@
	push	2
	call	__CrtDbgReport
	add	esp, 20					; 00000014H
	cmp	eax, 1
	jne	SHORT $L93889
	int	3
$L93889:

; 791  : 		ATLASSERT( nLength <= GetData()->nAllocLength );

	mov	ecx, DWORD PTR _this$[ebp]
	call	?GetData@?$CSimpleStringT@D$0A@@ATL@@ABEPAUCStringData@2@XZ ; ATL::CSimpleStringT<char,0>::GetData
	mov	ecx, DWORD PTR _nLength$[ebp]
	cmp	ecx, DWORD PTR [eax+8]
	jle	SHORT $L93890
	push	OFFSET FLAT:??_C@_0CD@EEFFJEGJ@nLength?5?$DM?$DN?5GetData?$CI?$CJ?9?$DOnAllocLeng@
	push	0
	push	791					; 00000317H
	push	OFFSET FLAT:??_C@_0FD@JDCNPMMG@c?3?2program?5files?2microsoft?5visua@
	push	2
	call	__CrtDbgReport
	add	esp, 20					; 00000014H
	cmp	eax, 1
	jne	SHORT $L93890
	int	3
$L93890:

; 792  : 
; 793  : 		if( nLength < 0 || nLength > GetData()->nAllocLength)

	cmp	DWORD PTR _nLength$[ebp], 0
	jl	SHORT $L92836
	mov	ecx, DWORD PTR _this$[ebp]
	call	?GetData@?$CSimpleStringT@D$0A@@ATL@@ABEPAUCStringData@2@XZ ; ATL::CSimpleStringT<char,0>::GetData
	mov	ecx, DWORD PTR _nLength$[ebp]
	cmp	ecx, DWORD PTR [eax+8]
	jle	SHORT $L92835
$L92836:

; 794  : 			AtlThrow(E_INVALIDARG);

	push	-2147024809				; 80070057H
	call	?AtlThrow@ATL@@YGXJ@Z			; ATL::AtlThrow
$L92835:

; 795  : 			
; 796  : 		GetData()->nDataLength = nLength;

	mov	ecx, DWORD PTR _this$[ebp]
	call	?GetData@?$CSimpleStringT@D$0A@@ATL@@ABEPAUCStringData@2@XZ ; ATL::CSimpleStringT<char,0>::GetData
	mov	ecx, DWORD PTR _nLength$[ebp]
	mov	DWORD PTR [eax+4], ecx

; 797  : 		m_pszData[nLength] = 0;

	mov	eax, DWORD PTR _this$[ebp]
	mov	ecx, DWORD PTR [eax]
	mov	edx, DWORD PTR _nLength$[ebp]
	mov	BYTE PTR [ecx+edx], 0
$L93888:

; 798  : 	}

	pop	edi
	pop	esi
	pop	ebx
	add	esp, 204				; 000000ccH
	cmp	ebp, esp
	call	__RTC_CheckEsp
	mov	esp, ebp
	pop	ebp
	ret	4
?SetLength@?$CSimpleStringT@D$0A@@ATL@@AAEXH@Z ENDP	; ATL::CSimpleStringT<char,0>::SetLength
_TEXT	ENDS
PUBLIC	?__LINE__Var@?1??AtlThrow@ATL@@YGXJ@Z@4JA	; `ATL::AtlThrow'::`2'::__LINE__Var
PUBLIC	??_C@_0FC@IPKABFFL@c?3?2program?5files?2microsoft?5visua@ ; `string'
PUBLIC	??_C@_0BF@IAAKIJDJ@AtlThrow?3?5hr?5?$DN?50x?$CFx?6?$AA@ ; `string'
EXTRN	?AfxThrowMemoryException@@YGXXZ:NEAR		; AfxThrowMemoryException
EXTRN	?AfxThrowOleException@@YGXJ@Z:NEAR		; AfxThrowOleException
EXTRN	?atlTraceException@ATL@@3VCTraceCategory@1@A:DWORD ; ATL::atlTraceException
;	COMDAT ??_C@_0BF@IAAKIJDJ@AtlThrow?3?5hr?5?$DN?50x?$CFx?6?$AA@
; File c:\program files\microsoft visual studio .net 2003\vc7\atlmfc\include\atlexcept.h
CONST	SEGMENT
??_C@_0BF@IAAKIJDJ@AtlThrow?3?5hr?5?$DN?50x?$CFx?6?$AA@ DB 'AtlThrow: hr '
	DB	'= 0x%x', 0aH, 00H				; `string'
CONST	ENDS
;	COMDAT ?__LINE__Var@?1??AtlThrow@ATL@@YGXJ@Z@4JA
_DATA	SEGMENT
?__LINE__Var@?1??AtlThrow@ATL@@YGXJ@Z@4JA DD 03dH	; `ATL::AtlThrow'::`2'::__LINE__Var
_DATA	ENDS
;	COMDAT ??_C@_0FC@IPKABFFL@c?3?2program?5files?2microsoft?5visua@
CONST	SEGMENT
??_C@_0FC@IPKABFFL@c?3?2program?5files?2microsoft?5visua@ DB 'c:\program '
	DB	'files\microsoft visual studio .net 2003\vc7\atlmfc\include\at'
	DB	'lexcept.h', 00H				; `string'
; Function compile flags: /Odt /RTCcsu /ZI
CONST	ENDS
;	COMDAT ?AtlThrow@ATL@@YGXJ@Z
_TEXT	SEGMENT
$T93893 = -204						; size = 8
_hr$ = 8						; size = 4
?AtlThrow@ATL@@YGXJ@Z PROC NEAR				; ATL::AtlThrow, COMDAT

; 61   : {

	push	ebp
	mov	ebp, esp
	sub	esp, 208				; 000000d0H
	push	ebx
	push	esi
	push	edi
	lea	edi, DWORD PTR [ebp-208]
	mov	ecx, 52					; 00000034H
	mov	eax, -858993460				; ccccccccH
	rep stosd

; 62   : 	ATLTRACE(atlTraceException, 0, _T("AtlThrow: hr = 0x%x\n"), hr );

	mov	eax, DWORD PTR _hr$[ebp]
	push	eax
	push	OFFSET FLAT:??_C@_0BF@IAAKIJDJ@AtlThrow?3?5hr?5?$DN?50x?$CFx?6?$AA@
	push	0
	mov	ecx, OFFSET FLAT:?atlTraceException@ATL@@3VCTraceCategory@1@A ; ATL::atlTraceException
	call	??BCTraceCategory@ATL@@QBEKXZ		; ATL::CTraceCategory::operator unsigned long
	push	eax
	mov	ecx, DWORD PTR ?__LINE__Var@?1??AtlThrow@ATL@@YGXJ@Z@4JA
	add	ecx, 1
	push	ecx
	push	OFFSET FLAT:??_C@_0FC@IPKABFFL@c?3?2program?5files?2microsoft?5visua@
	lea	ecx, DWORD PTR $T93893[ebp]
	call	??0CTraceFileAndLineInfo@ATL@@QAE@PBDH@Z ; ATL::CTraceFileAndLineInfo::CTraceFileAndLineInfo
	push	eax
	call	??RCTraceFileAndLineInfo@ATL@@QBAXKIPBDZZ ; ATL::CTraceFileAndLineInfo::operator()
	add	esp, 20					; 00000014H

; 63   : #ifdef _AFX
; 64   : 	if( hr == E_OUTOFMEMORY )

	cmp	DWORD PTR _hr$[ebp], -2147024882	; 8007000eH
	jne	SHORT $L24989

; 65   : 	{
; 66   : 		AfxThrowMemoryException();

	call	?AfxThrowMemoryException@@YGXXZ		; AfxThrowMemoryException
$L24989:

; 67   : 	}
; 68   : 	else
; 69   : 	{
; 70   : 		AfxThrowOleException( hr );

	mov	eax, DWORD PTR _hr$[ebp]
	push	eax
	call	?AfxThrowOleException@@YGXJ@Z		; AfxThrowOleException
$L93892:

; 71   : 	}
; 72   : #else
; 73   : 	throw CAtlException( hr );
; 74   : #endif
; 75   : };

	pop	edi
	pop	esi
	pop	ebx
	add	esp, 208				; 000000d0H
	cmp	ebp, esp
	call	__RTC_CheckEsp
	mov	esp, ebp
	pop	ebp
	ret	4
?AtlThrow@ATL@@YGXJ@Z ENDP				; ATL::AtlThrow
_TEXT	ENDS
EXTRN	?AfxFindStringResourceHandle@@YGPAUHINSTANCE__@@I@Z:NEAR ; AfxFindStringResourceHandle
; Function compile flags: /Odt /RTCcsu /ZI
; File c:\program files\microsoft visual studio .net 2003\vc7\atlmfc\include\afxstr.h
;	COMDAT ?FindStringResourceInstance@?$StrTraitMFC@DV?$ChTraitsCRT@D@ATL@@@@SAPAUHINSTANCE__@@I@Z
_TEXT	SEGMENT
_nID$ = 8						; size = 4
?FindStringResourceInstance@?$StrTraitMFC@DV?$ChTraitsCRT@D@ATL@@@@SAPAUHINSTANCE__@@I@Z PROC NEAR ; StrTraitMFC<char,ATL::ChTraitsCRT<char> >::FindStringResourceInstance, COMDAT

; 44   : 	{

	push	ebp
	mov	ebp, esp
	sub	esp, 192				; 000000c0H
	push	ebx
	push	esi
	push	edi
	lea	edi, DWORD PTR [ebp-192]
	mov	ecx, 48					; 00000030H
	mov	eax, -858993460				; ccccccccH
	rep stosd

; 45   : 		return( AfxFindStringResourceHandle( nID ) );

	mov	eax, DWORD PTR _nID$[ebp]
	push	eax
	call	?AfxFindStringResourceHandle@@YGPAUHINSTANCE__@@I@Z ; AfxFindStringResourceHandle

; 46   : 	}

	pop	edi
	pop	esi
	pop	ebx
	add	esp, 192				; 000000c0H
	cmp	ebp, esp
	call	__RTC_CheckEsp
	mov	esp, ebp
	pop	ebp
	ret	0
?FindStringResourceInstance@?$StrTraitMFC@DV?$ChTraitsCRT@D@ATL@@@@SAPAUHINSTANCE__@@I@Z ENDP ; StrTraitMFC<char,ATL::ChTraitsCRT<char> >::FindStringResourceInstance
_TEXT	ENDS
EXTRN	?AfxGetStringManager@@YGPAUIAtlStringMgr@ATL@@XZ:NEAR ; AfxGetStringManager
; Function compile flags: /Odt /RTCcsu /ZI
;	COMDAT ?GetDefaultManager@?$StrTraitMFC@DV?$ChTraitsCRT@D@ATL@@@@SAPAUIAtlStringMgr@ATL@@XZ
_TEXT	SEGMENT
?GetDefaultManager@?$StrTraitMFC@DV?$ChTraitsCRT@D@ATL@@@@SAPAUIAtlStringMgr@ATL@@XZ PROC NEAR ; StrTraitMFC<char,ATL::ChTraitsCRT<char> >::GetDefaultManager, COMDAT

; 49   : 	{

	push	ebp
	mov	ebp, esp
	sub	esp, 192				; 000000c0H
	push	ebx
	push	esi
	push	edi
	lea	edi, DWORD PTR [ebp-192]
	mov	ecx, 48					; 00000030H
	mov	eax, -858993460				; ccccccccH
	rep stosd

; 50   : 		return( AfxGetStringManager() );

	call	?AfxGetStringManager@@YGPAUIAtlStringMgr@ATL@@XZ ; AfxGetStringManager

; 51   : 	}

	pop	edi
	pop	esi
	pop	ebx
	add	esp, 192				; 000000c0H
	cmp	ebp, esp
	call	__RTC_CheckEsp
	mov	esp, ebp
	pop	ebp
	ret	0
?GetDefaultManager@?$StrTraitMFC@DV?$ChTraitsCRT@D@ATL@@@@SAPAUIAtlStringMgr@ATL@@XZ ENDP ; StrTraitMFC<char,ATL::ChTraitsCRT<char> >::GetDefaultManager
_TEXT	ENDS
PUBLIC	?_AtlGetConversionACP@ATL@@YGIXZ		; ATL::_AtlGetConversionACP
EXTRN	__imp__WideCharToMultiByte@32:NEAR
; Function compile flags: /Odt /RTCcsu /ZI
; File c:\program files\microsoft visual studio .net 2003\vc7\atlmfc\include\cstringt.h
;	COMDAT ?ConvertToBaseType@?$ChTraitsCRT@D@ATL@@SAXPADHPBGH@Z
_TEXT	SEGMENT
_pszDest$ = 8						; size = 4
_nDestLength$ = 12					; size = 4
_pszSrc$ = 16						; size = 4
_nSrcLength$ = 20					; size = 4
?ConvertToBaseType@?$ChTraitsCRT@D@ATL@@SAXPADHPBGH@Z PROC NEAR ; ATL::ChTraitsCRT<char>::ConvertToBaseType, COMDAT

; 451  : 	{

	push	ebp
	mov	ebp, esp
	sub	esp, 192				; 000000c0H
	push	ebx
	push	esi
	push	edi
	lea	edi, DWORD PTR [ebp-192]
	mov	ecx, 48					; 00000030H
	mov	eax, -858993460				; ccccccccH
	rep stosd

; 452  : 		// nLen is in XCHARs
; 453  : 		::WideCharToMultiByte( _AtlGetConversionACP(), 0, pszSrc, nSrcLength, pszDest, nDestLength, NULL, NULL );

	mov	esi, esp
	push	0
	push	0
	mov	eax, DWORD PTR _nDestLength$[ebp]
	push	eax
	mov	ecx, DWORD PTR _pszDest$[ebp]
	push	ecx
	mov	edx, DWORD PTR _nSrcLength$[ebp]
	push	edx
	mov	eax, DWORD PTR _pszSrc$[ebp]
	push	eax
	push	0
	call	?_AtlGetConversionACP@ATL@@YGIXZ	; ATL::_AtlGetConversionACP
	push	eax
	call	DWORD PTR __imp__WideCharToMultiByte@32
	cmp	esi, esp
	call	__RTC_CheckEsp

; 454  : 	}

	pop	edi
	pop	esi
	pop	ebx
	add	esp, 192				; 000000c0H
	cmp	ebp, esp
	call	__RTC_CheckEsp
	mov	esp, ebp
	pop	ebp
	ret	0
?ConvertToBaseType@?$ChTraitsCRT@D@ATL@@SAXPADHPBGH@Z ENDP ; ATL::ChTraitsCRT<char>::ConvertToBaseType
; Function compile flags: /Odt /RTCcsu /ZI
; File c:\program files\microsoft visual studio .net 2003\vc7\atlmfc\include\atlconv.h
_TEXT	ENDS
;	COMDAT ?_AtlGetConversionACP@ATL@@YGIXZ
_TEXT	SEGMENT
?_AtlGetConversionACP@ATL@@YGIXZ PROC NEAR		; ATL::_AtlGetConversionACP, COMDAT

; 157  : {

	push	ebp
	mov	ebp, esp
	sub	esp, 192				; 000000c0H
	push	ebx
	push	esi
	push	edi
	lea	edi, DWORD PTR [ebp-192]
	mov	ecx, 48					; 00000030H
	mov	eax, -858993460				; ccccccccH
	rep stosd

; 158  : 	return( g_pfnGetThreadACP() );

	mov	esi, esp
	call	DWORD PTR ?g_pfnGetThreadACP@ATL@@3P6GIXZA ; ATL::g_pfnGetThreadACP
	cmp	esi, esp
	call	__RTC_CheckEsp

; 159  : }

	pop	edi
	pop	esi
	pop	ebx
	add	esp, 192				; 000000c0H
	cmp	ebp, esp
	call	__RTC_CheckEsp
	mov	esp, ebp
	pop	ebp
	ret	0
?_AtlGetConversionACP@ATL@@YGIXZ ENDP			; ATL::_AtlGetConversionACP
_TEXT	ENDS
PUBLIC	?SetString@?$CSimpleStringT@D$0A@@ATL@@QAEXPBD@Z ; ATL::CSimpleStringT<char,0>::SetString
; Function compile flags: /Odt /RTCcsu /ZI
; File c:\program files\microsoft visual studio .net 2003\vc7\atlmfc\include\atlsimpstr.h
;	COMDAT ??4?$CSimpleStringT@D$0A@@ATL@@QAEAAV01@PBD@Z
_TEXT	SEGMENT
_this$ = -8						; size = 4
_pszSrc$ = 8						; size = 4
??4?$CSimpleStringT@D$0A@@ATL@@QAEAAV01@PBD@Z PROC NEAR	; ATL::CSimpleStringT<char,0>::operator=, COMDAT
; _this$ = ecx

; 315  : 	{

	push	ebp
	mov	ebp, esp
	sub	esp, 204				; 000000ccH
	push	ebx
	push	esi
	push	edi
	push	ecx
	lea	edi, DWORD PTR [ebp-204]
	mov	ecx, 51					; 00000033H
	mov	eax, -858993460				; ccccccccH
	rep stosd
	pop	ecx
	mov	DWORD PTR _this$[ebp], ecx

; 316  : 		SetString( pszSrc );

	mov	eax, DWORD PTR _pszSrc$[ebp]
	push	eax
	mov	ecx, DWORD PTR _this$[ebp]
	call	?SetString@?$CSimpleStringT@D$0A@@ATL@@QAEXPBD@Z ; ATL::CSimpleStringT<char,0>::SetString

; 317  : 
; 318  : 		return( *this );

	mov	eax, DWORD PTR _this$[ebp]

; 319  : 	}

	pop	edi
	pop	esi
	pop	ebx
	add	esp, 204				; 000000ccH
	cmp	ebp, esp
	call	__RTC_CheckEsp
	mov	esp, ebp
	pop	ebp
	ret	4
??4?$CSimpleStringT@D$0A@@ATL@@QAEAAV01@PBD@Z ENDP	; ATL::CSimpleStringT<char,0>::operator=
_TEXT	ENDS
PUBLIC	?data@CStringData@ATL@@QAEPAXXZ			; ATL::CStringData::data
; Function compile flags: /Odt /RTCcsu /ZI
;	COMDAT ?Attach@?$CSimpleStringT@D$0A@@ATL@@AAEXPAUCStringData@2@@Z
_TEXT	SEGMENT
_this$ = -8						; size = 4
_pData$ = 8						; size = 4
?Attach@?$CSimpleStringT@D$0A@@ATL@@AAEXPAUCStringData@2@@Z PROC NEAR ; ATL::CSimpleStringT<char,0>::Attach, COMDAT
; _this$ = ecx

; 711  : 	{

	push	ebp
	mov	ebp, esp
	sub	esp, 204				; 000000ccH
	push	ebx
	push	esi
	push	edi
	push	ecx
	lea	edi, DWORD PTR [ebp-204]
	mov	ecx, 51					; 00000033H
	mov	eax, -858993460				; ccccccccH
	rep stosd
	pop	ecx
	mov	DWORD PTR _this$[ebp], ecx

; 712  : 		m_pszData = static_cast< PXSTR >( pData->data() );

	mov	ecx, DWORD PTR _pData$[ebp]
	call	?data@CStringData@ATL@@QAEPAXXZ		; ATL::CStringData::data
	mov	ecx, DWORD PTR _this$[ebp]
	mov	DWORD PTR [ecx], eax

; 713  : 	}

	pop	edi
	pop	esi
	pop	ebx
	add	esp, 204				; 000000ccH
	cmp	ebp, esp
	call	__RTC_CheckEsp
	mov	esp, ebp
	pop	ebp
	ret	4
?Attach@?$CSimpleStringT@D$0A@@ATL@@AAEXPAUCStringData@2@@Z ENDP ; ATL::CSimpleStringT<char,0>::Attach
; Function compile flags: /Odt /RTCcsu /ZI
_TEXT	ENDS
;	COMDAT ?data@CStringData@ATL@@QAEPAXXZ
_TEXT	SEGMENT
_this$ = -8						; size = 4
?data@CStringData@ATL@@QAEPAXXZ PROC NEAR		; ATL::CStringData::data, COMDAT
; _this$ = ecx

; 65   : 	{

	push	ebp
	mov	ebp, esp
	sub	esp, 204				; 000000ccH
	push	ebx
	push	esi
	push	edi
	push	ecx
	lea	edi, DWORD PTR [ebp-204]
	mov	ecx, 51					; 00000033H
	mov	eax, -858993460				; ccccccccH
	rep stosd
	pop	ecx
	mov	DWORD PTR _this$[ebp], ecx

; 66   : 		return (this+1);

	mov	eax, DWORD PTR _this$[ebp]
	add	eax, 16					; 00000010H

; 67   : 	}

	pop	edi
	pop	esi
	pop	ebx
	mov	esp, ebp
	pop	ebp
	ret	0
?data@CStringData@ATL@@QAEPAXXZ ENDP			; ATL::CStringData::data
_TEXT	ENDS
PUBLIC	?IsShared@CStringData@ATL@@QBE_NXZ		; ATL::CStringData::IsShared
PUBLIC	?Fork@?$CSimpleStringT@D$0A@@ATL@@AAEXH@Z	; ATL::CSimpleStringT<char,0>::Fork
PUBLIC	?Reallocate@?$CSimpleStringT@D$0A@@ATL@@AAEXH@Z	; ATL::CSimpleStringT<char,0>::Reallocate
; Function compile flags: /Odt /RTCcsu /ZI
;	COMDAT ?PrepareWrite2@?$CSimpleStringT@D$0A@@ATL@@AAEXH@Z
_TEXT	SEGMENT
_nNewLength$92884 = -32					; size = 4
_pOldData$ = -20					; size = 4
_this$ = -8						; size = 4
_nLength$ = 8						; size = 4
?PrepareWrite2@?$CSimpleStringT@D$0A@@ATL@@AAEXH@Z PROC NEAR ; ATL::CSimpleStringT<char,0>::PrepareWrite2, COMDAT
; _this$ = ecx

; 746  : 	{

	push	ebp
	mov	ebp, esp
	sub	esp, 228				; 000000e4H
	push	ebx
	push	esi
	push	edi
	push	ecx
	lea	edi, DWORD PTR [ebp-228]
	mov	ecx, 57					; 00000039H
	mov	eax, -858993460				; ccccccccH
	rep stosd
	pop	ecx
	mov	DWORD PTR _this$[ebp], ecx

; 747  : 		CStringData* pOldData = GetData();

	mov	ecx, DWORD PTR _this$[ebp]
	call	?GetData@?$CSimpleStringT@D$0A@@ATL@@ABEPAUCStringData@2@XZ ; ATL::CSimpleStringT<char,0>::GetData
	mov	DWORD PTR _pOldData$[ebp], eax

; 748  : 		if( pOldData->nDataLength > nLength )

	mov	eax, DWORD PTR _pOldData$[ebp]
	mov	ecx, DWORD PTR [eax+4]
	cmp	ecx, DWORD PTR _nLength$[ebp]
	jle	SHORT $L92880

; 749  : 		{
; 750  : 			nLength = pOldData->nDataLength;

	mov	eax, DWORD PTR _pOldData$[ebp]
	mov	ecx, DWORD PTR [eax+4]
	mov	DWORD PTR _nLength$[ebp], ecx
$L92880:

; 751  : 		}
; 752  : 		if( pOldData->IsShared() )

	mov	ecx, DWORD PTR _pOldData$[ebp]
	call	?IsShared@CStringData@ATL@@QBE_NXZ	; ATL::CStringData::IsShared
	movzx	eax, al
	test	eax, eax
	je	SHORT $L92881

; 753  : 		{
; 754  : 			Fork( nLength );

	mov	eax, DWORD PTR _nLength$[ebp]
	push	eax
	mov	ecx, DWORD PTR _this$[ebp]
	call	?Fork@?$CSimpleStringT@D$0A@@ATL@@AAEXH@Z ; ATL::CSimpleStringT<char,0>::Fork

; 755  : 		}
; 756  : 		else if( pOldData->nAllocLength < nLength )

	jmp	SHORT $L92878
$L92881:
	mov	eax, DWORD PTR _pOldData$[ebp]
	mov	ecx, DWORD PTR [eax+8]
	cmp	ecx, DWORD PTR _nLength$[ebp]
	jge	SHORT $L92878

; 757  : 		{
; 758  : 			// Grow exponentially, until we hit 1K.
; 759  : 			int nNewLength = pOldData->nAllocLength;

	mov	eax, DWORD PTR _pOldData$[ebp]
	mov	ecx, DWORD PTR [eax+8]
	mov	DWORD PTR _nNewLength$92884[ebp], ecx

; 760  : 			if( nNewLength > 1024 )

	cmp	DWORD PTR _nNewLength$92884[ebp], 1024	; 00000400H
	jle	SHORT $L92885

; 761  : 			{
; 762  : 				nNewLength += 1024;

	mov	eax, DWORD PTR _nNewLength$92884[ebp]
	add	eax, 1024				; 00000400H
	mov	DWORD PTR _nNewLength$92884[ebp], eax

; 763  : 			}
; 764  : 			else

	jmp	SHORT $L92886
$L92885:

; 765  : 			{
; 766  : 				nNewLength *= 2;

	mov	eax, DWORD PTR _nNewLength$92884[ebp]
	shl	eax, 1
	mov	DWORD PTR _nNewLength$92884[ebp], eax
$L92886:

; 767  : 			}
; 768  : 			if( nNewLength < nLength )

	mov	eax, DWORD PTR _nNewLength$92884[ebp]
	cmp	eax, DWORD PTR _nLength$[ebp]
	jge	SHORT $L92887

; 769  : 			{
; 770  : 				nNewLength = nLength;

	mov	eax, DWORD PTR _nLength$[ebp]
	mov	DWORD PTR _nNewLength$92884[ebp], eax
$L92887:

; 771  : 			}
; 772  : 			Reallocate( nNewLength );

	mov	eax, DWORD PTR _nNewLength$92884[ebp]
	push	eax
	mov	ecx, DWORD PTR _this$[ebp]
	call	?Reallocate@?$CSimpleStringT@D$0A@@ATL@@AAEXH@Z ; ATL::CSimpleStringT<char,0>::Reallocate
$L92878:

; 773  : 		}
; 774  : 	}

	pop	edi
	pop	esi
	pop	ebx
	add	esp, 228				; 000000e4H
	cmp	ebp, esp
	call	__RTC_CheckEsp
	mov	esp, ebp
	pop	ebp
	ret	4
?PrepareWrite2@?$CSimpleStringT@D$0A@@ATL@@AAEXH@Z ENDP	; ATL::CSimpleStringT<char,0>::PrepareWrite2
; Function compile flags: /Odt /RTCcsu /ZI
_TEXT	ENDS
;	COMDAT ?IsShared@CStringData@ATL@@QBE_NXZ
_TEXT	SEGMENT
_this$ = -8						; size = 4
?IsShared@CStringData@ATL@@QBE_NXZ PROC NEAR		; ATL::CStringData::IsShared, COMDAT
; _this$ = ecx

; 79   : 	{

	push	ebp
	mov	ebp, esp
	sub	esp, 204				; 000000ccH
	push	ebx
	push	esi
	push	edi
	push	ecx
	lea	edi, DWORD PTR [ebp-204]
	mov	ecx, 51					; 00000033H
	mov	eax, -858993460				; ccccccccH
	rep stosd
	pop	ecx
	mov	DWORD PTR _this$[ebp], ecx

; 80   : 		return( nRefs > 1 ); 

	mov	eax, DWORD PTR _this$[ebp]
	xor	ecx, ecx
	cmp	DWORD PTR [eax+12], 1
	setg	cl
	call	@_RTC_Check_4_to_1@4

; 81   : 	}

	pop	edi
	pop	esi
	pop	ebx
	add	esp, 204				; 000000ccH
	cmp	ebp, esp
	call	__RTC_CheckEsp
	mov	esp, ebp
	pop	ebp
	ret	0
?IsShared@CStringData@ATL@@QBE_NXZ ENDP			; ATL::CStringData::IsShared
_TEXT	ENDS
PUBLIC	?AddRef@CStringData@ATL@@QAEXXZ			; ATL::CStringData::AddRef
PUBLIC	?CopyChars@?$CSimpleStringT@D$0A@@ATL@@SAXPADPBDH@Z ; ATL::CSimpleStringT<char,0>::CopyChars
PUBLIC	?ThrowMemoryException@?$CSimpleStringT@D$0A@@ATL@@KAXXZ ; ATL::CSimpleStringT<char,0>::ThrowMemoryException
; Function compile flags: /Odt /RTCcsu /ZI
;	COMDAT ?CloneData@?$CSimpleStringT@D$0A@@ATL@@CAPAUCStringData@2@PAU32@@Z
_TEXT	SEGMENT
_pNewStringMgr$ = -20					; size = 4
_pNewData$ = -8						; size = 4
_pData$ = 8						; size = 4
?CloneData@?$CSimpleStringT@D$0A@@ATL@@CAPAUCStringData@2@PAU32@@Z PROC NEAR ; ATL::CSimpleStringT<char,0>::CloneData, COMDAT

; 801  : 	{

	push	ebp
	mov	ebp, esp
	sub	esp, 216				; 000000d8H
	push	ebx
	push	esi
	push	edi
	lea	edi, DWORD PTR [ebp-216]
	mov	ecx, 54					; 00000036H
	mov	eax, -858993460				; ccccccccH
	rep stosd

; 802  : 		CStringData* pNewData = NULL;

	mov	DWORD PTR _pNewData$[ebp], 0

; 803  : 
; 804  : 		IAtlStringMgr* pNewStringMgr = pData->pStringMgr->Clone();

	mov	eax, DWORD PTR _pData$[ebp]
	mov	ecx, DWORD PTR [eax]
	mov	edx, DWORD PTR _pData$[ebp]
	mov	eax, DWORD PTR [edx]
	mov	edx, DWORD PTR [ecx]
	mov	esi, esp
	mov	ecx, eax
	call	DWORD PTR [edx+16]
	cmp	esi, esp
	call	__RTC_CheckEsp
	mov	DWORD PTR _pNewStringMgr$[ebp], eax

; 805  : 		if( !pData->IsLocked() && (pNewStringMgr == pData->pStringMgr) )

	mov	ecx, DWORD PTR _pData$[ebp]
	call	?IsLocked@CStringData@ATL@@QBE_NXZ	; ATL::CStringData::IsLocked
	movzx	eax, al
	test	eax, eax
	jne	SHORT $L92891
	mov	eax, DWORD PTR _pData$[ebp]
	mov	ecx, DWORD PTR _pNewStringMgr$[ebp]
	cmp	ecx, DWORD PTR [eax]
	jne	SHORT $L92891

; 806  : 		{
; 807  : 			pNewData = pData;

	mov	eax, DWORD PTR _pData$[ebp]
	mov	DWORD PTR _pNewData$[ebp], eax

; 808  : 			pNewData->AddRef();

	mov	ecx, DWORD PTR _pNewData$[ebp]
	call	?AddRef@CStringData@ATL@@QAEXXZ		; ATL::CStringData::AddRef

; 809  : 		}
; 810  : 		else

	jmp	SHORT $L92892
$L92891:

; 811  : 		{
; 812  : 			pNewData = pNewStringMgr->Allocate( pData->nDataLength, sizeof( XCHAR ) );

	mov	esi, esp
	push	1
	mov	eax, DWORD PTR _pData$[ebp]
	mov	ecx, DWORD PTR [eax+4]
	push	ecx
	mov	edx, DWORD PTR _pNewStringMgr$[ebp]
	mov	eax, DWORD PTR [edx]
	mov	ecx, DWORD PTR _pNewStringMgr$[ebp]
	call	DWORD PTR [eax]
	cmp	esi, esp
	call	__RTC_CheckEsp
	mov	DWORD PTR _pNewData$[ebp], eax

; 813  : 			if( pNewData == NULL )

	cmp	DWORD PTR _pNewData$[ebp], 0
	jne	SHORT $L92894

; 814  : 			{
; 815  : 				ThrowMemoryException();

	call	?ThrowMemoryException@?$CSimpleStringT@D$0A@@ATL@@KAXXZ ; ATL::CSimpleStringT<char,0>::ThrowMemoryException
$L92894:

; 816  : 			}
; 817  : 			pNewData->nDataLength = pData->nDataLength;

	mov	eax, DWORD PTR _pNewData$[ebp]
	mov	ecx, DWORD PTR _pData$[ebp]
	mov	edx, DWORD PTR [ecx+4]
	mov	DWORD PTR [eax+4], edx

; 818  : 			CopyChars( PXSTR( pNewData->data() ), PCXSTR( pData->data() ), pData->nDataLength+1 );  // Copy '\0'

	mov	eax, DWORD PTR _pData$[ebp]
	mov	ecx, DWORD PTR [eax+4]
	add	ecx, 1
	push	ecx
	mov	ecx, DWORD PTR _pData$[ebp]
	call	?data@CStringData@ATL@@QAEPAXXZ		; ATL::CStringData::data
	push	eax
	mov	ecx, DWORD PTR _pNewData$[ebp]
	call	?data@CStringData@ATL@@QAEPAXXZ		; ATL::CStringData::data
	push	eax
	call	?CopyChars@?$CSimpleStringT@D$0A@@ATL@@SAXPADPBDH@Z ; ATL::CSimpleStringT<char,0>::CopyChars
	add	esp, 12					; 0000000cH
$L92892:

; 819  : 		}
; 820  : 
; 821  : 		return( pNewData );

	mov	eax, DWORD PTR _pNewData$[ebp]
$L93913:

; 822  : 	}

	pop	edi
	pop	esi
	pop	ebx
	add	esp, 216				; 000000d8H
	cmp	ebp, esp
	call	__RTC_CheckEsp
	mov	esp, ebp
	pop	ebp
	ret	0
?CloneData@?$CSimpleStringT@D$0A@@ATL@@CAPAUCStringData@2@PAU32@@Z ENDP ; ATL::CSimpleStringT<char,0>::CloneData
_TEXT	ENDS
PUBLIC	??_C@_09EEBKLCFA@nRefs?5?$DO?50?$AA@		; `string'
;	COMDAT ??_C@_09EEBKLCFA@nRefs?5?$DO?50?$AA@
CONST	SEGMENT
??_C@_09EEBKLCFA@nRefs?5?$DO?50?$AA@ DB 'nRefs > 0', 00H ; `string'
; Function compile flags: /Odt /RTCcsu /ZI
CONST	ENDS
;	COMDAT ?AddRef@CStringData@ATL@@QAEXXZ
_TEXT	SEGMENT
_this$ = -8						; size = 4
?AddRef@CStringData@ATL@@QAEXXZ PROC NEAR		; ATL::CStringData::AddRef, COMDAT
; _this$ = ecx

; 70   : 	{

	push	ebp
	mov	ebp, esp
	sub	esp, 204				; 000000ccH
	push	ebx
	push	esi
	push	edi
	push	ecx
	lea	edi, DWORD PTR [ebp-204]
	mov	ecx, 51					; 00000033H
	mov	eax, -858993460				; ccccccccH
	rep stosd
	pop	ecx
	mov	DWORD PTR _this$[ebp], ecx

; 71   : 		ATLASSERT(nRefs > 0);

	mov	eax, DWORD PTR _this$[ebp]
	cmp	DWORD PTR [eax+12], 0
	jg	SHORT $L93916
	push	OFFSET FLAT:??_C@_09EEBKLCFA@nRefs?5?$DO?50?$AA@
	push	0
	push	71					; 00000047H
	push	OFFSET FLAT:??_C@_0FD@JDCNPMMG@c?3?2program?5files?2microsoft?5visua@
	push	2
	call	__CrtDbgReport
	add	esp, 20					; 00000014H
	cmp	eax, 1
	jne	SHORT $L93916
	int	3
$L93916:

; 72   : 		_InterlockedIncrement(&nRefs);

	mov	eax, DWORD PTR _this$[ebp]
	add	eax, 12					; 0000000cH
	mov	ecx, 1
	lock	 xadd	 DWORD PTR [eax], ecx

; 73   : 	}

	pop	edi
	pop	esi
	pop	ebx
	add	esp, 204				; 000000ccH
	cmp	ebp, esp
	call	__RTC_CheckEsp
	mov	esp, ebp
	pop	ebp
	ret	0
?AddRef@CStringData@ATL@@QAEXXZ ENDP			; ATL::CStringData::AddRef
; Function compile flags: /Odt /RTCcsu /ZI
; File c:\program files\microsoft visual studio .net 2003\vc7\atlmfc\include\cstringt.h
_TEXT	ENDS
;	COMDAT ?GetBaseTypeLength@?$ChTraitsCRT@D@ATL@@SAHPBGH@Z
_TEXT	SEGMENT
_pszSource$ = 8						; size = 4
_nLength$ = 12						; size = 4
?GetBaseTypeLength@?$ChTraitsCRT@D@ATL@@SAHPBGH@Z PROC NEAR ; ATL::ChTraitsCRT<char>::GetBaseTypeLength, COMDAT

; 436  : 	{

	push	ebp
	mov	ebp, esp
	sub	esp, 192				; 000000c0H
	push	ebx
	push	esi
	push	edi
	lea	edi, DWORD PTR [ebp-192]
	mov	ecx, 48					; 00000030H
	mov	eax, -858993460				; ccccccccH
	rep stosd

; 437  : 		// Returns required buffer length in XCHARs
; 438  : 		return ::WideCharToMultiByte( _AtlGetConversionACP(), 0, pszSource, nLength, NULL, 0, NULL, NULL );

	mov	esi, esp
	push	0
	push	0
	push	0
	push	0
	mov	eax, DWORD PTR _nLength$[ebp]
	push	eax
	mov	ecx, DWORD PTR _pszSource$[ebp]
	push	ecx
	push	0
	call	?_AtlGetConversionACP@ATL@@YGIXZ	; ATL::_AtlGetConversionACP
	push	eax
	call	DWORD PTR __imp__WideCharToMultiByte@32
	cmp	esi, esp
	call	__RTC_CheckEsp

; 439  : 	}

	pop	edi
	pop	esi
	pop	ebx
	add	esp, 192				; 000000c0H
	cmp	ebp, esp
	call	__RTC_CheckEsp
	mov	esp, ebp
	pop	ebp
	ret	0
?GetBaseTypeLength@?$ChTraitsCRT@D@ATL@@SAHPBGH@Z ENDP	; ATL::ChTraitsCRT<char>::GetBaseTypeLength
_TEXT	ENDS
PUBLIC	?StringLength@?$CSimpleStringT@D$0A@@ATL@@SAHPBD@Z ; ATL::CSimpleStringT<char,0>::StringLength
; Function compile flags: /Odt /RTCcsu /ZI
; File c:\program files\microsoft visual studio .net 2003\vc7\atlmfc\include\atlsimpstr.h
;	COMDAT ?SetString@?$CSimpleStringT@D$0A@@ATL@@QAEXPBD@Z
_TEXT	SEGMENT
_this$ = -8						; size = 4
_pszSrc$ = 8						; size = 4
?SetString@?$CSimpleStringT@D$0A@@ATL@@QAEXPBD@Z PROC NEAR ; ATL::CSimpleStringT<char,0>::SetString, COMDAT
; _this$ = ecx

; 579  : 	{

	push	ebp
	mov	ebp, esp
	sub	esp, 204				; 000000ccH
	push	ebx
	push	esi
	push	edi
	push	ecx
	lea	edi, DWORD PTR [ebp-204]
	mov	ecx, 51					; 00000033H
	mov	eax, -858993460				; ccccccccH
	rep stosd
	pop	ecx
	mov	DWORD PTR _this$[ebp], ecx

; 580  : 		SetString( pszSrc, StringLength( pszSrc ) );

	mov	eax, DWORD PTR _pszSrc$[ebp]
	push	eax
	call	?StringLength@?$CSimpleStringT@D$0A@@ATL@@SAHPBD@Z ; ATL::CSimpleStringT<char,0>::StringLength
	add	esp, 4
	push	eax
	mov	ecx, DWORD PTR _pszSrc$[ebp]
	push	ecx
	mov	ecx, DWORD PTR _this$[ebp]
	call	?SetString@?$CSimpleStringT@D$0A@@ATL@@QAEXPBDH@Z ; ATL::CSimpleStringT<char,0>::SetString

; 581  : 	}

	pop	edi
	pop	esi
	pop	ebx
	add	esp, 204				; 000000ccH
	cmp	ebp, esp
	call	__RTC_CheckEsp
	mov	esp, ebp
	pop	ebp
	ret	4
?SetString@?$CSimpleStringT@D$0A@@ATL@@QAEXPBD@Z ENDP	; ATL::CSimpleStringT<char,0>::SetString
_TEXT	ENDS
EXTRN	_strlen:NEAR
; Function compile flags: /Odt /RTCcsu /ZI
;	COMDAT ?StringLength@?$CSimpleStringT@D$0A@@ATL@@SAHPBD@Z
_TEXT	SEGMENT
_psz$ = 8						; size = 4
?StringLength@?$CSimpleStringT@D$0A@@ATL@@SAHPBD@Z PROC NEAR ; ATL::CSimpleStringT<char,0>::StringLength, COMDAT

; 677  : 	{

	push	ebp
	mov	ebp, esp
	sub	esp, 192				; 000000c0H
	push	ebx
	push	esi
	push	edi
	lea	edi, DWORD PTR [ebp-192]
	mov	ecx, 48					; 00000030H
	mov	eax, -858993460				; ccccccccH
	rep stosd

; 678  : 		if( psz == NULL )

	cmp	DWORD PTR _psz$[ebp], 0
	jne	SHORT $L92819

; 679  : 		{
; 680  : 			return( 0 );

	xor	eax, eax
	jmp	SHORT $L92818
$L92819:

; 681  : 		}
; 682  : 		return( int( strlen( psz ) ) );

	mov	eax, DWORD PTR _psz$[ebp]
	push	eax
	call	_strlen
	add	esp, 4
$L92818:

; 683  : 	}

	pop	edi
	pop	esi
	pop	ebx
	add	esp, 192				; 000000c0H
	cmp	ebp, esp
	call	__RTC_CheckEsp
	mov	esp, ebp
	pop	ebp
	ret	0
?StringLength@?$CSimpleStringT@D$0A@@ATL@@SAHPBD@Z ENDP	; ATL::CSimpleStringT<char,0>::StringLength
_TEXT	ENDS
EXTRN	_memcpy:NEAR
; Function compile flags: /Odt /RTCcsu /ZI
;	COMDAT ?CopyChars@?$CSimpleStringT@D$0A@@ATL@@SAXPADPBDH@Z
_TEXT	SEGMENT
_pchDest$ = 8						; size = 4
_pchSrc$ = 12						; size = 4
_nChars$ = 16						; size = 4
?CopyChars@?$CSimpleStringT@D$0A@@ATL@@SAXPADPBDH@Z PROC NEAR ; ATL::CSimpleStringT<char,0>::CopyChars, COMDAT

; 652  : 	{

	push	ebp
	mov	ebp, esp
	sub	esp, 192				; 000000c0H
	push	ebx
	push	esi
	push	edi
	lea	edi, DWORD PTR [ebp-192]
	mov	ecx, 48					; 00000030H
	mov	eax, -858993460				; ccccccccH
	rep stosd

; 653  : 		memcpy( pchDest, pchSrc, nChars*sizeof( XCHAR ) );

	mov	eax, DWORD PTR _nChars$[ebp]
	push	eax
	mov	ecx, DWORD PTR _pchSrc$[ebp]
	push	ecx
	mov	edx, DWORD PTR _pchDest$[ebp]
	push	edx
	call	_memcpy
	add	esp, 12					; 0000000cH

; 654  : 	}

	pop	edi
	pop	esi
	pop	ebx
	add	esp, 192				; 000000c0H
	cmp	ebp, esp
	call	__RTC_CheckEsp
	mov	esp, ebp
	pop	ebp
	ret	0
?CopyChars@?$CSimpleStringT@D$0A@@ATL@@SAXPADPBDH@Z ENDP ; ATL::CSimpleStringT<char,0>::CopyChars
; Function compile flags: /Odt /RTCcsu /ZI
_TEXT	ENDS
;	COMDAT ?ThrowMemoryException@?$CSimpleStringT@D$0A@@ATL@@KAXXZ
_TEXT	SEGMENT
?ThrowMemoryException@?$CSimpleStringT@D$0A@@ATL@@KAXXZ PROC NEAR ; ATL::CSimpleStringT<char,0>::ThrowMemoryException, COMDAT

; 704  : 	{

	push	ebp
	mov	ebp, esp
	sub	esp, 192				; 000000c0H
	push	ebx
	push	esi
	push	edi
	lea	edi, DWORD PTR [ebp-192]
	mov	ecx, 48					; 00000030H
	mov	eax, -858993460				; ccccccccH
	rep stosd

; 705  : 		AtlThrow( E_OUTOFMEMORY );

	push	-2147024882				; 8007000eH
	call	?AtlThrow@ATL@@YGXJ@Z			; ATL::AtlThrow
$L93926:

; 706  : 	}

	pop	edi
	pop	esi
	pop	ebx
	add	esp, 192				; 000000c0H
	cmp	ebp, esp
	call	__RTC_CheckEsp
	mov	esp, ebp
	pop	ebp
	ret	0
?ThrowMemoryException@?$CSimpleStringT@D$0A@@ATL@@KAXXZ ENDP ; ATL::CSimpleStringT<char,0>::ThrowMemoryException
; Function compile flags: /Odt /RTCcsu /ZI
_TEXT	ENDS
;	COMDAT ?Fork@?$CSimpleStringT@D$0A@@ATL@@AAEXH@Z
_TEXT	SEGMENT
tv82 = -256						; size = 4
tv74 = -256						; size = 4
_nCharsToCopy$ = -56					; size = 4
_pNewData$ = -44					; size = 4
_nOldLength$ = -32					; size = 4
_pOldData$ = -20					; size = 4
_this$ = -8						; size = 4
_nLength$ = 8						; size = 4
?Fork@?$CSimpleStringT@D$0A@@ATL@@AAEXH@Z PROC NEAR	; ATL::CSimpleStringT<char,0>::Fork, COMDAT
; _this$ = ecx

; 715  : 	{

	push	ebp
	mov	ebp, esp
	sub	esp, 256				; 00000100H
	push	ebx
	push	esi
	push	edi
	push	ecx
	lea	edi, DWORD PTR [ebp-256]
	mov	ecx, 64					; 00000040H
	mov	eax, -858993460				; ccccccccH
	rep stosd
	pop	ecx
	mov	DWORD PTR _this$[ebp], ecx

; 716  : 		CStringData* pOldData = GetData();

	mov	ecx, DWORD PTR _this$[ebp]
	call	?GetData@?$CSimpleStringT@D$0A@@ATL@@ABEPAUCStringData@2@XZ ; ATL::CSimpleStringT<char,0>::GetData
	mov	DWORD PTR _pOldData$[ebp], eax

; 717  : 		int nOldLength = pOldData->nDataLength;

	mov	eax, DWORD PTR _pOldData$[ebp]
	mov	ecx, DWORD PTR [eax+4]
	mov	DWORD PTR _nOldLength$[ebp], ecx

; 718  : 		CStringData* pNewData = pOldData->pStringMgr->Clone()->Allocate( nLength, sizeof( XCHAR ) );

	mov	eax, DWORD PTR _pOldData$[ebp]
	mov	ecx, DWORD PTR [eax]
	mov	edx, DWORD PTR _pOldData$[ebp]
	mov	eax, DWORD PTR [edx]
	mov	edx, DWORD PTR [ecx]
	mov	esi, esp
	mov	ecx, eax
	call	DWORD PTR [edx+16]
	cmp	esi, esp
	call	__RTC_CheckEsp
	mov	DWORD PTR tv74[ebp], eax
	mov	esi, esp
	push	1
	mov	eax, DWORD PTR _nLength$[ebp]
	push	eax
	mov	ecx, DWORD PTR tv74[ebp]
	mov	edx, DWORD PTR [ecx]
	mov	ecx, DWORD PTR tv74[ebp]
	call	DWORD PTR [edx]
	cmp	esi, esp
	call	__RTC_CheckEsp
	mov	DWORD PTR _pNewData$[ebp], eax

; 719  : 		if( pNewData == NULL )

	cmp	DWORD PTR _pNewData$[ebp], 0
	jne	SHORT $L92916

; 720  : 		{
; 721  : 			ThrowMemoryException();

	call	?ThrowMemoryException@?$CSimpleStringT@D$0A@@ATL@@KAXXZ ; ATL::CSimpleStringT<char,0>::ThrowMemoryException
$L92916:

; 722  : 		}
; 723  : 		int nCharsToCopy = ((nOldLength < nLength) ? nOldLength : nLength)+1;  // Copy '\0'

	mov	eax, DWORD PTR _nOldLength$[ebp]
	cmp	eax, DWORD PTR _nLength$[ebp]
	jge	SHORT $L93929
	mov	ecx, DWORD PTR _nOldLength$[ebp]
	mov	DWORD PTR tv82[ebp], ecx
	jmp	SHORT $L93930
$L93929:
	mov	edx, DWORD PTR _nLength$[ebp]
	mov	DWORD PTR tv82[ebp], edx
$L93930:
	mov	eax, DWORD PTR tv82[ebp]
	add	eax, 1
	mov	DWORD PTR _nCharsToCopy$[ebp], eax

; 724  : 		CopyChars( PXSTR( pNewData->data() ), PCXSTR( pOldData->data() ), nCharsToCopy );

	mov	eax, DWORD PTR _nCharsToCopy$[ebp]
	push	eax
	mov	ecx, DWORD PTR _pOldData$[ebp]
	call	?data@CStringData@ATL@@QAEPAXXZ		; ATL::CStringData::data
	push	eax
	mov	ecx, DWORD PTR _pNewData$[ebp]
	call	?data@CStringData@ATL@@QAEPAXXZ		; ATL::CStringData::data
	push	eax
	call	?CopyChars@?$CSimpleStringT@D$0A@@ATL@@SAXPADPBDH@Z ; ATL::CSimpleStringT<char,0>::CopyChars
	add	esp, 12					; 0000000cH

; 725  : 		pNewData->nDataLength = nOldLength;

	mov	eax, DWORD PTR _pNewData$[ebp]
	mov	ecx, DWORD PTR _nOldLength$[ebp]
	mov	DWORD PTR [eax+4], ecx

; 726  : 		pOldData->Release();

	mov	ecx, DWORD PTR _pOldData$[ebp]
	call	?Release@CStringData@ATL@@QAEXXZ	; ATL::CStringData::Release

; 727  : 		Attach( pNewData );

	mov	eax, DWORD PTR _pNewData$[ebp]
	push	eax
	mov	ecx, DWORD PTR _this$[ebp]
	call	?Attach@?$CSimpleStringT@D$0A@@ATL@@AAEXPAUCStringData@2@@Z ; ATL::CSimpleStringT<char,0>::Attach
$L93928:

; 728  : 	}

	pop	edi
	pop	esi
	pop	ebx
	add	esp, 256				; 00000100H
	cmp	ebp, esp
	call	__RTC_CheckEsp
	mov	esp, ebp
	pop	ebp
	ret	4
?Fork@?$CSimpleStringT@D$0A@@ATL@@AAEXH@Z ENDP		; ATL::CSimpleStringT<char,0>::Fork
_TEXT	ENDS
PUBLIC	??_C@_0CB@GFHAPKDK@pOldData?9?$DOnAllocLength?5?$DM?5nLength@ ; `string'
;	COMDAT ??_C@_0CB@GFHAPKDK@pOldData?9?$DOnAllocLength?5?$DM?5nLength@
CONST	SEGMENT
??_C@_0CB@GFHAPKDK@pOldData?9?$DOnAllocLength?5?$DM?5nLength@ DB 'pOldDat'
	DB	'a->nAllocLength < nLength', 00H		; `string'
; Function compile flags: /Odt /RTCcsu /ZI
CONST	ENDS
;	COMDAT ?Reallocate@?$CSimpleStringT@D$0A@@ATL@@AAEXH@Z
_TEXT	SEGMENT
_pNewData$ = -44					; size = 4
_pStringMgr$ = -32					; size = 4
_pOldData$ = -20					; size = 4
_this$ = -8						; size = 4
_nLength$ = 8						; size = 4
?Reallocate@?$CSimpleStringT@D$0A@@ATL@@AAEXH@Z PROC NEAR ; ATL::CSimpleStringT<char,0>::Reallocate, COMDAT
; _this$ = ecx

; 776  : 	{

	push	ebp
	mov	ebp, esp
	sub	esp, 240				; 000000f0H
	push	ebx
	push	esi
	push	edi
	push	ecx
	lea	edi, DWORD PTR [ebp-240]
	mov	ecx, 60					; 0000003cH
	mov	eax, -858993460				; ccccccccH
	rep stosd
	pop	ecx
	mov	DWORD PTR _this$[ebp], ecx

; 777  : 		CStringData* pOldData = GetData();

	mov	ecx, DWORD PTR _this$[ebp]
	call	?GetData@?$CSimpleStringT@D$0A@@ATL@@ABEPAUCStringData@2@XZ ; ATL::CSimpleStringT<char,0>::GetData
	mov	DWORD PTR _pOldData$[ebp], eax

; 778  : 		ATLASSERT( pOldData->nAllocLength < nLength );

	mov	eax, DWORD PTR _pOldData$[ebp]
	mov	ecx, DWORD PTR [eax+8]
	cmp	ecx, DWORD PTR _nLength$[ebp]
	jl	SHORT $L93933
	push	OFFSET FLAT:??_C@_0CB@GFHAPKDK@pOldData?9?$DOnAllocLength?5?$DM?5nLength@
	push	0
	push	778					; 0000030aH
	push	OFFSET FLAT:??_C@_0FD@JDCNPMMG@c?3?2program?5files?2microsoft?5visua@
	push	2
	call	__CrtDbgReport
	add	esp, 20					; 00000014H
	cmp	eax, 1
	jne	SHORT $L93933
	int	3
$L93933:

; 779  : 		IAtlStringMgr* pStringMgr = pOldData->pStringMgr;

	mov	eax, DWORD PTR _pOldData$[ebp]
	mov	ecx, DWORD PTR [eax]
	mov	DWORD PTR _pStringMgr$[ebp], ecx

; 780  : 		CStringData* pNewData = pStringMgr->Reallocate( pOldData, nLength, sizeof( XCHAR ) );

	mov	esi, esp
	push	1
	mov	eax, DWORD PTR _nLength$[ebp]
	push	eax
	mov	ecx, DWORD PTR _pOldData$[ebp]
	push	ecx
	mov	edx, DWORD PTR _pStringMgr$[ebp]
	mov	eax, DWORD PTR [edx]
	mov	ecx, DWORD PTR _pStringMgr$[ebp]
	call	DWORD PTR [eax+8]
	cmp	esi, esp
	call	__RTC_CheckEsp
	mov	DWORD PTR _pNewData$[ebp], eax

; 781  : 		if( pNewData == NULL )

	cmp	DWORD PTR _pNewData$[ebp], 0
	jne	SHORT $L92926

; 782  : 		{
; 783  : 			ThrowMemoryException();

	call	?ThrowMemoryException@?$CSimpleStringT@D$0A@@ATL@@KAXXZ ; ATL::CSimpleStringT<char,0>::ThrowMemoryException
$L92926:

; 784  : 		}
; 785  : 		Attach( pNewData );

	mov	eax, DWORD PTR _pNewData$[ebp]
	push	eax
	mov	ecx, DWORD PTR _this$[ebp]
	call	?Attach@?$CSimpleStringT@D$0A@@ATL@@AAEXPAUCStringData@2@@Z ; ATL::CSimpleStringT<char,0>::Attach
$L93932:

; 786  : 	}

	pop	edi
	pop	esi
	pop	ebx
	add	esp, 240				; 000000f0H
	cmp	ebp, esp
	call	__RTC_CheckEsp
	mov	esp, ebp
	pop	ebp
	ret	4
?Reallocate@?$CSimpleStringT@D$0A@@ATL@@AAEXH@Z ENDP	; ATL::CSimpleStringT<char,0>::Reallocate
_TEXT	ENDS
PUBLIC	?Empty@?$CSimpleStringT@D$0A@@ATL@@QAEXXZ	; ATL::CSimpleStringT<char,0>::Empty
PUBLIC	?CopyCharsOverlapped@?$CSimpleStringT@D$0A@@ATL@@SAXPADPBDH@Z ; ATL::CSimpleStringT<char,0>::CopyCharsOverlapped
; Function compile flags: /Odt /RTCcsu /ZI
;	COMDAT ?SetString@?$CSimpleStringT@D$0A@@ATL@@QAEXPBDH@Z
_TEXT	SEGMENT
_pszBuffer$92935 = -44					; size = 4
_nOffset$92934 = -32					; size = 4
_nOldLength$92933 = -20					; size = 4
_this$ = -8						; size = 4
_pszSrc$ = 8						; size = 4
_nLength$ = 12						; size = 4
?SetString@?$CSimpleStringT@D$0A@@ATL@@QAEXPBDH@Z PROC NEAR ; ATL::CSimpleStringT<char,0>::SetString, COMDAT
; _this$ = ecx

; 583  : 	{

	push	ebp
	mov	ebp, esp
	sub	esp, 240				; 000000f0H
	push	ebx
	push	esi
	push	edi
	push	ecx
	lea	edi, DWORD PTR [ebp-240]
	mov	ecx, 60					; 0000003cH
	mov	eax, -858993460				; ccccccccH
	rep stosd
	pop	ecx
	mov	DWORD PTR _this$[ebp], ecx

; 584  : 		if( nLength == 0 )

	cmp	DWORD PTR _nLength$[ebp], 0
	jne	SHORT $L92929

; 585  : 		{
; 586  : 			Empty();

	mov	ecx, DWORD PTR _this$[ebp]
	call	?Empty@?$CSimpleStringT@D$0A@@ATL@@QAEXXZ ; ATL::CSimpleStringT<char,0>::Empty

; 587  : 		}
; 588  : 		else

	jmp	SHORT $L93935
$L92929:

; 589  : 		{
; 590  : 			// It is possible that pszSrc points to a location inside of our 
; 591  : 			// buffer.  GetBuffer() might change m_pszData if (1) the buffer 
; 592  : 			// is shared or (2) the buffer is too small to hold the new 
; 593  : 			// string.  We detect this aliasing, and modify pszSrc to point
; 594  : 			// into the newly allocated buffer instead.
; 595  : 			
; 596  : 			if(pszSrc == NULL)

	cmp	DWORD PTR _pszSrc$[ebp], 0
	jne	SHORT $L92931

; 597  : 				AtlThrow(E_INVALIDARG);			

	push	-2147024809				; 80070057H
	call	?AtlThrow@ATL@@YGXJ@Z			; ATL::AtlThrow
$L92931:

; 598  : 				
; 599  : 			UINT nOldLength = GetLength();

	mov	ecx, DWORD PTR _this$[ebp]
	call	?GetLength@?$CSimpleStringT@D$0A@@ATL@@QBEHXZ ; ATL::CSimpleStringT<char,0>::GetLength
	mov	DWORD PTR _nOldLength$92933[ebp], eax

; 600  : 			UINT_PTR nOffset = pszSrc-GetString();

	mov	ecx, DWORD PTR _this$[ebp]
	call	?GetString@?$CSimpleStringT@D$0A@@ATL@@QBEPBDXZ ; ATL::CSimpleStringT<char,0>::GetString
	mov	ecx, DWORD PTR _pszSrc$[ebp]
	sub	ecx, eax
	mov	DWORD PTR _nOffset$92934[ebp], ecx

; 601  : 			// If 0 <= nOffset <= nOldLength, then pszSrc points into our 
; 602  : 			// buffer
; 603  : 
; 604  : 			PXSTR pszBuffer = GetBuffer( nLength );

	mov	eax, DWORD PTR _nLength$[ebp]
	push	eax
	mov	ecx, DWORD PTR _this$[ebp]
	call	?GetBuffer@?$CSimpleStringT@D$0A@@ATL@@QAEPADH@Z ; ATL::CSimpleStringT<char,0>::GetBuffer
	mov	DWORD PTR _pszBuffer$92935[ebp], eax

; 605  : 			if( nOffset <= nOldLength )

	mov	eax, DWORD PTR _nOffset$92934[ebp]
	cmp	eax, DWORD PTR _nOldLength$92933[ebp]
	ja	SHORT $L92936

; 606  : 			{
; 607  : 				CopyCharsOverlapped( pszBuffer, pszBuffer+nOffset, nLength );

	mov	eax, DWORD PTR _nLength$[ebp]
	push	eax
	mov	ecx, DWORD PTR _pszBuffer$92935[ebp]
	add	ecx, DWORD PTR _nOffset$92934[ebp]
	push	ecx
	mov	edx, DWORD PTR _pszBuffer$92935[ebp]
	push	edx
	call	?CopyCharsOverlapped@?$CSimpleStringT@D$0A@@ATL@@SAXPADPBDH@Z ; ATL::CSimpleStringT<char,0>::CopyCharsOverlapped
	add	esp, 12					; 0000000cH

; 608  : 			}
; 609  : 			else

	jmp	SHORT $L92937
$L92936:

; 610  : 			{
; 611  : 				CopyChars( pszBuffer, pszSrc, nLength );

	mov	eax, DWORD PTR _nLength$[ebp]
	push	eax
	mov	ecx, DWORD PTR _pszSrc$[ebp]
	push	ecx
	mov	edx, DWORD PTR _pszBuffer$92935[ebp]
	push	edx
	call	?CopyChars@?$CSimpleStringT@D$0A@@ATL@@SAXPADPBDH@Z ; ATL::CSimpleStringT<char,0>::CopyChars
	add	esp, 12					; 0000000cH
$L92937:

; 612  : 			}
; 613  : 			ReleaseBufferSetLength( nLength );

	mov	eax, DWORD PTR _nLength$[ebp]
	push	eax
	mov	ecx, DWORD PTR _this$[ebp]
	call	?ReleaseBufferSetLength@?$CSimpleStringT@D$0A@@ATL@@QAEXH@Z ; ATL::CSimpleStringT<char,0>::ReleaseBufferSetLength
$L93935:

; 614  : 		}
; 615  : 	}

	pop	edi
	pop	esi
	pop	ebx
	add	esp, 240				; 000000f0H
	cmp	ebp, esp
	call	__RTC_CheckEsp
	mov	esp, ebp
	pop	ebp
	ret	8
?SetString@?$CSimpleStringT@D$0A@@ATL@@QAEXPBDH@Z ENDP	; ATL::CSimpleStringT<char,0>::SetString
; Function compile flags: /Odt /RTCcsu /ZI
_TEXT	ENDS
;	COMDAT ?Empty@?$CSimpleStringT@D$0A@@ATL@@QAEXXZ
_TEXT	SEGMENT
_pNewData$92811 = -44					; size = 4
_pStringMgr$ = -32					; size = 4
_pOldData$ = -20					; size = 4
_this$ = -8						; size = 4
?Empty@?$CSimpleStringT@D$0A@@ATL@@QAEXXZ PROC NEAR	; ATL::CSimpleStringT<char,0>::Empty, COMDAT
; _this$ = ecx

; 421  : 	{

	push	ebp
	mov	ebp, esp
	sub	esp, 240				; 000000f0H
	push	ebx
	push	esi
	push	edi
	push	ecx
	lea	edi, DWORD PTR [ebp-240]
	mov	ecx, 60					; 0000003cH
	mov	eax, -858993460				; ccccccccH
	rep stosd
	pop	ecx
	mov	DWORD PTR _this$[ebp], ecx

; 422  : 		CStringData* pOldData = GetData();

	mov	ecx, DWORD PTR _this$[ebp]
	call	?GetData@?$CSimpleStringT@D$0A@@ATL@@ABEPAUCStringData@2@XZ ; ATL::CSimpleStringT<char,0>::GetData
	mov	DWORD PTR _pOldData$[ebp], eax

; 423  : 		IAtlStringMgr* pStringMgr = pOldData->pStringMgr;

	mov	eax, DWORD PTR _pOldData$[ebp]
	mov	ecx, DWORD PTR [eax]
	mov	DWORD PTR _pStringMgr$[ebp], ecx

; 424  : 		if( pOldData->nDataLength == 0 )

	mov	eax, DWORD PTR _pOldData$[ebp]
	cmp	DWORD PTR [eax+4], 0
	jne	SHORT $L92808

; 425  : 		{
; 426  : 			return;

	jmp	SHORT $L92805
$L92808:

; 427  : 		}
; 428  : 
; 429  : 		if( pOldData->IsLocked() )

	mov	ecx, DWORD PTR _pOldData$[ebp]
	call	?IsLocked@CStringData@ATL@@QBE_NXZ	; ATL::CStringData::IsLocked
	movzx	eax, al
	test	eax, eax
	je	SHORT $L92809

; 430  : 		{
; 431  : 			// Don't reallocate a locked buffer that's shrinking
; 432  : 			SetLength( 0 );

	push	0
	mov	ecx, DWORD PTR _this$[ebp]
	call	?SetLength@?$CSimpleStringT@D$0A@@ATL@@AAEXH@Z ; ATL::CSimpleStringT<char,0>::SetLength

; 433  : 		}
; 434  : 		else

	jmp	SHORT $L92805
$L92809:

; 435  : 		{
; 436  : 			pOldData->Release();

	mov	ecx, DWORD PTR _pOldData$[ebp]
	call	?Release@CStringData@ATL@@QAEXXZ	; ATL::CStringData::Release

; 437  : 			CStringData* pNewData = pStringMgr->GetNilString();

	mov	eax, DWORD PTR _pStringMgr$[ebp]
	mov	edx, DWORD PTR [eax]
	mov	esi, esp
	mov	ecx, DWORD PTR _pStringMgr$[ebp]
	call	DWORD PTR [edx+12]
	cmp	esi, esp
	call	__RTC_CheckEsp
	mov	DWORD PTR _pNewData$92811[ebp], eax

; 438  : 			Attach( pNewData );

	mov	eax, DWORD PTR _pNewData$92811[ebp]
	push	eax
	mov	ecx, DWORD PTR _this$[ebp]
	call	?Attach@?$CSimpleStringT@D$0A@@ATL@@AAEXPAUCStringData@2@@Z ; ATL::CSimpleStringT<char,0>::Attach
$L92805:

; 439  : 		}
; 440  : 	}

	pop	edi
	pop	esi
	pop	ebx
	add	esp, 240				; 000000f0H
	cmp	ebp, esp
	call	__RTC_CheckEsp
	mov	esp, ebp
	pop	ebp
	ret	0
?Empty@?$CSimpleStringT@D$0A@@ATL@@QAEXXZ ENDP		; ATL::CSimpleStringT<char,0>::Empty
; Function compile flags: /Odt /RTCcsu /ZI
_TEXT	ENDS
;	COMDAT ?GetString@?$CSimpleStringT@D$0A@@ATL@@QBEPBDXZ
_TEXT	SEGMENT
_this$ = -8						; size = 4
?GetString@?$CSimpleStringT@D$0A@@ATL@@QBEPBDXZ PROC NEAR ; ATL::CSimpleStringT<char,0>::GetString, COMDAT
; _this$ = ecx

; 509  : 	{

	push	ebp
	mov	ebp, esp
	sub	esp, 204				; 000000ccH
	push	ebx
	push	esi
	push	edi
	push	ecx
	lea	edi, DWORD PTR [ebp-204]
	mov	ecx, 51					; 00000033H
	mov	eax, -858993460				; ccccccccH
	rep stosd
	pop	ecx
	mov	DWORD PTR _this$[ebp], ecx

; 510  : 		return( m_pszData );

	mov	eax, DWORD PTR _this$[ebp]
	mov	eax, DWORD PTR [eax]

; 511  : 	}

	pop	edi
	pop	esi
	pop	ebx
	mov	esp, ebp
	pop	ebp
	ret	0
?GetString@?$CSimpleStringT@D$0A@@ATL@@QBEPBDXZ ENDP	; ATL::CSimpleStringT<char,0>::GetString
; Function compile flags: /Odt /RTCcsu /ZI
_TEXT	ENDS
;	COMDAT ?CopyCharsOverlapped@?$CSimpleStringT@D$0A@@ATL@@SAXPADPBDH@Z
_TEXT	SEGMENT
_pchDest$ = 8						; size = 4
_pchSrc$ = 12						; size = 4
_nChars$ = 16						; size = 4
?CopyCharsOverlapped@?$CSimpleStringT@D$0A@@ATL@@SAXPADPBDH@Z PROC NEAR ; ATL::CSimpleStringT<char,0>::CopyCharsOverlapped, COMDAT

; 656  : 	{

	push	ebp
	mov	ebp, esp
	sub	esp, 192				; 000000c0H
	push	ebx
	push	esi
	push	edi
	lea	edi, DWORD PTR [ebp-192]
	mov	ecx, 48					; 00000030H
	mov	eax, -858993460				; ccccccccH
	rep stosd

; 657  : 		memmove( pchDest, pchSrc, nChars*sizeof( XCHAR ) );

	mov	eax, DWORD PTR _nChars$[ebp]
	push	eax
	mov	ecx, DWORD PTR _pchSrc$[ebp]
	push	ecx
	mov	edx, DWORD PTR _pchDest$[ebp]
	push	edx
	call	_memmove
	add	esp, 12					; 0000000cH

; 658  : 	}

	pop	edi
	pop	esi
	pop	ebx
	add	esp, 192				; 000000c0H
	cmp	ebp, esp
	call	__RTC_CheckEsp
	mov	esp, ebp
	pop	ebp
	ret	0
?CopyCharsOverlapped@?$CSimpleStringT@D$0A@@ATL@@SAXPADPBDH@Z ENDP ; ATL::CSimpleStringT<char,0>::CopyCharsOverlapped
_TEXT	ENDS
END
