; Listing generated by Microsoft (R) Optimizing Compiler Version 13.10.3077 

	TITLE	.\Ast2rtf.cpp
	.386P
include listing.inc
if @Version gt 510
.model FLAT
else
_TEXT	SEGMENT PARA USE32 PUBLIC 'CODE'
_TEXT	ENDS
_DATA	SEGMENT DWORD USE32 PUBLIC 'DATA'
_DATA	ENDS
CONST	SEGMENT DWORD USE32 PUBLIC 'CONST'
CONST	ENDS
_BSS	SEGMENT DWORD USE32 PUBLIC 'BSS'
_BSS	ENDS
$$SYMBOLS	SEGMENT BYTE USE32 'DEBSYM'
$$SYMBOLS	ENDS
$$TYPES	SEGMENT BYTE USE32 'DEBTYP'
$$TYPES	ENDS
_TLS	SEGMENT DWORD USE32 PUBLIC 'TLS'
_TLS	ENDS
;	COMDAT ??_C@_01EEMJAFIK@?6?$AA@
CONST	SEGMENT DWORD USE32 PUBLIC 'CONST'
CONST	ENDS
;	COMDAT ??_C@_05OCKDLCMN@?2par?6?$AA@
CONST	SEGMENT DWORD USE32 PUBLIC 'CONST'
CONST	ENDS
;	COMDAT ??_C@_05BBHFPIMI@?2?8?$CF2x?$AA@
CONST	SEGMENT DWORD USE32 PUBLIC 'CONST'
CONST	ENDS
;	COMDAT ??_C@_0FH@CCGFHHGD@?$HL?2rtf1?2ansi?2ansicpg1252?2deff0?2de@
CONST	SEGMENT DWORD USE32 PUBLIC 'CONST'
CONST	ENDS
;	COMDAT ??_C@_0DA@LGBFFJFK@?$HL?2f1?2froman?2fprq2?2fTCHARset0?5Tim@
CONST	SEGMENT DWORD USE32 PUBLIC 'CONST'
CONST	ENDS
;	COMDAT ??_C@_0GE@INBIHGGH@?$HL?2colortbl?5?$DL?2red0?2green0?2blue255@
CONST	SEGMENT DWORD USE32 PUBLIC 'CONST'
CONST	ENDS
;	COMDAT ??_C@_0BP@GCAKFFF@?2viewkind4?2uc1?2pard?2f1?2ql?2fs24?$AA@
CONST	SEGMENT DWORD USE32 PUBLIC 'CONST'
CONST	ENDS
;	COMDAT ??_C@_02HDBGODGB@?2?2?$AA@
CONST	SEGMENT DWORD USE32 PUBLIC 'CONST'
CONST	ENDS
;	COMDAT ??_C@_07CFBNLDKE@?2i1?2cf3?$AA@
CONST	SEGMENT DWORD USE32 PUBLIC 'CONST'
CONST	ENDS
;	COMDAT ??_C@_08OACLOLAN@?2i0?2cf0?5?$AA@
CONST	SEGMENT DWORD USE32 PUBLIC 'CONST'
CONST	ENDS
;	COMDAT ??_C@_07HIEKBMDA@?2cf2?2b?5?$AA@
CONST	SEGMENT DWORD USE32 PUBLIC 'CONST'
CONST	ENDS
;	COMDAT ??_C@_08LNEBPHFL@?2b0?2cf0?5?$AA@
CONST	SEGMENT DWORD USE32 PUBLIC 'CONST'
CONST	ENDS
;	COMDAT ??_C@_0BC@FABBCMPN@?2qc?2cf1?2b?2f0?2fs28?$AA@
CONST	SEGMENT DWORD USE32 PUBLIC 'CONST'
CONST	ENDS
;	COMDAT ??_C@_0BH@OGCNLHCF@?2par?2ql?2f1?2cf0?2b0?2fs24?$AA@
CONST	SEGMENT DWORD USE32 PUBLIC 'CONST'
CONST	ENDS
;	COMDAT ??_C@_03JNFFBAPD@?2?$HL?$HN?$AA@
CONST	SEGMENT DWORD USE32 PUBLIC 'CONST'
CONST	ENDS
;	COMDAT ??_C@_04DLBBMMJF@?$HO?$FO?$FL?$FN?$AA@
CONST	SEGMENT DWORD USE32 PUBLIC 'CONST'
CONST	ENDS
;	COMDAT ??_C@_09CIFCMOEC@?2par?5?$HN?5?$HN?6?$AA@
CONST	SEGMENT DWORD USE32 PUBLIC 'CONST'
CONST	ENDS
;	COMDAT ??0Strbuff@@QAE@XZ
_TEXT	SEGMENT PARA USE32 PUBLIC 'CODE'
_TEXT	ENDS
;	COMDAT ??0Strbuff@@QAE@AAV?$CStringT@DV?$StrTraitMFC@DV?$ChTraitsCRT@D@ATL@@@@@ATL@@@Z
_TEXT	SEGMENT PARA USE32 PUBLIC 'CODE'
_TEXT	ENDS
;	COMDAT ??1Strbuff@@UAE@XZ
_TEXT	SEGMENT PARA USE32 PUBLIC 'CODE'
_TEXT	ENDS
;	COMDAT ?eof@Strbuff@@QAEHXZ
_TEXT	SEGMENT PARA USE32 PUBLIC 'CODE'
_TEXT	ENDS
;	COMDAT ?flush@Strbuff@@QAEXXZ
_TEXT	SEGMENT PARA USE32 PUBLIC 'CODE'
_TEXT	ENDS
;	COMDAT ?getstr@Strbuff@@QAEAAV?$CStringT@DV?$StrTraitMFC@DV?$ChTraitsCRT@D@ATL@@@@@ATL@@XZ
_TEXT	SEGMENT PARA USE32 PUBLIC 'CODE'
_TEXT	ENDS
;	COMDAT ??_GStrbuff@@UAEPAXI@Z
_TEXT	SEGMENT PARA USE32 PUBLIC 'CODE'
_TEXT	ENDS
;	COMDAT ?rtf_foreign@@YAHAAVStrbuff@@E@Z
_TEXT	SEGMENT PARA USE32 PUBLIC 'CODE'
_TEXT	ENDS
;	COMDAT ?write_rtf_header@@YAHAAVStrbuff@@@Z
_TEXT	SEGMENT PARA USE32 PUBLIC 'CODE'
_TEXT	ENDS
;	COMDAT ?AstToRTF@@YA?AV?$CStringT@DV?$StrTraitMFC@DV?$ChTraitsCRT@D@ATL@@@@@ATL@@AAV12@@Z
_TEXT	SEGMENT PARA USE32 PUBLIC 'CODE'
_TEXT	ENDS
;	COMDAT ??4?$CStringT@DV?$StrTraitMFC@DV?$ChTraitsCRT@D@ATL@@@@@ATL@@QAEAAV01@ABV01@@Z
_TEXT	SEGMENT PARA USE32 PUBLIC 'CODE'
_TEXT	ENDS
;	COMDAT ??Y?$CStringT@DV?$StrTraitMFC@DV?$ChTraitsCRT@D@ATL@@@@@ATL@@QAEAAV01@PBD@Z
_TEXT	SEGMENT PARA USE32 PUBLIC 'CODE'
_TEXT	ENDS
;	COMDAT ??4?$CSimpleStringT@D$0A@@ATL@@QAEAAV01@ABV01@@Z
_TEXT	SEGMENT PARA USE32 PUBLIC 'CODE'
_TEXT	ENDS
;	COMDAT ??Y?$CSimpleStringT@D$0A@@ATL@@QAEAAV01@PBD@Z
_TEXT	SEGMENT PARA USE32 PUBLIC 'CODE'
_TEXT	ENDS
;	COMDAT ?Append@?$CSimpleStringT@D$0A@@ATL@@QAEXPBD@Z
_TEXT	SEGMENT PARA USE32 PUBLIC 'CODE'
_TEXT	ENDS
;	COMDAT ?Append@?$CSimpleStringT@D$0A@@ATL@@QAEXPBDH@Z
_TEXT	SEGMENT PARA USE32 PUBLIC 'CODE'
_TEXT	ENDS
;	COMDAT ?ReleaseBufferSetLength@?$CSimpleStringT@D$0A@@ATL@@QAEXH@Z
_TEXT	SEGMENT PARA USE32 PUBLIC 'CODE'
_TEXT	ENDS
;	COMDAT ??_C@_0BA@GNIEOBOF@nNewLength?5?$DO?$DN?50?$AA@
CONST	SEGMENT DWORD USE32 PUBLIC 'CONST'
CONST	ENDS
;	COMDAT ??_C@_0FD@JDCNPMMG@c?3?2program?5files?2microsoft?5visua@
CONST	SEGMENT DWORD USE32 PUBLIC 'CONST'
CONST	ENDS
;	COMDAT ?SetLength@?$CSimpleStringT@D$0A@@ATL@@AAEXH@Z
_TEXT	SEGMENT PARA USE32 PUBLIC 'CODE'
_TEXT	ENDS
;	COMDAT ??_C@_0N@ILOMLJGA@nLength?5?$DO?$DN?50?$AA@
CONST	SEGMENT DWORD USE32 PUBLIC 'CONST'
CONST	ENDS
;	COMDAT ??_C@_0CD@EEFFJEGJ@nLength?5?$DM?$DN?5GetData?$CI?$CJ?9?$DOnAllocLeng@
CONST	SEGMENT DWORD USE32 PUBLIC 'CONST'
CONST	ENDS
;	COMDAT ?AtlThrow@ATL@@YGXJ@Z
_TEXT	SEGMENT PARA USE32 PUBLIC 'CODE'
_TEXT	ENDS
;	COMDAT ??RCTraceFileAndLineInfo@ATL@@QBAXKIPBDZZ
_TEXT	SEGMENT PARA USE32 PUBLIC 'CODE'
_TEXT	ENDS
;	COMDAT ?TraceV@CTrace@ATL@@QBAXPBDHKI0PAD@Z
_TEXT	SEGMENT PARA USE32 PUBLIC 'CODE'
_TEXT	ENDS
;	COMDAT ??0CTraceFileAndLineInfo@ATL@@QAE@PBDH@Z
_TEXT	SEGMENT PARA USE32 PUBLIC 'CODE'
_TEXT	ENDS
;	COMDAT ?__LINE__Var@?1??AtlThrow@ATL@@YGXJ@Z@4JA
_DATA	SEGMENT DWORD USE32 PUBLIC 'DATA'
_DATA	ENDS
;	COMDAT ??_C@_0FC@IPKABFFL@c?3?2program?5files?2microsoft?5visua@
CONST	SEGMENT DWORD USE32 PUBLIC 'CONST'
CONST	ENDS
;	COMDAT ??_C@_0BF@IAAKIJDJ@AtlThrow?3?5hr?5?$DN?50x?$CFx?6?$AA@
CONST	SEGMENT DWORD USE32 PUBLIC 'CONST'
CONST	ENDS
;	COMDAT ??BCTraceCategory@ATL@@QBEKXZ
_TEXT	SEGMENT PARA USE32 PUBLIC 'CODE'
_TEXT	ENDS
;	COMDAT ?CopyChars@?$CSimpleStringT@D$0A@@ATL@@SAXPADPBDH@Z
_TEXT	SEGMENT PARA USE32 PUBLIC 'CODE'
_TEXT	ENDS
;	COMDAT ?GetBuffer@?$CSimpleStringT@D$0A@@ATL@@QAEPADH@Z
_TEXT	SEGMENT PARA USE32 PUBLIC 'CODE'
_TEXT	ENDS
;	COMDAT ?PrepareWrite@?$CSimpleStringT@D$0A@@ATL@@AAEPADH@Z
_TEXT	SEGMENT PARA USE32 PUBLIC 'CODE'
_TEXT	ENDS
;	COMDAT ?PrepareWrite2@?$CSimpleStringT@D$0A@@ATL@@AAEXH@Z
_TEXT	SEGMENT PARA USE32 PUBLIC 'CODE'
_TEXT	ENDS
;	COMDAT ?IsShared@CStringData@ATL@@QBE_NXZ
_TEXT	SEGMENT PARA USE32 PUBLIC 'CODE'
_TEXT	ENDS
;	COMDAT ?Fork@?$CSimpleStringT@D$0A@@ATL@@AAEXH@Z
_TEXT	SEGMENT PARA USE32 PUBLIC 'CODE'
_TEXT	ENDS
;	COMDAT ?ThrowMemoryException@?$CSimpleStringT@D$0A@@ATL@@KAXXZ
_TEXT	SEGMENT PARA USE32 PUBLIC 'CODE'
_TEXT	ENDS
;	COMDAT ?data@CStringData@ATL@@QAEPAXXZ
_TEXT	SEGMENT PARA USE32 PUBLIC 'CODE'
_TEXT	ENDS
;	COMDAT ?Reallocate@?$CSimpleStringT@D$0A@@ATL@@AAEXH@Z
_TEXT	SEGMENT PARA USE32 PUBLIC 'CODE'
_TEXT	ENDS
;	COMDAT ??_C@_0CB@GFHAPKDK@pOldData?9?$DOnAllocLength?5?$DM?5nLength@
CONST	SEGMENT DWORD USE32 PUBLIC 'CONST'
CONST	ENDS
;	COMDAT ?StringLength@?$CSimpleStringT@D$0A@@ATL@@SAHPBD@Z
_TEXT	SEGMENT PARA USE32 PUBLIC 'CODE'
_TEXT	ENDS
;	COMDAT ?Attach@?$CSimpleStringT@D$0A@@ATL@@AAEXPAUCStringData@2@@Z
_TEXT	SEGMENT PARA USE32 PUBLIC 'CODE'
_TEXT	ENDS
;	COMDAT ?Release@CStringData@ATL@@QAEXXZ
_TEXT	SEGMENT PARA USE32 PUBLIC 'CODE'
_TEXT	ENDS
;	COMDAT ??_C@_0L@OIIMFBNE@nRefs?5?$CB?$DN?50?$AA@
CONST	SEGMENT DWORD USE32 PUBLIC 'CONST'
CONST	ENDS
;	COMDAT ?CloneData@?$CSimpleStringT@D$0A@@ATL@@CAPAUCStringData@2@PAU32@@Z
_TEXT	SEGMENT PARA USE32 PUBLIC 'CODE'
_TEXT	ENDS
;	COMDAT ?AddRef@CStringData@ATL@@QAEXXZ
_TEXT	SEGMENT PARA USE32 PUBLIC 'CODE'
_TEXT	ENDS
;	COMDAT ??_C@_09EEBKLCFA@nRefs?5?$DO?50?$AA@
CONST	SEGMENT DWORD USE32 PUBLIC 'CONST'
CONST	ENDS
;	COMDAT ?GetString@?$CSimpleStringT@D$0A@@ATL@@QBEPBDXZ
_TEXT	SEGMENT PARA USE32 PUBLIC 'CODE'
_TEXT	ENDS
;	COMDAT ?SetString@?$CSimpleStringT@D$0A@@ATL@@QAEXPBDH@Z
_TEXT	SEGMENT PARA USE32 PUBLIC 'CODE'
_TEXT	ENDS
;	COMDAT ?Empty@?$CSimpleStringT@D$0A@@ATL@@QAEXXZ
_TEXT	SEGMENT PARA USE32 PUBLIC 'CODE'
_TEXT	ENDS
;	COMDAT ?CopyCharsOverlapped@?$CSimpleStringT@D$0A@@ATL@@SAXPADPBDH@Z
_TEXT	SEGMENT PARA USE32 PUBLIC 'CODE'
_TEXT	ENDS
;	COMDAT ?IsLocked@CStringData@ATL@@QBE_NXZ
_TEXT	SEGMENT PARA USE32 PUBLIC 'CODE'
_TEXT	ENDS
;	COMDAT ?GetData@?$CSimpleStringT@D$0A@@ATL@@ABEPAUCStringData@2@XZ
_TEXT	SEGMENT PARA USE32 PUBLIC 'CODE'
_TEXT	ENDS
;	COMDAT ??0?$CStringT@DV?$StrTraitMFC@DV?$ChTraitsCRT@D@ATL@@@@@ATL@@QAE@ABV01@@Z
_TEXT	SEGMENT PARA USE32 PUBLIC 'CODE'
_TEXT	ENDS
;	COMDAT ??0?$CSimpleStringT@D$0A@@ATL@@QAE@ABV01@@Z
_TEXT	SEGMENT PARA USE32 PUBLIC 'CODE'
_TEXT	ENDS
;	COMDAT ??1?$CSimpleStringT@D$0A@@ATL@@QAE@XZ
_TEXT	SEGMENT PARA USE32 PUBLIC 'CODE'
_TEXT	ENDS
;	COMDAT ?GetLength@?$CSimpleStringT@D$0A@@ATL@@QBEHXZ
_TEXT	SEGMENT PARA USE32 PUBLIC 'CODE'
_TEXT	ENDS
;	COMDAT ??1?$CStringT@DV?$StrTraitMFC@DV?$ChTraitsCRT@D@ATL@@@@@ATL@@QAE@XZ
_TEXT	SEGMENT PARA USE32 PUBLIC 'CODE'
_TEXT	ENDS
;	COMDAT ??0?$CStringT@DV?$StrTraitMFC@DV?$ChTraitsCRT@D@ATL@@@@@ATL@@QAE@XZ
_TEXT	SEGMENT PARA USE32 PUBLIC 'CODE'
_TEXT	ENDS
;	COMDAT ??0?$CSimpleStringT@D$0A@@ATL@@QAE@PAUIAtlStringMgr@1@@Z
_TEXT	SEGMENT PARA USE32 PUBLIC 'CODE'
_TEXT	ENDS
;	COMDAT ??_C@_0BA@GOIMFHNK@pStringMgr?5?$CB?$DN?50?$AA@
CONST	SEGMENT DWORD USE32 PUBLIC 'CONST'
CONST	ENDS
;	COMDAT ?GetDefaultManager@?$StrTraitMFC@DV?$ChTraitsCRT@D@ATL@@@@SAPAUIAtlStringMgr@ATL@@XZ
_TEXT	SEGMENT PARA USE32 PUBLIC 'CODE'
_TEXT	ENDS
;	COMDAT ??_7Strbuff@@6B@
CONST	SEGMENT DWORD USE32 PUBLIC 'CONST'
CONST	ENDS
sxdata	SEGMENT DWORD USE32 'SXDATA'
sxdata	ENDS
FLAT	GROUP _DATA, CONST, _BSS
	ASSUME	CS: FLAT, DS: FLAT, SS: FLAT
endif

INCLUDELIB LIBCMTD
INCLUDELIB OLDNAMES

PUBLIC	??_C@_01EEMJAFIK@?6?$AA@			; `string'
PUBLIC	??_C@_05OCKDLCMN@?2par?6?$AA@			; `string'
;	COMDAT ??_C@_01EEMJAFIK@?6?$AA@
CONST	SEGMENT
??_C@_01EEMJAFIK@?6?$AA@ DB 0aH, 00H			; `string'
CONST	ENDS
_DATA	SEGMENT
_rtf_soft_line DD FLAT:??_C@_01EEMJAFIK@?6?$AA@
_DATA	ENDS
;	COMDAT ??_C@_05OCKDLCMN@?2par?6?$AA@
CONST	SEGMENT
??_C@_05OCKDLCMN@?2par?6?$AA@ DB '\par', 0aH, 00H	; `string'
CONST	ENDS
_DATA	SEGMENT
_rtf_hard_line DD FLAT:??_C@_05OCKDLCMN@?2par?6?$AA@
_DATA	ENDS
PUBLIC	?AstToRTF@@YA?AV?$CStringT@DV?$StrTraitMFC@DV?$ChTraitsCRT@D@ATL@@@@@ATL@@AAV12@@Z ; AstToRTF
PUBLIC	??_C@_02HDBGODGB@?2?2?$AA@			; `string'
PUBLIC	??_C@_07CFBNLDKE@?2i1?2cf3?$AA@			; `string'
PUBLIC	??_C@_08OACLOLAN@?2i0?2cf0?5?$AA@		; `string'
PUBLIC	??_C@_07HIEKBMDA@?2cf2?2b?5?$AA@		; `string'
PUBLIC	??_C@_08LNEBPHFL@?2b0?2cf0?5?$AA@		; `string'
PUBLIC	??_C@_0BC@FABBCMPN@?2qc?2cf1?2b?2f0?2fs28?$AA@	; `string'
PUBLIC	??_C@_0BH@OGCNLHCF@?2par?2ql?2f1?2cf0?2b0?2fs24?$AA@ ; `string'
PUBLIC	??_C@_03JNFFBAPD@?2?$HL?$HN?$AA@		; `string'
PUBLIC	??_C@_04DLBBMMJF@?$HO?$FO?$FL?$FN?$AA@		; `string'
PUBLIC	??_C@_09CIFCMOEC@?2par?5?$HN?5?$HN?6?$AA@	; `string'
PUBLIC	??0?$CStringT@DV?$StrTraitMFC@DV?$ChTraitsCRT@D@ATL@@@@@ATL@@QAE@ABV01@@Z ; ATL::CStringT<char,StrTraitMFC<char,ATL::ChTraitsCRT<char> > >::CStringT<char,StrTraitMFC<char,ATL::ChTraitsCRT<char> > >
PUBLIC	??1?$CStringT@DV?$StrTraitMFC@DV?$ChTraitsCRT@D@ATL@@@@@ATL@@QAE@XZ ; ATL::CStringT<char,StrTraitMFC<char,ATL::ChTraitsCRT<char> > >::~CStringT<char,StrTraitMFC<char,ATL::ChTraitsCRT<char> > >
PUBLIC	??0Strbuff@@QAE@XZ				; Strbuff::Strbuff
PUBLIC	??0Strbuff@@QAE@AAV?$CStringT@DV?$StrTraitMFC@DV?$ChTraitsCRT@D@ATL@@@@@ATL@@@Z ; Strbuff::Strbuff
PUBLIC	??1Strbuff@@UAE@XZ				; Strbuff::~Strbuff
PUBLIC	?eof@Strbuff@@QAEHXZ				; Strbuff::eof
PUBLIC	?getstr@Strbuff@@QAEAAV?$CStringT@DV?$StrTraitMFC@DV?$ChTraitsCRT@D@ATL@@@@@ATL@@XZ ; Strbuff::getstr
EXTRN	__RTC_InitBase:NEAR
EXTRN	__RTC_Shutdown:NEAR
EXTRN	__except_list:DWORD
EXTRN	___security_cookie:DWORD
EXTRN	@_RTC_CheckStackVars@8:NEAR
EXTRN	@__security_check_cookie@4:NEAR
EXTRN	__RTC_CheckEsp:NEAR
EXTRN	___CxxFrameHandler:NEAR
EXTRN	_strchr:NEAR
EXTRN	?put@Strbuff@@QAEXD@Z:NEAR			; Strbuff::put
EXTRN	?_get@Strbuff@@QAEEAAE@Z:NEAR			; Strbuff::_get
EXTRN	??5@YAAAVStrbuff@@PBDAAV0@@Z:NEAR		; operator>>
;	COMDAT rtc$IMZ
; File c:\astrow32dev\tbt32\ast2rtf.cpp
rtc$IMZ	SEGMENT
__RTC_InitBase.rtc$IMZ DD FLAT:__RTC_InitBase
rtc$IMZ	ENDS
;	COMDAT rtc$TMZ
rtc$TMZ	SEGMENT
__RTC_Shutdown.rtc$TMZ DD FLAT:__RTC_Shutdown
rtc$TMZ	ENDS
;	COMDAT xdata$x
xdata$x	SEGMENT
__unwindtable$?AstToRTF@@YA?AV?$CStringT@DV?$StrTraitMFC@DV?$ChTraitsCRT@D@ATL@@@@@ATL@@AAV12@@Z DD 0ffffffffH
	DD	FLAT:__unwindfunclet$?AstToRTF@@YA?AV?$CStringT@DV?$StrTraitMFC@DV?$ChTraitsCRT@D@ATL@@@@@ATL@@AAV12@@Z$2
	DD	00H
	DD	FLAT:__unwindfunclet$?AstToRTF@@YA?AV?$CStringT@DV?$StrTraitMFC@DV?$ChTraitsCRT@D@ATL@@@@@ATL@@AAV12@@Z$0
	DD	01H
	DD	FLAT:__unwindfunclet$?AstToRTF@@YA?AV?$CStringT@DV?$StrTraitMFC@DV?$ChTraitsCRT@D@ATL@@@@@ATL@@AAV12@@Z$1
__ehfuncinfo$?AstToRTF@@YA?AV?$CStringT@DV?$StrTraitMFC@DV?$ChTraitsCRT@D@ATL@@@@@ATL@@AAV12@@Z DD 019930520H
	DD	03H
	DD	FLAT:__unwindtable$?AstToRTF@@YA?AV?$CStringT@DV?$StrTraitMFC@DV?$ChTraitsCRT@D@ATL@@@@@ATL@@AAV12@@Z
	DD	2 DUP(00H)
	DD	2 DUP(00H)
xdata$x	ENDS
;	COMDAT ??_C@_02HDBGODGB@?2?2?$AA@
CONST	SEGMENT
??_C@_02HDBGODGB@?2?2?$AA@ DB '\\', 00H			; `string'
CONST	ENDS
;	COMDAT ??_C@_07CFBNLDKE@?2i1?2cf3?$AA@
CONST	SEGMENT
??_C@_07CFBNLDKE@?2i1?2cf3?$AA@ DB '\i1\cf3', 00H	; `string'
CONST	ENDS
;	COMDAT ??_C@_08OACLOLAN@?2i0?2cf0?5?$AA@
CONST	SEGMENT
??_C@_08OACLOLAN@?2i0?2cf0?5?$AA@ DB '\i0\cf0 ', 00H	; `string'
CONST	ENDS
;	COMDAT ??_C@_07HIEKBMDA@?2cf2?2b?5?$AA@
CONST	SEGMENT
??_C@_07HIEKBMDA@?2cf2?2b?5?$AA@ DB '\cf2\b ', 00H	; `string'
CONST	ENDS
;	COMDAT ??_C@_08LNEBPHFL@?2b0?2cf0?5?$AA@
CONST	SEGMENT
??_C@_08LNEBPHFL@?2b0?2cf0?5?$AA@ DB '\b0\cf0 ', 00H	; `string'
CONST	ENDS
;	COMDAT ??_C@_0BC@FABBCMPN@?2qc?2cf1?2b?2f0?2fs28?$AA@
CONST	SEGMENT
??_C@_0BC@FABBCMPN@?2qc?2cf1?2b?2f0?2fs28?$AA@ DB '\qc\cf1\b\f0\fs28', 00H ; `string'
CONST	ENDS
;	COMDAT ??_C@_0BH@OGCNLHCF@?2par?2ql?2f1?2cf0?2b0?2fs24?$AA@
CONST	SEGMENT
??_C@_0BH@OGCNLHCF@?2par?2ql?2f1?2cf0?2b0?2fs24?$AA@ DB '\par\ql\f1\cf0\b'
	DB	'0\fs24', 00H				; `string'
CONST	ENDS
;	COMDAT ??_C@_03JNFFBAPD@?2?$HL?$HN?$AA@
CONST	SEGMENT
??_C@_03JNFFBAPD@?2?$HL?$HN?$AA@ DB '\{}', 00H		; `string'
CONST	ENDS
;	COMDAT ??_C@_04DLBBMMJF@?$HO?$FO?$FL?$FN?$AA@
CONST	SEGMENT
??_C@_04DLBBMMJF@?$HO?$FO?$FL?$FN?$AA@ DB '~^[]', 00H	; `string'
CONST	ENDS
;	COMDAT ??_C@_09CIFCMOEC@?2par?5?$HN?5?$HN?6?$AA@
CONST	SEGMENT
??_C@_09CIFCMOEC@?2par?5?$HN?5?$HN?6?$AA@ DB '\par } }', 0aH, 00H ; `string'
; Function compile flags: /Odt /RTCcsu /ZI
CONST	ENDS
;	COMDAT ?AstToRTF@@YA?AV?$CStringT@DV?$StrTraitMFC@DV?$ChTraitsCRT@D@ATL@@@@@ATL@@AAV12@@Z
_TEXT	SEGMENT
tv78 = -756						; size = 4
$T93526 = -748						; size = 4
_in$ = -544						; size = 168
_out$ = -368						; size = 168
_ch$ = -189						; size = 1
__$ArrayPad$ = -16					; size = 4
__$EHRec$ = -12						; size = 12
__$ReturnAddr$ = 4					; size = 4
___$ReturnUdt$ = 8					; size = 4
_str$ = 12						; size = 4
?AstToRTF@@YA?AV?$CStringT@DV?$StrTraitMFC@DV?$ChTraitsCRT@D@ATL@@@@@ATL@@AAV12@@Z PROC NEAR ; AstToRTF, COMDAT

; 41   : {

	push	ebp
	mov	ebp, esp
	push	-1
	push	__ehhandler$?AstToRTF@@YA?AV?$CStringT@DV?$StrTraitMFC@DV?$ChTraitsCRT@D@ATL@@@@@ATL@@AAV12@@Z
	mov	eax, DWORD PTR fs:__except_list
	push	eax
	mov	DWORD PTR fs:__except_list, esp
	sub	esp, 744				; 000002e8H
	push	ebx
	push	esi
	push	edi
	lea	edi, DWORD PTR [ebp-756]
	mov	ecx, 186				; 000000baH
	mov	eax, -858993460				; ccccccccH
	rep stosd
	mov	eax, DWORD PTR ___security_cookie
	mov	DWORD PTR __$ArrayPad$[ebp], eax
	mov	DWORD PTR $T93526[ebp], 0

; 42   :  TCHAR buf[100], *p;
; 43   :  int c, s, e, d;
; 44   :  _TUCHAR ch;
; 45   : 
; 46   :  Strbuff out= Strbuff();

	lea	ecx, DWORD PTR _out$[ebp]
	call	??0Strbuff@@QAE@XZ			; Strbuff::Strbuff
	mov	DWORD PTR __$EHRec$[ebp+8], 1

; 47   :  Strbuff in= Strbuff(str);

	mov	eax, DWORD PTR _str$[ebp]
	push	eax
	lea	ecx, DWORD PTR _in$[ebp]
	call	??0Strbuff@@QAE@AAV?$CStringT@DV?$StrTraitMFC@DV?$ChTraitsCRT@D@ATL@@@@@ATL@@@Z ; Strbuff::Strbuff
	mov	BYTE PTR __$EHRec$[ebp+8], 2

; 48   : 
; 49   :  write_rtf_header( out );

	lea	eax, DWORD PTR _out$[ebp]
	push	eax
	call	?write_rtf_header@@YAHAAVStrbuff@@@Z	; write_rtf_header
	add	esp, 4
$L93371:

; 50   :  while ( !in.eof() ) {

	lea	ecx, DWORD PTR _in$[ebp]
	call	?eof@Strbuff@@QAEHXZ			; Strbuff::eof
	test	eax, eax
	jne	$L93372

; 51   :        in._get(ch);

	lea	eax, DWORD PTR _ch$[ebp]
	push	eax
	lea	ecx, DWORD PTR _in$[ebp]
	call	?_get@Strbuff@@QAEEAAE@Z		; Strbuff::_get

; 52   :        switch( ch ) {

	movzx	eax, BYTE PTR _ch$[ebp]
	mov	DWORD PTR tv78[ebp], eax
	mov	ecx, DWORD PTR tv78[ebp]
	sub	ecx, 10					; 0000000aH
	mov	DWORD PTR tv78[ebp], ecx
	cmp	DWORD PTR tv78[ebp], 116		; 00000074H
	ja	$L93404
	mov	edx, DWORD PTR tv78[ebp]
	movzx	eax, BYTE PTR $L93532[edx]
	jmp	DWORD PTR $L93546[eax*4]
$L93377:

; 53   : 	     case _T('\\') :
; 54   : 		  _T("\\\\") >> out;

	lea	eax, DWORD PTR _out$[ebp]
	push	eax
	push	OFFSET FLAT:??_C@_02HDBGODGB@?2?2?$AA@
	call	??5@YAAAVStrbuff@@PBDAAV0@@Z		; operator>>
	add	esp, 8

; 55   : 		  break;

	jmp	$L93374
$L93379:

; 56   :          case _T('\r') :
; 57   :           break;

	jmp	$L93374
$L93380:

; 58   : 		 case _T('\n') :
; 59   : 		  rtf_hard_line >> out;

	lea	eax, DWORD PTR _out$[ebp]
	push	eax
	mov	ecx, DWORD PTR _rtf_hard_line
	push	ecx
	call	??5@YAAAVStrbuff@@PBDAAV0@@Z		; operator>>
	add	esp, 8

; 60   : 		  //dllYield();
; 61   : 		  break;

	jmp	$L93374
$L93381:

; 62   : 	     case _T('<') :
; 63   : 		  _T("\\i1\\cf3") >> out;

	lea	eax, DWORD PTR _out$[ebp]
	push	eax
	push	OFFSET FLAT:??_C@_07CFBNLDKE@?2i1?2cf3?$AA@
	call	??5@YAAAVStrbuff@@PBDAAV0@@Z		; operator>>
	add	esp, 8

; 64   : 		  break;

	jmp	$L93374
$L93383:

; 65   : 	     case _T('>') :
; 66   : 		  _T("\\i0\\cf0 ") >> out;

	lea	eax, DWORD PTR _out$[ebp]
	push	eax
	push	OFFSET FLAT:??_C@_08OACLOLAN@?2i0?2cf0?5?$AA@
	call	??5@YAAAVStrbuff@@PBDAAV0@@Z		; operator>>
	add	esp, 8

; 67   : 		  break;

	jmp	$L93374
$L93385:

; 68   : 	     case _T('{') :
; 69   : 		 _T("\\cf2\\b ") >> out;

	lea	eax, DWORD PTR _out$[ebp]
	push	eax
	push	OFFSET FLAT:??_C@_07HIEKBMDA@?2cf2?2b?5?$AA@
	call	??5@YAAAVStrbuff@@PBDAAV0@@Z		; operator>>
	add	esp, 8

; 70   : 		  break;

	jmp	$L93374
$L93387:

; 71   : 	     case _T('}') :
; 72   : 		 _T("\\b0\\cf0 ") >> out;

	lea	eax, DWORD PTR _out$[ebp]
	push	eax
	push	OFFSET FLAT:??_C@_08LNEBPHFL@?2b0?2cf0?5?$AA@
	call	??5@YAAAVStrbuff@@PBDAAV0@@Z		; operator>>
	add	esp, 8

; 73   : 		  break;

	jmp	$L93374
$L93389:

; 74   :         case _T('[') :
; 75   :          _T("\\qc\\cf1\\b\\f0\\fs28") >> out;

	lea	eax, DWORD PTR _out$[ebp]
	push	eax
	push	OFFSET FLAT:??_C@_0BC@FABBCMPN@?2qc?2cf1?2b?2f0?2fs28?$AA@
	call	??5@YAAAVStrbuff@@PBDAAV0@@Z		; operator>>
	add	esp, 8

; 76   :         break;

	jmp	$L93374
$L93391:

; 77   :         case _T(']') :
; 78   :          _T("\\par\\ql\\f1\\cf0\\b0\\fs24") >> out;

	lea	eax, DWORD PTR _out$[ebp]
	push	eax
	push	OFFSET FLAT:??_C@_0BH@OGCNLHCF@?2par?2ql?2f1?2cf0?2b0?2fs24?$AA@
	call	??5@YAAAVStrbuff@@PBDAAV0@@Z		; operator>>
	add	esp, 8

; 79   :         break;

	jmp	$L93374
$L93393:

; 80   : 	     case _T('~') :
; 81   : 		  in._get(ch);

	lea	eax, DWORD PTR _ch$[ebp]
	push	eax
	lea	ecx, DWORD PTR _in$[ebp]
	call	?_get@Strbuff@@QAEEAAE@Z		; Strbuff::_get

; 82   : 		  if ( _istascii( ch ) && _tcschr( _T("\\{}"), ch ) != NULL ) {

	movzx	eax, BYTE PTR _ch$[ebp]
	cmp	eax, 128				; 00000080H
	jae	SHORT $L93395
	movzx	eax, BYTE PTR _ch$[ebp]
	push	eax
	push	OFFSET FLAT:??_C@_03JNFFBAPD@?2?$HL?$HN?$AA@
	call	_strchr
	add	esp, 8
	test	eax, eax
	je	SHORT $L93395

; 83   : 		     out.put( _T('\\')) ;

	push	92					; 0000005cH
	lea	ecx, DWORD PTR _out$[ebp]
	call	?put@Strbuff@@QAEXD@Z			; Strbuff::put

; 84   : 		     out.put(ch);

	mov	al, BYTE PTR _ch$[ebp]
	push	eax
	lea	ecx, DWORD PTR _out$[ebp]
	call	?put@Strbuff@@QAEXD@Z			; Strbuff::put

; 85   : 		     }
; 86   : 		  else if ( _tcschr( _T("~^[]"), ch ) != NULL ) {

	jmp	SHORT $L93397
$L93395:
	movzx	eax, BYTE PTR _ch$[ebp]
	push	eax
	push	OFFSET FLAT:??_C@_04DLBBMMJF@?$HO?$FO?$FL?$FN?$AA@
	call	_strchr
	add	esp, 8
	test	eax, eax
	je	SHORT $L93398

; 87   : 		     out.put(_T('~')) ;

	push	126					; 0000007eH
	lea	ecx, DWORD PTR _out$[ebp]
	call	?put@Strbuff@@QAEXD@Z			; Strbuff::put

; 88   : 		     out.put(ch);

	mov	al, BYTE PTR _ch$[ebp]
	push	eax
	lea	ecx, DWORD PTR _out$[ebp]
	call	?put@Strbuff@@QAEXD@Z			; Strbuff::put

; 89   : 		     }
; 90   : 		  else if ( isascii( ch ) )

	jmp	SHORT $L93397
$L93398:
	movzx	eax, BYTE PTR _ch$[ebp]
	cmp	eax, 128				; 00000080H
	jae	SHORT $L93402

; 91   : 		     out.put(ch);

	mov	al, BYTE PTR _ch$[ebp]
	push	eax
	lea	ecx, DWORD PTR _out$[ebp]
	call	?put@Strbuff@@QAEXD@Z			; Strbuff::put

; 92   : 		  else

	jmp	SHORT $L93397
$L93402:

; 93   : 		     rtf_foreign( out, ch );

	mov	al, BYTE PTR _ch$[ebp]
	push	eax
	lea	ecx, DWORD PTR _out$[ebp]
	push	ecx
	call	?rtf_foreign@@YAHAAVStrbuff@@E@Z	; rtf_foreign
	add	esp, 8
$L93397:

; 94   : 		  break;

	jmp	SHORT $L93374
$L93404:

; 95   : 	     default :
; 96   : 		  out.put(ch);

	mov	al, BYTE PTR _ch$[ebp]
	push	eax
	lea	ecx, DWORD PTR _out$[ebp]
	call	?put@Strbuff@@QAEXD@Z			; Strbuff::put
$L93374:

; 97   : 		  break;
; 98   : 	     }
; 99   :        }

	jmp	$L93371
$L93372:

; 100  :   _T("\\par } }\n") >> out;

	lea	eax, DWORD PTR _out$[ebp]
	push	eax
	push	OFFSET FLAT:??_C@_09CIFCMOEC@?2par?5?$HN?5?$HN?6?$AA@
	call	??5@YAAAVStrbuff@@PBDAAV0@@Z		; operator>>
	add	esp, 8

; 101  :  return( out.getstr() );

	lea	ecx, DWORD PTR _out$[ebp]
	call	?getstr@Strbuff@@QAEAAV?$CStringT@DV?$StrTraitMFC@DV?$ChTraitsCRT@D@ATL@@@@@ATL@@XZ ; Strbuff::getstr
	push	eax
	mov	ecx, DWORD PTR ___$ReturnUdt$[ebp]
	call	??0?$CStringT@DV?$StrTraitMFC@DV?$ChTraitsCRT@D@ATL@@@@@ATL@@QAE@ABV01@@Z ; ATL::CStringT<char,StrTraitMFC<char,ATL::ChTraitsCRT<char> > >::CStringT<char,StrTraitMFC<char,ATL::ChTraitsCRT<char> > >
	mov	eax, DWORD PTR $T93526[ebp]
	or	eax, 1
	mov	DWORD PTR $T93526[ebp], eax
	mov	BYTE PTR __$EHRec$[ebp+8], 1
	lea	ecx, DWORD PTR _in$[ebp]
	call	??1Strbuff@@UAE@XZ			; Strbuff::~Strbuff
	mov	BYTE PTR __$EHRec$[ebp+8], 0
	lea	ecx, DWORD PTR _out$[ebp]
	call	??1Strbuff@@UAE@XZ			; Strbuff::~Strbuff
	mov	eax, DWORD PTR ___$ReturnUdt$[ebp]

; 102  : }

	push	edx
	mov	ecx, ebp
	push	eax
	lea	edx, DWORD PTR $L93542
	call	@_RTC_CheckStackVars@8
	pop	eax
	pop	edx
	mov	ecx, DWORD PTR __$EHRec$[ebp]
	mov	DWORD PTR fs:__except_list, ecx
	mov	ecx, DWORD PTR __$ArrayPad$[ebp]
	call	@__security_check_cookie@4
	pop	edi
	pop	esi
	pop	ebx
	add	esp, 756				; 000002f4H
	cmp	ebp, esp
	call	__RTC_CheckEsp
	mov	esp, ebp
	pop	ebp
	ret	0
$L93542:
	DD	4
	DD	$L93541
$L93541:
	DD	-120					; ffffff88H
	DD	100					; 00000064H
	DD	$L93533
	DD	-189					; ffffff43H
	DD	1
	DD	$L93534
	DD	-368					; fffffe90H
	DD	168					; 000000a8H
	DD	$L93535
	DD	-544					; fffffde0H
	DD	168					; 000000a8H
	DD	$L93536
$L93536:
	DB	105					; 00000069H
	DB	110					; 0000006eH
	DB	0
$L93535:
	DB	111					; 0000006fH
	DB	117					; 00000075H
	DB	116					; 00000074H
	DB	0
$L93534:
	DB	99					; 00000063H
	DB	104					; 00000068H
	DB	0
$L93533:
	DB	98					; 00000062H
	DB	117					; 00000075H
	DB	102					; 00000066H
	DB	0
$L93546:
	DD	$L93380
	DD	$L93379
	DD	$L93381
	DD	$L93383
	DD	$L93389
	DD	$L93377
	DD	$L93391
	DD	$L93385
	DD	$L93387
	DD	$L93393
	DD	$L93404
$L93532:
	DB	0
	DB	10					; 0000000aH
	DB	10					; 0000000aH
	DB	1
	DB	10					; 0000000aH
	DB	10					; 0000000aH
	DB	10					; 0000000aH
	DB	10					; 0000000aH
	DB	10					; 0000000aH
	DB	10					; 0000000aH
	DB	10					; 0000000aH
	DB	10					; 0000000aH
	DB	10					; 0000000aH
	DB	10					; 0000000aH
	DB	10					; 0000000aH
	DB	10					; 0000000aH
	DB	10					; 0000000aH
	DB	10					; 0000000aH
	DB	10					; 0000000aH
	DB	10					; 0000000aH
	DB	10					; 0000000aH
	DB	10					; 0000000aH
	DB	10					; 0000000aH
	DB	10					; 0000000aH
	DB	10					; 0000000aH
	DB	10					; 0000000aH
	DB	10					; 0000000aH
	DB	10					; 0000000aH
	DB	10					; 0000000aH
	DB	10					; 0000000aH
	DB	10					; 0000000aH
	DB	10					; 0000000aH
	DB	10					; 0000000aH
	DB	10					; 0000000aH
	DB	10					; 0000000aH
	DB	10					; 0000000aH
	DB	10					; 0000000aH
	DB	10					; 0000000aH
	DB	10					; 0000000aH
	DB	10					; 0000000aH
	DB	10					; 0000000aH
	DB	10					; 0000000aH
	DB	10					; 0000000aH
	DB	10					; 0000000aH
	DB	10					; 0000000aH
	DB	10					; 0000000aH
	DB	10					; 0000000aH
	DB	10					; 0000000aH
	DB	10					; 0000000aH
	DB	10					; 0000000aH
	DB	2
	DB	10					; 0000000aH
	DB	3
	DB	10					; 0000000aH
	DB	10					; 0000000aH
	DB	10					; 0000000aH
	DB	10					; 0000000aH
	DB	10					; 0000000aH
	DB	10					; 0000000aH
	DB	10					; 0000000aH
	DB	10					; 0000000aH
	DB	10					; 0000000aH
	DB	10					; 0000000aH
	DB	10					; 0000000aH
	DB	10					; 0000000aH
	DB	10					; 0000000aH
	DB	10					; 0000000aH
	DB	10					; 0000000aH
	DB	10					; 0000000aH
	DB	10					; 0000000aH
	DB	10					; 0000000aH
	DB	10					; 0000000aH
	DB	10					; 0000000aH
	DB	10					; 0000000aH
	DB	10					; 0000000aH
	DB	10					; 0000000aH
	DB	10					; 0000000aH
	DB	10					; 0000000aH
	DB	10					; 0000000aH
	DB	10					; 0000000aH
	DB	10					; 0000000aH
	DB	4
	DB	5
	DB	6
	DB	10					; 0000000aH
	DB	10					; 0000000aH
	DB	10					; 0000000aH
	DB	10					; 0000000aH
	DB	10					; 0000000aH
	DB	10					; 0000000aH
	DB	10					; 0000000aH
	DB	10					; 0000000aH
	DB	10					; 0000000aH
	DB	10					; 0000000aH
	DB	10					; 0000000aH
	DB	10					; 0000000aH
	DB	10					; 0000000aH
	DB	10					; 0000000aH
	DB	10					; 0000000aH
	DB	10					; 0000000aH
	DB	10					; 0000000aH
	DB	10					; 0000000aH
	DB	10					; 0000000aH
	DB	10					; 0000000aH
	DB	10					; 0000000aH
	DB	10					; 0000000aH
	DB	10					; 0000000aH
	DB	10					; 0000000aH
	DB	10					; 0000000aH
	DB	10					; 0000000aH
	DB	10					; 0000000aH
	DB	10					; 0000000aH
	DB	10					; 0000000aH
	DB	7
	DB	10					; 0000000aH
	DB	8
	DB	9
_TEXT	ENDS
;	COMDAT text$x
text$x	SEGMENT
__unwindfunclet$?AstToRTF@@YA?AV?$CStringT@DV?$StrTraitMFC@DV?$ChTraitsCRT@D@ATL@@@@@ATL@@AAV12@@Z$0:
	lea	ecx, DWORD PTR _out$[ebp]
	jmp	??1Strbuff@@UAE@XZ			; Strbuff::~Strbuff
__unwindfunclet$?AstToRTF@@YA?AV?$CStringT@DV?$StrTraitMFC@DV?$ChTraitsCRT@D@ATL@@@@@ATL@@AAV12@@Z$1:
	lea	ecx, DWORD PTR _in$[ebp]
	jmp	??1Strbuff@@UAE@XZ			; Strbuff::~Strbuff
__unwindfunclet$?AstToRTF@@YA?AV?$CStringT@DV?$StrTraitMFC@DV?$ChTraitsCRT@D@ATL@@@@@ATL@@AAV12@@Z$2:
	mov	eax, DWORD PTR $T93526[ebp]
	and	eax, 1
	je	$L93527
	and	DWORD PTR $T93526[ebp], -2		; fffffffeH
	mov	ecx, DWORD PTR ___$ReturnUdt$[ebp]
	jmp	??1?$CStringT@DV?$StrTraitMFC@DV?$ChTraitsCRT@D@ATL@@@@@ATL@@QAE@XZ ; ATL::CStringT<char,StrTraitMFC<char,ATL::ChTraitsCRT<char> > >::~CStringT<char,StrTraitMFC<char,ATL::ChTraitsCRT<char> > >
$L93527:
	ret	0
__ehhandler$?AstToRTF@@YA?AV?$CStringT@DV?$StrTraitMFC@DV?$ChTraitsCRT@D@ATL@@@@@ATL@@AAV12@@Z:
	mov	eax, OFFSET FLAT:__ehfuncinfo$?AstToRTF@@YA?AV?$CStringT@DV?$StrTraitMFC@DV?$ChTraitsCRT@D@ATL@@@@@ATL@@AAV12@@Z
	jmp	___CxxFrameHandler
text$x	ENDS
?AstToRTF@@YA?AV?$CStringT@DV?$StrTraitMFC@DV?$ChTraitsCRT@D@ATL@@@@@ATL@@AAV12@@Z ENDP ; AstToRTF
PUBLIC	??0?$CStringT@DV?$StrTraitMFC@DV?$ChTraitsCRT@D@ATL@@@@@ATL@@QAE@XZ ; ATL::CStringT<char,StrTraitMFC<char,ATL::ChTraitsCRT<char> > >::CStringT<char,StrTraitMFC<char,ATL::ChTraitsCRT<char> > >
PUBLIC	??_7Strbuff@@6B@				; Strbuff::`vftable'
PUBLIC	??_GStrbuff@@UAEPAXI@Z				; Strbuff::`scalar deleting destructor'
EXTRN	??_EStrbuff@@UAEPAXI@Z:NEAR			; Strbuff::`vector deleting destructor'
;	COMDAT ??_7Strbuff@@6B@
; File c:\astrow32dev\tbt32\strbuff.h
CONST	SEGMENT
??_7Strbuff@@6B@ DD FLAT:??_EStrbuff@@UAEPAXI@Z		; Strbuff::`vftable'
; Function compile flags: /Odt /RTCcsu /ZI
CONST	ENDS
;	COMDAT ??0Strbuff@@QAE@XZ
_TEXT	SEGMENT
_this$ = -8						; size = 4
??0Strbuff@@QAE@XZ PROC NEAR				; Strbuff::Strbuff, COMDAT
; _this$ = ecx

; 20   : 	Strbuff() { len = 0; index=0; }

	push	ebp
	mov	ebp, esp
	sub	esp, 204				; 000000ccH
	push	ebx
	push	esi
	push	edi
	push	ecx
	lea	edi, DWORD PTR [ebp-204]
	mov	ecx, 51					; 00000033H
	mov	eax, -858993460				; ccccccccH
	rep stosd
	pop	ecx
	mov	DWORD PTR _this$[ebp], ecx
	mov	eax, DWORD PTR _this$[ebp]
	mov	DWORD PTR [eax], OFFSET FLAT:??_7Strbuff@@6B@
	mov	ecx, DWORD PTR _this$[ebp]
	add	ecx, 164				; 000000a4H
	call	??0?$CStringT@DV?$StrTraitMFC@DV?$ChTraitsCRT@D@ATL@@@@@ATL@@QAE@XZ ; ATL::CStringT<char,StrTraitMFC<char,ATL::ChTraitsCRT<char> > >::CStringT<char,StrTraitMFC<char,ATL::ChTraitsCRT<char> > >
	mov	eax, DWORD PTR _this$[ebp]
	mov	DWORD PTR [eax+156], 0
	mov	eax, DWORD PTR _this$[ebp]
	mov	DWORD PTR [eax+160], 0
	mov	eax, DWORD PTR _this$[ebp]
	pop	edi
	pop	esi
	pop	ebx
	add	esp, 204				; 000000ccH
	cmp	ebp, esp
	call	__RTC_CheckEsp
	mov	esp, ebp
	pop	ebp
	ret	0
??0Strbuff@@QAE@XZ ENDP					; Strbuff::Strbuff
_TEXT	ENDS
PUBLIC	?GetLength@?$CSimpleStringT@D$0A@@ATL@@QBEHXZ	; ATL::CSimpleStringT<char,0>::GetLength
PUBLIC	??4?$CStringT@DV?$StrTraitMFC@DV?$ChTraitsCRT@D@ATL@@@@@ATL@@QAEAAV01@ABV01@@Z ; ATL::CStringT<char,StrTraitMFC<char,ATL::ChTraitsCRT<char> > >::operator=
;	COMDAT xdata$x
xdata$x	SEGMENT
__unwindtable$??0Strbuff@@QAE@AAV?$CStringT@DV?$StrTraitMFC@DV?$ChTraitsCRT@D@ATL@@@@@ATL@@@Z DD 0ffffffffH
	DD	FLAT:__unwindfunclet$??0Strbuff@@QAE@AAV?$CStringT@DV?$StrTraitMFC@DV?$ChTraitsCRT@D@ATL@@@@@ATL@@@Z$0
__ehfuncinfo$??0Strbuff@@QAE@AAV?$CStringT@DV?$StrTraitMFC@DV?$ChTraitsCRT@D@ATL@@@@@ATL@@@Z DD 019930520H
	DD	01H
	DD	FLAT:__unwindtable$??0Strbuff@@QAE@AAV?$CStringT@DV?$StrTraitMFC@DV?$ChTraitsCRT@D@ATL@@@@@ATL@@@Z
	DD	2 DUP(00H)
	DD	2 DUP(00H)
; Function compile flags: /Odt /RTCcsu /ZI
xdata$x	ENDS
;	COMDAT ??0Strbuff@@QAE@AAV?$CStringT@DV?$StrTraitMFC@DV?$ChTraitsCRT@D@ATL@@@@@ATL@@@Z
_TEXT	SEGMENT
_this$ = -20						; size = 4
__$EHRec$ = -12						; size = 12
_s$ = 8							; size = 4
??0Strbuff@@QAE@AAV?$CStringT@DV?$StrTraitMFC@DV?$ChTraitsCRT@D@ATL@@@@@ATL@@@Z PROC NEAR ; Strbuff::Strbuff, COMDAT
; _this$ = ecx

; 21   : 	Strbuff(CString &s) { str=s; index=0; len=s.GetLength(); }

	push	ebp
	mov	ebp, esp
	push	-1
	push	__ehhandler$??0Strbuff@@QAE@AAV?$CStringT@DV?$StrTraitMFC@DV?$ChTraitsCRT@D@ATL@@@@@ATL@@@Z
	mov	eax, DWORD PTR fs:__except_list
	push	eax
	mov	DWORD PTR fs:__except_list, esp
	sub	esp, 204				; 000000ccH
	push	ebx
	push	esi
	push	edi
	push	ecx
	lea	edi, DWORD PTR [ebp-216]
	mov	ecx, 51					; 00000033H
	mov	eax, -858993460				; ccccccccH
	rep stosd
	pop	ecx
	mov	DWORD PTR _this$[ebp], ecx
	mov	eax, DWORD PTR _this$[ebp]
	mov	DWORD PTR [eax], OFFSET FLAT:??_7Strbuff@@6B@
	mov	ecx, DWORD PTR _this$[ebp]
	add	ecx, 164				; 000000a4H
	call	??0?$CStringT@DV?$StrTraitMFC@DV?$ChTraitsCRT@D@ATL@@@@@ATL@@QAE@XZ ; ATL::CStringT<char,StrTraitMFC<char,ATL::ChTraitsCRT<char> > >::CStringT<char,StrTraitMFC<char,ATL::ChTraitsCRT<char> > >
	mov	DWORD PTR __$EHRec$[ebp+8], 0
	mov	eax, DWORD PTR _s$[ebp]
	push	eax
	mov	ecx, DWORD PTR _this$[ebp]
	add	ecx, 164				; 000000a4H
	call	??4?$CStringT@DV?$StrTraitMFC@DV?$ChTraitsCRT@D@ATL@@@@@ATL@@QAEAAV01@ABV01@@Z ; ATL::CStringT<char,StrTraitMFC<char,ATL::ChTraitsCRT<char> > >::operator=
	mov	eax, DWORD PTR _this$[ebp]
	mov	DWORD PTR [eax+160], 0
	mov	ecx, DWORD PTR _s$[ebp]
	call	?GetLength@?$CSimpleStringT@D$0A@@ATL@@QBEHXZ ; ATL::CSimpleStringT<char,0>::GetLength
	mov	ecx, DWORD PTR _this$[ebp]
	mov	DWORD PTR [ecx+156], eax
	mov	DWORD PTR __$EHRec$[ebp+8], -1
	mov	eax, DWORD PTR _this$[ebp]
	mov	ecx, DWORD PTR __$EHRec$[ebp]
	mov	DWORD PTR fs:__except_list, ecx
	pop	edi
	pop	esi
	pop	ebx
	add	esp, 216				; 000000d8H
	cmp	ebp, esp
	call	__RTC_CheckEsp
	mov	esp, ebp
	pop	ebp
	ret	4
_TEXT	ENDS
;	COMDAT text$x
text$x	SEGMENT
__unwindfunclet$??0Strbuff@@QAE@AAV?$CStringT@DV?$StrTraitMFC@DV?$ChTraitsCRT@D@ATL@@@@@ATL@@@Z$0:
	mov	ecx, DWORD PTR _this$[ebp]
	add	ecx, 164				; 000000a4H
	jmp	??1?$CStringT@DV?$StrTraitMFC@DV?$ChTraitsCRT@D@ATL@@@@@ATL@@QAE@XZ ; ATL::CStringT<char,StrTraitMFC<char,ATL::ChTraitsCRT<char> > >::~CStringT<char,StrTraitMFC<char,ATL::ChTraitsCRT<char> > >
__ehhandler$??0Strbuff@@QAE@AAV?$CStringT@DV?$StrTraitMFC@DV?$ChTraitsCRT@D@ATL@@@@@ATL@@@Z:
	mov	eax, OFFSET FLAT:__ehfuncinfo$??0Strbuff@@QAE@AAV?$CStringT@DV?$StrTraitMFC@DV?$ChTraitsCRT@D@ATL@@@@@ATL@@@Z
	jmp	___CxxFrameHandler
text$x	ENDS
??0Strbuff@@QAE@AAV?$CStringT@DV?$StrTraitMFC@DV?$ChTraitsCRT@D@ATL@@@@@ATL@@@Z ENDP ; Strbuff::Strbuff
; Function compile flags: /Odt /RTCcsu /ZI
;	COMDAT ??1Strbuff@@UAE@XZ
_TEXT	SEGMENT
_this$ = -8						; size = 4
??1Strbuff@@UAE@XZ PROC NEAR				; Strbuff::~Strbuff, COMDAT
; _this$ = ecx

; 22   : 	virtual ~Strbuff() {}

	push	ebp
	mov	ebp, esp
	sub	esp, 204				; 000000ccH
	push	ebx
	push	esi
	push	edi
	push	ecx
	lea	edi, DWORD PTR [ebp-204]
	mov	ecx, 51					; 00000033H
	mov	eax, -858993460				; ccccccccH
	rep stosd
	pop	ecx
	mov	DWORD PTR _this$[ebp], ecx
	mov	eax, DWORD PTR _this$[ebp]
	mov	DWORD PTR [eax], OFFSET FLAT:??_7Strbuff@@6B@
	mov	ecx, DWORD PTR _this$[ebp]
	add	ecx, 164				; 000000a4H
	call	??1?$CStringT@DV?$StrTraitMFC@DV?$ChTraitsCRT@D@ATL@@@@@ATL@@QAE@XZ ; ATL::CStringT<char,StrTraitMFC<char,ATL::ChTraitsCRT<char> > >::~CStringT<char,StrTraitMFC<char,ATL::ChTraitsCRT<char> > >
	pop	edi
	pop	esi
	pop	ebx
	add	esp, 204				; 000000ccH
	cmp	ebp, esp
	call	__RTC_CheckEsp
	mov	esp, ebp
	pop	ebp
	ret	0
??1Strbuff@@UAE@XZ ENDP					; Strbuff::~Strbuff
; Function compile flags: /Odt /RTCcsu /ZI
_TEXT	ENDS
;	COMDAT ?eof@Strbuff@@QAEHXZ
_TEXT	SEGMENT
_this$ = -8						; size = 4
?eof@Strbuff@@QAEHXZ PROC NEAR				; Strbuff::eof, COMDAT
; _this$ = ecx

; 23   : 	BOOL eof() {return(index<len?FALSE:TRUE);}

	push	ebp
	mov	ebp, esp
	sub	esp, 204				; 000000ccH
	push	ebx
	push	esi
	push	edi
	push	ecx
	lea	edi, DWORD PTR [ebp-204]
	mov	ecx, 51					; 00000033H
	mov	eax, -858993460				; ccccccccH
	rep stosd
	pop	ecx
	mov	DWORD PTR _this$[ebp], ecx
	mov	eax, DWORD PTR _this$[ebp]
	mov	ecx, DWORD PTR _this$[ebp]
	mov	edx, DWORD PTR [eax+160]
	xor	eax, eax
	cmp	edx, DWORD PTR [ecx+156]
	setge	al
	pop	edi
	pop	esi
	pop	ebx
	mov	esp, ebp
	pop	ebp
	ret	0
?eof@Strbuff@@QAEHXZ ENDP				; Strbuff::eof
_TEXT	ENDS
PUBLIC	?flush@Strbuff@@QAEXXZ				; Strbuff::flush
; Function compile flags: /Odt /RTCcsu /ZI
;	COMDAT ?getstr@Strbuff@@QAEAAV?$CStringT@DV?$StrTraitMFC@DV?$ChTraitsCRT@D@ATL@@@@@ATL@@XZ
_TEXT	SEGMENT
_this$ = -8						; size = 4
?getstr@Strbuff@@QAEAAV?$CStringT@DV?$StrTraitMFC@DV?$ChTraitsCRT@D@ATL@@@@@ATL@@XZ PROC NEAR ; Strbuff::getstr, COMDAT
; _this$ = ecx

; 25   : 	CString &getstr() { flush(); return str; }

	push	ebp
	mov	ebp, esp
	sub	esp, 204				; 000000ccH
	push	ebx
	push	esi
	push	edi
	push	ecx
	lea	edi, DWORD PTR [ebp-204]
	mov	ecx, 51					; 00000033H
	mov	eax, -858993460				; ccccccccH
	rep stosd
	pop	ecx
	mov	DWORD PTR _this$[ebp], ecx
	mov	ecx, DWORD PTR _this$[ebp]
	call	?flush@Strbuff@@QAEXXZ			; Strbuff::flush
	mov	eax, DWORD PTR _this$[ebp]
	add	eax, 164				; 000000a4H
	pop	edi
	pop	esi
	pop	ebx
	add	esp, 204				; 000000ccH
	cmp	ebp, esp
	call	__RTC_CheckEsp
	mov	esp, ebp
	pop	ebp
	ret	0
?getstr@Strbuff@@QAEAAV?$CStringT@DV?$StrTraitMFC@DV?$ChTraitsCRT@D@ATL@@@@@ATL@@XZ ENDP ; Strbuff::getstr
_TEXT	ENDS
PUBLIC	??Y?$CStringT@DV?$StrTraitMFC@DV?$ChTraitsCRT@D@ATL@@@@@ATL@@QAEAAV01@PBD@Z ; ATL::CStringT<char,StrTraitMFC<char,ATL::ChTraitsCRT<char> > >::operator+=
; Function compile flags: /Odt /RTCcsu /ZI
;	COMDAT ?flush@Strbuff@@QAEXXZ
_TEXT	SEGMENT
_this$ = -8						; size = 4
?flush@Strbuff@@QAEXXZ PROC NEAR			; Strbuff::flush, COMDAT
; _this$ = ecx

; 24   : 	void flush() { str += buf; len=0; }

	push	ebp
	mov	ebp, esp
	sub	esp, 204				; 000000ccH
	push	ebx
	push	esi
	push	edi
	push	ecx
	lea	edi, DWORD PTR [ebp-204]
	mov	ecx, 51					; 00000033H
	mov	eax, -858993460				; ccccccccH
	rep stosd
	pop	ecx
	mov	DWORD PTR _this$[ebp], ecx
	mov	eax, DWORD PTR _this$[ebp]
	add	eax, 4
	push	eax
	mov	ecx, DWORD PTR _this$[ebp]
	add	ecx, 164				; 000000a4H
	call	??Y?$CStringT@DV?$StrTraitMFC@DV?$ChTraitsCRT@D@ATL@@@@@ATL@@QAEAAV01@PBD@Z ; ATL::CStringT<char,StrTraitMFC<char,ATL::ChTraitsCRT<char> > >::operator+=
	mov	eax, DWORD PTR _this$[ebp]
	mov	DWORD PTR [eax+156], 0
	pop	edi
	pop	esi
	pop	ebx
	add	esp, 204				; 000000ccH
	cmp	ebp, esp
	call	__RTC_CheckEsp
	mov	esp, ebp
	pop	ebp
	ret	0
?flush@Strbuff@@QAEXXZ ENDP				; Strbuff::flush
_TEXT	ENDS
EXTRN	??3@YAXPAX@Z:NEAR				; operator delete
; Function compile flags: /Odt /RTCcsu /ZI
;	COMDAT ??_GStrbuff@@UAEPAXI@Z
_TEXT	SEGMENT
_this$ = -8						; size = 4
___flags$ = 8						; size = 4
??_GStrbuff@@UAEPAXI@Z PROC NEAR			; Strbuff::`scalar deleting destructor', COMDAT
; _this$ = ecx
	push	ebp
	mov	ebp, esp
	sub	esp, 204				; 000000ccH
	push	ebx
	push	esi
	push	edi
	push	ecx
	lea	edi, DWORD PTR [ebp-204]
	mov	ecx, 51					; 00000033H
	mov	eax, -858993460				; ccccccccH
	rep stosd
	pop	ecx
	mov	DWORD PTR _this$[ebp], ecx
	mov	ecx, DWORD PTR _this$[ebp]
	call	??1Strbuff@@UAE@XZ			; Strbuff::~Strbuff
	mov	eax, DWORD PTR ___flags$[ebp]
	and	eax, 1
	je	SHORT $L93000
	mov	eax, DWORD PTR _this$[ebp]
	push	eax
	call	??3@YAXPAX@Z				; operator delete
	add	esp, 4
$L93000:
	mov	eax, DWORD PTR _this$[ebp]
	pop	edi
	pop	esi
	pop	ebx
	add	esp, 204				; 000000ccH
	cmp	ebp, esp
	call	__RTC_CheckEsp
	mov	esp, ebp
	pop	ebp
	ret	4
??_GStrbuff@@UAEPAXI@Z ENDP				; Strbuff::`scalar deleting destructor'
_TEXT	ENDS
PUBLIC	??_C@_05BBHFPIMI@?2?8?$CF2x?$AA@		; `string'
EXTRN	_sprintf:NEAR
;	COMDAT ??_C@_05BBHFPIMI@?2?8?$CF2x?$AA@
; File c:\astrow32dev\tbt32\ast2rtf.cpp
CONST	SEGMENT
??_C@_05BBHFPIMI@?2?8?$CF2x?$AA@ DB '\''%2x', 00H	; `string'
; Function compile flags: /Odt /RTCcsu /ZI
CONST	ENDS
;	COMDAT ?rtf_foreign@@YAHAAVStrbuff@@E@Z
_TEXT	SEGMENT
_buf$ = -20						; size = 10
__$ArrayPad$ = -4					; size = 4
__$ReturnAddr$ = 4					; size = 4
_stream$ = 8						; size = 4
_c$ = 12						; size = 1
?rtf_foreign@@YAHAAVStrbuff@@E@Z PROC NEAR		; rtf_foreign, COMDAT

; 17   : {

	push	ebp
	mov	ebp, esp
	sub	esp, 232				; 000000e8H
	push	ebx
	push	esi
	push	edi
	lea	edi, DWORD PTR [ebp-232]
	mov	ecx, 58					; 0000003aH
	mov	eax, -858993460				; ccccccccH
	rep stosd
	mov	eax, DWORD PTR ___security_cookie
	mov	DWORD PTR __$ArrayPad$[ebp], eax

; 18   :  TCHAR buf[10];
; 19   :  TCHAR cbf[5];
; 20   : #ifdef _UNICODE
; 21   :  _stprintf( buf, _T("\\u%d "), c );
; 22   : #else
; 23   :  _stprintf( buf, _T("\\\'%2x"), c );

	movzx	eax, BYTE PTR _c$[ebp]
	push	eax
	push	OFFSET FLAT:??_C@_05BBHFPIMI@?2?8?$CF2x?$AA@
	lea	ecx, DWORD PTR _buf$[ebp]
	push	ecx
	call	_sprintf
	add	esp, 12					; 0000000cH

; 24   : #endif
; 25   :  (const TCHAR *) buf >> stream;

	mov	eax, DWORD PTR _stream$[ebp]
	push	eax
	lea	ecx, DWORD PTR _buf$[ebp]
	push	ecx
	call	??5@YAAAVStrbuff@@PBDAAV0@@Z		; operator>>
	add	esp, 8

; 26   :  return( 1 );

	mov	eax, 1

; 27   : }

	push	edx
	mov	ecx, ebp
	push	eax
	lea	edx, DWORD PTR $L93583
	call	@_RTC_CheckStackVars@8
	pop	eax
	pop	edx
	mov	ecx, DWORD PTR __$ArrayPad$[ebp]
	call	@__security_check_cookie@4
	pop	edi
	pop	esi
	pop	ebx
	add	esp, 232				; 000000e8H
	cmp	ebp, esp
	call	__RTC_CheckEsp
	mov	esp, ebp
	pop	ebp
	ret	0
$L93583:
	DD	2
	DD	$L93582
$L93582:
	DD	-20					; ffffffecH
	DD	10					; 0000000aH
	DD	$L93579
	DD	-36					; ffffffdcH
	DD	5
	DD	$L93580
$L93580:
	DB	99					; 00000063H
	DB	98					; 00000062H
	DB	102					; 00000066H
	DB	0
$L93579:
	DB	98					; 00000062H
	DB	117					; 00000075H
	DB	102					; 00000066H
	DB	0
?rtf_foreign@@YAHAAVStrbuff@@E@Z ENDP			; rtf_foreign
_TEXT	ENDS
PUBLIC	??_C@_0FH@CCGFHHGD@?$HL?2rtf1?2ansi?2ansicpg1252?2deff0?2de@ ; `string'
PUBLIC	??_C@_0DA@LGBFFJFK@?$HL?2f1?2froman?2fprq2?2fTCHARset0?5Tim@ ; `string'
PUBLIC	??_C@_0GE@INBIHGGH@?$HL?2colortbl?5?$DL?2red0?2green0?2blue255@ ; `string'
PUBLIC	??_C@_0BP@GCAKFFF@?2viewkind4?2uc1?2pard?2f1?2ql?2fs24?$AA@ ; `string'
;	COMDAT ??_C@_0FH@CCGFHHGD@?$HL?2rtf1?2ansi?2ansicpg1252?2deff0?2de@
CONST	SEGMENT
??_C@_0FH@CCGFHHGD@?$HL?2rtf1?2ansi?2ansicpg1252?2deff0?2de@ DB '{\rtf1\a'
	DB	'nsi\ansicpg1252\deff0\deflang1033{\fonttbl{\f0\fswiss\fprq2\f'
	DB	'TCHARset0 Arial;}', 00H			; `string'
CONST	ENDS
;	COMDAT ??_C@_0DA@LGBFFJFK@?$HL?2f1?2froman?2fprq2?2fTCHARset0?5Tim@
CONST	SEGMENT
??_C@_0DA@LGBFFJFK@?$HL?2f1?2froman?2fprq2?2fTCHARset0?5Tim@ DB '{\f1\fro'
	DB	'man\fprq2\fTCHARset0 Times New Roman;}}', 00H ; `string'
CONST	ENDS
;	COMDAT ??_C@_0GE@INBIHGGH@?$HL?2colortbl?5?$DL?2red0?2green0?2blue255@
CONST	SEGMENT
??_C@_0GE@INBIHGGH@?$HL?2colortbl?5?$DL?2red0?2green0?2blue255@ DB '{\col'
	DB	'ortbl ;\red0\green0\blue255;\red255\green0\blue0;\red0\green2'
	DB	'55\blue0;\red255\green0\blue255;}', 00H	; `string'
CONST	ENDS
;	COMDAT ??_C@_0BP@GCAKFFF@?2viewkind4?2uc1?2pard?2f1?2ql?2fs24?$AA@
CONST	SEGMENT
??_C@_0BP@GCAKFFF@?2viewkind4?2uc1?2pard?2f1?2ql?2fs24?$AA@ DB '\viewkind'
	DB	'4\uc1\pard\f1\ql\fs24', 00H			; `string'
; Function compile flags: /Odt /RTCcsu /ZI
CONST	ENDS
;	COMDAT ?write_rtf_header@@YAHAAVStrbuff@@@Z
_TEXT	SEGMENT
_stream$ = 8						; size = 4
?write_rtf_header@@YAHAAVStrbuff@@@Z PROC NEAR		; write_rtf_header, COMDAT

; 30   : {

	push	ebp
	mov	ebp, esp
	sub	esp, 192				; 000000c0H
	push	ebx
	push	esi
	push	edi
	lea	edi, DWORD PTR [ebp-192]
	mov	ecx, 48					; 00000030H
	mov	eax, -858993460				; ccccccccH
	rep stosd

; 31   :   _T("{\\rtf1\\ansi\\ansicpg1252\\deff0\\deflang1033{\\fonttbl{\\f0\\fswiss\\fprq2\\fTCHARset0 Arial;}") >> stream;

	mov	eax, DWORD PTR _stream$[ebp]
	push	eax
	push	OFFSET FLAT:??_C@_0FH@CCGFHHGD@?$HL?2rtf1?2ansi?2ansicpg1252?2deff0?2de@
	call	??5@YAAAVStrbuff@@PBDAAV0@@Z		; operator>>
	add	esp, 8

; 32   :   _T("{\\f1\\froman\\fprq2\\fTCHARset0 Times New Roman;}}") >> stream;

	mov	eax, DWORD PTR _stream$[ebp]
	push	eax
	push	OFFSET FLAT:??_C@_0DA@LGBFFJFK@?$HL?2f1?2froman?2fprq2?2fTCHARset0?5Tim@
	call	??5@YAAAVStrbuff@@PBDAAV0@@Z		; operator>>
	add	esp, 8

; 33   :   _T("{\\colortbl ;\\red0\\green0\\blue255;\\red255\\green0\\blue0;\\red0\\green255\\blue0;\\red255\\green0\\blue255;}") >> stream;

	mov	eax, DWORD PTR _stream$[ebp]
	push	eax
	push	OFFSET FLAT:??_C@_0GE@INBIHGGH@?$HL?2colortbl?5?$DL?2red0?2green0?2blue255@
	call	??5@YAAAVStrbuff@@PBDAAV0@@Z		; operator>>
	add	esp, 8

; 34   :   _T("\\viewkind4\\uc1\\pard\\f1\\ql\\fs24") >> stream;

	mov	eax, DWORD PTR _stream$[ebp]
	push	eax
	push	OFFSET FLAT:??_C@_0BP@GCAKFFF@?2viewkind4?2uc1?2pard?2f1?2ql?2fs24?$AA@
	call	??5@YAAAVStrbuff@@PBDAAV0@@Z		; operator>>
	add	esp, 8

; 35   :  return( 0 );

	xor	eax, eax

; 36   : }

	pop	edi
	pop	esi
	pop	ebx
	add	esp, 192				; 000000c0H
	cmp	ebp, esp
	call	__RTC_CheckEsp
	mov	esp, ebp
	pop	ebp
	ret	0
?write_rtf_header@@YAHAAVStrbuff@@@Z ENDP		; write_rtf_header
_TEXT	ENDS
PUBLIC	??4?$CSimpleStringT@D$0A@@ATL@@QAEAAV01@ABV01@@Z ; ATL::CSimpleStringT<char,0>::operator=
; Function compile flags: /Odt /RTCcsu /ZI
; File c:\program files\microsoft visual studio .net 2003\vc7\atlmfc\include\cstringt.h
;	COMDAT ??4?$CStringT@DV?$StrTraitMFC@DV?$ChTraitsCRT@D@ATL@@@@@ATL@@QAEAAV01@ABV01@@Z
_TEXT	SEGMENT
_this$ = -8						; size = 4
_strSrc$ = 8						; size = 4
??4?$CStringT@DV?$StrTraitMFC@DV?$ChTraitsCRT@D@ATL@@@@@ATL@@QAEAAV01@ABV01@@Z PROC NEAR ; ATL::CStringT<char,StrTraitMFC<char,ATL::ChTraitsCRT<char> > >::operator=, COMDAT
; _this$ = ecx

; 967  : 	{

	push	ebp
	mov	ebp, esp
	sub	esp, 204				; 000000ccH
	push	ebx
	push	esi
	push	edi
	push	ecx
	lea	edi, DWORD PTR [ebp-204]
	mov	ecx, 51					; 00000033H
	mov	eax, -858993460				; ccccccccH
	rep stosd
	pop	ecx
	mov	DWORD PTR _this$[ebp], ecx

; 968  : 		CThisSimpleString::operator=( strSrc );

	mov	eax, DWORD PTR _strSrc$[ebp]
	push	eax
	mov	ecx, DWORD PTR _this$[ebp]
	call	??4?$CSimpleStringT@D$0A@@ATL@@QAEAAV01@ABV01@@Z ; ATL::CSimpleStringT<char,0>::operator=

; 969  : 
; 970  : 		return( *this );

	mov	eax, DWORD PTR _this$[ebp]

; 971  : 	}

	pop	edi
	pop	esi
	pop	ebx
	add	esp, 204				; 000000ccH
	cmp	ebp, esp
	call	__RTC_CheckEsp
	mov	esp, ebp
	pop	ebp
	ret	4
??4?$CStringT@DV?$StrTraitMFC@DV?$ChTraitsCRT@D@ATL@@@@@ATL@@QAEAAV01@ABV01@@Z ENDP ; ATL::CStringT<char,StrTraitMFC<char,ATL::ChTraitsCRT<char> > >::operator=
_TEXT	ENDS
PUBLIC	??Y?$CSimpleStringT@D$0A@@ATL@@QAEAAV01@PBD@Z	; ATL::CSimpleStringT<char,0>::operator+=
; Function compile flags: /Odt /RTCcsu /ZI
;	COMDAT ??Y?$CStringT@DV?$StrTraitMFC@DV?$ChTraitsCRT@D@ATL@@@@@ATL@@QAEAAV01@PBD@Z
_TEXT	SEGMENT
_this$ = -8						; size = 4
_pszSrc$ = 8						; size = 4
??Y?$CStringT@DV?$StrTraitMFC@DV?$ChTraitsCRT@D@ATL@@@@@ATL@@QAEAAV01@PBD@Z PROC NEAR ; ATL::CStringT<char,StrTraitMFC<char,ATL::ChTraitsCRT<char> > >::operator+=, COMDAT
; _this$ = ecx

; 1042 : 	{

	push	ebp
	mov	ebp, esp
	sub	esp, 204				; 000000ccH
	push	ebx
	push	esi
	push	edi
	push	ecx
	lea	edi, DWORD PTR [ebp-204]
	mov	ecx, 51					; 00000033H
	mov	eax, -858993460				; ccccccccH
	rep stosd
	pop	ecx
	mov	DWORD PTR _this$[ebp], ecx

; 1043 : 		CThisSimpleString::operator+=( pszSrc );

	mov	eax, DWORD PTR _pszSrc$[ebp]
	push	eax
	mov	ecx, DWORD PTR _this$[ebp]
	call	??Y?$CSimpleStringT@D$0A@@ATL@@QAEAAV01@PBD@Z ; ATL::CSimpleStringT<char,0>::operator+=

; 1044 : 
; 1045 : 		return( *this );

	mov	eax, DWORD PTR _this$[ebp]

; 1046 : 	}

	pop	edi
	pop	esi
	pop	ebx
	add	esp, 204				; 000000ccH
	cmp	ebp, esp
	call	__RTC_CheckEsp
	mov	esp, ebp
	pop	ebp
	ret	4
??Y?$CStringT@DV?$StrTraitMFC@DV?$ChTraitsCRT@D@ATL@@@@@ATL@@QAEAAV01@PBD@Z ENDP ; ATL::CStringT<char,StrTraitMFC<char,ATL::ChTraitsCRT<char> > >::operator+=
_TEXT	ENDS
PUBLIC	?IsLocked@CStringData@ATL@@QBE_NXZ		; ATL::CStringData::IsLocked
PUBLIC	?Release@CStringData@ATL@@QAEXXZ		; ATL::CStringData::Release
PUBLIC	?GetString@?$CSimpleStringT@D$0A@@ATL@@QBEPBDXZ	; ATL::CSimpleStringT<char,0>::GetString
PUBLIC	?SetString@?$CSimpleStringT@D$0A@@ATL@@QAEXPBDH@Z ; ATL::CSimpleStringT<char,0>::SetString
PUBLIC	?Attach@?$CSimpleStringT@D$0A@@ATL@@AAEXPAUCStringData@2@@Z ; ATL::CSimpleStringT<char,0>::Attach
PUBLIC	?GetData@?$CSimpleStringT@D$0A@@ATL@@ABEPAUCStringData@2@XZ ; ATL::CSimpleStringT<char,0>::GetData
PUBLIC	?CloneData@?$CSimpleStringT@D$0A@@ATL@@CAPAUCStringData@2@PAU32@@Z ; ATL::CSimpleStringT<char,0>::CloneData
; Function compile flags: /Odt /RTCcsu /ZI
; File c:\program files\microsoft visual studio .net 2003\vc7\atlmfc\include\atlsimpstr.h
;	COMDAT ??4?$CSimpleStringT@D$0A@@ATL@@QAEAAV01@ABV01@@Z
_TEXT	SEGMENT
_pNewData$93418 = -44					; size = 4
_pOldData$ = -32					; size = 4
_pSrcData$ = -20					; size = 4
_this$ = -8						; size = 4
_strSrc$ = 8						; size = 4
??4?$CSimpleStringT@D$0A@@ATL@@QAEAAV01@ABV01@@Z PROC NEAR ; ATL::CSimpleStringT<char,0>::operator=, COMDAT
; _this$ = ecx

; 273  : 	{

	push	ebp
	mov	ebp, esp
	sub	esp, 240				; 000000f0H
	push	ebx
	push	esi
	push	edi
	push	ecx
	lea	edi, DWORD PTR [ebp-240]
	mov	ecx, 60					; 0000003cH
	mov	eax, -858993460				; ccccccccH
	rep stosd
	pop	ecx
	mov	DWORD PTR _this$[ebp], ecx

; 274  : 		CStringData* pSrcData = strSrc.GetData();

	mov	ecx, DWORD PTR _strSrc$[ebp]
	call	?GetData@?$CSimpleStringT@D$0A@@ATL@@ABEPAUCStringData@2@XZ ; ATL::CSimpleStringT<char,0>::GetData
	mov	DWORD PTR _pSrcData$[ebp], eax

; 275  : 		CStringData* pOldData = GetData();

	mov	ecx, DWORD PTR _this$[ebp]
	call	?GetData@?$CSimpleStringT@D$0A@@ATL@@ABEPAUCStringData@2@XZ ; ATL::CSimpleStringT<char,0>::GetData
	mov	DWORD PTR _pOldData$[ebp], eax

; 276  : 		if( pSrcData != pOldData)

	mov	eax, DWORD PTR _pSrcData$[ebp]
	cmp	eax, DWORD PTR _pOldData$[ebp]
	je	SHORT $L93414

; 277  : 		{
; 278  : 			if( pOldData->IsLocked() || pSrcData->pStringMgr != pOldData->pStringMgr )

	mov	ecx, DWORD PTR _pOldData$[ebp]
	call	?IsLocked@CStringData@ATL@@QBE_NXZ	; ATL::CStringData::IsLocked
	movzx	eax, al
	test	eax, eax
	jne	SHORT $L93416
	mov	eax, DWORD PTR _pSrcData$[ebp]
	mov	ecx, DWORD PTR _pOldData$[ebp]
	mov	edx, DWORD PTR [eax]
	cmp	edx, DWORD PTR [ecx]
	je	SHORT $L93415
$L93416:

; 279  : 			{
; 280  : 				SetString( strSrc.GetString(), strSrc.GetLength() );

	mov	ecx, DWORD PTR _strSrc$[ebp]
	call	?GetLength@?$CSimpleStringT@D$0A@@ATL@@QBEHXZ ; ATL::CSimpleStringT<char,0>::GetLength
	push	eax
	mov	ecx, DWORD PTR _strSrc$[ebp]
	call	?GetString@?$CSimpleStringT@D$0A@@ATL@@QBEPBDXZ ; ATL::CSimpleStringT<char,0>::GetString
	push	eax
	mov	ecx, DWORD PTR _this$[ebp]
	call	?SetString@?$CSimpleStringT@D$0A@@ATL@@QAEXPBDH@Z ; ATL::CSimpleStringT<char,0>::SetString

; 281  : 			}
; 282  : 			else

	jmp	SHORT $L93414
$L93415:

; 283  : 			{
; 284  : 				CStringData* pNewData = CloneData( pSrcData );

	mov	eax, DWORD PTR _pSrcData$[ebp]
	push	eax
	call	?CloneData@?$CSimpleStringT@D$0A@@ATL@@CAPAUCStringData@2@PAU32@@Z ; ATL::CSimpleStringT<char,0>::CloneData
	add	esp, 4
	mov	DWORD PTR _pNewData$93418[ebp], eax

; 285  : 				pOldData->Release();

	mov	ecx, DWORD PTR _pOldData$[ebp]
	call	?Release@CStringData@ATL@@QAEXXZ	; ATL::CStringData::Release

; 286  : 				Attach( pNewData );

	mov	eax, DWORD PTR _pNewData$93418[ebp]
	push	eax
	mov	ecx, DWORD PTR _this$[ebp]
	call	?Attach@?$CSimpleStringT@D$0A@@ATL@@AAEXPAUCStringData@2@@Z ; ATL::CSimpleStringT<char,0>::Attach
$L93414:

; 287  : 			}
; 288  : 		}
; 289  : 
; 290  : 		return( *this );

	mov	eax, DWORD PTR _this$[ebp]

; 291  : 	}

	pop	edi
	pop	esi
	pop	ebx
	add	esp, 240				; 000000f0H
	cmp	ebp, esp
	call	__RTC_CheckEsp
	mov	esp, ebp
	pop	ebp
	ret	4
??4?$CSimpleStringT@D$0A@@ATL@@QAEAAV01@ABV01@@Z ENDP	; ATL::CSimpleStringT<char,0>::operator=
_TEXT	ENDS
PUBLIC	?Append@?$CSimpleStringT@D$0A@@ATL@@QAEXPBD@Z	; ATL::CSimpleStringT<char,0>::Append
; Function compile flags: /Odt /RTCcsu /ZI
;	COMDAT ??Y?$CSimpleStringT@D$0A@@ATL@@QAEAAV01@PBD@Z
_TEXT	SEGMENT
_this$ = -8						; size = 4
_pszSrc$ = 8						; size = 4
??Y?$CSimpleStringT@D$0A@@ATL@@QAEAAV01@PBD@Z PROC NEAR	; ATL::CSimpleStringT<char,0>::operator+=, COMDAT
; _this$ = ecx

; 336  : 	{

	push	ebp
	mov	ebp, esp
	sub	esp, 204				; 000000ccH
	push	ebx
	push	esi
	push	edi
	push	ecx
	lea	edi, DWORD PTR [ebp-204]
	mov	ecx, 51					; 00000033H
	mov	eax, -858993460				; ccccccccH
	rep stosd
	pop	ecx
	mov	DWORD PTR _this$[ebp], ecx

; 337  : 		Append( pszSrc );

	mov	eax, DWORD PTR _pszSrc$[ebp]
	push	eax
	mov	ecx, DWORD PTR _this$[ebp]
	call	?Append@?$CSimpleStringT@D$0A@@ATL@@QAEXPBD@Z ; ATL::CSimpleStringT<char,0>::Append

; 338  : 
; 339  : 		return( *this );

	mov	eax, DWORD PTR _this$[ebp]

; 340  : 	}

	pop	edi
	pop	esi
	pop	ebx
	add	esp, 204				; 000000ccH
	cmp	ebp, esp
	call	__RTC_CheckEsp
	mov	esp, ebp
	pop	ebp
	ret	4
??Y?$CSimpleStringT@D$0A@@ATL@@QAEAAV01@PBD@Z ENDP	; ATL::CSimpleStringT<char,0>::operator+=
_TEXT	ENDS
PUBLIC	?Append@?$CSimpleStringT@D$0A@@ATL@@QAEXPBDH@Z	; ATL::CSimpleStringT<char,0>::Append
PUBLIC	?StringLength@?$CSimpleStringT@D$0A@@ATL@@SAHPBD@Z ; ATL::CSimpleStringT<char,0>::StringLength
; Function compile flags: /Odt /RTCcsu /ZI
;	COMDAT ?Append@?$CSimpleStringT@D$0A@@ATL@@QAEXPBD@Z
_TEXT	SEGMENT
_this$ = -8						; size = 4
_pszSrc$ = 8						; size = 4
?Append@?$CSimpleStringT@D$0A@@ATL@@QAEXPBD@Z PROC NEAR	; ATL::CSimpleStringT<char,0>::Append, COMDAT
; _this$ = ecx

; 383  : 	{

	push	ebp
	mov	ebp, esp
	sub	esp, 204				; 000000ccH
	push	ebx
	push	esi
	push	edi
	push	ecx
	lea	edi, DWORD PTR [ebp-204]
	mov	ecx, 51					; 00000033H
	mov	eax, -858993460				; ccccccccH
	rep stosd
	pop	ecx
	mov	DWORD PTR _this$[ebp], ecx

; 384  : 		Append( pszSrc, StringLength( pszSrc ) );

	mov	eax, DWORD PTR _pszSrc$[ebp]
	push	eax
	call	?StringLength@?$CSimpleStringT@D$0A@@ATL@@SAHPBD@Z ; ATL::CSimpleStringT<char,0>::StringLength
	add	esp, 4
	push	eax
	mov	ecx, DWORD PTR _pszSrc$[ebp]
	push	ecx
	mov	ecx, DWORD PTR _this$[ebp]
	call	?Append@?$CSimpleStringT@D$0A@@ATL@@QAEXPBDH@Z ; ATL::CSimpleStringT<char,0>::Append

; 385  : 	}

	pop	edi
	pop	esi
	pop	ebx
	add	esp, 204				; 000000ccH
	cmp	ebp, esp
	call	__RTC_CheckEsp
	mov	esp, ebp
	pop	ebp
	ret	4
?Append@?$CSimpleStringT@D$0A@@ATL@@QAEXPBD@Z ENDP	; ATL::CSimpleStringT<char,0>::Append
_TEXT	ENDS
PUBLIC	?GetBuffer@?$CSimpleStringT@D$0A@@ATL@@QAEPADH@Z ; ATL::CSimpleStringT<char,0>::GetBuffer
PUBLIC	?ReleaseBufferSetLength@?$CSimpleStringT@D$0A@@ATL@@QAEXH@Z ; ATL::CSimpleStringT<char,0>::ReleaseBufferSetLength
PUBLIC	?CopyChars@?$CSimpleStringT@D$0A@@ATL@@SAXPADPBDH@Z ; ATL::CSimpleStringT<char,0>::CopyChars
; Function compile flags: /Odt /RTCcsu /ZI
;	COMDAT ?Append@?$CSimpleStringT@D$0A@@ATL@@QAEXPBDH@Z
_TEXT	SEGMENT
_pszBuffer$ = -56					; size = 4
_nNewLength$ = -44					; size = 4
_nOldLength$ = -32					; size = 4
_nOffset$ = -20						; size = 4
_this$ = -8						; size = 4
_pszSrc$ = 8						; size = 4
_nLength$ = 12						; size = 4
?Append@?$CSimpleStringT@D$0A@@ATL@@QAEXPBDH@Z PROC NEAR ; ATL::CSimpleStringT<char,0>::Append, COMDAT
; _this$ = ecx

; 387  : 	{

	push	ebp
	mov	ebp, esp
	sub	esp, 252				; 000000fcH
	push	ebx
	push	esi
	push	edi
	push	ecx
	lea	edi, DWORD PTR [ebp-252]
	mov	ecx, 63					; 0000003fH
	mov	eax, -858993460				; ccccccccH
	rep stosd
	pop	ecx
	mov	DWORD PTR _this$[ebp], ecx

; 388  : 		// See comment in SetString() about why we do this
; 389  : 		UINT_PTR nOffset = pszSrc-GetString();

	mov	ecx, DWORD PTR _this$[ebp]
	call	?GetString@?$CSimpleStringT@D$0A@@ATL@@QBEPBDXZ ; ATL::CSimpleStringT<char,0>::GetString
	mov	ecx, DWORD PTR _pszSrc$[ebp]
	sub	ecx, eax
	mov	DWORD PTR _nOffset$[ebp], ecx

; 390  : 
; 391  : 		UINT nOldLength = GetLength();

	mov	ecx, DWORD PTR _this$[ebp]
	call	?GetLength@?$CSimpleStringT@D$0A@@ATL@@QBEHXZ ; ATL::CSimpleStringT<char,0>::GetLength
	mov	DWORD PTR _nOldLength$[ebp], eax

; 392  : 		int nNewLength = nOldLength+nLength;

	mov	eax, DWORD PTR _nOldLength$[ebp]
	add	eax, DWORD PTR _nLength$[ebp]
	mov	DWORD PTR _nNewLength$[ebp], eax

; 393  : 		PXSTR pszBuffer = GetBuffer( nNewLength );

	mov	eax, DWORD PTR _nNewLength$[ebp]
	push	eax
	mov	ecx, DWORD PTR _this$[ebp]
	call	?GetBuffer@?$CSimpleStringT@D$0A@@ATL@@QAEPADH@Z ; ATL::CSimpleStringT<char,0>::GetBuffer
	mov	DWORD PTR _pszBuffer$[ebp], eax

; 394  : 		if( nOffset <= nOldLength )

	mov	eax, DWORD PTR _nOffset$[ebp]
	cmp	eax, DWORD PTR _nOldLength$[ebp]
	ja	SHORT $L93429

; 395  : 		{
; 396  : 			pszSrc = pszBuffer+nOffset;

	mov	eax, DWORD PTR _pszBuffer$[ebp]
	add	eax, DWORD PTR _nOffset$[ebp]
	mov	DWORD PTR _pszSrc$[ebp], eax
$L93429:

; 397  : 			// No need to call CopyCharsOverlapped, since the destination is
; 398  : 			// beyond the end of the original buffer
; 399  : 		}
; 400  : 		CopyChars( pszBuffer+nOldLength, pszSrc, nLength );

	mov	eax, DWORD PTR _nLength$[ebp]
	push	eax
	mov	ecx, DWORD PTR _pszSrc$[ebp]
	push	ecx
	mov	edx, DWORD PTR _pszBuffer$[ebp]
	add	edx, DWORD PTR _nOldLength$[ebp]
	push	edx
	call	?CopyChars@?$CSimpleStringT@D$0A@@ATL@@SAXPADPBDH@Z ; ATL::CSimpleStringT<char,0>::CopyChars
	add	esp, 12					; 0000000cH

; 401  : 		ReleaseBufferSetLength( nNewLength );

	mov	eax, DWORD PTR _nNewLength$[ebp]
	push	eax
	mov	ecx, DWORD PTR _this$[ebp]
	call	?ReleaseBufferSetLength@?$CSimpleStringT@D$0A@@ATL@@QAEXH@Z ; ATL::CSimpleStringT<char,0>::ReleaseBufferSetLength

; 402  : 	}

	pop	edi
	pop	esi
	pop	ebx
	add	esp, 252				; 000000fcH
	cmp	ebp, esp
	call	__RTC_CheckEsp
	mov	esp, ebp
	pop	ebp
	ret	8
?Append@?$CSimpleStringT@D$0A@@ATL@@QAEXPBDH@Z ENDP	; ATL::CSimpleStringT<char,0>::Append
_TEXT	ENDS
EXTRN	@_RTC_Check_4_to_1@4:NEAR
; Function compile flags: /Odt /RTCcsu /ZI
;	COMDAT ?IsLocked@CStringData@ATL@@QBE_NXZ
_TEXT	SEGMENT
_this$ = -8						; size = 4
?IsLocked@CStringData@ATL@@QBE_NXZ PROC NEAR		; ATL::CStringData::IsLocked, COMDAT
; _this$ = ecx

; 75   : 	{

	push	ebp
	mov	ebp, esp
	sub	esp, 204				; 000000ccH
	push	ebx
	push	esi
	push	edi
	push	ecx
	lea	edi, DWORD PTR [ebp-204]
	mov	ecx, 51					; 00000033H
	mov	eax, -858993460				; ccccccccH
	rep stosd
	pop	ecx
	mov	DWORD PTR _this$[ebp], ecx

; 76   : 		return nRefs < 0;

	mov	eax, DWORD PTR _this$[ebp]
	xor	ecx, ecx
	cmp	DWORD PTR [eax+12], 0
	setl	cl
	call	@_RTC_Check_4_to_1@4

; 77   : 	}

	pop	edi
	pop	esi
	pop	ebx
	add	esp, 204				; 000000ccH
	cmp	ebp, esp
	call	__RTC_CheckEsp
	mov	esp, ebp
	pop	ebp
	ret	0
?IsLocked@CStringData@ATL@@QBE_NXZ ENDP			; ATL::CStringData::IsLocked
_TEXT	ENDS
PUBLIC	??_C@_0FD@JDCNPMMG@c?3?2program?5files?2microsoft?5visua@ ; `string'
PUBLIC	??_C@_0L@OIIMFBNE@nRefs?5?$CB?$DN?50?$AA@	; `string'
EXTRN	__CrtDbgReport:NEAR
;	COMDAT ??_C@_0L@OIIMFBNE@nRefs?5?$CB?$DN?50?$AA@
CONST	SEGMENT
??_C@_0L@OIIMFBNE@nRefs?5?$CB?$DN?50?$AA@ DB 'nRefs != 0', 00H ; `string'
CONST	ENDS
;	COMDAT ??_C@_0FD@JDCNPMMG@c?3?2program?5files?2microsoft?5visua@
CONST	SEGMENT
??_C@_0FD@JDCNPMMG@c?3?2program?5files?2microsoft?5visua@ DB 'c:\program '
	DB	'files\microsoft visual studio .net 2003\vc7\atlmfc\include\at'
	DB	'lsimpstr.h', 00H				; `string'
; Function compile flags: /Odt /RTCcsu /ZI
CONST	ENDS
;	COMDAT ?Release@CStringData@ATL@@QAEXXZ
_TEXT	SEGMENT
_this$ = -8						; size = 4
?Release@CStringData@ATL@@QAEXXZ PROC NEAR		; ATL::CStringData::Release, COMDAT
; _this$ = ecx

; 92   : 	{

	push	ebp
	mov	ebp, esp
	sub	esp, 204				; 000000ccH
	push	ebx
	push	esi
	push	edi
	push	ecx
	lea	edi, DWORD PTR [ebp-204]
	mov	ecx, 51					; 00000033H
	mov	eax, -858993460				; ccccccccH
	rep stosd
	pop	ecx
	mov	DWORD PTR _this$[ebp], ecx

; 93   : 		ATLASSERT( nRefs != 0 );

	mov	eax, DWORD PTR _this$[ebp]
	cmp	DWORD PTR [eax+12], 0
	jne	SHORT $L93603
	push	OFFSET FLAT:??_C@_0L@OIIMFBNE@nRefs?5?$CB?$DN?50?$AA@
	push	0
	push	93					; 0000005dH
	push	OFFSET FLAT:??_C@_0FD@JDCNPMMG@c?3?2program?5files?2microsoft?5visua@
	push	2
	call	__CrtDbgReport
	add	esp, 20					; 00000014H
	cmp	eax, 1
	jne	SHORT $L93603
	int	3
$L93603:

; 94   : 
; 95   : 		if( _InterlockedDecrement( &nRefs ) <= 0 )

	mov	eax, DWORD PTR _this$[ebp]
	add	eax, 12					; 0000000cH
	or	ecx, -1
	lock	 xadd	 DWORD PTR [eax], ecx
	dec	ecx
	test	ecx, ecx
	jg	SHORT $L25707

; 96   : 		{
; 97   : 			pStringMgr->Free( this );

	mov	esi, esp
	mov	eax, DWORD PTR _this$[ebp]
	push	eax
	mov	ecx, DWORD PTR _this$[ebp]
	mov	edx, DWORD PTR [ecx]
	mov	eax, DWORD PTR _this$[ebp]
	mov	ecx, DWORD PTR [eax]
	mov	edx, DWORD PTR [edx]
	call	DWORD PTR [edx+4]
	cmp	esi, esp
	call	__RTC_CheckEsp
$L25707:

; 98   : 		}
; 99   : 	}

	pop	edi
	pop	esi
	pop	ebx
	add	esp, 204				; 000000ccH
	cmp	ebp, esp
	call	__RTC_CheckEsp
	mov	esp, ebp
	pop	ebp
	ret	0
?Release@CStringData@ATL@@QAEXXZ ENDP			; ATL::CStringData::Release
_TEXT	ENDS
PUBLIC	??0?$CSimpleStringT@D$0A@@ATL@@QAE@PAUIAtlStringMgr@1@@Z ; ATL::CSimpleStringT<char,0>::CSimpleStringT<char,0>
PUBLIC	?GetDefaultManager@?$StrTraitMFC@DV?$ChTraitsCRT@D@ATL@@@@SAPAUIAtlStringMgr@ATL@@XZ ; StrTraitMFC<char,ATL::ChTraitsCRT<char> >::GetDefaultManager
; Function compile flags: /Odt /RTCcsu /ZI
; File c:\program files\microsoft visual studio .net 2003\vc7\atlmfc\include\cstringt.h
;	COMDAT ??0?$CStringT@DV?$StrTraitMFC@DV?$ChTraitsCRT@D@ATL@@@@@ATL@@QAE@XZ
_TEXT	SEGMENT
_this$ = -8						; size = 4
??0?$CStringT@DV?$StrTraitMFC@DV?$ChTraitsCRT@D@ATL@@@@@ATL@@QAE@XZ PROC NEAR ; ATL::CStringT<char,StrTraitMFC<char,ATL::ChTraitsCRT<char> > >::CStringT<char,StrTraitMFC<char,ATL::ChTraitsCRT<char> > >, COMDAT
; _this$ = ecx

; 796  : 	{

	push	ebp
	mov	ebp, esp
	sub	esp, 204				; 000000ccH
	push	ebx
	push	esi
	push	edi
	push	ecx
	lea	edi, DWORD PTR [ebp-204]
	mov	ecx, 51					; 00000033H
	mov	eax, -858993460				; ccccccccH
	rep stosd
	pop	ecx
	mov	DWORD PTR _this$[ebp], ecx
	call	?GetDefaultManager@?$StrTraitMFC@DV?$ChTraitsCRT@D@ATL@@@@SAPAUIAtlStringMgr@ATL@@XZ ; StrTraitMFC<char,ATL::ChTraitsCRT<char> >::GetDefaultManager
	push	eax
	mov	ecx, DWORD PTR _this$[ebp]
	call	??0?$CSimpleStringT@D$0A@@ATL@@QAE@PAUIAtlStringMgr@1@@Z ; ATL::CSimpleStringT<char,0>::CSimpleStringT<char,0>

; 797  : 	}

	mov	eax, DWORD PTR _this$[ebp]
	pop	edi
	pop	esi
	pop	ebx
	add	esp, 204				; 000000ccH
	cmp	ebp, esp
	call	__RTC_CheckEsp
	mov	esp, ebp
	pop	ebp
	ret	0
??0?$CStringT@DV?$StrTraitMFC@DV?$ChTraitsCRT@D@ATL@@@@@ATL@@QAE@XZ ENDP ; ATL::CStringT<char,StrTraitMFC<char,ATL::ChTraitsCRT<char> > >::CStringT<char,StrTraitMFC<char,ATL::ChTraitsCRT<char> > >
_TEXT	ENDS
PUBLIC	??0?$CSimpleStringT@D$0A@@ATL@@QAE@ABV01@@Z	; ATL::CSimpleStringT<char,0>::CSimpleStringT<char,0>
; Function compile flags: /Odt /RTCcsu /ZI
;	COMDAT ??0?$CStringT@DV?$StrTraitMFC@DV?$ChTraitsCRT@D@ATL@@@@@ATL@@QAE@ABV01@@Z
_TEXT	SEGMENT
_this$ = -8						; size = 4
_strSrc$ = 8						; size = 4
??0?$CStringT@DV?$StrTraitMFC@DV?$ChTraitsCRT@D@ATL@@@@@ATL@@QAE@ABV01@@Z PROC NEAR ; ATL::CStringT<char,StrTraitMFC<char,ATL::ChTraitsCRT<char> > >::CStringT<char,StrTraitMFC<char,ATL::ChTraitsCRT<char> > >, COMDAT
; _this$ = ecx

; 814  : 	{

	push	ebp
	mov	ebp, esp
	sub	esp, 204				; 000000ccH
	push	ebx
	push	esi
	push	edi
	push	ecx
	lea	edi, DWORD PTR [ebp-204]
	mov	ecx, 51					; 00000033H
	mov	eax, -858993460				; ccccccccH
	rep stosd
	pop	ecx
	mov	DWORD PTR _this$[ebp], ecx
	mov	eax, DWORD PTR _strSrc$[ebp]
	push	eax
	mov	ecx, DWORD PTR _this$[ebp]
	call	??0?$CSimpleStringT@D$0A@@ATL@@QAE@ABV01@@Z ; ATL::CSimpleStringT<char,0>::CSimpleStringT<char,0>

; 815  : 	}

	mov	eax, DWORD PTR _this$[ebp]
	pop	edi
	pop	esi
	pop	ebx
	add	esp, 204				; 000000ccH
	cmp	ebp, esp
	call	__RTC_CheckEsp
	mov	esp, ebp
	pop	ebp
	ret	4
??0?$CStringT@DV?$StrTraitMFC@DV?$ChTraitsCRT@D@ATL@@@@@ATL@@QAE@ABV01@@Z ENDP ; ATL::CStringT<char,StrTraitMFC<char,ATL::ChTraitsCRT<char> > >::CStringT<char,StrTraitMFC<char,ATL::ChTraitsCRT<char> > >
_TEXT	ENDS
PUBLIC	??1?$CSimpleStringT@D$0A@@ATL@@QAE@XZ		; ATL::CSimpleStringT<char,0>::~CSimpleStringT<char,0>
; Function compile flags: /Odt /RTCcsu /ZI
;	COMDAT ??1?$CStringT@DV?$StrTraitMFC@DV?$ChTraitsCRT@D@ATL@@@@@ATL@@QAE@XZ
_TEXT	SEGMENT
_this$ = -8						; size = 4
??1?$CStringT@DV?$StrTraitMFC@DV?$ChTraitsCRT@D@ATL@@@@@ATL@@QAE@XZ PROC NEAR ; ATL::CStringT<char,StrTraitMFC<char,ATL::ChTraitsCRT<char> > >::~CStringT<char,StrTraitMFC<char,ATL::ChTraitsCRT<char> > >, COMDAT
; _this$ = ecx

; 962  : 	{

	push	ebp
	mov	ebp, esp
	sub	esp, 204				; 000000ccH
	push	ebx
	push	esi
	push	edi
	push	ecx
	lea	edi, DWORD PTR [ebp-204]
	mov	ecx, 51					; 00000033H
	mov	eax, -858993460				; ccccccccH
	rep stosd
	pop	ecx
	mov	DWORD PTR _this$[ebp], ecx

; 963  : 	}

	mov	ecx, DWORD PTR _this$[ebp]
	call	??1?$CSimpleStringT@D$0A@@ATL@@QAE@XZ	; ATL::CSimpleStringT<char,0>::~CSimpleStringT<char,0>
	pop	edi
	pop	esi
	pop	ebx
	add	esp, 204				; 000000ccH
	cmp	ebp, esp
	call	__RTC_CheckEsp
	mov	esp, ebp
	pop	ebp
	ret	0
??1?$CStringT@DV?$StrTraitMFC@DV?$ChTraitsCRT@D@ATL@@@@@ATL@@QAE@XZ ENDP ; ATL::CStringT<char,StrTraitMFC<char,ATL::ChTraitsCRT<char> > >::~CStringT<char,StrTraitMFC<char,ATL::ChTraitsCRT<char> > >
; Function compile flags: /Odt /RTCcsu /ZI
; File c:\program files\microsoft visual studio .net 2003\vc7\atlmfc\include\atlsimpstr.h
_TEXT	ENDS
;	COMDAT ?GetLength@?$CSimpleStringT@D$0A@@ATL@@QBEHXZ
_TEXT	SEGMENT
_this$ = -8						; size = 4
?GetLength@?$CSimpleStringT@D$0A@@ATL@@QBEHXZ PROC NEAR	; ATL::CSimpleStringT<char,0>::GetLength, COMDAT
; _this$ = ecx

; 500  : 	{

	push	ebp
	mov	ebp, esp
	sub	esp, 204				; 000000ccH
	push	ebx
	push	esi
	push	edi
	push	ecx
	lea	edi, DWORD PTR [ebp-204]
	mov	ecx, 51					; 00000033H
	mov	eax, -858993460				; ccccccccH
	rep stosd
	pop	ecx
	mov	DWORD PTR _this$[ebp], ecx

; 501  : 		return( GetData()->nDataLength );

	mov	ecx, DWORD PTR _this$[ebp]
	call	?GetData@?$CSimpleStringT@D$0A@@ATL@@ABEPAUCStringData@2@XZ ; ATL::CSimpleStringT<char,0>::GetData
	mov	eax, DWORD PTR [eax+4]

; 502  : 	}

	pop	edi
	pop	esi
	pop	ebx
	add	esp, 204				; 000000ccH
	cmp	ebp, esp
	call	__RTC_CheckEsp
	mov	esp, ebp
	pop	ebp
	ret	0
?GetLength@?$CSimpleStringT@D$0A@@ATL@@QBEHXZ ENDP	; ATL::CSimpleStringT<char,0>::GetLength
_TEXT	ENDS
PUBLIC	??_C@_0BA@GOIMFHNK@pStringMgr?5?$CB?$DN?50?$AA@	; `string'
;	COMDAT ??_C@_0BA@GOIMFHNK@pStringMgr?5?$CB?$DN?50?$AA@
CONST	SEGMENT
??_C@_0BA@GOIMFHNK@pStringMgr?5?$CB?$DN?50?$AA@ DB 'pStringMgr != 0', 00H ; `string'
; Function compile flags: /Odt /RTCcsu /ZI
CONST	ENDS
;	COMDAT ??0?$CSimpleStringT@D$0A@@ATL@@QAE@PAUIAtlStringMgr@1@@Z
_TEXT	SEGMENT
_pData$ = -20						; size = 4
_this$ = -8						; size = 4
_pStringMgr$ = 8					; size = 4
??0?$CSimpleStringT@D$0A@@ATL@@QAE@PAUIAtlStringMgr@1@@Z PROC NEAR ; ATL::CSimpleStringT<char,0>::CSimpleStringT<char,0>, COMDAT
; _this$ = ecx

; 210  : 	explicit CSimpleStringT( IAtlStringMgr* pStringMgr ) throw()

	push	ebp
	mov	ebp, esp
	sub	esp, 216				; 000000d8H
	push	ebx
	push	esi
	push	edi
	push	ecx
	lea	edi, DWORD PTR [ebp-216]
	mov	ecx, 54					; 00000036H
	mov	eax, -858993460				; ccccccccH
	rep stosd
	pop	ecx
	mov	DWORD PTR _this$[ebp], ecx

; 211  : 	{
; 212  : 		ATLASSERT( pStringMgr != NULL );

	cmp	DWORD PTR _pStringMgr$[ebp], 0
	jne	SHORT $L93615
	push	OFFSET FLAT:??_C@_0BA@GOIMFHNK@pStringMgr?5?$CB?$DN?50?$AA@
	push	0
	push	212					; 000000d4H
	push	OFFSET FLAT:??_C@_0FD@JDCNPMMG@c?3?2program?5files?2microsoft?5visua@
	push	2
	call	__CrtDbgReport
	add	esp, 20					; 00000014H
	cmp	eax, 1
	jne	SHORT $L93615
	int	3
$L93615:

; 213  : 		CStringData* pData = pStringMgr->GetNilString();

	mov	eax, DWORD PTR _pStringMgr$[ebp]
	mov	edx, DWORD PTR [eax]
	mov	esi, esp
	mov	ecx, DWORD PTR _pStringMgr$[ebp]
	call	DWORD PTR [edx+12]
	cmp	esi, esp
	call	__RTC_CheckEsp
	mov	DWORD PTR _pData$[ebp], eax

; 214  : 		Attach( pData );

	mov	eax, DWORD PTR _pData$[ebp]
	push	eax
	mov	ecx, DWORD PTR _this$[ebp]
	call	?Attach@?$CSimpleStringT@D$0A@@ATL@@AAEXPAUCStringData@2@@Z ; ATL::CSimpleStringT<char,0>::Attach

; 215  : 	}

	mov	eax, DWORD PTR _this$[ebp]
	pop	edi
	pop	esi
	pop	ebx
	add	esp, 216				; 000000d8H
	cmp	ebp, esp
	call	__RTC_CheckEsp
	mov	esp, ebp
	pop	ebp
	ret	4
??0?$CSimpleStringT@D$0A@@ATL@@QAE@PAUIAtlStringMgr@1@@Z ENDP ; ATL::CSimpleStringT<char,0>::CSimpleStringT<char,0>
; Function compile flags: /Odt /RTCcsu /ZI
_TEXT	ENDS
;	COMDAT ??0?$CSimpleStringT@D$0A@@ATL@@QAE@ABV01@@Z
_TEXT	SEGMENT
_pNewData$ = -32					; size = 4
_pSrcData$ = -20					; size = 4
_this$ = -8						; size = 4
_strSrc$ = 8						; size = 4
??0?$CSimpleStringT@D$0A@@ATL@@QAE@ABV01@@Z PROC NEAR	; ATL::CSimpleStringT<char,0>::CSimpleStringT<char,0>, COMDAT
; _this$ = ecx

; 217  : 	CSimpleStringT( const CSimpleStringT& strSrc )

	push	ebp
	mov	ebp, esp
	sub	esp, 228				; 000000e4H
	push	ebx
	push	esi
	push	edi
	push	ecx
	lea	edi, DWORD PTR [ebp-228]
	mov	ecx, 57					; 00000039H
	mov	eax, -858993460				; ccccccccH
	rep stosd
	pop	ecx
	mov	DWORD PTR _this$[ebp], ecx

; 218  : 	{
; 219  : 		CStringData* pSrcData = strSrc.GetData();

	mov	ecx, DWORD PTR _strSrc$[ebp]
	call	?GetData@?$CSimpleStringT@D$0A@@ATL@@ABEPAUCStringData@2@XZ ; ATL::CSimpleStringT<char,0>::GetData
	mov	DWORD PTR _pSrcData$[ebp], eax

; 220  : 		CStringData* pNewData = CloneData( pSrcData );

	mov	eax, DWORD PTR _pSrcData$[ebp]
	push	eax
	call	?CloneData@?$CSimpleStringT@D$0A@@ATL@@CAPAUCStringData@2@PAU32@@Z ; ATL::CSimpleStringT<char,0>::CloneData
	add	esp, 4
	mov	DWORD PTR _pNewData$[ebp], eax

; 221  : 		Attach( pNewData );

	mov	eax, DWORD PTR _pNewData$[ebp]
	push	eax
	mov	ecx, DWORD PTR _this$[ebp]
	call	?Attach@?$CSimpleStringT@D$0A@@ATL@@AAEXPAUCStringData@2@@Z ; ATL::CSimpleStringT<char,0>::Attach

; 222  : 	}

	mov	eax, DWORD PTR _this$[ebp]
	pop	edi
	pop	esi
	pop	ebx
	add	esp, 228				; 000000e4H
	cmp	ebp, esp
	call	__RTC_CheckEsp
	mov	esp, ebp
	pop	ebp
	ret	4
??0?$CSimpleStringT@D$0A@@ATL@@QAE@ABV01@@Z ENDP	; ATL::CSimpleStringT<char,0>::CSimpleStringT<char,0>
; Function compile flags: /Odt /RTCcsu /ZI
_TEXT	ENDS
;	COMDAT ??1?$CSimpleStringT@D$0A@@ATL@@QAE@XZ
_TEXT	SEGMENT
_pData$ = -20						; size = 4
_this$ = -8						; size = 4
??1?$CSimpleStringT@D$0A@@ATL@@QAE@XZ PROC NEAR		; ATL::CSimpleStringT<char,0>::~CSimpleStringT<char,0>, COMDAT
; _this$ = ecx

; 262  : 	{

	push	ebp
	mov	ebp, esp
	sub	esp, 216				; 000000d8H
	push	ebx
	push	esi
	push	edi
	push	ecx
	lea	edi, DWORD PTR [ebp-216]
	mov	ecx, 54					; 00000036H
	mov	eax, -858993460				; ccccccccH
	rep stosd
	pop	ecx
	mov	DWORD PTR _this$[ebp], ecx

; 263  : 		CStringData* pData = GetData();

	mov	ecx, DWORD PTR _this$[ebp]
	call	?GetData@?$CSimpleStringT@D$0A@@ATL@@ABEPAUCStringData@2@XZ ; ATL::CSimpleStringT<char,0>::GetData
	mov	DWORD PTR _pData$[ebp], eax

; 264  : 		pData->Release();

	mov	ecx, DWORD PTR _pData$[ebp]
	call	?Release@CStringData@ATL@@QAEXXZ	; ATL::CStringData::Release

; 265  : 	}

	pop	edi
	pop	esi
	pop	ebx
	add	esp, 216				; 000000d8H
	cmp	ebp, esp
	call	__RTC_CheckEsp
	mov	esp, ebp
	pop	ebp
	ret	0
??1?$CSimpleStringT@D$0A@@ATL@@QAE@XZ ENDP		; ATL::CSimpleStringT<char,0>::~CSimpleStringT<char,0>
_TEXT	ENDS
PUBLIC	?PrepareWrite@?$CSimpleStringT@D$0A@@ATL@@AAEPADH@Z ; ATL::CSimpleStringT<char,0>::PrepareWrite
; Function compile flags: /Odt /RTCcsu /ZI
;	COMDAT ?GetBuffer@?$CSimpleStringT@D$0A@@ATL@@QAEPADH@Z
_TEXT	SEGMENT
_this$ = -8						; size = 4
_nMinBufferLength$ = 8					; size = 4
?GetBuffer@?$CSimpleStringT@D$0A@@ATL@@QAEPADH@Z PROC NEAR ; ATL::CSimpleStringT<char,0>::GetBuffer, COMDAT
; _this$ = ecx

; 489  : 	{

	push	ebp
	mov	ebp, esp
	sub	esp, 204				; 000000ccH
	push	ebx
	push	esi
	push	edi
	push	ecx
	lea	edi, DWORD PTR [ebp-204]
	mov	ecx, 51					; 00000033H
	mov	eax, -858993460				; ccccccccH
	rep stosd
	pop	ecx
	mov	DWORD PTR _this$[ebp], ecx

; 490  : 		return( PrepareWrite( nMinBufferLength ) );

	mov	eax, DWORD PTR _nMinBufferLength$[ebp]
	push	eax
	mov	ecx, DWORD PTR _this$[ebp]
	call	?PrepareWrite@?$CSimpleStringT@D$0A@@ATL@@AAEPADH@Z ; ATL::CSimpleStringT<char,0>::PrepareWrite

; 491  : 	}

	pop	edi
	pop	esi
	pop	ebx
	add	esp, 204				; 000000ccH
	cmp	ebp, esp
	call	__RTC_CheckEsp
	mov	esp, ebp
	pop	ebp
	ret	4
?GetBuffer@?$CSimpleStringT@D$0A@@ATL@@QAEPADH@Z ENDP	; ATL::CSimpleStringT<char,0>::GetBuffer
_TEXT	ENDS
PUBLIC	??_C@_0BA@GNIEOBOF@nNewLength?5?$DO?$DN?50?$AA@	; `string'
PUBLIC	?SetLength@?$CSimpleStringT@D$0A@@ATL@@AAEXH@Z	; ATL::CSimpleStringT<char,0>::SetLength
;	COMDAT ??_C@_0BA@GNIEOBOF@nNewLength?5?$DO?$DN?50?$AA@
CONST	SEGMENT
??_C@_0BA@GNIEOBOF@nNewLength?5?$DO?$DN?50?$AA@ DB 'nNewLength >= 0', 00H ; `string'
; Function compile flags: /Odt /RTCcsu /ZI
CONST	ENDS
;	COMDAT ?ReleaseBufferSetLength@?$CSimpleStringT@D$0A@@ATL@@QAEXH@Z
_TEXT	SEGMENT
_this$ = -8						; size = 4
_nNewLength$ = 8					; size = 4
?ReleaseBufferSetLength@?$CSimpleStringT@D$0A@@ATL@@QAEXH@Z PROC NEAR ; ATL::CSimpleStringT<char,0>::ReleaseBufferSetLength, COMDAT
; _this$ = ecx

; 546  : 	{

	push	ebp
	mov	ebp, esp
	sub	esp, 204				; 000000ccH
	push	ebx
	push	esi
	push	edi
	push	ecx
	lea	edi, DWORD PTR [ebp-204]
	mov	ecx, 51					; 00000033H
	mov	eax, -858993460				; ccccccccH
	rep stosd
	pop	ecx
	mov	DWORD PTR _this$[ebp], ecx

; 547  : 		ATLASSERT( nNewLength >= 0 );

	cmp	DWORD PTR _nNewLength$[ebp], 0
	jge	SHORT $L93624
	push	OFFSET FLAT:??_C@_0BA@GNIEOBOF@nNewLength?5?$DO?$DN?50?$AA@
	push	0
	push	547					; 00000223H
	push	OFFSET FLAT:??_C@_0FD@JDCNPMMG@c?3?2program?5files?2microsoft?5visua@
	push	2
	call	__CrtDbgReport
	add	esp, 20					; 00000014H
	cmp	eax, 1
	jne	SHORT $L93624
	int	3
$L93624:

; 548  : 		SetLength( nNewLength );

	mov	eax, DWORD PTR _nNewLength$[ebp]
	push	eax
	mov	ecx, DWORD PTR _this$[ebp]
	call	?SetLength@?$CSimpleStringT@D$0A@@ATL@@AAEXH@Z ; ATL::CSimpleStringT<char,0>::SetLength

; 549  : 	}

	pop	edi
	pop	esi
	pop	ebx
	add	esp, 204				; 000000ccH
	cmp	ebp, esp
	call	__RTC_CheckEsp
	mov	esp, ebp
	pop	ebp
	ret	4
?ReleaseBufferSetLength@?$CSimpleStringT@D$0A@@ATL@@QAEXH@Z ENDP ; ATL::CSimpleStringT<char,0>::ReleaseBufferSetLength
_TEXT	ENDS
EXTRN	_strlen:NEAR
; Function compile flags: /Odt /RTCcsu /ZI
;	COMDAT ?StringLength@?$CSimpleStringT@D$0A@@ATL@@SAHPBD@Z
_TEXT	SEGMENT
_psz$ = 8						; size = 4
?StringLength@?$CSimpleStringT@D$0A@@ATL@@SAHPBD@Z PROC NEAR ; ATL::CSimpleStringT<char,0>::StringLength, COMDAT

; 677  : 	{

	push	ebp
	mov	ebp, esp
	sub	esp, 192				; 000000c0H
	push	ebx
	push	esi
	push	edi
	lea	edi, DWORD PTR [ebp-192]
	mov	ecx, 48					; 00000030H
	mov	eax, -858993460				; ccccccccH
	rep stosd

; 678  : 		if( psz == NULL )

	cmp	DWORD PTR _psz$[ebp], 0
	jne	SHORT $L92819

; 679  : 		{
; 680  : 			return( 0 );

	xor	eax, eax
	jmp	SHORT $L92818
$L92819:

; 681  : 		}
; 682  : 		return( int( strlen( psz ) ) );

	mov	eax, DWORD PTR _psz$[ebp]
	push	eax
	call	_strlen
	add	esp, 4
$L92818:

; 683  : 	}

	pop	edi
	pop	esi
	pop	ebx
	add	esp, 192				; 000000c0H
	cmp	ebp, esp
	call	__RTC_CheckEsp
	mov	esp, ebp
	pop	ebp
	ret	0
?StringLength@?$CSimpleStringT@D$0A@@ATL@@SAHPBD@Z ENDP	; ATL::CSimpleStringT<char,0>::StringLength
; Function compile flags: /Odt /RTCcsu /ZI
_TEXT	ENDS
;	COMDAT ?GetData@?$CSimpleStringT@D$0A@@ATL@@ABEPAUCStringData@2@XZ
_TEXT	SEGMENT
_this$ = -8						; size = 4
?GetData@?$CSimpleStringT@D$0A@@ATL@@ABEPAUCStringData@2@XZ PROC NEAR ; ATL::CSimpleStringT<char,0>::GetData, COMDAT
; _this$ = ecx

; 730  : 	{

	push	ebp
	mov	ebp, esp
	sub	esp, 204				; 000000ccH
	push	ebx
	push	esi
	push	edi
	push	ecx
	lea	edi, DWORD PTR [ebp-204]
	mov	ecx, 51					; 00000033H
	mov	eax, -858993460				; ccccccccH
	rep stosd
	pop	ecx
	mov	DWORD PTR _this$[ebp], ecx

; 731  : 		return( reinterpret_cast< CStringData* >( m_pszData )-1 );

	mov	eax, DWORD PTR _this$[ebp]
	mov	eax, DWORD PTR [eax]
	sub	eax, 16					; 00000010H

; 732  : 	}

	pop	edi
	pop	esi
	pop	ebx
	mov	esp, ebp
	pop	ebp
	ret	0
?GetData@?$CSimpleStringT@D$0A@@ATL@@ABEPAUCStringData@2@XZ ENDP ; ATL::CSimpleStringT<char,0>::GetData
_TEXT	ENDS
PUBLIC	?PrepareWrite2@?$CSimpleStringT@D$0A@@ATL@@AAEXH@Z ; ATL::CSimpleStringT<char,0>::PrepareWrite2
; Function compile flags: /Odt /RTCcsu /ZI
;	COMDAT ?PrepareWrite@?$CSimpleStringT@D$0A@@ATL@@AAEPADH@Z
_TEXT	SEGMENT
_nTooShort$ = -44					; size = 4
_nShared$ = -32						; size = 4
_pOldData$ = -20					; size = 4
_this$ = -8						; size = 4
_nLength$ = 8						; size = 4
?PrepareWrite@?$CSimpleStringT@D$0A@@ATL@@AAEPADH@Z PROC NEAR ; ATL::CSimpleStringT<char,0>::PrepareWrite, COMDAT
; _this$ = ecx

; 734  : 	{

	push	ebp
	mov	ebp, esp
	sub	esp, 240				; 000000f0H
	push	ebx
	push	esi
	push	edi
	push	ecx
	lea	edi, DWORD PTR [ebp-240]
	mov	ecx, 60					; 0000003cH
	mov	eax, -858993460				; ccccccccH
	rep stosd
	pop	ecx
	mov	DWORD PTR _this$[ebp], ecx

; 735  : 		CStringData* pOldData = GetData();

	mov	ecx, DWORD PTR _this$[ebp]
	call	?GetData@?$CSimpleStringT@D$0A@@ATL@@ABEPAUCStringData@2@XZ ; ATL::CSimpleStringT<char,0>::GetData
	mov	DWORD PTR _pOldData$[ebp], eax

; 736  : 		int nShared = 1-pOldData->nRefs;  // nShared < 0 means true, >= 0 means false

	mov	eax, DWORD PTR _pOldData$[ebp]
	mov	ecx, 1
	sub	ecx, DWORD PTR [eax+12]
	mov	DWORD PTR _nShared$[ebp], ecx

; 737  : 		int nTooShort = pOldData->nAllocLength-nLength;  // nTooShort < 0 means true, >= 0 means false

	mov	eax, DWORD PTR _pOldData$[ebp]
	mov	ecx, DWORD PTR [eax+8]
	sub	ecx, DWORD PTR _nLength$[ebp]
	mov	DWORD PTR _nTooShort$[ebp], ecx

; 738  : 		if( (nShared|nTooShort) < 0 )  // If either sign bit is set (i.e. either is less than zero), we need to copy data

	mov	eax, DWORD PTR _nShared$[ebp]
	or	eax, DWORD PTR _nTooShort$[ebp]
	jge	SHORT $L92828

; 739  : 		{
; 740  : 			PrepareWrite2( nLength );

	mov	eax, DWORD PTR _nLength$[ebp]
	push	eax
	mov	ecx, DWORD PTR _this$[ebp]
	call	?PrepareWrite2@?$CSimpleStringT@D$0A@@ATL@@AAEXH@Z ; ATL::CSimpleStringT<char,0>::PrepareWrite2
$L92828:

; 741  : 		}
; 742  : 
; 743  : 		return( m_pszData );

	mov	eax, DWORD PTR _this$[ebp]
	mov	eax, DWORD PTR [eax]

; 744  : 	}

	pop	edi
	pop	esi
	pop	ebx
	add	esp, 240				; 000000f0H
	cmp	ebp, esp
	call	__RTC_CheckEsp
	mov	esp, ebp
	pop	ebp
	ret	4
?PrepareWrite@?$CSimpleStringT@D$0A@@ATL@@AAEPADH@Z ENDP ; ATL::CSimpleStringT<char,0>::PrepareWrite
_TEXT	ENDS
PUBLIC	?AtlThrow@ATL@@YGXJ@Z				; ATL::AtlThrow
PUBLIC	??_C@_0N@ILOMLJGA@nLength?5?$DO?$DN?50?$AA@	; `string'
PUBLIC	??_C@_0CD@EEFFJEGJ@nLength?5?$DM?$DN?5GetData?$CI?$CJ?9?$DOnAllocLeng@ ; `string'
;	COMDAT ??_C@_0N@ILOMLJGA@nLength?5?$DO?$DN?50?$AA@
CONST	SEGMENT
??_C@_0N@ILOMLJGA@nLength?5?$DO?$DN?50?$AA@ DB 'nLength >= 0', 00H ; `string'
CONST	ENDS
;	COMDAT ??_C@_0CD@EEFFJEGJ@nLength?5?$DM?$DN?5GetData?$CI?$CJ?9?$DOnAllocLeng@
CONST	SEGMENT
??_C@_0CD@EEFFJEGJ@nLength?5?$DM?$DN?5GetData?$CI?$CJ?9?$DOnAllocLeng@ DB 'n'
	DB	'Length <= GetData()->nAllocLength', 00H	; `string'
; Function compile flags: /Odt /RTCcsu /ZI
CONST	ENDS
;	COMDAT ?SetLength@?$CSimpleStringT@D$0A@@ATL@@AAEXH@Z
_TEXT	SEGMENT
_this$ = -8						; size = 4
_nLength$ = 8						; size = 4
?SetLength@?$CSimpleStringT@D$0A@@ATL@@AAEXH@Z PROC NEAR ; ATL::CSimpleStringT<char,0>::SetLength, COMDAT
; _this$ = ecx

; 789  : 	{

	push	ebp
	mov	ebp, esp
	sub	esp, 204				; 000000ccH
	push	ebx
	push	esi
	push	edi
	push	ecx
	lea	edi, DWORD PTR [ebp-204]
	mov	ecx, 51					; 00000033H
	mov	eax, -858993460				; ccccccccH
	rep stosd
	pop	ecx
	mov	DWORD PTR _this$[ebp], ecx

; 790  : 		ATLASSERT( nLength >= 0 );

	cmp	DWORD PTR _nLength$[ebp], 0
	jge	SHORT $L93633
	push	OFFSET FLAT:??_C@_0N@ILOMLJGA@nLength?5?$DO?$DN?50?$AA@
	push	0
	push	790					; 00000316H
	push	OFFSET FLAT:??_C@_0FD@JDCNPMMG@c?3?2program?5files?2microsoft?5visua@
	push	2
	call	__CrtDbgReport
	add	esp, 20					; 00000014H
	cmp	eax, 1
	jne	SHORT $L93633
	int	3
$L93633:

; 791  : 		ATLASSERT( nLength <= GetData()->nAllocLength );

	mov	ecx, DWORD PTR _this$[ebp]
	call	?GetData@?$CSimpleStringT@D$0A@@ATL@@ABEPAUCStringData@2@XZ ; ATL::CSimpleStringT<char,0>::GetData
	mov	ecx, DWORD PTR _nLength$[ebp]
	cmp	ecx, DWORD PTR [eax+8]
	jle	SHORT $L93634
	push	OFFSET FLAT:??_C@_0CD@EEFFJEGJ@nLength?5?$DM?$DN?5GetData?$CI?$CJ?9?$DOnAllocLeng@
	push	0
	push	791					; 00000317H
	push	OFFSET FLAT:??_C@_0FD@JDCNPMMG@c?3?2program?5files?2microsoft?5visua@
	push	2
	call	__CrtDbgReport
	add	esp, 20					; 00000014H
	cmp	eax, 1
	jne	SHORT $L93634
	int	3
$L93634:

; 792  : 
; 793  : 		if( nLength < 0 || nLength > GetData()->nAllocLength)

	cmp	DWORD PTR _nLength$[ebp], 0
	jl	SHORT $L92836
	mov	ecx, DWORD PTR _this$[ebp]
	call	?GetData@?$CSimpleStringT@D$0A@@ATL@@ABEPAUCStringData@2@XZ ; ATL::CSimpleStringT<char,0>::GetData
	mov	ecx, DWORD PTR _nLength$[ebp]
	cmp	ecx, DWORD PTR [eax+8]
	jle	SHORT $L92835
$L92836:

; 794  : 			AtlThrow(E_INVALIDARG);

	push	-2147024809				; 80070057H
	call	?AtlThrow@ATL@@YGXJ@Z			; ATL::AtlThrow
$L92835:

; 795  : 			
; 796  : 		GetData()->nDataLength = nLength;

	mov	ecx, DWORD PTR _this$[ebp]
	call	?GetData@?$CSimpleStringT@D$0A@@ATL@@ABEPAUCStringData@2@XZ ; ATL::CSimpleStringT<char,0>::GetData
	mov	ecx, DWORD PTR _nLength$[ebp]
	mov	DWORD PTR [eax+4], ecx

; 797  : 		m_pszData[nLength] = 0;

	mov	eax, DWORD PTR _this$[ebp]
	mov	ecx, DWORD PTR [eax]
	mov	edx, DWORD PTR _nLength$[ebp]
	mov	BYTE PTR [ecx+edx], 0
$L93632:

; 798  : 	}

	pop	edi
	pop	esi
	pop	ebx
	add	esp, 204				; 000000ccH
	cmp	ebp, esp
	call	__RTC_CheckEsp
	mov	esp, ebp
	pop	ebp
	ret	4
?SetLength@?$CSimpleStringT@D$0A@@ATL@@AAEXH@Z ENDP	; ATL::CSimpleStringT<char,0>::SetLength
_TEXT	ENDS
PUBLIC	?__LINE__Var@?1??AtlThrow@ATL@@YGXJ@Z@4JA	; `ATL::AtlThrow'::`2'::__LINE__Var
PUBLIC	??_C@_0FC@IPKABFFL@c?3?2program?5files?2microsoft?5visua@ ; `string'
PUBLIC	??_C@_0BF@IAAKIJDJ@AtlThrow?3?5hr?5?$DN?50x?$CFx?6?$AA@ ; `string'
PUBLIC	??BCTraceCategory@ATL@@QBEKXZ			; ATL::CTraceCategory::operator unsigned long
PUBLIC	??0CTraceFileAndLineInfo@ATL@@QAE@PBDH@Z	; ATL::CTraceFileAndLineInfo::CTraceFileAndLineInfo
PUBLIC	??RCTraceFileAndLineInfo@ATL@@QBAXKIPBDZZ	; ATL::CTraceFileAndLineInfo::operator()
EXTRN	?AfxThrowMemoryException@@YGXXZ:NEAR		; AfxThrowMemoryException
EXTRN	?AfxThrowOleException@@YGXJ@Z:NEAR		; AfxThrowOleException
EXTRN	?atlTraceException@ATL@@3VCTraceCategory@1@A:DWORD ; ATL::atlTraceException
;	COMDAT ??_C@_0BF@IAAKIJDJ@AtlThrow?3?5hr?5?$DN?50x?$CFx?6?$AA@
; File c:\program files\microsoft visual studio .net 2003\vc7\atlmfc\include\atlexcept.h
CONST	SEGMENT
??_C@_0BF@IAAKIJDJ@AtlThrow?3?5hr?5?$DN?50x?$CFx?6?$AA@ DB 'AtlThrow: hr '
	DB	'= 0x%x', 0aH, 00H				; `string'
CONST	ENDS
;	COMDAT ?__LINE__Var@?1??AtlThrow@ATL@@YGXJ@Z@4JA
_DATA	SEGMENT
?__LINE__Var@?1??AtlThrow@ATL@@YGXJ@Z@4JA DD 03dH	; `ATL::AtlThrow'::`2'::__LINE__Var
_DATA	ENDS
;	COMDAT ??_C@_0FC@IPKABFFL@c?3?2program?5files?2microsoft?5visua@
CONST	SEGMENT
??_C@_0FC@IPKABFFL@c?3?2program?5files?2microsoft?5visua@ DB 'c:\program '
	DB	'files\microsoft visual studio .net 2003\vc7\atlmfc\include\at'
	DB	'lexcept.h', 00H				; `string'
; Function compile flags: /Odt /RTCcsu /ZI
CONST	ENDS
;	COMDAT ?AtlThrow@ATL@@YGXJ@Z
_TEXT	SEGMENT
$T93637 = -204						; size = 8
_hr$ = 8						; size = 4
?AtlThrow@ATL@@YGXJ@Z PROC NEAR				; ATL::AtlThrow, COMDAT

; 61   : {

	push	ebp
	mov	ebp, esp
	sub	esp, 208				; 000000d0H
	push	ebx
	push	esi
	push	edi
	lea	edi, DWORD PTR [ebp-208]
	mov	ecx, 52					; 00000034H
	mov	eax, -858993460				; ccccccccH
	rep stosd

; 62   : 	ATLTRACE(atlTraceException, 0, _T("AtlThrow: hr = 0x%x\n"), hr );

	mov	eax, DWORD PTR _hr$[ebp]
	push	eax
	push	OFFSET FLAT:??_C@_0BF@IAAKIJDJ@AtlThrow?3?5hr?5?$DN?50x?$CFx?6?$AA@
	push	0
	mov	ecx, OFFSET FLAT:?atlTraceException@ATL@@3VCTraceCategory@1@A ; ATL::atlTraceException
	call	??BCTraceCategory@ATL@@QBEKXZ		; ATL::CTraceCategory::operator unsigned long
	push	eax
	mov	ecx, DWORD PTR ?__LINE__Var@?1??AtlThrow@ATL@@YGXJ@Z@4JA
	add	ecx, 1
	push	ecx
	push	OFFSET FLAT:??_C@_0FC@IPKABFFL@c?3?2program?5files?2microsoft?5visua@
	lea	ecx, DWORD PTR $T93637[ebp]
	call	??0CTraceFileAndLineInfo@ATL@@QAE@PBDH@Z ; ATL::CTraceFileAndLineInfo::CTraceFileAndLineInfo
	push	eax
	call	??RCTraceFileAndLineInfo@ATL@@QBAXKIPBDZZ ; ATL::CTraceFileAndLineInfo::operator()
	add	esp, 20					; 00000014H

; 63   : #ifdef _AFX
; 64   : 	if( hr == E_OUTOFMEMORY )

	cmp	DWORD PTR _hr$[ebp], -2147024882	; 8007000eH
	jne	SHORT $L24989

; 65   : 	{
; 66   : 		AfxThrowMemoryException();

	call	?AfxThrowMemoryException@@YGXXZ		; AfxThrowMemoryException
$L24989:

; 67   : 	}
; 68   : 	else
; 69   : 	{
; 70   : 		AfxThrowOleException( hr );

	mov	eax, DWORD PTR _hr$[ebp]
	push	eax
	call	?AfxThrowOleException@@YGXJ@Z		; AfxThrowOleException
$L93636:

; 71   : 	}
; 72   : #else
; 73   : 	throw CAtlException( hr );
; 74   : #endif
; 75   : };

	pop	edi
	pop	esi
	pop	ebx
	add	esp, 208				; 000000d0H
	cmp	ebp, esp
	call	__RTC_CheckEsp
	mov	esp, ebp
	pop	ebp
	ret	4
?AtlThrow@ATL@@YGXJ@Z ENDP				; ATL::AtlThrow
; Function compile flags: /Odt /RTCcsu /ZI
; File c:\program files\microsoft visual studio .net 2003\vc7\atlmfc\include\atltrace.h
_TEXT	ENDS
;	COMDAT ??0CTraceFileAndLineInfo@ATL@@QAE@PBDH@Z
_TEXT	SEGMENT
_this$ = -8						; size = 4
_pszFileName$ = 8					; size = 4
_nLineNo$ = 12						; size = 4
??0CTraceFileAndLineInfo@ATL@@QAE@PBDH@Z PROC NEAR	; ATL::CTraceFileAndLineInfo::CTraceFileAndLineInfo, COMDAT
; _this$ = ecx

; 158  : 	{}

	push	ebp
	mov	ebp, esp
	sub	esp, 204				; 000000ccH
	push	ebx
	push	esi
	push	edi
	push	ecx
	lea	edi, DWORD PTR [ebp-204]
	mov	ecx, 51					; 00000033H
	mov	eax, -858993460				; ccccccccH
	rep stosd
	pop	ecx
	mov	DWORD PTR _this$[ebp], ecx
	mov	eax, DWORD PTR _this$[ebp]
	mov	ecx, DWORD PTR _pszFileName$[ebp]
	mov	DWORD PTR [eax], ecx
	mov	eax, DWORD PTR _this$[ebp]
	mov	ecx, DWORD PTR _nLineNo$[ebp]
	mov	DWORD PTR [eax+4], ecx
	mov	eax, DWORD PTR _this$[ebp]
	pop	edi
	pop	esi
	pop	ebx
	mov	esp, ebp
	pop	ebp
	ret	8
??0CTraceFileAndLineInfo@ATL@@QAE@PBDH@Z ENDP		; ATL::CTraceFileAndLineInfo::CTraceFileAndLineInfo
_TEXT	ENDS
PUBLIC	?TraceV@CTrace@ATL@@QBAXPBDHKI0PAD@Z		; ATL::CTrace::TraceV
EXTRN	?s_trace@CTrace@ATL@@2V12@A:QWORD		; ATL::CTrace::s_trace
; Function compile flags: /Odt /RTCcsu /ZI
;	COMDAT ??RCTraceFileAndLineInfo@ATL@@QBAXKIPBDZZ
_TEXT	SEGMENT
_ptr$ = -8						; size = 4
_this$ = 8						; size = 4
_dwCategory$ = 12					; size = 4
_nLevel$ = 16						; size = 4
_pszFmt$ = 20						; size = 4
??RCTraceFileAndLineInfo@ATL@@QBAXKIPBDZZ PROC NEAR	; ATL::CTraceFileAndLineInfo::operator(), COMDAT

; 161  : 	{

	push	ebp
	mov	ebp, esp
	sub	esp, 204				; 000000ccH
	push	ebx
	push	esi
	push	edi
	lea	edi, DWORD PTR [ebp-204]
	mov	ecx, 51					; 00000033H
	mov	eax, -858993460				; ccccccccH
	rep stosd

; 162  : 		va_list ptr; va_start(ptr, pszFmt);

	lea	eax, DWORD PTR _pszFmt$[ebp+4]
	mov	DWORD PTR _ptr$[ebp], eax

; 163  : 		ATL::CTrace::s_trace.TraceV(m_pszFileName, m_nLineNo, dwCategory, nLevel, pszFmt, ptr);

	mov	eax, DWORD PTR _ptr$[ebp]
	push	eax
	mov	ecx, DWORD PTR _pszFmt$[ebp]
	push	ecx
	mov	edx, DWORD PTR _nLevel$[ebp]
	push	edx
	mov	eax, DWORD PTR _dwCategory$[ebp]
	push	eax
	mov	ecx, DWORD PTR _this$[ebp]
	mov	edx, DWORD PTR [ecx+4]
	push	edx
	mov	eax, DWORD PTR _this$[ebp]
	mov	ecx, DWORD PTR [eax]
	push	ecx
	push	OFFSET FLAT:?s_trace@CTrace@ATL@@2V12@A
	call	?TraceV@CTrace@ATL@@QBAXPBDHKI0PAD@Z	; ATL::CTrace::TraceV
	add	esp, 28					; 0000001cH

; 164  : 		va_end(ptr);

	mov	DWORD PTR _ptr$[ebp], 0

; 165  : 	}

	pop	edi
	pop	esi
	pop	ebx
	add	esp, 204				; 000000ccH
	cmp	ebp, esp
	call	__RTC_CheckEsp
	mov	esp, ebp
	pop	ebp
	ret	0
??RCTraceFileAndLineInfo@ATL@@QBAXKIPBDZZ ENDP		; ATL::CTraceFileAndLineInfo::operator()
_TEXT	ENDS
EXTRN	_AtlTraceVA:NEAR
; Function compile flags: /Odt /RTCcsu /ZI
;	COMDAT ?TraceV@CTrace@ATL@@QBAXPBDHKI0PAD@Z
_TEXT	SEGMENT
_this$ = 8						; size = 4
_pszFileName$ = 12					; size = 4
_nLine$ = 16						; size = 4
_dwCategory$ = 20					; size = 4
_nLevel$ = 24						; size = 4
_pszFmt$ = 28						; size = 4
_args$ = 32						; size = 4
?TraceV@CTrace@ATL@@QBAXPBDHKI0PAD@Z PROC NEAR		; ATL::CTrace::TraceV, COMDAT

; 121  : 	{

	push	ebp
	mov	ebp, esp
	sub	esp, 192				; 000000c0H
	push	ebx
	push	esi
	push	edi
	lea	edi, DWORD PTR [ebp-192]
	mov	ecx, 48					; 00000030H
	mov	eax, -858993460				; ccccccccH
	rep stosd

; 122  : 		AtlTraceVA(m_dwModule, pszFileName, nLine, dwCategory, nLevel, pszFmt, args);

	mov	eax, DWORD PTR _args$[ebp]
	push	eax
	mov	ecx, DWORD PTR _pszFmt$[ebp]
	push	ecx
	mov	edx, DWORD PTR _nLevel$[ebp]
	push	edx
	mov	eax, DWORD PTR _dwCategory$[ebp]
	push	eax
	mov	ecx, DWORD PTR _nLine$[ebp]
	push	ecx
	mov	edx, DWORD PTR _pszFileName$[ebp]
	push	edx
	mov	eax, DWORD PTR _this$[ebp]
	mov	ecx, DWORD PTR [eax+4]
	push	ecx
	call	_AtlTraceVA
	add	esp, 28					; 0000001cH

; 123  : 	}

	pop	edi
	pop	esi
	pop	ebx
	add	esp, 192				; 000000c0H
	cmp	ebp, esp
	call	__RTC_CheckEsp
	mov	esp, ebp
	pop	ebp
	ret	0
?TraceV@CTrace@ATL@@QBAXPBDHKI0PAD@Z ENDP		; ATL::CTrace::TraceV
; Function compile flags: /Odt /RTCcsu /ZI
_TEXT	ENDS
;	COMDAT ??BCTraceCategory@ATL@@QBEKXZ
_TEXT	SEGMENT
_this$ = -8						; size = 4
??BCTraceCategory@ATL@@QBEKXZ PROC NEAR			; ATL::CTraceCategory::operator unsigned long, COMDAT
; _this$ = ecx

; 202  : {

	push	ebp
	mov	ebp, esp
	sub	esp, 204				; 000000ccH
	push	ebx
	push	esi
	push	edi
	push	ecx
	lea	edi, DWORD PTR [ebp-204]
	mov	ecx, 51					; 00000033H
	mov	eax, -858993460				; ccccccccH
	rep stosd
	pop	ecx
	mov	DWORD PTR _this$[ebp], ecx

; 203  : 	return( m_dwCategory );

	mov	eax, DWORD PTR _this$[ebp]
	mov	eax, DWORD PTR [eax]

; 204  : }

	pop	edi
	pop	esi
	pop	ebx
	mov	esp, ebp
	pop	ebp
	ret	0
??BCTraceCategory@ATL@@QBEKXZ ENDP			; ATL::CTraceCategory::operator unsigned long
_TEXT	ENDS
EXTRN	?AfxGetStringManager@@YGPAUIAtlStringMgr@ATL@@XZ:NEAR ; AfxGetStringManager
; Function compile flags: /Odt /RTCcsu /ZI
; File c:\program files\microsoft visual studio .net 2003\vc7\atlmfc\include\afxstr.h
;	COMDAT ?GetDefaultManager@?$StrTraitMFC@DV?$ChTraitsCRT@D@ATL@@@@SAPAUIAtlStringMgr@ATL@@XZ
_TEXT	SEGMENT
?GetDefaultManager@?$StrTraitMFC@DV?$ChTraitsCRT@D@ATL@@@@SAPAUIAtlStringMgr@ATL@@XZ PROC NEAR ; StrTraitMFC<char,ATL::ChTraitsCRT<char> >::GetDefaultManager, COMDAT

; 49   : 	{

	push	ebp
	mov	ebp, esp
	sub	esp, 192				; 000000c0H
	push	ebx
	push	esi
	push	edi
	lea	edi, DWORD PTR [ebp-192]
	mov	ecx, 48					; 00000030H
	mov	eax, -858993460				; ccccccccH
	rep stosd

; 50   : 		return( AfxGetStringManager() );

	call	?AfxGetStringManager@@YGPAUIAtlStringMgr@ATL@@XZ ; AfxGetStringManager

; 51   : 	}

	pop	edi
	pop	esi
	pop	ebx
	add	esp, 192				; 000000c0H
	cmp	ebp, esp
	call	__RTC_CheckEsp
	mov	esp, ebp
	pop	ebp
	ret	0
?GetDefaultManager@?$StrTraitMFC@DV?$ChTraitsCRT@D@ATL@@@@SAPAUIAtlStringMgr@ATL@@XZ ENDP ; StrTraitMFC<char,ATL::ChTraitsCRT<char> >::GetDefaultManager
_TEXT	ENDS
PUBLIC	?data@CStringData@ATL@@QAEPAXXZ			; ATL::CStringData::data
; Function compile flags: /Odt /RTCcsu /ZI
; File c:\program files\microsoft visual studio .net 2003\vc7\atlmfc\include\atlsimpstr.h
;	COMDAT ?Attach@?$CSimpleStringT@D$0A@@ATL@@AAEXPAUCStringData@2@@Z
_TEXT	SEGMENT
_this$ = -8						; size = 4
_pData$ = 8						; size = 4
?Attach@?$CSimpleStringT@D$0A@@ATL@@AAEXPAUCStringData@2@@Z PROC NEAR ; ATL::CSimpleStringT<char,0>::Attach, COMDAT
; _this$ = ecx

; 711  : 	{

	push	ebp
	mov	ebp, esp
	sub	esp, 204				; 000000ccH
	push	ebx
	push	esi
	push	edi
	push	ecx
	lea	edi, DWORD PTR [ebp-204]
	mov	ecx, 51					; 00000033H
	mov	eax, -858993460				; ccccccccH
	rep stosd
	pop	ecx
	mov	DWORD PTR _this$[ebp], ecx

; 712  : 		m_pszData = static_cast< PXSTR >( pData->data() );

	mov	ecx, DWORD PTR _pData$[ebp]
	call	?data@CStringData@ATL@@QAEPAXXZ		; ATL::CStringData::data
	mov	ecx, DWORD PTR _this$[ebp]
	mov	DWORD PTR [ecx], eax

; 713  : 	}

	pop	edi
	pop	esi
	pop	ebx
	add	esp, 204				; 000000ccH
	cmp	ebp, esp
	call	__RTC_CheckEsp
	mov	esp, ebp
	pop	ebp
	ret	4
?Attach@?$CSimpleStringT@D$0A@@ATL@@AAEXPAUCStringData@2@@Z ENDP ; ATL::CSimpleStringT<char,0>::Attach
; Function compile flags: /Odt /RTCcsu /ZI
_TEXT	ENDS
;	COMDAT ?data@CStringData@ATL@@QAEPAXXZ
_TEXT	SEGMENT
_this$ = -8						; size = 4
?data@CStringData@ATL@@QAEPAXXZ PROC NEAR		; ATL::CStringData::data, COMDAT
; _this$ = ecx

; 65   : 	{

	push	ebp
	mov	ebp, esp
	sub	esp, 204				; 000000ccH
	push	ebx
	push	esi
	push	edi
	push	ecx
	lea	edi, DWORD PTR [ebp-204]
	mov	ecx, 51					; 00000033H
	mov	eax, -858993460				; ccccccccH
	rep stosd
	pop	ecx
	mov	DWORD PTR _this$[ebp], ecx

; 66   : 		return (this+1);

	mov	eax, DWORD PTR _this$[ebp]
	add	eax, 16					; 00000010H

; 67   : 	}

	pop	edi
	pop	esi
	pop	ebx
	mov	esp, ebp
	pop	ebp
	ret	0
?data@CStringData@ATL@@QAEPAXXZ ENDP			; ATL::CStringData::data
_TEXT	ENDS
PUBLIC	?IsShared@CStringData@ATL@@QBE_NXZ		; ATL::CStringData::IsShared
PUBLIC	?Fork@?$CSimpleStringT@D$0A@@ATL@@AAEXH@Z	; ATL::CSimpleStringT<char,0>::Fork
PUBLIC	?Reallocate@?$CSimpleStringT@D$0A@@ATL@@AAEXH@Z	; ATL::CSimpleStringT<char,0>::Reallocate
; Function compile flags: /Odt /RTCcsu /ZI
;	COMDAT ?PrepareWrite2@?$CSimpleStringT@D$0A@@ATL@@AAEXH@Z
_TEXT	SEGMENT
_nNewLength$92884 = -32					; size = 4
_pOldData$ = -20					; size = 4
_this$ = -8						; size = 4
_nLength$ = 8						; size = 4
?PrepareWrite2@?$CSimpleStringT@D$0A@@ATL@@AAEXH@Z PROC NEAR ; ATL::CSimpleStringT<char,0>::PrepareWrite2, COMDAT
; _this$ = ecx

; 746  : 	{

	push	ebp
	mov	ebp, esp
	sub	esp, 228				; 000000e4H
	push	ebx
	push	esi
	push	edi
	push	ecx
	lea	edi, DWORD PTR [ebp-228]
	mov	ecx, 57					; 00000039H
	mov	eax, -858993460				; ccccccccH
	rep stosd
	pop	ecx
	mov	DWORD PTR _this$[ebp], ecx

; 747  : 		CStringData* pOldData = GetData();

	mov	ecx, DWORD PTR _this$[ebp]
	call	?GetData@?$CSimpleStringT@D$0A@@ATL@@ABEPAUCStringData@2@XZ ; ATL::CSimpleStringT<char,0>::GetData
	mov	DWORD PTR _pOldData$[ebp], eax

; 748  : 		if( pOldData->nDataLength > nLength )

	mov	eax, DWORD PTR _pOldData$[ebp]
	mov	ecx, DWORD PTR [eax+4]
	cmp	ecx, DWORD PTR _nLength$[ebp]
	jle	SHORT $L92880

; 749  : 		{
; 750  : 			nLength = pOldData->nDataLength;

	mov	eax, DWORD PTR _pOldData$[ebp]
	mov	ecx, DWORD PTR [eax+4]
	mov	DWORD PTR _nLength$[ebp], ecx
$L92880:

; 751  : 		}
; 752  : 		if( pOldData->IsShared() )

	mov	ecx, DWORD PTR _pOldData$[ebp]
	call	?IsShared@CStringData@ATL@@QBE_NXZ	; ATL::CStringData::IsShared
	movzx	eax, al
	test	eax, eax
	je	SHORT $L92881

; 753  : 		{
; 754  : 			Fork( nLength );

	mov	eax, DWORD PTR _nLength$[ebp]
	push	eax
	mov	ecx, DWORD PTR _this$[ebp]
	call	?Fork@?$CSimpleStringT@D$0A@@ATL@@AAEXH@Z ; ATL::CSimpleStringT<char,0>::Fork

; 755  : 		}
; 756  : 		else if( pOldData->nAllocLength < nLength )

	jmp	SHORT $L92878
$L92881:
	mov	eax, DWORD PTR _pOldData$[ebp]
	mov	ecx, DWORD PTR [eax+8]
	cmp	ecx, DWORD PTR _nLength$[ebp]
	jge	SHORT $L92878

; 757  : 		{
; 758  : 			// Grow exponentially, until we hit 1K.
; 759  : 			int nNewLength = pOldData->nAllocLength;

	mov	eax, DWORD PTR _pOldData$[ebp]
	mov	ecx, DWORD PTR [eax+8]
	mov	DWORD PTR _nNewLength$92884[ebp], ecx

; 760  : 			if( nNewLength > 1024 )

	cmp	DWORD PTR _nNewLength$92884[ebp], 1024	; 00000400H
	jle	SHORT $L92885

; 761  : 			{
; 762  : 				nNewLength += 1024;

	mov	eax, DWORD PTR _nNewLength$92884[ebp]
	add	eax, 1024				; 00000400H
	mov	DWORD PTR _nNewLength$92884[ebp], eax

; 763  : 			}
; 764  : 			else

	jmp	SHORT $L92886
$L92885:

; 765  : 			{
; 766  : 				nNewLength *= 2;

	mov	eax, DWORD PTR _nNewLength$92884[ebp]
	shl	eax, 1
	mov	DWORD PTR _nNewLength$92884[ebp], eax
$L92886:

; 767  : 			}
; 768  : 			if( nNewLength < nLength )

	mov	eax, DWORD PTR _nNewLength$92884[ebp]
	cmp	eax, DWORD PTR _nLength$[ebp]
	jge	SHORT $L92887

; 769  : 			{
; 770  : 				nNewLength = nLength;

	mov	eax, DWORD PTR _nLength$[ebp]
	mov	DWORD PTR _nNewLength$92884[ebp], eax
$L92887:

; 771  : 			}
; 772  : 			Reallocate( nNewLength );

	mov	eax, DWORD PTR _nNewLength$92884[ebp]
	push	eax
	mov	ecx, DWORD PTR _this$[ebp]
	call	?Reallocate@?$CSimpleStringT@D$0A@@ATL@@AAEXH@Z ; ATL::CSimpleStringT<char,0>::Reallocate
$L92878:

; 773  : 		}
; 774  : 	}

	pop	edi
	pop	esi
	pop	ebx
	add	esp, 228				; 000000e4H
	cmp	ebp, esp
	call	__RTC_CheckEsp
	mov	esp, ebp
	pop	ebp
	ret	4
?PrepareWrite2@?$CSimpleStringT@D$0A@@ATL@@AAEXH@Z ENDP	; ATL::CSimpleStringT<char,0>::PrepareWrite2
; Function compile flags: /Odt /RTCcsu /ZI
_TEXT	ENDS
;	COMDAT ?IsShared@CStringData@ATL@@QBE_NXZ
_TEXT	SEGMENT
_this$ = -8						; size = 4
?IsShared@CStringData@ATL@@QBE_NXZ PROC NEAR		; ATL::CStringData::IsShared, COMDAT
; _this$ = ecx

; 79   : 	{

	push	ebp
	mov	ebp, esp
	sub	esp, 204				; 000000ccH
	push	ebx
	push	esi
	push	edi
	push	ecx
	lea	edi, DWORD PTR [ebp-204]
	mov	ecx, 51					; 00000033H
	mov	eax, -858993460				; ccccccccH
	rep stosd
	pop	ecx
	mov	DWORD PTR _this$[ebp], ecx

; 80   : 		return( nRefs > 1 ); 

	mov	eax, DWORD PTR _this$[ebp]
	xor	ecx, ecx
	cmp	DWORD PTR [eax+12], 1
	setg	cl
	call	@_RTC_Check_4_to_1@4

; 81   : 	}

	pop	edi
	pop	esi
	pop	ebx
	add	esp, 204				; 000000ccH
	cmp	ebp, esp
	call	__RTC_CheckEsp
	mov	esp, ebp
	pop	ebp
	ret	0
?IsShared@CStringData@ATL@@QBE_NXZ ENDP			; ATL::CStringData::IsShared
_TEXT	ENDS
PUBLIC	?AddRef@CStringData@ATL@@QAEXXZ			; ATL::CStringData::AddRef
PUBLIC	?ThrowMemoryException@?$CSimpleStringT@D$0A@@ATL@@KAXXZ ; ATL::CSimpleStringT<char,0>::ThrowMemoryException
; Function compile flags: /Odt /RTCcsu /ZI
;	COMDAT ?CloneData@?$CSimpleStringT@D$0A@@ATL@@CAPAUCStringData@2@PAU32@@Z
_TEXT	SEGMENT
_pNewStringMgr$ = -20					; size = 4
_pNewData$ = -8						; size = 4
_pData$ = 8						; size = 4
?CloneData@?$CSimpleStringT@D$0A@@ATL@@CAPAUCStringData@2@PAU32@@Z PROC NEAR ; ATL::CSimpleStringT<char,0>::CloneData, COMDAT

; 801  : 	{

	push	ebp
	mov	ebp, esp
	sub	esp, 216				; 000000d8H
	push	ebx
	push	esi
	push	edi
	lea	edi, DWORD PTR [ebp-216]
	mov	ecx, 54					; 00000036H
	mov	eax, -858993460				; ccccccccH
	rep stosd

; 802  : 		CStringData* pNewData = NULL;

	mov	DWORD PTR _pNewData$[ebp], 0

; 803  : 
; 804  : 		IAtlStringMgr* pNewStringMgr = pData->pStringMgr->Clone();

	mov	eax, DWORD PTR _pData$[ebp]
	mov	ecx, DWORD PTR [eax]
	mov	edx, DWORD PTR _pData$[ebp]
	mov	eax, DWORD PTR [edx]
	mov	edx, DWORD PTR [ecx]
	mov	esi, esp
	mov	ecx, eax
	call	DWORD PTR [edx+16]
	cmp	esi, esp
	call	__RTC_CheckEsp
	mov	DWORD PTR _pNewStringMgr$[ebp], eax

; 805  : 		if( !pData->IsLocked() && (pNewStringMgr == pData->pStringMgr) )

	mov	ecx, DWORD PTR _pData$[ebp]
	call	?IsLocked@CStringData@ATL@@QBE_NXZ	; ATL::CStringData::IsLocked
	movzx	eax, al
	test	eax, eax
	jne	SHORT $L92891
	mov	eax, DWORD PTR _pData$[ebp]
	mov	ecx, DWORD PTR _pNewStringMgr$[ebp]
	cmp	ecx, DWORD PTR [eax]
	jne	SHORT $L92891

; 806  : 		{
; 807  : 			pNewData = pData;

	mov	eax, DWORD PTR _pData$[ebp]
	mov	DWORD PTR _pNewData$[ebp], eax

; 808  : 			pNewData->AddRef();

	mov	ecx, DWORD PTR _pNewData$[ebp]
	call	?AddRef@CStringData@ATL@@QAEXXZ		; ATL::CStringData::AddRef

; 809  : 		}
; 810  : 		else

	jmp	SHORT $L92892
$L92891:

; 811  : 		{
; 812  : 			pNewData = pNewStringMgr->Allocate( pData->nDataLength, sizeof( XCHAR ) );

	mov	esi, esp
	push	1
	mov	eax, DWORD PTR _pData$[ebp]
	mov	ecx, DWORD PTR [eax+4]
	push	ecx
	mov	edx, DWORD PTR _pNewStringMgr$[ebp]
	mov	eax, DWORD PTR [edx]
	mov	ecx, DWORD PTR _pNewStringMgr$[ebp]
	call	DWORD PTR [eax]
	cmp	esi, esp
	call	__RTC_CheckEsp
	mov	DWORD PTR _pNewData$[ebp], eax

; 813  : 			if( pNewData == NULL )

	cmp	DWORD PTR _pNewData$[ebp], 0
	jne	SHORT $L92894

; 814  : 			{
; 815  : 				ThrowMemoryException();

	call	?ThrowMemoryException@?$CSimpleStringT@D$0A@@ATL@@KAXXZ ; ATL::CSimpleStringT<char,0>::ThrowMemoryException
$L92894:

; 816  : 			}
; 817  : 			pNewData->nDataLength = pData->nDataLength;

	mov	eax, DWORD PTR _pNewData$[ebp]
	mov	ecx, DWORD PTR _pData$[ebp]
	mov	edx, DWORD PTR [ecx+4]
	mov	DWORD PTR [eax+4], edx

; 818  : 			CopyChars( PXSTR( pNewData->data() ), PCXSTR( pData->data() ), pData->nDataLength+1 );  // Copy '\0'

	mov	eax, DWORD PTR _pData$[ebp]
	mov	ecx, DWORD PTR [eax+4]
	add	ecx, 1
	push	ecx
	mov	ecx, DWORD PTR _pData$[ebp]
	call	?data@CStringData@ATL@@QAEPAXXZ		; ATL::CStringData::data
	push	eax
	mov	ecx, DWORD PTR _pNewData$[ebp]
	call	?data@CStringData@ATL@@QAEPAXXZ		; ATL::CStringData::data
	push	eax
	call	?CopyChars@?$CSimpleStringT@D$0A@@ATL@@SAXPADPBDH@Z ; ATL::CSimpleStringT<char,0>::CopyChars
	add	esp, 12					; 0000000cH
$L92892:

; 819  : 		}
; 820  : 
; 821  : 		return( pNewData );

	mov	eax, DWORD PTR _pNewData$[ebp]
$L93657:

; 822  : 	}

	pop	edi
	pop	esi
	pop	ebx
	add	esp, 216				; 000000d8H
	cmp	ebp, esp
	call	__RTC_CheckEsp
	mov	esp, ebp
	pop	ebp
	ret	0
?CloneData@?$CSimpleStringT@D$0A@@ATL@@CAPAUCStringData@2@PAU32@@Z ENDP ; ATL::CSimpleStringT<char,0>::CloneData
_TEXT	ENDS
PUBLIC	??_C@_09EEBKLCFA@nRefs?5?$DO?50?$AA@		; `string'
;	COMDAT ??_C@_09EEBKLCFA@nRefs?5?$DO?50?$AA@
CONST	SEGMENT
??_C@_09EEBKLCFA@nRefs?5?$DO?50?$AA@ DB 'nRefs > 0', 00H ; `string'
; Function compile flags: /Odt /RTCcsu /ZI
CONST	ENDS
;	COMDAT ?AddRef@CStringData@ATL@@QAEXXZ
_TEXT	SEGMENT
_this$ = -8						; size = 4
?AddRef@CStringData@ATL@@QAEXXZ PROC NEAR		; ATL::CStringData::AddRef, COMDAT
; _this$ = ecx

; 70   : 	{

	push	ebp
	mov	ebp, esp
	sub	esp, 204				; 000000ccH
	push	ebx
	push	esi
	push	edi
	push	ecx
	lea	edi, DWORD PTR [ebp-204]
	mov	ecx, 51					; 00000033H
	mov	eax, -858993460				; ccccccccH
	rep stosd
	pop	ecx
	mov	DWORD PTR _this$[ebp], ecx

; 71   : 		ATLASSERT(nRefs > 0);

	mov	eax, DWORD PTR _this$[ebp]
	cmp	DWORD PTR [eax+12], 0
	jg	SHORT $L93660
	push	OFFSET FLAT:??_C@_09EEBKLCFA@nRefs?5?$DO?50?$AA@
	push	0
	push	71					; 00000047H
	push	OFFSET FLAT:??_C@_0FD@JDCNPMMG@c?3?2program?5files?2microsoft?5visua@
	push	2
	call	__CrtDbgReport
	add	esp, 20					; 00000014H
	cmp	eax, 1
	jne	SHORT $L93660
	int	3
$L93660:

; 72   : 		_InterlockedIncrement(&nRefs);

	mov	eax, DWORD PTR _this$[ebp]
	add	eax, 12					; 0000000cH
	mov	ecx, 1
	lock	 xadd	 DWORD PTR [eax], ecx

; 73   : 	}

	pop	edi
	pop	esi
	pop	ebx
	add	esp, 204				; 000000ccH
	cmp	ebp, esp
	call	__RTC_CheckEsp
	mov	esp, ebp
	pop	ebp
	ret	0
?AddRef@CStringData@ATL@@QAEXXZ ENDP			; ATL::CStringData::AddRef
_TEXT	ENDS
EXTRN	_memcpy:NEAR
; Function compile flags: /Odt /RTCcsu /ZI
;	COMDAT ?CopyChars@?$CSimpleStringT@D$0A@@ATL@@SAXPADPBDH@Z
_TEXT	SEGMENT
_pchDest$ = 8						; size = 4
_pchSrc$ = 12						; size = 4
_nChars$ = 16						; size = 4
?CopyChars@?$CSimpleStringT@D$0A@@ATL@@SAXPADPBDH@Z PROC NEAR ; ATL::CSimpleStringT<char,0>::CopyChars, COMDAT

; 652  : 	{

	push	ebp
	mov	ebp, esp
	sub	esp, 192				; 000000c0H
	push	ebx
	push	esi
	push	edi
	lea	edi, DWORD PTR [ebp-192]
	mov	ecx, 48					; 00000030H
	mov	eax, -858993460				; ccccccccH
	rep stosd

; 653  : 		memcpy( pchDest, pchSrc, nChars*sizeof( XCHAR ) );

	mov	eax, DWORD PTR _nChars$[ebp]
	push	eax
	mov	ecx, DWORD PTR _pchSrc$[ebp]
	push	ecx
	mov	edx, DWORD PTR _pchDest$[ebp]
	push	edx
	call	_memcpy
	add	esp, 12					; 0000000cH

; 654  : 	}

	pop	edi
	pop	esi
	pop	ebx
	add	esp, 192				; 000000c0H
	cmp	ebp, esp
	call	__RTC_CheckEsp
	mov	esp, ebp
	pop	ebp
	ret	0
?CopyChars@?$CSimpleStringT@D$0A@@ATL@@SAXPADPBDH@Z ENDP ; ATL::CSimpleStringT<char,0>::CopyChars
; Function compile flags: /Odt /RTCcsu /ZI
_TEXT	ENDS
;	COMDAT ?ThrowMemoryException@?$CSimpleStringT@D$0A@@ATL@@KAXXZ
_TEXT	SEGMENT
?ThrowMemoryException@?$CSimpleStringT@D$0A@@ATL@@KAXXZ PROC NEAR ; ATL::CSimpleStringT<char,0>::ThrowMemoryException, COMDAT

; 704  : 	{

	push	ebp
	mov	ebp, esp
	sub	esp, 192				; 000000c0H
	push	ebx
	push	esi
	push	edi
	lea	edi, DWORD PTR [ebp-192]
	mov	ecx, 48					; 00000030H
	mov	eax, -858993460				; ccccccccH
	rep stosd

; 705  : 		AtlThrow( E_OUTOFMEMORY );

	push	-2147024882				; 8007000eH
	call	?AtlThrow@ATL@@YGXJ@Z			; ATL::AtlThrow
$L93664:

; 706  : 	}

	pop	edi
	pop	esi
	pop	ebx
	add	esp, 192				; 000000c0H
	cmp	ebp, esp
	call	__RTC_CheckEsp
	mov	esp, ebp
	pop	ebp
	ret	0
?ThrowMemoryException@?$CSimpleStringT@D$0A@@ATL@@KAXXZ ENDP ; ATL::CSimpleStringT<char,0>::ThrowMemoryException
; Function compile flags: /Odt /RTCcsu /ZI
_TEXT	ENDS
;	COMDAT ?Fork@?$CSimpleStringT@D$0A@@ATL@@AAEXH@Z
_TEXT	SEGMENT
tv82 = -256						; size = 4
tv74 = -256						; size = 4
_nCharsToCopy$ = -56					; size = 4
_pNewData$ = -44					; size = 4
_nOldLength$ = -32					; size = 4
_pOldData$ = -20					; size = 4
_this$ = -8						; size = 4
_nLength$ = 8						; size = 4
?Fork@?$CSimpleStringT@D$0A@@ATL@@AAEXH@Z PROC NEAR	; ATL::CSimpleStringT<char,0>::Fork, COMDAT
; _this$ = ecx

; 715  : 	{

	push	ebp
	mov	ebp, esp
	sub	esp, 256				; 00000100H
	push	ebx
	push	esi
	push	edi
	push	ecx
	lea	edi, DWORD PTR [ebp-256]
	mov	ecx, 64					; 00000040H
	mov	eax, -858993460				; ccccccccH
	rep stosd
	pop	ecx
	mov	DWORD PTR _this$[ebp], ecx

; 716  : 		CStringData* pOldData = GetData();

	mov	ecx, DWORD PTR _this$[ebp]
	call	?GetData@?$CSimpleStringT@D$0A@@ATL@@ABEPAUCStringData@2@XZ ; ATL::CSimpleStringT<char,0>::GetData
	mov	DWORD PTR _pOldData$[ebp], eax

; 717  : 		int nOldLength = pOldData->nDataLength;

	mov	eax, DWORD PTR _pOldData$[ebp]
	mov	ecx, DWORD PTR [eax+4]
	mov	DWORD PTR _nOldLength$[ebp], ecx

; 718  : 		CStringData* pNewData = pOldData->pStringMgr->Clone()->Allocate( nLength, sizeof( XCHAR ) );

	mov	eax, DWORD PTR _pOldData$[ebp]
	mov	ecx, DWORD PTR [eax]
	mov	edx, DWORD PTR _pOldData$[ebp]
	mov	eax, DWORD PTR [edx]
	mov	edx, DWORD PTR [ecx]
	mov	esi, esp
	mov	ecx, eax
	call	DWORD PTR [edx+16]
	cmp	esi, esp
	call	__RTC_CheckEsp
	mov	DWORD PTR tv74[ebp], eax
	mov	esi, esp
	push	1
	mov	eax, DWORD PTR _nLength$[ebp]
	push	eax
	mov	ecx, DWORD PTR tv74[ebp]
	mov	edx, DWORD PTR [ecx]
	mov	ecx, DWORD PTR tv74[ebp]
	call	DWORD PTR [edx]
	cmp	esi, esp
	call	__RTC_CheckEsp
	mov	DWORD PTR _pNewData$[ebp], eax

; 719  : 		if( pNewData == NULL )

	cmp	DWORD PTR _pNewData$[ebp], 0
	jne	SHORT $L92916

; 720  : 		{
; 721  : 			ThrowMemoryException();

	call	?ThrowMemoryException@?$CSimpleStringT@D$0A@@ATL@@KAXXZ ; ATL::CSimpleStringT<char,0>::ThrowMemoryException
$L92916:

; 722  : 		}
; 723  : 		int nCharsToCopy = ((nOldLength < nLength) ? nOldLength : nLength)+1;  // Copy '\0'

	mov	eax, DWORD PTR _nOldLength$[ebp]
	cmp	eax, DWORD PTR _nLength$[ebp]
	jge	SHORT $L93667
	mov	ecx, DWORD PTR _nOldLength$[ebp]
	mov	DWORD PTR tv82[ebp], ecx
	jmp	SHORT $L93668
$L93667:
	mov	edx, DWORD PTR _nLength$[ebp]
	mov	DWORD PTR tv82[ebp], edx
$L93668:
	mov	eax, DWORD PTR tv82[ebp]
	add	eax, 1
	mov	DWORD PTR _nCharsToCopy$[ebp], eax

; 724  : 		CopyChars( PXSTR( pNewData->data() ), PCXSTR( pOldData->data() ), nCharsToCopy );

	mov	eax, DWORD PTR _nCharsToCopy$[ebp]
	push	eax
	mov	ecx, DWORD PTR _pOldData$[ebp]
	call	?data@CStringData@ATL@@QAEPAXXZ		; ATL::CStringData::data
	push	eax
	mov	ecx, DWORD PTR _pNewData$[ebp]
	call	?data@CStringData@ATL@@QAEPAXXZ		; ATL::CStringData::data
	push	eax
	call	?CopyChars@?$CSimpleStringT@D$0A@@ATL@@SAXPADPBDH@Z ; ATL::CSimpleStringT<char,0>::CopyChars
	add	esp, 12					; 0000000cH

; 725  : 		pNewData->nDataLength = nOldLength;

	mov	eax, DWORD PTR _pNewData$[ebp]
	mov	ecx, DWORD PTR _nOldLength$[ebp]
	mov	DWORD PTR [eax+4], ecx

; 726  : 		pOldData->Release();

	mov	ecx, DWORD PTR _pOldData$[ebp]
	call	?Release@CStringData@ATL@@QAEXXZ	; ATL::CStringData::Release

; 727  : 		Attach( pNewData );

	mov	eax, DWORD PTR _pNewData$[ebp]
	push	eax
	mov	ecx, DWORD PTR _this$[ebp]
	call	?Attach@?$CSimpleStringT@D$0A@@ATL@@AAEXPAUCStringData@2@@Z ; ATL::CSimpleStringT<char,0>::Attach
$L93666:

; 728  : 	}

	pop	edi
	pop	esi
	pop	ebx
	add	esp, 256				; 00000100H
	cmp	ebp, esp
	call	__RTC_CheckEsp
	mov	esp, ebp
	pop	ebp
	ret	4
?Fork@?$CSimpleStringT@D$0A@@ATL@@AAEXH@Z ENDP		; ATL::CSimpleStringT<char,0>::Fork
_TEXT	ENDS
PUBLIC	??_C@_0CB@GFHAPKDK@pOldData?9?$DOnAllocLength?5?$DM?5nLength@ ; `string'
;	COMDAT ??_C@_0CB@GFHAPKDK@pOldData?9?$DOnAllocLength?5?$DM?5nLength@
CONST	SEGMENT
??_C@_0CB@GFHAPKDK@pOldData?9?$DOnAllocLength?5?$DM?5nLength@ DB 'pOldDat'
	DB	'a->nAllocLength < nLength', 00H		; `string'
; Function compile flags: /Odt /RTCcsu /ZI
CONST	ENDS
;	COMDAT ?Reallocate@?$CSimpleStringT@D$0A@@ATL@@AAEXH@Z
_TEXT	SEGMENT
_pNewData$ = -44					; size = 4
_pStringMgr$ = -32					; size = 4
_pOldData$ = -20					; size = 4
_this$ = -8						; size = 4
_nLength$ = 8						; size = 4
?Reallocate@?$CSimpleStringT@D$0A@@ATL@@AAEXH@Z PROC NEAR ; ATL::CSimpleStringT<char,0>::Reallocate, COMDAT
; _this$ = ecx

; 776  : 	{

	push	ebp
	mov	ebp, esp
	sub	esp, 240				; 000000f0H
	push	ebx
	push	esi
	push	edi
	push	ecx
	lea	edi, DWORD PTR [ebp-240]
	mov	ecx, 60					; 0000003cH
	mov	eax, -858993460				; ccccccccH
	rep stosd
	pop	ecx
	mov	DWORD PTR _this$[ebp], ecx

; 777  : 		CStringData* pOldData = GetData();

	mov	ecx, DWORD PTR _this$[ebp]
	call	?GetData@?$CSimpleStringT@D$0A@@ATL@@ABEPAUCStringData@2@XZ ; ATL::CSimpleStringT<char,0>::GetData
	mov	DWORD PTR _pOldData$[ebp], eax

; 778  : 		ATLASSERT( pOldData->nAllocLength < nLength );

	mov	eax, DWORD PTR _pOldData$[ebp]
	mov	ecx, DWORD PTR [eax+8]
	cmp	ecx, DWORD PTR _nLength$[ebp]
	jl	SHORT $L93671
	push	OFFSET FLAT:??_C@_0CB@GFHAPKDK@pOldData?9?$DOnAllocLength?5?$DM?5nLength@
	push	0
	push	778					; 0000030aH
	push	OFFSET FLAT:??_C@_0FD@JDCNPMMG@c?3?2program?5files?2microsoft?5visua@
	push	2
	call	__CrtDbgReport
	add	esp, 20					; 00000014H
	cmp	eax, 1
	jne	SHORT $L93671
	int	3
$L93671:

; 779  : 		IAtlStringMgr* pStringMgr = pOldData->pStringMgr;

	mov	eax, DWORD PTR _pOldData$[ebp]
	mov	ecx, DWORD PTR [eax]
	mov	DWORD PTR _pStringMgr$[ebp], ecx

; 780  : 		CStringData* pNewData = pStringMgr->Reallocate( pOldData, nLength, sizeof( XCHAR ) );

	mov	esi, esp
	push	1
	mov	eax, DWORD PTR _nLength$[ebp]
	push	eax
	mov	ecx, DWORD PTR _pOldData$[ebp]
	push	ecx
	mov	edx, DWORD PTR _pStringMgr$[ebp]
	mov	eax, DWORD PTR [edx]
	mov	ecx, DWORD PTR _pStringMgr$[ebp]
	call	DWORD PTR [eax+8]
	cmp	esi, esp
	call	__RTC_CheckEsp
	mov	DWORD PTR _pNewData$[ebp], eax

; 781  : 		if( pNewData == NULL )

	cmp	DWORD PTR _pNewData$[ebp], 0
	jne	SHORT $L92926

; 782  : 		{
; 783  : 			ThrowMemoryException();

	call	?ThrowMemoryException@?$CSimpleStringT@D$0A@@ATL@@KAXXZ ; ATL::CSimpleStringT<char,0>::ThrowMemoryException
$L92926:

; 784  : 		}
; 785  : 		Attach( pNewData );

	mov	eax, DWORD PTR _pNewData$[ebp]
	push	eax
	mov	ecx, DWORD PTR _this$[ebp]
	call	?Attach@?$CSimpleStringT@D$0A@@ATL@@AAEXPAUCStringData@2@@Z ; ATL::CSimpleStringT<char,0>::Attach
$L93670:

; 786  : 	}

	pop	edi
	pop	esi
	pop	ebx
	add	esp, 240				; 000000f0H
	cmp	ebp, esp
	call	__RTC_CheckEsp
	mov	esp, ebp
	pop	ebp
	ret	4
?Reallocate@?$CSimpleStringT@D$0A@@ATL@@AAEXH@Z ENDP	; ATL::CSimpleStringT<char,0>::Reallocate
_TEXT	ENDS
PUBLIC	?Empty@?$CSimpleStringT@D$0A@@ATL@@QAEXXZ	; ATL::CSimpleStringT<char,0>::Empty
PUBLIC	?CopyCharsOverlapped@?$CSimpleStringT@D$0A@@ATL@@SAXPADPBDH@Z ; ATL::CSimpleStringT<char,0>::CopyCharsOverlapped
; Function compile flags: /Odt /RTCcsu /ZI
;	COMDAT ?SetString@?$CSimpleStringT@D$0A@@ATL@@QAEXPBDH@Z
_TEXT	SEGMENT
_pszBuffer$92935 = -44					; size = 4
_nOffset$92934 = -32					; size = 4
_nOldLength$92933 = -20					; size = 4
_this$ = -8						; size = 4
_pszSrc$ = 8						; size = 4
_nLength$ = 12						; size = 4
?SetString@?$CSimpleStringT@D$0A@@ATL@@QAEXPBDH@Z PROC NEAR ; ATL::CSimpleStringT<char,0>::SetString, COMDAT
; _this$ = ecx

; 583  : 	{

	push	ebp
	mov	ebp, esp
	sub	esp, 240				; 000000f0H
	push	ebx
	push	esi
	push	edi
	push	ecx
	lea	edi, DWORD PTR [ebp-240]
	mov	ecx, 60					; 0000003cH
	mov	eax, -858993460				; ccccccccH
	rep stosd
	pop	ecx
	mov	DWORD PTR _this$[ebp], ecx

; 584  : 		if( nLength == 0 )

	cmp	DWORD PTR _nLength$[ebp], 0
	jne	SHORT $L92929

; 585  : 		{
; 586  : 			Empty();

	mov	ecx, DWORD PTR _this$[ebp]
	call	?Empty@?$CSimpleStringT@D$0A@@ATL@@QAEXXZ ; ATL::CSimpleStringT<char,0>::Empty

; 587  : 		}
; 588  : 		else

	jmp	SHORT $L93673
$L92929:

; 589  : 		{
; 590  : 			// It is possible that pszSrc points to a location inside of our 
; 591  : 			// buffer.  GetBuffer() might change m_pszData if (1) the buffer 
; 592  : 			// is shared or (2) the buffer is too small to hold the new 
; 593  : 			// string.  We detect this aliasing, and modify pszSrc to point
; 594  : 			// into the newly allocated buffer instead.
; 595  : 			
; 596  : 			if(pszSrc == NULL)

	cmp	DWORD PTR _pszSrc$[ebp], 0
	jne	SHORT $L92931

; 597  : 				AtlThrow(E_INVALIDARG);			

	push	-2147024809				; 80070057H
	call	?AtlThrow@ATL@@YGXJ@Z			; ATL::AtlThrow
$L92931:

; 598  : 				
; 599  : 			UINT nOldLength = GetLength();

	mov	ecx, DWORD PTR _this$[ebp]
	call	?GetLength@?$CSimpleStringT@D$0A@@ATL@@QBEHXZ ; ATL::CSimpleStringT<char,0>::GetLength
	mov	DWORD PTR _nOldLength$92933[ebp], eax

; 600  : 			UINT_PTR nOffset = pszSrc-GetString();

	mov	ecx, DWORD PTR _this$[ebp]
	call	?GetString@?$CSimpleStringT@D$0A@@ATL@@QBEPBDXZ ; ATL::CSimpleStringT<char,0>::GetString
	mov	ecx, DWORD PTR _pszSrc$[ebp]
	sub	ecx, eax
	mov	DWORD PTR _nOffset$92934[ebp], ecx

; 601  : 			// If 0 <= nOffset <= nOldLength, then pszSrc points into our 
; 602  : 			// buffer
; 603  : 
; 604  : 			PXSTR pszBuffer = GetBuffer( nLength );

	mov	eax, DWORD PTR _nLength$[ebp]
	push	eax
	mov	ecx, DWORD PTR _this$[ebp]
	call	?GetBuffer@?$CSimpleStringT@D$0A@@ATL@@QAEPADH@Z ; ATL::CSimpleStringT<char,0>::GetBuffer
	mov	DWORD PTR _pszBuffer$92935[ebp], eax

; 605  : 			if( nOffset <= nOldLength )

	mov	eax, DWORD PTR _nOffset$92934[ebp]
	cmp	eax, DWORD PTR _nOldLength$92933[ebp]
	ja	SHORT $L92936

; 606  : 			{
; 607  : 				CopyCharsOverlapped( pszBuffer, pszBuffer+nOffset, nLength );

	mov	eax, DWORD PTR _nLength$[ebp]
	push	eax
	mov	ecx, DWORD PTR _pszBuffer$92935[ebp]
	add	ecx, DWORD PTR _nOffset$92934[ebp]
	push	ecx
	mov	edx, DWORD PTR _pszBuffer$92935[ebp]
	push	edx
	call	?CopyCharsOverlapped@?$CSimpleStringT@D$0A@@ATL@@SAXPADPBDH@Z ; ATL::CSimpleStringT<char,0>::CopyCharsOverlapped
	add	esp, 12					; 0000000cH

; 608  : 			}
; 609  : 			else

	jmp	SHORT $L92937
$L92936:

; 610  : 			{
; 611  : 				CopyChars( pszBuffer, pszSrc, nLength );

	mov	eax, DWORD PTR _nLength$[ebp]
	push	eax
	mov	ecx, DWORD PTR _pszSrc$[ebp]
	push	ecx
	mov	edx, DWORD PTR _pszBuffer$92935[ebp]
	push	edx
	call	?CopyChars@?$CSimpleStringT@D$0A@@ATL@@SAXPADPBDH@Z ; ATL::CSimpleStringT<char,0>::CopyChars
	add	esp, 12					; 0000000cH
$L92937:

; 612  : 			}
; 613  : 			ReleaseBufferSetLength( nLength );

	mov	eax, DWORD PTR _nLength$[ebp]
	push	eax
	mov	ecx, DWORD PTR _this$[ebp]
	call	?ReleaseBufferSetLength@?$CSimpleStringT@D$0A@@ATL@@QAEXH@Z ; ATL::CSimpleStringT<char,0>::ReleaseBufferSetLength
$L93673:

; 614  : 		}
; 615  : 	}

	pop	edi
	pop	esi
	pop	ebx
	add	esp, 240				; 000000f0H
	cmp	ebp, esp
	call	__RTC_CheckEsp
	mov	esp, ebp
	pop	ebp
	ret	8
?SetString@?$CSimpleStringT@D$0A@@ATL@@QAEXPBDH@Z ENDP	; ATL::CSimpleStringT<char,0>::SetString
; Function compile flags: /Odt /RTCcsu /ZI
_TEXT	ENDS
;	COMDAT ?Empty@?$CSimpleStringT@D$0A@@ATL@@QAEXXZ
_TEXT	SEGMENT
_pNewData$92811 = -44					; size = 4
_pStringMgr$ = -32					; size = 4
_pOldData$ = -20					; size = 4
_this$ = -8						; size = 4
?Empty@?$CSimpleStringT@D$0A@@ATL@@QAEXXZ PROC NEAR	; ATL::CSimpleStringT<char,0>::Empty, COMDAT
; _this$ = ecx

; 421  : 	{

	push	ebp
	mov	ebp, esp
	sub	esp, 240				; 000000f0H
	push	ebx
	push	esi
	push	edi
	push	ecx
	lea	edi, DWORD PTR [ebp-240]
	mov	ecx, 60					; 0000003cH
	mov	eax, -858993460				; ccccccccH
	rep stosd
	pop	ecx
	mov	DWORD PTR _this$[ebp], ecx

; 422  : 		CStringData* pOldData = GetData();

	mov	ecx, DWORD PTR _this$[ebp]
	call	?GetData@?$CSimpleStringT@D$0A@@ATL@@ABEPAUCStringData@2@XZ ; ATL::CSimpleStringT<char,0>::GetData
	mov	DWORD PTR _pOldData$[ebp], eax

; 423  : 		IAtlStringMgr* pStringMgr = pOldData->pStringMgr;

	mov	eax, DWORD PTR _pOldData$[ebp]
	mov	ecx, DWORD PTR [eax]
	mov	DWORD PTR _pStringMgr$[ebp], ecx

; 424  : 		if( pOldData->nDataLength == 0 )

	mov	eax, DWORD PTR _pOldData$[ebp]
	cmp	DWORD PTR [eax+4], 0
	jne	SHORT $L92808

; 425  : 		{
; 426  : 			return;

	jmp	SHORT $L92805
$L92808:

; 427  : 		}
; 428  : 
; 429  : 		if( pOldData->IsLocked() )

	mov	ecx, DWORD PTR _pOldData$[ebp]
	call	?IsLocked@CStringData@ATL@@QBE_NXZ	; ATL::CStringData::IsLocked
	movzx	eax, al
	test	eax, eax
	je	SHORT $L92809

; 430  : 		{
; 431  : 			// Don't reallocate a locked buffer that's shrinking
; 432  : 			SetLength( 0 );

	push	0
	mov	ecx, DWORD PTR _this$[ebp]
	call	?SetLength@?$CSimpleStringT@D$0A@@ATL@@AAEXH@Z ; ATL::CSimpleStringT<char,0>::SetLength

; 433  : 		}
; 434  : 		else

	jmp	SHORT $L92805
$L92809:

; 435  : 		{
; 436  : 			pOldData->Release();

	mov	ecx, DWORD PTR _pOldData$[ebp]
	call	?Release@CStringData@ATL@@QAEXXZ	; ATL::CStringData::Release

; 437  : 			CStringData* pNewData = pStringMgr->GetNilString();

	mov	eax, DWORD PTR _pStringMgr$[ebp]
	mov	edx, DWORD PTR [eax]
	mov	esi, esp
	mov	ecx, DWORD PTR _pStringMgr$[ebp]
	call	DWORD PTR [edx+12]
	cmp	esi, esp
	call	__RTC_CheckEsp
	mov	DWORD PTR _pNewData$92811[ebp], eax

; 438  : 			Attach( pNewData );

	mov	eax, DWORD PTR _pNewData$92811[ebp]
	push	eax
	mov	ecx, DWORD PTR _this$[ebp]
	call	?Attach@?$CSimpleStringT@D$0A@@ATL@@AAEXPAUCStringData@2@@Z ; ATL::CSimpleStringT<char,0>::Attach
$L92805:

; 439  : 		}
; 440  : 	}

	pop	edi
	pop	esi
	pop	ebx
	add	esp, 240				; 000000f0H
	cmp	ebp, esp
	call	__RTC_CheckEsp
	mov	esp, ebp
	pop	ebp
	ret	0
?Empty@?$CSimpleStringT@D$0A@@ATL@@QAEXXZ ENDP		; ATL::CSimpleStringT<char,0>::Empty
; Function compile flags: /Odt /RTCcsu /ZI
_TEXT	ENDS
;	COMDAT ?GetString@?$CSimpleStringT@D$0A@@ATL@@QBEPBDXZ
_TEXT	SEGMENT
_this$ = -8						; size = 4
?GetString@?$CSimpleStringT@D$0A@@ATL@@QBEPBDXZ PROC NEAR ; ATL::CSimpleStringT<char,0>::GetString, COMDAT
; _this$ = ecx

; 509  : 	{

	push	ebp
	mov	ebp, esp
	sub	esp, 204				; 000000ccH
	push	ebx
	push	esi
	push	edi
	push	ecx
	lea	edi, DWORD PTR [ebp-204]
	mov	ecx, 51					; 00000033H
	mov	eax, -858993460				; ccccccccH
	rep stosd
	pop	ecx
	mov	DWORD PTR _this$[ebp], ecx

; 510  : 		return( m_pszData );

	mov	eax, DWORD PTR _this$[ebp]
	mov	eax, DWORD PTR [eax]

; 511  : 	}

	pop	edi
	pop	esi
	pop	ebx
	mov	esp, ebp
	pop	ebp
	ret	0
?GetString@?$CSimpleStringT@D$0A@@ATL@@QBEPBDXZ ENDP	; ATL::CSimpleStringT<char,0>::GetString
_TEXT	ENDS
EXTRN	_memmove:NEAR
; Function compile flags: /Odt /RTCcsu /ZI
;	COMDAT ?CopyCharsOverlapped@?$CSimpleStringT@D$0A@@ATL@@SAXPADPBDH@Z
_TEXT	SEGMENT
_pchDest$ = 8						; size = 4
_pchSrc$ = 12						; size = 4
_nChars$ = 16						; size = 4
?CopyCharsOverlapped@?$CSimpleStringT@D$0A@@ATL@@SAXPADPBDH@Z PROC NEAR ; ATL::CSimpleStringT<char,0>::CopyCharsOverlapped, COMDAT

; 656  : 	{

	push	ebp
	mov	ebp, esp
	sub	esp, 192				; 000000c0H
	push	ebx
	push	esi
	push	edi
	lea	edi, DWORD PTR [ebp-192]
	mov	ecx, 48					; 00000030H
	mov	eax, -858993460				; ccccccccH
	rep stosd

; 657  : 		memmove( pchDest, pchSrc, nChars*sizeof( XCHAR ) );

	mov	eax, DWORD PTR _nChars$[ebp]
	push	eax
	mov	ecx, DWORD PTR _pchSrc$[ebp]
	push	ecx
	mov	edx, DWORD PTR _pchDest$[ebp]
	push	edx
	call	_memmove
	add	esp, 12					; 0000000cH

; 658  : 	}

	pop	edi
	pop	esi
	pop	ebx
	add	esp, 192				; 000000c0H
	cmp	ebp, esp
	call	__RTC_CheckEsp
	mov	esp, ebp
	pop	ebp
	ret	0
?CopyCharsOverlapped@?$CSimpleStringT@D$0A@@ATL@@SAXPADPBDH@Z ENDP ; ATL::CSimpleStringT<char,0>::CopyCharsOverlapped
_TEXT	ENDS
END
