; Listing generated by Microsoft (R) Optimizing Compiler Version 13.10.3077 

	TITLE	.\wspell.cpp
	.386P
include listing.inc
if @Version gt 510
.model FLAT
else
_TEXT	SEGMENT PARA USE32 PUBLIC 'CODE'
_TEXT	ENDS
_DATA	SEGMENT DWORD USE32 PUBLIC 'DATA'
_DATA	ENDS
CONST	SEGMENT DWORD USE32 PUBLIC 'CONST'
CONST	ENDS
_BSS	SEGMENT DWORD USE32 PUBLIC 'BSS'
_BSS	ENDS
$$SYMBOLS	SEGMENT BYTE USE32 'DEBSYM'
$$SYMBOLS	ENDS
$$TYPES	SEGMENT BYTE USE32 'DEBTYP'
$$TYPES	ENDS
_TLS	SEGMENT DWORD USE32 PUBLIC 'TLS'
_TLS	ENDS
;	COMDAT ??_C@_07CMAILJOJ@CWSpell?$AA@
CONST	SEGMENT DWORD USE32 PUBLIC 'CONST'
CONST	ENDS
;	COMDAT ??_C@_01KICIPPFI@?2?$AA@
CONST	SEGMENT DWORD USE32 PUBLIC 'CONST'
CONST	ENDS
;	COMDAT ??_C@_05PGMGPAMI@2?4clx?$AA@
CONST	SEGMENT DWORD USE32 PUBLIC 'CONST'
CONST	ENDS
;	COMDAT ??_C@_05GIGJOCHO@?4tlx?$DL?$AA@
CONST	SEGMENT DWORD USE32 PUBLIC 'CONST'
CONST	ENDS
;	COMDAT ??_C@_07PNEOABME@sscream?$AA@
CONST	SEGMENT DWORD USE32 PUBLIC 'CONST'
CONST	ENDS
;	COMDAT ??_C@_01ICJEACDI@?$DL?$AA@
CONST	SEGMENT DWORD USE32 PUBLIC 'CONST'
CONST	ENDS
;	COMDAT ??_C@_06NGLILAGL@ssceca?$AA@
CONST	SEGMENT DWORD USE32 PUBLIC 'CONST'
CONST	ENDS
;	COMDAT ??_C@_06LGJFJLMO@sscebr?$AA@
CONST	SEGMENT DWORD USE32 PUBLIC 'CONST'
CONST	ENDS
;	COMDAT ??_C@_0L@HIGENLHL@accent?4clx?$AA@
CONST	SEGMENT DWORD USE32 PUBLIC 'CONST'
CONST	ENDS
;	COMDAT ??_C@_0M@HHIMOECC@correct?4clx?$AA@
CONST	SEGMENT DWORD USE32 PUBLIC 'CONST'
CONST	ENDS
;	COMDAT ??_C@_08EOMMGLAM@tech?4tlx?$AA@
CONST	SEGMENT DWORD USE32 PUBLIC 'CONST'
CONST	ENDS
;	COMDAT ??_C@_0M@EOPAGCHG@userdic?4tlx?$AA@
CONST	SEGMENT DWORD USE32 PUBLIC 'CONST'
CONST	ENDS
;	COMDAT ??_C@_0CH@KENCKLIF@?$CIiChar?5?$DO?$DN?50?$CJ?5?$CG?$CG?5?$CIiChar?5?$DM?$DN?5GetLen@
CONST	SEGMENT DWORD USE32 PUBLIC 'CONST'
CONST	ENDS
;	COMDAT ?GetClsid@CWSpell@@QAEABU_GUID@@XZ
_TEXT	SEGMENT PARA USE32 PUBLIC 'CODE'
_TEXT	ENDS
;	COMDAT ?Create@CWSpell@@UAEHPBD0KABUtagRECT@@PAVCWnd@@IPAUCCreateContext@@@Z
_TEXT	SEGMENT PARA USE32 PUBLIC 'CODE'
_TEXT	ENDS
;	COMDAT ?CreateObject@CWSpell@@SGPAVCObject@@XZ
_TEXT	SEGMENT PARA USE32 PUBLIC 'CODE'
_TEXT	ENDS
;	COMDAT ??0CWSpell@@QAE@XZ
_TEXT	SEGMENT PARA USE32 PUBLIC 'CODE'
_TEXT	ENDS
;	COMDAT ??_GCWSpell@@UAEPAXI@Z
_TEXT	SEGMENT PARA USE32 PUBLIC 'CODE'
_TEXT	ENDS
;	COMDAT ??1CWSpell@@UAE@XZ
_TEXT	SEGMENT PARA USE32 PUBLIC 'CODE'
_TEXT	ENDS
;	COMDAT ?GetRuntimeClass@CWSpell@@UBEPAUCRuntimeClass@@XZ
_TEXT	SEGMENT PARA USE32 PUBLIC 'CODE'
_TEXT	ENDS
;	COMDAT ?MakeName@@YA?AV?$CStringT@DV?$StrTraitMFC@DV?$ChTraitsCRT@D@ATL@@@@@ATL@@PADH@Z
_TEXT	SEGMENT PARA USE32 PUBLIC 'CODE'
_TEXT	ENDS
;	COMDAT ?MakeDics@@YA?AV?$CStringT@DV?$StrTraitMFC@DV?$ChTraitsCRT@D@ATL@@@@@ATL@@XZ
_TEXT	SEGMENT PARA USE32 PUBLIC 'CODE'
_TEXT	ENDS
;	COMDAT ?GetSuggestionCount@CWSpell@@QAEFXZ
_TEXT	SEGMENT PARA USE32 PUBLIC 'CODE'
_TEXT	ENDS
;	COMDAT ?SetSuggestionCount@CWSpell@@QAEXF@Z
_TEXT	SEGMENT PARA USE32 PUBLIC 'CODE'
_TEXT	ENDS
;	COMDAT ?GetMisspelledWord@CWSpell@@QAE?AV?$CStringT@DV?$StrTraitMFC@DV?$ChTraitsCRT@D@ATL@@@@@ATL@@XZ
_TEXT	SEGMENT PARA USE32 PUBLIC 'CODE'
_TEXT	ENDS
;	COMDAT ?SetMisspelledWord@CWSpell@@QAEXPBD@Z
_TEXT	SEGMENT PARA USE32 PUBLIC 'CODE'
_TEXT	ENDS
;	COMDAT ?GetReplacementWord@CWSpell@@QAE?AV?$CStringT@DV?$StrTraitMFC@DV?$ChTraitsCRT@D@ATL@@@@@ATL@@XZ
_TEXT	SEGMENT PARA USE32 PUBLIC 'CODE'
_TEXT	ENDS
;	COMDAT ?SetReplacementWord@CWSpell@@QAEXPBD@Z
_TEXT	SEGMENT PARA USE32 PUBLIC 'CODE'
_TEXT	ENDS
;	COMDAT ?GetText@CWSpell@@QAE?AV?$CStringT@DV?$StrTraitMFC@DV?$ChTraitsCRT@D@ATL@@@@@ATL@@XZ
_TEXT	SEGMENT PARA USE32 PUBLIC 'CODE'
_TEXT	ENDS
;	COMDAT ?SetText@CWSpell@@QAEXPBD@Z
_TEXT	SEGMENT PARA USE32 PUBLIC 'CODE'
_TEXT	ENDS
;	COMDAT ?GetWordOffset@CWSpell@@QAEJXZ
_TEXT	SEGMENT PARA USE32 PUBLIC 'CODE'
_TEXT	ENDS
;	COMDAT ?SetWordOffset@CWSpell@@QAEXJ@Z
_TEXT	SEGMENT PARA USE32 PUBLIC 'CODE'
_TEXT	ENDS
;	COMDAT ?GetWordCount@CWSpell@@QAEJXZ
_TEXT	SEGMENT PARA USE32 PUBLIC 'CODE'
_TEXT	ENDS
;	COMDAT ?SetWordCount@CWSpell@@QAEXJ@Z
_TEXT	SEGMENT PARA USE32 PUBLIC 'CODE'
_TEXT	ENDS
;	COMDAT ?GetWordsReplacedCount@CWSpell@@QAEJXZ
_TEXT	SEGMENT PARA USE32 PUBLIC 'CODE'
_TEXT	ENDS
;	COMDAT ?SetWordsReplacedCount@CWSpell@@QAEXJ@Z
_TEXT	SEGMENT PARA USE32 PUBLIC 'CODE'
_TEXT	ENDS
;	COMDAT ?GetCaseSensitive@CWSpell@@QAEHXZ
_TEXT	SEGMENT PARA USE32 PUBLIC 'CODE'
_TEXT	ENDS
;	COMDAT ?SetCaseSensitive@CWSpell@@QAEXH@Z
_TEXT	SEGMENT PARA USE32 PUBLIC 'CODE'
_TEXT	ENDS
;	COMDAT ?GetCanUndo@CWSpell@@QAEHXZ
_TEXT	SEGMENT PARA USE32 PUBLIC 'CODE'
_TEXT	ENDS
;	COMDAT ?SetCanUndo@CWSpell@@QAEXH@Z
_TEXT	SEGMENT PARA USE32 PUBLIC 'CODE'
_TEXT	ENDS
;	COMDAT ?GetCatchDoubledWords@CWSpell@@QAEHXZ
_TEXT	SEGMENT PARA USE32 PUBLIC 'CODE'
_TEXT	ENDS
;	COMDAT ?SetCatchDoubledWords@CWSpell@@QAEXH@Z
_TEXT	SEGMENT PARA USE32 PUBLIC 'CODE'
_TEXT	ENDS
;	COMDAT ?GetCatchMixedCaseWords@CWSpell@@QAEHXZ
_TEXT	SEGMENT PARA USE32 PUBLIC 'CODE'
_TEXT	ENDS
;	COMDAT ?SetCatchMixedCaseWords@CWSpell@@QAEXH@Z
_TEXT	SEGMENT PARA USE32 PUBLIC 'CODE'
_TEXT	ENDS
;	COMDAT ?GetCatchWordsWithDigits@CWSpell@@QAEHXZ
_TEXT	SEGMENT PARA USE32 PUBLIC 'CODE'
_TEXT	ENDS
;	COMDAT ?SetCatchWordsWithDigits@CWSpell@@QAEXH@Z
_TEXT	SEGMENT PARA USE32 PUBLIC 'CODE'
_TEXT	ENDS
;	COMDAT ?GetCurrentWord@CWSpell@@QAE?AV?$CStringT@DV?$StrTraitMFC@DV?$ChTraitsCRT@D@ATL@@@@@ATL@@XZ
_TEXT	SEGMENT PARA USE32 PUBLIC 'CODE'
_TEXT	ENDS
;	COMDAT ?SetCurrentWord@CWSpell@@QAEXPBD@Z
_TEXT	SEGMENT PARA USE32 PUBLIC 'CODE'
_TEXT	ENDS
;	COMDAT ?GetIgnoreAllCapsWords@CWSpell@@QAEHXZ
_TEXT	SEGMENT PARA USE32 PUBLIC 'CODE'
_TEXT	ENDS
;	COMDAT ?SetIgnoreAllCapsWords@CWSpell@@QAEXH@Z
_TEXT	SEGMENT PARA USE32 PUBLIC 'CODE'
_TEXT	ENDS
;	COMDAT ?GetIgnoreMixedCaseWords@CWSpell@@QAEHXZ
_TEXT	SEGMENT PARA USE32 PUBLIC 'CODE'
_TEXT	ENDS
;	COMDAT ?SetIgnoreMixedCaseWords@CWSpell@@QAEXH@Z
_TEXT	SEGMENT PARA USE32 PUBLIC 'CODE'
_TEXT	ENDS
;	COMDAT ?GetIgnoreWordsWithDigits@CWSpell@@QAEHXZ
_TEXT	SEGMENT PARA USE32 PUBLIC 'CODE'
_TEXT	ENDS
;	COMDAT ?SetIgnoreWordsWithDigits@CWSpell@@QAEXH@Z
_TEXT	SEGMENT PARA USE32 PUBLIC 'CODE'
_TEXT	ENDS
;	COMDAT ?GetMainDictionaryCount@CWSpell@@QAEFXZ
_TEXT	SEGMENT PARA USE32 PUBLIC 'CODE'
_TEXT	ENDS
;	COMDAT ?SetMainDictionaryCount@CWSpell@@QAEXF@Z
_TEXT	SEGMENT PARA USE32 PUBLIC 'CODE'
_TEXT	ENDS
;	COMDAT ?GetMainDictionaryFiles@CWSpell@@QAE?AV?$CStringT@DV?$StrTraitMFC@DV?$ChTraitsCRT@D@ATL@@@@@ATL@@XZ
_TEXT	SEGMENT PARA USE32 PUBLIC 'CODE'
_TEXT	ENDS
;	COMDAT ?SetMainDictionaryFiles@CWSpell@@QAEXPBD@Z
_TEXT	SEGMENT PARA USE32 PUBLIC 'CODE'
_TEXT	ENDS
;	COMDAT ?GetMaxSuggestions@CWSpell@@QAEFXZ
_TEXT	SEGMENT PARA USE32 PUBLIC 'CODE'
_TEXT	ENDS
;	COMDAT ?SetMaxSuggestions@CWSpell@@QAEXF@Z
_TEXT	SEGMENT PARA USE32 PUBLIC 'CODE'
_TEXT	ENDS
;	COMDAT ?GetMinSuggestionDepth@CWSpell@@QAEFXZ
_TEXT	SEGMENT PARA USE32 PUBLIC 'CODE'
_TEXT	ENDS
;	COMDAT ?SetMinSuggestionDepth@CWSpell@@QAEXF@Z
_TEXT	SEGMENT PARA USE32 PUBLIC 'CODE'
_TEXT	ENDS
;	COMDAT ?GetPhoneticSuggestions@CWSpell@@QAEHXZ
_TEXT	SEGMENT PARA USE32 PUBLIC 'CODE'
_TEXT	ENDS
;	COMDAT ?SetPhoneticSuggestions@CWSpell@@QAEXH@Z
_TEXT	SEGMENT PARA USE32 PUBLIC 'CODE'
_TEXT	ENDS
;	COMDAT ?GetSplitContractedWords@CWSpell@@QAEHXZ
_TEXT	SEGMENT PARA USE32 PUBLIC 'CODE'
_TEXT	ENDS
;	COMDAT ?SetSplitContractedWords@CWSpell@@QAEXH@Z
_TEXT	SEGMENT PARA USE32 PUBLIC 'CODE'
_TEXT	ENDS
;	COMDAT ?GetSplitHyphenatedWords@CWSpell@@QAEHXZ
_TEXT	SEGMENT PARA USE32 PUBLIC 'CODE'
_TEXT	ENDS
;	COMDAT ?SetSplitHyphenatedWords@CWSpell@@QAEXH@Z
_TEXT	SEGMENT PARA USE32 PUBLIC 'CODE'
_TEXT	ENDS
;	COMDAT ?GetSplitWords@CWSpell@@QAEHXZ
_TEXT	SEGMENT PARA USE32 PUBLIC 'CODE'
_TEXT	ENDS
;	COMDAT ?SetSplitWords@CWSpell@@QAEXH@Z
_TEXT	SEGMENT PARA USE32 PUBLIC 'CODE'
_TEXT	ENDS
;	COMDAT ?GetStripPossessives@CWSpell@@QAEHXZ
_TEXT	SEGMENT PARA USE32 PUBLIC 'CODE'
_TEXT	ENDS
;	COMDAT ?SetStripPossessives@CWSpell@@QAEXH@Z
_TEXT	SEGMENT PARA USE32 PUBLIC 'CODE'
_TEXT	ENDS
;	COMDAT ?GetSuggestionDepth@CWSpell@@QAEFXZ
_TEXT	SEGMENT PARA USE32 PUBLIC 'CODE'
_TEXT	ENDS
;	COMDAT ?SetSuggestionDepth@CWSpell@@QAEXF@Z
_TEXT	SEGMENT PARA USE32 PUBLIC 'CODE'
_TEXT	ENDS
;	COMDAT ?GetSuggestionDepthIncrement@CWSpell@@QAEFXZ
_TEXT	SEGMENT PARA USE32 PUBLIC 'CODE'
_TEXT	ENDS
;	COMDAT ?SetSuggestionDepthIncrement@CWSpell@@QAEXF@Z
_TEXT	SEGMENT PARA USE32 PUBLIC 'CODE'
_TEXT	ENDS
;	COMDAT ?GetSuggestSplitWords@CWSpell@@QAEHXZ
_TEXT	SEGMENT PARA USE32 PUBLIC 'CODE'
_TEXT	ENDS
;	COMDAT ?SetSuggestSplitWords@CWSpell@@QAEXH@Z
_TEXT	SEGMENT PARA USE32 PUBLIC 'CODE'
_TEXT	ENDS
;	COMDAT ?GetTextLength@CWSpell@@QAEJXZ
_TEXT	SEGMENT PARA USE32 PUBLIC 'CODE'
_TEXT	ENDS
;	COMDAT ?SetTextLength@CWSpell@@QAEXJ@Z
_TEXT	SEGMENT PARA USE32 PUBLIC 'CODE'
_TEXT	ENDS
;	COMDAT ?GetTypographicalSuggestions@CWSpell@@QAEHXZ
_TEXT	SEGMENT PARA USE32 PUBLIC 'CODE'
_TEXT	ENDS
;	COMDAT ?SetTypographicalSuggestions@CWSpell@@QAEXH@Z
_TEXT	SEGMENT PARA USE32 PUBLIC 'CODE'
_TEXT	ENDS
;	COMDAT ?GetUndoNewText@CWSpell@@QAE?AV?$CStringT@DV?$StrTraitMFC@DV?$ChTraitsCRT@D@ATL@@@@@ATL@@XZ
_TEXT	SEGMENT PARA USE32 PUBLIC 'CODE'
_TEXT	ENDS
;	COMDAT ?SetUndoNewText@CWSpell@@QAEXPBD@Z
_TEXT	SEGMENT PARA USE32 PUBLIC 'CODE'
_TEXT	ENDS
;	COMDAT ?GetUndoOffset@CWSpell@@QAEJXZ
_TEXT	SEGMENT PARA USE32 PUBLIC 'CODE'
_TEXT	ENDS
;	COMDAT ?SetUndoOffset@CWSpell@@QAEXJ@Z
_TEXT	SEGMENT PARA USE32 PUBLIC 'CODE'
_TEXT	ENDS
;	COMDAT ?GetUndoOldText@CWSpell@@QAE?AV?$CStringT@DV?$StrTraitMFC@DV?$ChTraitsCRT@D@ATL@@@@@ATL@@XZ
_TEXT	SEGMENT PARA USE32 PUBLIC 'CODE'
_TEXT	ENDS
;	COMDAT ?SetUndoOldText@CWSpell@@QAEXPBD@Z
_TEXT	SEGMENT PARA USE32 PUBLIC 'CODE'
_TEXT	ENDS
;	COMDAT ?GetUserDictionaryCount@CWSpell@@QAEFXZ
_TEXT	SEGMENT PARA USE32 PUBLIC 'CODE'
_TEXT	ENDS
;	COMDAT ?SetUserDictionaryCount@CWSpell@@QAEXF@Z
_TEXT	SEGMENT PARA USE32 PUBLIC 'CODE'
_TEXT	ENDS
;	COMDAT ?GetUserDictionaryFiles@CWSpell@@QAE?AV?$CStringT@DV?$StrTraitMFC@DV?$ChTraitsCRT@D@ATL@@@@@ATL@@XZ
_TEXT	SEGMENT PARA USE32 PUBLIC 'CODE'
_TEXT	ENDS
;	COMDAT ?SetUserDictionaryFiles@CWSpell@@QAEXPBD@Z
_TEXT	SEGMENT PARA USE32 PUBLIC 'CODE'
_TEXT	ENDS
;	COMDAT ?GetIgnoreCapitalizedWords@CWSpell@@QAEHXZ
_TEXT	SEGMENT PARA USE32 PUBLIC 'CODE'
_TEXT	ENDS
;	COMDAT ?SetIgnoreCapitalizedWords@CWSpell@@QAEXH@Z
_TEXT	SEGMENT PARA USE32 PUBLIC 'CODE'
_TEXT	ENDS
;	COMDAT ?GetShowContext@CWSpell@@QAEHXZ
_TEXT	SEGMENT PARA USE32 PUBLIC 'CODE'
_TEXT	ENDS
;	COMDAT ?SetShowContext@CWSpell@@QAEXH@Z
_TEXT	SEGMENT PARA USE32 PUBLIC 'CODE'
_TEXT	ENDS
;	COMDAT ?GetShowDialog@CWSpell@@QAEHXZ
_TEXT	SEGMENT PARA USE32 PUBLIC 'CODE'
_TEXT	ENDS
;	COMDAT ?SetShowDialog@CWSpell@@QAEXH@Z
_TEXT	SEGMENT PARA USE32 PUBLIC 'CODE'
_TEXT	ENDS
;	COMDAT ?GetTextControlHWnd@CWSpell@@QAEJXZ
_TEXT	SEGMENT PARA USE32 PUBLIC 'CODE'
_TEXT	ENDS
;	COMDAT ?SetTextControlHWnd@CWSpell@@QAEXJ@Z
_TEXT	SEGMENT PARA USE32 PUBLIC 'CODE'
_TEXT	ENDS
;	COMDAT ?GetDialogLeft@CWSpell@@QAEJXZ
_TEXT	SEGMENT PARA USE32 PUBLIC 'CODE'
_TEXT	ENDS
;	COMDAT ?SetDialogLeft@CWSpell@@QAEXJ@Z
_TEXT	SEGMENT PARA USE32 PUBLIC 'CODE'
_TEXT	ENDS
;	COMDAT ?GetDialogTop@CWSpell@@QAEJXZ
_TEXT	SEGMENT PARA USE32 PUBLIC 'CODE'
_TEXT	ENDS
;	COMDAT ?SetDialogTop@CWSpell@@QAEXJ@Z
_TEXT	SEGMENT PARA USE32 PUBLIC 'CODE'
_TEXT	ENDS
;	COMDAT ?GetSuggestionScoreRange@CWSpell@@QAEFXZ
_TEXT	SEGMENT PARA USE32 PUBLIC 'CODE'
_TEXT	ENDS
;	COMDAT ?SetSuggestionScoreRange@CWSpell@@QAEXF@Z
_TEXT	SEGMENT PARA USE32 PUBLIC 'CODE'
_TEXT	ENDS
;	COMDAT ?GetMinSuggestionScore@CWSpell@@QAEFXZ
_TEXT	SEGMENT PARA USE32 PUBLIC 'CODE'
_TEXT	ENDS
;	COMDAT ?SetMinSuggestionScore@CWSpell@@QAEXF@Z
_TEXT	SEGMENT PARA USE32 PUBLIC 'CODE'
_TEXT	ENDS
;	COMDAT ?GetAutoCorrect@CWSpell@@QAEHXZ
_TEXT	SEGMENT PARA USE32 PUBLIC 'CODE'
_TEXT	ENDS
;	COMDAT ?SetAutoCorrect@CWSpell@@QAEXH@Z
_TEXT	SEGMENT PARA USE32 PUBLIC 'CODE'
_TEXT	ENDS
;	COMDAT ?GetVersion@CWSpell@@QAE?AV?$CStringT@DV?$StrTraitMFC@DV?$ChTraitsCRT@D@ATL@@@@@ATL@@XZ
_TEXT	SEGMENT PARA USE32 PUBLIC 'CODE'
_TEXT	ENDS
;	COMDAT ?SetVersion@CWSpell@@QAEXPBD@Z
_TEXT	SEGMENT PARA USE32 PUBLIC 'CODE'
_TEXT	ENDS
;	COMDAT ?GetMisspelledWordCount@CWSpell@@QAEJXZ
_TEXT	SEGMENT PARA USE32 PUBLIC 'CODE'
_TEXT	ENDS
;	COMDAT ?SetMisspelledWordCount@CWSpell@@QAEXJ@Z
_TEXT	SEGMENT PARA USE32 PUBLIC 'CODE'
_TEXT	ENDS
;	COMDAT ?GetErrorCode@CWSpell@@QAEFXZ
_TEXT	SEGMENT PARA USE32 PUBLIC 'CODE'
_TEXT	ENDS
;	COMDAT ?SetErrorCode@CWSpell@@QAEXF@Z
_TEXT	SEGMENT PARA USE32 PUBLIC 'CODE'
_TEXT	ENDS
;	COMDAT ?GetIgnoreNonAlphaWords@CWSpell@@QAEHXZ
_TEXT	SEGMENT PARA USE32 PUBLIC 'CODE'
_TEXT	ENDS
;	COMDAT ?SetIgnoreNonAlphaWords@CWSpell@@QAEXH@Z
_TEXT	SEGMENT PARA USE32 PUBLIC 'CODE'
_TEXT	ENDS
;	COMDAT ?GetIgnoreDomainNames@CWSpell@@QAEHXZ
_TEXT	SEGMENT PARA USE32 PUBLIC 'CODE'
_TEXT	ENDS
;	COMDAT ?SetIgnoreDomainNames@CWSpell@@QAEXH@Z
_TEXT	SEGMENT PARA USE32 PUBLIC 'CODE'
_TEXT	ENDS
;	COMDAT ?GetAllowAccentedCaps@CWSpell@@QAEHXZ
_TEXT	SEGMENT PARA USE32 PUBLIC 'CODE'
_TEXT	ENDS
;	COMDAT ?SetAllowAccentedCaps@CWSpell@@QAEXH@Z
_TEXT	SEGMENT PARA USE32 PUBLIC 'CODE'
_TEXT	ENDS
;	COMDAT ?GetIgnoreHTMLMarkups@CWSpell@@QAEHXZ
_TEXT	SEGMENT PARA USE32 PUBLIC 'CODE'
_TEXT	ENDS
;	COMDAT ?SetIgnoreHTMLMarkups@CWSpell@@QAEXH@Z
_TEXT	SEGMENT PARA USE32 PUBLIC 'CODE'
_TEXT	ENDS
;	COMDAT ?GetCharacterSet@CWSpell@@QAEFXZ
_TEXT	SEGMENT PARA USE32 PUBLIC 'CODE'
_TEXT	ENDS
;	COMDAT ?SetCharacterSet@CWSpell@@QAEXF@Z
_TEXT	SEGMENT PARA USE32 PUBLIC 'CODE'
_TEXT	ENDS
;	COMDAT ?GetBackupUserDictionary@CWSpell@@QAEHXZ
_TEXT	SEGMENT PARA USE32 PUBLIC 'CODE'
_TEXT	ENDS
;	COMDAT ?SetBackupUserDictionary@CWSpell@@QAEXH@Z
_TEXT	SEGMENT PARA USE32 PUBLIC 'CODE'
_TEXT	ENDS
;	COMDAT ?GetShowOptionsButton@CWSpell@@QAEHXZ
_TEXT	SEGMENT PARA USE32 PUBLIC 'CODE'
_TEXT	ENDS
;	COMDAT ?SetShowOptionsButton@CWSpell@@QAEXH@Z
_TEXT	SEGMENT PARA USE32 PUBLIC 'CODE'
_TEXT	ENDS
;	COMDAT ?GetShowDictionariesButton@CWSpell@@QAEHXZ
_TEXT	SEGMENT PARA USE32 PUBLIC 'CODE'
_TEXT	ENDS
;	COMDAT ?SetShowDictionariesButton@CWSpell@@QAEXH@Z
_TEXT	SEGMENT PARA USE32 PUBLIC 'CODE'
_TEXT	ENDS
;	COMDAT ?GetSuggestion@CWSpell@@QAE?AV?$CStringT@DV?$StrTraitMFC@DV?$ChTraitsCRT@D@ATL@@@@@ATL@@F@Z
_TEXT	SEGMENT PARA USE32 PUBLIC 'CODE'
_TEXT	ENDS
;	COMDAT ?GetMainDictionary@CWSpell@@QAE?AV?$CStringT@DV?$StrTraitMFC@DV?$ChTraitsCRT@D@ATL@@@@@ATL@@F@Z
_TEXT	SEGMENT PARA USE32 PUBLIC 'CODE'
_TEXT	ENDS
;	COMDAT ?GetUserDictionary@CWSpell@@QAE?AV?$CStringT@DV?$StrTraitMFC@DV?$ChTraitsCRT@D@ATL@@@@@ATL@@F@Z
_TEXT	SEGMENT PARA USE32 PUBLIC 'CODE'
_TEXT	ENDS
;	COMDAT ?AddMainDictionary@CWSpell@@QAEXPBD@Z
_TEXT	SEGMENT PARA USE32 PUBLIC 'CODE'
_TEXT	ENDS
;	COMDAT ?AddUserDictionary@CWSpell@@QAEXPBD@Z
_TEXT	SEGMENT PARA USE32 PUBLIC 'CODE'
_TEXT	ENDS
;	COMDAT ?ClearTempDictionary@CWSpell@@QAEXXZ
_TEXT	SEGMENT PARA USE32 PUBLIC 'CODE'
_TEXT	ENDS
;	COMDAT ?Close@CWSpell@@QAEXXZ
_TEXT	SEGMENT PARA USE32 PUBLIC 'CODE'
_TEXT	ENDS
;	COMDAT ?CreateUserDictionary@CWSpell@@QAEFPBDF@Z
_TEXT	SEGMENT PARA USE32 PUBLIC 'CODE'
_TEXT	ENDS
;	COMDAT ?DeleteFromUserDictionary@CWSpell@@QAEXPBD0@Z
_TEXT	SEGMENT PARA USE32 PUBLIC 'CODE'
_TEXT	ENDS
;	COMDAT ?IgnoreAllWord@CWSpell@@QAEXXZ
_TEXT	SEGMENT PARA USE32 PUBLIC 'CODE'
_TEXT	ENDS
;	COMDAT ?IgnoreWord@CWSpell@@QAEXXZ
_TEXT	SEGMENT PARA USE32 PUBLIC 'CODE'
_TEXT	ENDS
;	COMDAT ?NextWord@CWSpell@@QAEHXZ
_TEXT	SEGMENT PARA USE32 PUBLIC 'CODE'
_TEXT	ENDS
;	COMDAT ?RemoveMainDictionary@CWSpell@@QAEXPBD@Z
_TEXT	SEGMENT PARA USE32 PUBLIC 'CODE'
_TEXT	ENDS
;	COMDAT ?RemoveUserDictionary@CWSpell@@QAEXPBD@Z
_TEXT	SEGMENT PARA USE32 PUBLIC 'CODE'
_TEXT	ENDS
;	COMDAT ?ReplaceAllWord@CWSpell@@QAEFXZ
_TEXT	SEGMENT PARA USE32 PUBLIC 'CODE'
_TEXT	ENDS
;	COMDAT ?ReplaceWord@CWSpell@@QAEFXZ
_TEXT	SEGMENT PARA USE32 PUBLIC 'CODE'
_TEXT	ENDS
;	COMDAT ?Resume@CWSpell@@QAEFXZ
_TEXT	SEGMENT PARA USE32 PUBLIC 'CODE'
_TEXT	ENDS
;	COMDAT ?Start@CWSpell@@QAEFXZ
_TEXT	SEGMENT PARA USE32 PUBLIC 'CODE'
_TEXT	ENDS
;	COMDAT ?Suggest@CWSpell@@QAEXXZ
_TEXT	SEGMENT PARA USE32 PUBLIC 'CODE'
_TEXT	ENDS
;	COMDAT ?TestWord@CWSpell@@QAEHPBD@Z
_TEXT	SEGMENT PARA USE32 PUBLIC 'CODE'
_TEXT	ENDS
;	COMDAT ?Undo@CWSpell@@QAEXXZ
_TEXT	SEGMENT PARA USE32 PUBLIC 'CODE'
_TEXT	ENDS
;	COMDAT ?ShowUserDictionaryDialog@CWSpell@@QAEXXZ
_TEXT	SEGMENT PARA USE32 PUBLIC 'CODE'
_TEXT	ENDS
;	COMDAT ?ShowOptionsDialog@CWSpell@@QAEXXZ
_TEXT	SEGMENT PARA USE32 PUBLIC 'CODE'
_TEXT	ENDS
;	COMDAT ?GetUserDictionaryWord@CWSpell@@QAE?AV?$CStringT@DV?$StrTraitMFC@DV?$ChTraitsCRT@D@ATL@@@@@ATL@@PBDJ@Z
_TEXT	SEGMENT PARA USE32 PUBLIC 'CODE'
_TEXT	ENDS
;	COMDAT ?GetUserDictionaryWordCount@CWSpell@@QAEJPBD@Z
_TEXT	SEGMENT PARA USE32 PUBLIC 'CODE'
_TEXT	ENDS
;	COMDAT ?GetUserDictionaryWordAction@CWSpell@@QAEFPBD0@Z
_TEXT	SEGMENT PARA USE32 PUBLIC 'CODE'
_TEXT	ENDS
;	COMDAT ?GetUserDictionaryOtherWord@CWSpell@@QAE?AV?$CStringT@DV?$StrTraitMFC@DV?$ChTraitsCRT@D@ATL@@@@@ATL@@PBD0@Z
_TEXT	SEGMENT PARA USE32 PUBLIC 'CODE'
_TEXT	ENDS
;	COMDAT ?DeleteWord@CWSpell@@QAEJXZ
_TEXT	SEGMENT PARA USE32 PUBLIC 'CODE'
_TEXT	ENDS
;	COMDAT ?AddToUserDictionary@CWSpell@@QAEFPBD0F0@Z
_TEXT	SEGMENT PARA USE32 PUBLIC 'CODE'
_TEXT	ENDS
;	COMDAT ?CheckBackgroundNotify@CWSpell@@QAEJJHHHHJ@Z
_TEXT	SEGMENT PARA USE32 PUBLIC 'CODE'
_TEXT	ENDS
;	COMDAT ?CheckBackgroundRecheck@CWSpell@@QAEJJHHHHJ@Z
_TEXT	SEGMENT PARA USE32 PUBLIC 'CODE'
_TEXT	ENDS
;	COMDAT ?CheckBackgroundMenu@CWSpell@@QAEJJJJJHHHHJ@Z
_TEXT	SEGMENT PARA USE32 PUBLIC 'CODE'
_TEXT	ENDS
;	COMDAT ?AboutBox@CWSpell@@QAEXXZ
_TEXT	SEGMENT PARA USE32 PUBLIC 'CODE'
_TEXT	ENDS
;	COMDAT ??4?$CStringT@DV?$StrTraitMFC@DV?$ChTraitsCRT@D@ATL@@@@@ATL@@QAEAAV01@ABV01@@Z
_TEXT	SEGMENT PARA USE32 PUBLIC 'CODE'
_TEXT	ENDS
;	COMDAT ??Y?$CStringT@DV?$StrTraitMFC@DV?$ChTraitsCRT@D@ATL@@@@@ATL@@QAEAAV01@ABV?$CSimpleStringT@D$0A@@1@@Z
_TEXT	SEGMENT PARA USE32 PUBLIC 'CODE'
_TEXT	ENDS
;	COMDAT ??Y?$CStringT@DV?$StrTraitMFC@DV?$ChTraitsCRT@D@ATL@@@@@ATL@@QAEAAV01@PBD@Z
_TEXT	SEGMENT PARA USE32 PUBLIC 'CODE'
_TEXT	ENDS
;	COMDAT ??HATL@@YA?AV?$CStringT@DV?$StrTraitMFC@DV?$ChTraitsCRT@D@ATL@@@@@0@ABV10@0@Z
_TEXT	SEGMENT PARA USE32 PUBLIC 'CODE'
_TEXT	ENDS
;	COMDAT ??HATL@@YA?AV?$CStringT@DV?$StrTraitMFC@DV?$ChTraitsCRT@D@ATL@@@@@0@ABV10@PBD@Z
_TEXT	SEGMENT PARA USE32 PUBLIC 'CODE'
_TEXT	ENDS
;	COMDAT ??A?$CSimpleStringT@D$0A@@ATL@@QBEDH@Z
_TEXT	SEGMENT PARA USE32 PUBLIC 'CODE'
_TEXT	ENDS
;	COMDAT ??0?$CStringT@DV?$StrTraitMFC@DV?$ChTraitsCRT@D@ATL@@@@@ATL@@QAE@PAUIAtlStringMgr@1@@Z
_TEXT	SEGMENT PARA USE32 PUBLIC 'CODE'
_TEXT	ENDS
;	COMDAT ??4?$CSimpleStringT@D$0A@@ATL@@QAEAAV01@ABV01@@Z
_TEXT	SEGMENT PARA USE32 PUBLIC 'CODE'
_TEXT	ENDS
;	COMDAT ??Y?$CSimpleStringT@D$0A@@ATL@@QAEAAV01@ABV01@@Z
_TEXT	SEGMENT PARA USE32 PUBLIC 'CODE'
_TEXT	ENDS
;	COMDAT ??Y?$CSimpleStringT@D$0A@@ATL@@QAEAAV01@PBD@Z
_TEXT	SEGMENT PARA USE32 PUBLIC 'CODE'
_TEXT	ENDS
;	COMDAT ?GetManager@?$CSimpleStringT@D$0A@@ATL@@QBEPAUIAtlStringMgr@2@XZ
_TEXT	SEGMENT PARA USE32 PUBLIC 'CODE'
_TEXT	ENDS
;	COMDAT ?Concatenate@?$CSimpleStringT@D$0A@@ATL@@KAXAAV12@PBDH1H@Z
_TEXT	SEGMENT PARA USE32 PUBLIC 'CODE'
_TEXT	ENDS
;	COMDAT ?Append@?$CSimpleStringT@D$0A@@ATL@@QAEXPBD@Z
_TEXT	SEGMENT PARA USE32 PUBLIC 'CODE'
_TEXT	ENDS
;	COMDAT ?Append@?$CSimpleStringT@D$0A@@ATL@@QAEXABV12@@Z
_TEXT	SEGMENT PARA USE32 PUBLIC 'CODE'
_TEXT	ENDS
;	COMDAT ?Append@?$CSimpleStringT@D$0A@@ATL@@QAEXPBDH@Z
_TEXT	SEGMENT PARA USE32 PUBLIC 'CODE'
_TEXT	ENDS
;	COMDAT ?ReleaseBufferSetLength@?$CSimpleStringT@D$0A@@ATL@@QAEXH@Z
_TEXT	SEGMENT PARA USE32 PUBLIC 'CODE'
_TEXT	ENDS
;	COMDAT ??_C@_0BA@GNIEOBOF@nNewLength?5?$DO?$DN?50?$AA@
CONST	SEGMENT DWORD USE32 PUBLIC 'CONST'
CONST	ENDS
;	COMDAT ?SetLength@?$CSimpleStringT@D$0A@@ATL@@AAEXH@Z
_TEXT	SEGMENT PARA USE32 PUBLIC 'CODE'
_TEXT	ENDS
;	COMDAT ??_C@_0N@ILOMLJGA@nLength?5?$DO?$DN?50?$AA@
CONST	SEGMENT DWORD USE32 PUBLIC 'CONST'
CONST	ENDS
;	COMDAT ??_C@_0CD@EEFFJEGJ@nLength?5?$DM?$DN?5GetData?$CI?$CJ?9?$DOnAllocLeng@
CONST	SEGMENT DWORD USE32 PUBLIC 'CONST'
CONST	ENDS
;	COMDAT ?CopyChars@?$CSimpleStringT@D$0A@@ATL@@SAXPADPBDH@Z
_TEXT	SEGMENT PARA USE32 PUBLIC 'CODE'
_TEXT	ENDS
;	COMDAT ?GetBuffer@?$CSimpleStringT@D$0A@@ATL@@QAEPADH@Z
_TEXT	SEGMENT PARA USE32 PUBLIC 'CODE'
_TEXT	ENDS
;	COMDAT ?PrepareWrite@?$CSimpleStringT@D$0A@@ATL@@AAEPADH@Z
_TEXT	SEGMENT PARA USE32 PUBLIC 'CODE'
_TEXT	ENDS
;	COMDAT ?PrepareWrite2@?$CSimpleStringT@D$0A@@ATL@@AAEXH@Z
_TEXT	SEGMENT PARA USE32 PUBLIC 'CODE'
_TEXT	ENDS
;	COMDAT ?IsShared@CStringData@ATL@@QBE_NXZ
_TEXT	SEGMENT PARA USE32 PUBLIC 'CODE'
_TEXT	ENDS
;	COMDAT ?Fork@?$CSimpleStringT@D$0A@@ATL@@AAEXH@Z
_TEXT	SEGMENT PARA USE32 PUBLIC 'CODE'
_TEXT	ENDS
;	COMDAT ?ThrowMemoryException@?$CSimpleStringT@D$0A@@ATL@@KAXXZ
_TEXT	SEGMENT PARA USE32 PUBLIC 'CODE'
_TEXT	ENDS
;	COMDAT ?data@CStringData@ATL@@QAEPAXXZ
_TEXT	SEGMENT PARA USE32 PUBLIC 'CODE'
_TEXT	ENDS
;	COMDAT ?Reallocate@?$CSimpleStringT@D$0A@@ATL@@AAEXH@Z
_TEXT	SEGMENT PARA USE32 PUBLIC 'CODE'
_TEXT	ENDS
;	COMDAT ??_C@_0CB@GFHAPKDK@pOldData?9?$DOnAllocLength?5?$DM?5nLength@
CONST	SEGMENT DWORD USE32 PUBLIC 'CONST'
CONST	ENDS
;	COMDAT ?Attach@?$CSimpleStringT@D$0A@@ATL@@AAEXPAUCStringData@2@@Z
_TEXT	SEGMENT PARA USE32 PUBLIC 'CODE'
_TEXT	ENDS
;	COMDAT ?Release@CStringData@ATL@@QAEXXZ
_TEXT	SEGMENT PARA USE32 PUBLIC 'CODE'
_TEXT	ENDS
;	COMDAT ??_C@_0L@OIIMFBNE@nRefs?5?$CB?$DN?50?$AA@
CONST	SEGMENT DWORD USE32 PUBLIC 'CONST'
CONST	ENDS
;	COMDAT ?CloneData@?$CSimpleStringT@D$0A@@ATL@@CAPAUCStringData@2@PAU32@@Z
_TEXT	SEGMENT PARA USE32 PUBLIC 'CODE'
_TEXT	ENDS
;	COMDAT ?AddRef@CStringData@ATL@@QAEXXZ
_TEXT	SEGMENT PARA USE32 PUBLIC 'CODE'
_TEXT	ENDS
;	COMDAT ??_C@_09EEBKLCFA@nRefs?5?$DO?50?$AA@
CONST	SEGMENT DWORD USE32 PUBLIC 'CONST'
CONST	ENDS
;	COMDAT ?GetString@?$CSimpleStringT@D$0A@@ATL@@QBEPBDXZ
_TEXT	SEGMENT PARA USE32 PUBLIC 'CODE'
_TEXT	ENDS
;	COMDAT ?SetString@?$CSimpleStringT@D$0A@@ATL@@QAEXPBDH@Z
_TEXT	SEGMENT PARA USE32 PUBLIC 'CODE'
_TEXT	ENDS
;	COMDAT ?Empty@?$CSimpleStringT@D$0A@@ATL@@QAEXXZ
_TEXT	SEGMENT PARA USE32 PUBLIC 'CODE'
_TEXT	ENDS
;	COMDAT ?CopyCharsOverlapped@?$CSimpleStringT@D$0A@@ATL@@SAXPADPBDH@Z
_TEXT	SEGMENT PARA USE32 PUBLIC 'CODE'
_TEXT	ENDS
;	COMDAT ?IsLocked@CStringData@ATL@@QBE_NXZ
_TEXT	SEGMENT PARA USE32 PUBLIC 'CODE'
_TEXT	ENDS
;	COMDAT ?GetData@?$CSimpleStringT@D$0A@@ATL@@ABEPAUCStringData@2@XZ
_TEXT	SEGMENT PARA USE32 PUBLIC 'CODE'
_TEXT	ENDS
;	COMDAT ??1?$CSimpleStringT@D$0A@@ATL@@QAE@XZ
_TEXT	SEGMENT PARA USE32 PUBLIC 'CODE'
_TEXT	ENDS
;	COMDAT ??0?$CSimpleStringT@D$0A@@ATL@@QAE@PAUIAtlStringMgr@1@@Z
_TEXT	SEGMENT PARA USE32 PUBLIC 'CODE'
_TEXT	ENDS
;	COMDAT ??_C@_0BA@GOIMFHNK@pStringMgr?5?$CB?$DN?50?$AA@
CONST	SEGMENT DWORD USE32 PUBLIC 'CONST'
CONST	ENDS
;	COMDAT ?AtlThrow@ATL@@YGXJ@Z
_TEXT	SEGMENT PARA USE32 PUBLIC 'CODE'
_TEXT	ENDS
;	COMDAT ??RCTraceFileAndLineInfo@ATL@@QBAXKIPBDZZ
_TEXT	SEGMENT PARA USE32 PUBLIC 'CODE'
_TEXT	ENDS
;	COMDAT ?TraceV@CTrace@ATL@@QBAXPBDHKI0PAD@Z
_TEXT	SEGMENT PARA USE32 PUBLIC 'CODE'
_TEXT	ENDS
;	COMDAT ??0CTraceFileAndLineInfo@ATL@@QAE@PBDH@Z
_TEXT	SEGMENT PARA USE32 PUBLIC 'CODE'
_TEXT	ENDS
;	COMDAT ?__LINE__Var@?1??AtlThrow@ATL@@YGXJ@Z@4JA
_DATA	SEGMENT DWORD USE32 PUBLIC 'DATA'
_DATA	ENDS
;	COMDAT ??_C@_0FC@IPKABFFL@c?3?2program?5files?2microsoft?5visua@
CONST	SEGMENT DWORD USE32 PUBLIC 'CONST'
CONST	ENDS
;	COMDAT ??_C@_0BF@IAAKIJDJ@AtlThrow?3?5hr?5?$DN?50x?$CFx?6?$AA@
CONST	SEGMENT DWORD USE32 PUBLIC 'CONST'
CONST	ENDS
;	COMDAT ??BCTraceCategory@ATL@@QBEKXZ
_TEXT	SEGMENT PARA USE32 PUBLIC 'CODE'
_TEXT	ENDS
;	COMDAT ??_C@_0FD@JDCNPMMG@c?3?2program?5files?2microsoft?5visua@
CONST	SEGMENT DWORD USE32 PUBLIC 'CONST'
CONST	ENDS
;	COMDAT ?StringLength@?$CSimpleStringT@D$0A@@ATL@@SAHPBD@Z
_TEXT	SEGMENT PARA USE32 PUBLIC 'CODE'
_TEXT	ENDS
;	COMDAT ??B?$CSimpleStringT@D$0A@@ATL@@QBEPBDXZ
_TEXT	SEGMENT PARA USE32 PUBLIC 'CODE'
_TEXT	ENDS
;	COMDAT ??0?$CStringT@DV?$StrTraitMFC@DV?$ChTraitsCRT@D@ATL@@@@@ATL@@QAE@ABV01@@Z
_TEXT	SEGMENT PARA USE32 PUBLIC 'CODE'
_TEXT	ENDS
;	COMDAT ??0?$CSimpleStringT@D$0A@@ATL@@QAE@ABV01@@Z
_TEXT	SEGMENT PARA USE32 PUBLIC 'CODE'
_TEXT	ENDS
;	COMDAT ?GetLength@?$CSimpleStringT@D$0A@@ATL@@QBEHXZ
_TEXT	SEGMENT PARA USE32 PUBLIC 'CODE'
_TEXT	ENDS
;	COMDAT ??4?$CStringT@DV?$StrTraitMFC@DV?$ChTraitsCRT@D@ATL@@@@@ATL@@QAEAAV01@PBD@Z
_TEXT	SEGMENT PARA USE32 PUBLIC 'CODE'
_TEXT	ENDS
;	COMDAT ??4?$CSimpleStringT@D$0A@@ATL@@QAEAAV01@PBD@Z
_TEXT	SEGMENT PARA USE32 PUBLIC 'CODE'
_TEXT	ENDS
;	COMDAT ?SetString@?$CSimpleStringT@D$0A@@ATL@@QAEXPBD@Z
_TEXT	SEGMENT PARA USE32 PUBLIC 'CODE'
_TEXT	ENDS
;	COMDAT ??1?$CStringT@DV?$StrTraitMFC@DV?$ChTraitsCRT@D@ATL@@@@@ATL@@QAE@XZ
_TEXT	SEGMENT PARA USE32 PUBLIC 'CODE'
_TEXT	ENDS
;	COMDAT ??0?$CStringT@DV?$StrTraitMFC@DV?$ChTraitsCRT@D@ATL@@@@@ATL@@QAE@XZ
_TEXT	SEGMENT PARA USE32 PUBLIC 'CODE'
_TEXT	ENDS
;	COMDAT ?GetDefaultManager@?$StrTraitMFC@DV?$ChTraitsCRT@D@ATL@@@@SAPAUIAtlStringMgr@ATL@@XZ
_TEXT	SEGMENT PARA USE32 PUBLIC 'CODE'
_TEXT	ENDS
;	COMDAT ?classCWSpell@CWSpell@@2UCRuntimeClass@@B
CONST	SEGMENT DWORD USE32 PUBLIC 'CONST'
CONST	ENDS
;	COMDAT ??_7CWSpell@@6B@
CONST	SEGMENT DWORD USE32 PUBLIC 'CONST'
CONST	ENDS
;	COMDAT ?clsid@?1??GetClsid@CWSpell@@QAEABU_GUID@@XZ@4U3@B
CONST	SEGMENT DWORD USE32 PUBLIC 'CONST'
CONST	ENDS
sxdata	SEGMENT DWORD USE32 'SXDATA'
sxdata	ENDS
FLAT	GROUP _DATA, CONST, _BSS
	ASSUME	CS: FLAT, DS: FLAT, SS: FLAT
endif

INCLUDELIB LIBCMTD
INCLUDELIB OLDNAMES

PUBLIC	??_C@_07CMAILJOJ@CWSpell?$AA@			; `string'
PUBLIC	?classCWSpell@CWSpell@@2UCRuntimeClass@@B	; CWSpell::classCWSpell
PUBLIC	?CreateObject@CWSpell@@SGPAVCObject@@XZ		; CWSpell::CreateObject
EXTRN	?classCWnd@CWnd@@2UCRuntimeClass@@B:BYTE	; CWnd::classCWnd
;	COMDAT ??_C@_07CMAILJOJ@CWSpell?$AA@
CONST	SEGMENT
??_C@_07CMAILJOJ@CWSpell?$AA@ DB 'CWSpell', 00H		; `string'
CONST	ENDS
;	COMDAT ?classCWSpell@CWSpell@@2UCRuntimeClass@@B
CONST	SEGMENT
?classCWSpell@CWSpell@@2UCRuntimeClass@@B DD FLAT:??_C@_07CMAILJOJ@CWSpell?$AA@ ; CWSpell::classCWSpell
	DD	050H
	DD	0ffffH
	DD	FLAT:?CreateObject@CWSpell@@SGPAVCObject@@XZ
	DD	FLAT:?classCWnd@CWnd@@2UCRuntimeClass@@B
	DD	00H
	DD	00H
CONST	ENDS
_DATA	SEGMENT
?parms@?1??GetSuggestion@CWSpell@@QAE?AV?$CStringT@DV?$StrTraitMFC@DV?$ChTraitsCRT@D@ATL@@@@@ATL@@F@Z@4PAEA DB 02H
	DB	00H						; `CWSpell::GetSuggestion'::`2'::parms
	ORG $+2
?parms@?1??GetMainDictionary@CWSpell@@QAE?AV?$CStringT@DV?$StrTraitMFC@DV?$ChTraitsCRT@D@ATL@@@@@ATL@@F@Z@4PAEA DB 02H
	DB	00H						; `CWSpell::GetMainDictionary'::`2'::parms
	ORG $+2
?parms@?1??GetUserDictionary@CWSpell@@QAE?AV?$CStringT@DV?$StrTraitMFC@DV?$ChTraitsCRT@D@ATL@@@@@ATL@@F@Z@4PAEA DB 02H
	DB	00H						; `CWSpell::GetUserDictionary'::`2'::parms
	ORG $+2
?parms@?1??AddMainDictionary@CWSpell@@QAEXPBD@Z@4PAEA DB 0eH, 00H ; `CWSpell::AddMainDictionary'::`2'::parms
	ORG $+2
?parms@?1??AddUserDictionary@CWSpell@@QAEXPBD@Z@4PAEA DB 0eH, 00H ; `CWSpell::AddUserDictionary'::`2'::parms
	ORG $+2
?parms@?1??CreateUserDictionary@CWSpell@@QAEFPBDF@Z@4PAEA DB 0eH, 02H, 00H ; `CWSpell::CreateUserDictionary'::`2'::parms
	ORG $+1
?parms@?1??DeleteFromUserDictionary@CWSpell@@QAEXPBD0@Z@4PAEA DB 0eH, 0eH
	DB	00H						; `CWSpell::DeleteFromUserDictionary'::`2'::parms
	ORG $+1
?parms@?1??RemoveMainDictionary@CWSpell@@QAEXPBD@Z@4PAEA DB 0eH, 00H ; `CWSpell::RemoveMainDictionary'::`2'::parms
	ORG $+2
?parms@?1??RemoveUserDictionary@CWSpell@@QAEXPBD@Z@4PAEA DB 0eH, 00H ; `CWSpell::RemoveUserDictionary'::`2'::parms
	ORG $+2
?parms@?1??TestWord@CWSpell@@QAEHPBD@Z@4PAEA DB 0eH, 00H ; `CWSpell::TestWord'::`2'::parms
	ORG $+2
?parms@?1??GetUserDictionaryWord@CWSpell@@QAE?AV?$CStringT@DV?$StrTraitMFC@DV?$ChTraitsCRT@D@ATL@@@@@ATL@@PBDJ@Z@4PAEA DB 0eH
	DB	03H, 00H					; `CWSpell::GetUserDictionaryWord'::`2'::parms
	ORG $+1
?parms@?1??GetUserDictionaryWordCount@CWSpell@@QAEJPBD@Z@4PAEA DB 0eH, 00H ; `CWSpell::GetUserDictionaryWordCount'::`2'::parms
	ORG $+2
?parms@?1??GetUserDictionaryWordAction@CWSpell@@QAEFPBD0@Z@4PAEA DB 0eH, 0eH
	DB	00H						; `CWSpell::GetUserDictionaryWordAction'::`2'::parms
	ORG $+1
?parms@?1??GetUserDictionaryOtherWord@CWSpell@@QAE?AV?$CStringT@DV?$StrTraitMFC@DV?$ChTraitsCRT@D@ATL@@@@@ATL@@PBD0@Z@4PAEA DB 0eH
	DB	0eH, 00H					; `CWSpell::GetUserDictionaryOtherWord'::`2'::parms
	ORG $+1
?parms@?1??AddToUserDictionary@CWSpell@@QAEFPBD0F0@Z@4PAEA DB 0eH, 0eH, 02H
	DB	0eH, 00H					; `CWSpell::AddToUserDictionary'::`2'::parms
	ORG $+3
?parms@?1??CheckBackgroundNotify@CWSpell@@QAEJJHHHHJ@Z@4PAEA DB 03H, 0bH, 0bH
	DB	0bH, 0bH, 03H, 00H				; `CWSpell::CheckBackgroundNotify'::`2'::parms
	ORG $+1
?parms@?1??CheckBackgroundRecheck@CWSpell@@QAEJJHHHHJ@Z@4PAEA DB 03H, 0bH
	DB	0bH, 0bH, 0bH, 03H, 00H			; `CWSpell::CheckBackgroundRecheck'::`2'::parms
	ORG $+1
?parms@?1??CheckBackgroundMenu@CWSpell@@QAEJJJJJHHHHJ@Z@4PAEA DB 03H, 03H
	DB	03H, 03H, 0bH, 0bH, 0bH, 0bH, 03H, 00H	; `CWSpell::CheckBackgroundMenu'::`2'::parms
_DATA	ENDS
PUBLIC	??0CWSpell@@QAE@XZ				; CWSpell::CWSpell
EXTRN	??2CObject@@SGPAXI@Z:NEAR			; CObject::operator new
EXTRN	??3CObject@@SGXPAX@Z:NEAR			; CObject::operator delete
EXTRN	__RTC_InitBase:NEAR
EXTRN	__RTC_Shutdown:NEAR
EXTRN	__except_list:DWORD
EXTRN	__RTC_CheckEsp:NEAR
EXTRN	___CxxFrameHandler:NEAR
;	COMDAT rtc$IMZ
; File c:\astrow32dev\tbt32\wspell.cpp
rtc$IMZ	SEGMENT
__RTC_InitBase.rtc$IMZ DD FLAT:__RTC_InitBase
rtc$IMZ	ENDS
;	COMDAT rtc$TMZ
rtc$TMZ	SEGMENT
__RTC_Shutdown.rtc$TMZ DD FLAT:__RTC_Shutdown
rtc$TMZ	ENDS
;	COMDAT xdata$x
xdata$x	SEGMENT
__unwindtable$?CreateObject@CWSpell@@SGPAVCObject@@XZ DD 0ffffffffH
	DD	FLAT:__unwindfunclet$?CreateObject@CWSpell@@SGPAVCObject@@XZ$0
__ehfuncinfo$?CreateObject@CWSpell@@SGPAVCObject@@XZ DD 019930520H
	DD	01H
	DD	FLAT:__unwindtable$?CreateObject@CWSpell@@SGPAVCObject@@XZ
	DD	2 DUP(00H)
	DD	2 DUP(00H)
; Function compile flags: /Odt /RTCcsu /ZI
xdata$x	ENDS
;	COMDAT ?CreateObject@CWSpell@@SGPAVCObject@@XZ
_TEXT	SEGMENT
tv71 = -232						; size = 4
$T94366 = -224						; size = 4
$T94367 = -212						; size = 4
__$EHRec$ = -12						; size = 12
?CreateObject@CWSpell@@SGPAVCObject@@XZ PROC NEAR	; CWSpell::CreateObject, COMDAT

; 18   : IMPLEMENT_DYNCREATE(CWSpell, CWnd)

	push	ebp
	mov	ebp, esp
	push	-1
	push	__ehhandler$?CreateObject@CWSpell@@SGPAVCObject@@XZ
	mov	eax, DWORD PTR fs:__except_list
	push	eax
	mov	DWORD PTR fs:__except_list, esp
	sub	esp, 220				; 000000dcH
	push	ebx
	push	esi
	push	edi
	lea	edi, DWORD PTR [ebp-232]
	mov	ecx, 55					; 00000037H
	mov	eax, -858993460				; ccccccccH
	rep stosd
	push	80					; 00000050H
	call	??2CObject@@SGPAXI@Z			; CObject::operator new
	mov	DWORD PTR $T94367[ebp], eax
	mov	DWORD PTR __$EHRec$[ebp+8], 0
	cmp	DWORD PTR $T94367[ebp], 0
	je	SHORT $L94368
	mov	ecx, DWORD PTR $T94367[ebp]
	call	??0CWSpell@@QAE@XZ
	mov	DWORD PTR tv71[ebp], eax
	jmp	SHORT $L94369
$L94368:
	mov	DWORD PTR tv71[ebp], 0
$L94369:
	mov	eax, DWORD PTR tv71[ebp]
	mov	DWORD PTR $T94366[ebp], eax
	mov	DWORD PTR __$EHRec$[ebp+8], -1
	mov	eax, DWORD PTR $T94366[ebp]
	mov	ecx, DWORD PTR __$EHRec$[ebp]
	mov	DWORD PTR fs:__except_list, ecx
	pop	edi
	pop	esi
	pop	ebx
	add	esp, 232				; 000000e8H
	cmp	ebp, esp
	call	__RTC_CheckEsp
	mov	esp, ebp
	pop	ebp
	ret	0
_TEXT	ENDS
;	COMDAT text$x
text$x	SEGMENT
__unwindfunclet$?CreateObject@CWSpell@@SGPAVCObject@@XZ$0:
	mov	eax, DWORD PTR $T94367[ebp]
	push	eax
	call	??3CObject@@SGXPAX@Z			; CObject::operator delete
	ret	0
__ehhandler$?CreateObject@CWSpell@@SGPAVCObject@@XZ:
	mov	eax, OFFSET FLAT:__ehfuncinfo$?CreateObject@CWSpell@@SGPAVCObject@@XZ
	jmp	___CxxFrameHandler
text$x	ENDS
?CreateObject@CWSpell@@SGPAVCObject@@XZ ENDP		; CWSpell::CreateObject
PUBLIC	??_7CWSpell@@6B@				; CWSpell::`vftable'
PUBLIC	??_GCWSpell@@UAEPAXI@Z				; CWSpell::`scalar deleting destructor'
PUBLIC	?GetRuntimeClass@CWSpell@@UBEPAUCRuntimeClass@@XZ ; CWSpell::GetRuntimeClass
PUBLIC	?Create@CWSpell@@UAEHPBD0KABUtagRECT@@PAVCWnd@@IPAUCCreateContext@@@Z ; CWSpell::Create
EXTRN	??_ECWSpell@@UAEPAXI@Z:NEAR			; CWSpell::`vector deleting destructor'
EXTRN	?GetScrollBarCtrl@CWnd@@UBEPAVCScrollBar@@H@Z:NEAR ; CWnd::GetScrollBarCtrl
EXTRN	?Serialize@CObject@@UAEXAAVCArchive@@@Z:NEAR	; CObject::Serialize
EXTRN	?WinHelpA@CWnd@@UAEXKI@Z:NEAR			; CWnd::WinHelpA
EXTRN	?HtmlHelpA@CWnd@@UAEXKI@Z:NEAR			; CWnd::HtmlHelpA
EXTRN	?WinHelpInternal@CWnd@@UAEXKI@Z:NEAR		; CWnd::WinHelpInternal
EXTRN	?ContinueModal@CWnd@@UAEHXZ:NEAR		; CWnd::ContinueModal
EXTRN	?EndModalLoop@CWnd@@UAEXH@Z:NEAR		; CWnd::EndModalLoop
EXTRN	?GetInterfaceMap@CWnd@@MBEPBUAFX_INTERFACEMAP@@XZ:NEAR ; CWnd::GetInterfaceMap
EXTRN	?EnsureStdObj@CWnd@@UAEJXZ:NEAR			; CWnd::EnsureStdObj
EXTRN	?get_accParent@CWnd@@UAEJPAPAUIDispatch@@@Z:NEAR ; CWnd::get_accParent
EXTRN	?get_accChildCount@CWnd@@UAEJPAJ@Z:NEAR		; CWnd::get_accChildCount
EXTRN	?get_accChild@CWnd@@UAEJUtagVARIANT@@PAPAUIDispatch@@@Z:NEAR ; CWnd::get_accChild
EXTRN	?get_accName@CWnd@@UAEJUtagVARIANT@@PAPAG@Z:NEAR ; CWnd::get_accName
EXTRN	?get_accValue@CWnd@@UAEJUtagVARIANT@@PAPAG@Z:NEAR ; CWnd::get_accValue
EXTRN	?OnCmdMsg@CCmdTarget@@UAEHIHPAXPAUAFX_CMDHANDLERINFO@@@Z:NEAR ; CCmdTarget::OnCmdMsg
EXTRN	?get_accDescription@CWnd@@UAEJUtagVARIANT@@PAPAG@Z:NEAR ; CWnd::get_accDescription
EXTRN	?IsInvokeAllowed@CCmdTarget@@UAEHJ@Z:NEAR	; CCmdTarget::IsInvokeAllowed
EXTRN	?get_accRole@CWnd@@UAEJUtagVARIANT@@PAU2@@Z:NEAR ; CWnd::get_accRole
EXTRN	?get_accState@CWnd@@UAEJUtagVARIANT@@PAU2@@Z:NEAR ; CWnd::get_accState
EXTRN	?get_accHelp@CWnd@@UAEJUtagVARIANT@@PAPAG@Z:NEAR ; CWnd::get_accHelp
EXTRN	?GetDispatchIID@CCmdTarget@@UAEHPAU_GUID@@@Z:NEAR ; CCmdTarget::GetDispatchIID
EXTRN	?GetTypeInfoCount@CCmdTarget@@UAEIXZ:NEAR	; CCmdTarget::GetTypeInfoCount
EXTRN	?GetTypeLibCache@CCmdTarget@@UAEPAVCTypeLibCache@@XZ:NEAR ; CCmdTarget::GetTypeLibCache
EXTRN	?get_accHelpTopic@CWnd@@UAEJPAPAGUtagVARIANT@@PAJ@Z:NEAR ; CWnd::get_accHelpTopic
EXTRN	?GetTypeLib@CCmdTarget@@UAEJKPAPAUITypeLib@@@Z:NEAR ; CCmdTarget::GetTypeLib
EXTRN	?get_accKeyboardShortcut@CWnd@@UAEJUtagVARIANT@@PAPAG@Z:NEAR ; CWnd::get_accKeyboardShortcut
EXTRN	?get_accFocus@CWnd@@UAEJPAUtagVARIANT@@@Z:NEAR	; CWnd::get_accFocus
EXTRN	?get_accSelection@CWnd@@UAEJPAUtagVARIANT@@@Z:NEAR ; CWnd::get_accSelection
EXTRN	?get_accDefaultAction@CWnd@@UAEJUtagVARIANT@@PAPAG@Z:NEAR ; CWnd::get_accDefaultAction
EXTRN	?accSelect@CWnd@@UAEJJUtagVARIANT@@@Z:NEAR	; CWnd::accSelect
EXTRN	?accLocation@CWnd@@UAEJPAJ000UtagVARIANT@@@Z:NEAR ; CWnd::accLocation
EXTRN	?GetCommandMap@CCmdTarget@@MBEPBUAFX_OLECMDMAP@@XZ:NEAR ; CCmdTarget::GetCommandMap
EXTRN	?accNavigate@CWnd@@UAEJJUtagVARIANT@@PAU2@@Z:NEAR ; CWnd::accNavigate
EXTRN	?accHitTest@CWnd@@UAEJJJPAUtagVARIANT@@@Z:NEAR	; CWnd::accHitTest
EXTRN	?accDoDefaultAction@CWnd@@UAEJUtagVARIANT@@@Z:NEAR ; CWnd::accDoDefaultAction
EXTRN	?GetDispatchMap@CCmdTarget@@MBEPBUAFX_DISPMAP@@XZ:NEAR ; CCmdTarget::GetDispatchMap
EXTRN	?put_accName@CWnd@@UAEJUtagVARIANT@@PAG@Z:NEAR	; CWnd::put_accName
EXTRN	?put_accValue@CWnd@@UAEJUtagVARIANT@@PAG@Z:NEAR	; CWnd::put_accValue
EXTRN	?GetConnectionMap@CCmdTarget@@MBEPBUAFX_CONNECTIONMAP@@XZ:NEAR ; CCmdTarget::GetConnectionMap
EXTRN	?SetProxy@CWnd@@UAEJPAUIAccessibleProxy@@@Z:NEAR ; CWnd::SetProxy
EXTRN	?CreateAccessibleProxy@CWnd@@UAEJIJPAJ@Z:NEAR	; CWnd::CreateAccessibleProxy
EXTRN	?GetEventSinkMap@CCmdTarget@@MBEPBUAFX_EVENTSINKMAP@@XZ:NEAR ; CCmdTarget::GetEventSinkMap
EXTRN	?OnCommand@CWnd@@MAEHIJ@Z:NEAR			; CWnd::OnCommand
EXTRN	?OnNotify@CWnd@@MAEHIJPAJ@Z:NEAR		; CWnd::OnNotify
EXTRN	?OnCreateAggregates@CCmdTarget@@UAEHXZ:NEAR	; CCmdTarget::OnCreateAggregates
EXTRN	?GetInterfaceHook@CCmdTarget@@UAEPAUIUnknown@@PBX@Z:NEAR ; CCmdTarget::GetInterfaceHook
EXTRN	?GetExtraConnectionPoints@CCmdTarget@@MAEHPAVCPtrArray@@@Z:NEAR ; CCmdTarget::GetExtraConnectionPoints
EXTRN	?GetConnectionHook@CCmdTarget@@MAEPAUIConnectionPoint@@ABU_GUID@@@Z:NEAR ; CCmdTarget::GetConnectionHook
EXTRN	??0CWnd@@QAE@XZ:NEAR				; CWnd::CWnd
EXTRN	?PreSubclassWindow@CWnd@@UAEXXZ:NEAR		; CWnd::PreSubclassWindow
EXTRN	?CreateEx@CWnd@@UAEHKPBD0KHHHHPAUHWND__@@PAUHMENU__@@PAX@Z:NEAR ; CWnd::CreateEx
EXTRN	?CreateEx@CWnd@@UAEHKPBD0KABUtagRECT@@PAV1@IPAX@Z:NEAR ; CWnd::CreateEx
EXTRN	?DestroyWindow@CWnd@@UAEHXZ:NEAR		; CWnd::DestroyWindow
EXTRN	?PreCreateWindow@CWnd@@UAEHAAUtagCREATESTRUCTA@@@Z:NEAR ; CWnd::PreCreateWindow
EXTRN	?CalcWindowRect@CWnd@@UAEXPAUtagRECT@@I@Z:NEAR	; CWnd::CalcWindowRect
EXTRN	?GetSuperWndProcAddr@CWnd@@MAEPAP6GJPAUHWND__@@IIJ@ZXZ:NEAR ; CWnd::GetSuperWndProcAddr
EXTRN	?DoDataExchange@CWnd@@MAEXPAVCDataExchange@@@Z:NEAR ; CWnd::DoDataExchange
EXTRN	?BeginModalState@CWnd@@UAEXXZ:NEAR		; CWnd::BeginModalState
EXTRN	?EndModalState@CWnd@@UAEXXZ:NEAR		; CWnd::EndModalState
EXTRN	?PreTranslateMessage@CWnd@@UAEHPAUtagMSG@@@Z:NEAR ; CWnd::PreTranslateMessage
EXTRN	?OnAmbientProperty@CWnd@@UAEHPAVCOleControlSite@@JPAUtagVARIANT@@@Z:NEAR ; CWnd::OnAmbientProperty
EXTRN	?WindowProc@CWnd@@MAEJIIJ@Z:NEAR		; CWnd::WindowProc
EXTRN	?OnWndMsg@CWnd@@MAEHIIJPAJ@Z:NEAR		; CWnd::OnWndMsg
EXTRN	?DefWindowProcA@CWnd@@MAEJIIJ@Z:NEAR		; CWnd::DefWindowProcA
EXTRN	?PostNcDestroy@CWnd@@MAEXXZ:NEAR		; CWnd::PostNcDestroy
EXTRN	?OnChildNotify@CWnd@@MAEHIIJPAJ@Z:NEAR		; CWnd::OnChildNotify
EXTRN	?CheckAutoCenter@CWnd@@UAEHXZ:NEAR		; CWnd::CheckAutoCenter
EXTRN	?AssertValid@CWnd@@UBEXXZ:NEAR			; CWnd::AssertValid
EXTRN	?Dump@CWnd@@UBEXAAVCDumpContext@@@Z:NEAR	; CWnd::Dump
EXTRN	?IsFrameWnd@CWnd@@UBEHXZ:NEAR			; CWnd::IsFrameWnd
EXTRN	?OnFinalRelease@CWnd@@UAEXXZ:NEAR		; CWnd::OnFinalRelease
EXTRN	?CreateControlContainer@CWnd@@MAEHPAPAVCOleControlContainer@@@Z:NEAR ; CWnd::CreateControlContainer
EXTRN	?CreateControlSite@CWnd@@MAEHPAVCOleControlContainer@@PAPAVCOleControlSite@@IABU_GUID@@@Z:NEAR ; CWnd::CreateControlSite
EXTRN	?SetOccDialogInfo@CWnd@@MAEHPAU_AFX_OCC_DIALOG_INFO@@@Z:NEAR ; CWnd::SetOccDialogInfo
EXTRN	?GetMessageMap@CWnd@@MBEPBUAFX_MSGMAP@@XZ:NEAR	; CWnd::GetMessageMap
EXTRN	?OnToolHitTest@CWnd@@UBEHVCPoint@@PAUtagTOOLINFOA@@@Z:NEAR ; CWnd::OnToolHitTest
;	COMDAT ??_7CWSpell@@6B@
CONST	SEGMENT
??_7CWSpell@@6B@ DD FLAT:?GetRuntimeClass@CWSpell@@UBEPAUCRuntimeClass@@XZ ; CWSpell::`vftable'
	DD	FLAT:??_ECWSpell@@UAEPAXI@Z
	DD	FLAT:?Serialize@CObject@@UAEXAAVCArchive@@@Z
	DD	FLAT:?AssertValid@CWnd@@UBEXXZ
	DD	FLAT:?Dump@CWnd@@UBEXAAVCDumpContext@@@Z
	DD	FLAT:?OnCmdMsg@CCmdTarget@@UAEHIHPAXPAUAFX_CMDHANDLERINFO@@@Z
	DD	FLAT:?OnFinalRelease@CWnd@@UAEXXZ
	DD	FLAT:?IsInvokeAllowed@CCmdTarget@@UAEHJ@Z
	DD	FLAT:?GetDispatchIID@CCmdTarget@@UAEHPAU_GUID@@@Z
	DD	FLAT:?GetTypeInfoCount@CCmdTarget@@UAEIXZ
	DD	FLAT:?GetTypeLibCache@CCmdTarget@@UAEPAVCTypeLibCache@@XZ
	DD	FLAT:?GetTypeLib@CCmdTarget@@UAEJKPAPAUITypeLib@@@Z
	DD	FLAT:?GetMessageMap@CWnd@@MBEPBUAFX_MSGMAP@@XZ
	DD	FLAT:?GetCommandMap@CCmdTarget@@MBEPBUAFX_OLECMDMAP@@XZ
	DD	FLAT:?GetDispatchMap@CCmdTarget@@MBEPBUAFX_DISPMAP@@XZ
	DD	FLAT:?GetConnectionMap@CCmdTarget@@MBEPBUAFX_CONNECTIONMAP@@XZ
	DD	FLAT:?GetInterfaceMap@CWnd@@MBEPBUAFX_INTERFACEMAP@@XZ
	DD	FLAT:?GetEventSinkMap@CCmdTarget@@MBEPBUAFX_EVENTSINKMAP@@XZ
	DD	FLAT:?OnCreateAggregates@CCmdTarget@@UAEHXZ
	DD	FLAT:?GetInterfaceHook@CCmdTarget@@UAEPAUIUnknown@@PBX@Z
	DD	FLAT:?GetExtraConnectionPoints@CCmdTarget@@MAEHPAVCPtrArray@@@Z
	DD	FLAT:?GetConnectionHook@CCmdTarget@@MAEPAUIConnectionPoint@@ABU_GUID@@@Z
	DD	FLAT:?PreSubclassWindow@CWnd@@UAEXXZ
	DD	FLAT:?Create@CWSpell@@UAEHPBD0KABUtagRECT@@PAVCWnd@@IPAUCCreateContext@@@Z
	DD	FLAT:?CreateEx@CWnd@@UAEHKPBD0KABUtagRECT@@PAV1@IPAX@Z
	DD	FLAT:?CreateEx@CWnd@@UAEHKPBD0KHHHHPAUHWND__@@PAUHMENU__@@PAX@Z
	DD	FLAT:?DestroyWindow@CWnd@@UAEHXZ
	DD	FLAT:?PreCreateWindow@CWnd@@UAEHAAUtagCREATESTRUCTA@@@Z
	DD	FLAT:?CalcWindowRect@CWnd@@UAEXPAUtagRECT@@I@Z
	DD	FLAT:?OnToolHitTest@CWnd@@UBEHVCPoint@@PAUtagTOOLINFOA@@@Z
	DD	FLAT:?GetScrollBarCtrl@CWnd@@UBEPAVCScrollBar@@H@Z
	DD	FLAT:?WinHelpA@CWnd@@UAEXKI@Z
	DD	FLAT:?HtmlHelpA@CWnd@@UAEXKI@Z
	DD	FLAT:?WinHelpInternal@CWnd@@UAEXKI@Z
	DD	FLAT:?ContinueModal@CWnd@@UAEHXZ
	DD	FLAT:?EndModalLoop@CWnd@@UAEXH@Z
	DD	FLAT:?EnsureStdObj@CWnd@@UAEJXZ
	DD	FLAT:?get_accParent@CWnd@@UAEJPAPAUIDispatch@@@Z
	DD	FLAT:?get_accChildCount@CWnd@@UAEJPAJ@Z
	DD	FLAT:?get_accChild@CWnd@@UAEJUtagVARIANT@@PAPAUIDispatch@@@Z
	DD	FLAT:?get_accName@CWnd@@UAEJUtagVARIANT@@PAPAG@Z
	DD	FLAT:?get_accValue@CWnd@@UAEJUtagVARIANT@@PAPAG@Z
	DD	FLAT:?get_accDescription@CWnd@@UAEJUtagVARIANT@@PAPAG@Z
	DD	FLAT:?get_accRole@CWnd@@UAEJUtagVARIANT@@PAU2@@Z
	DD	FLAT:?get_accState@CWnd@@UAEJUtagVARIANT@@PAU2@@Z
	DD	FLAT:?get_accHelp@CWnd@@UAEJUtagVARIANT@@PAPAG@Z
	DD	FLAT:?get_accHelpTopic@CWnd@@UAEJPAPAGUtagVARIANT@@PAJ@Z
	DD	FLAT:?get_accKeyboardShortcut@CWnd@@UAEJUtagVARIANT@@PAPAG@Z
	DD	FLAT:?get_accFocus@CWnd@@UAEJPAUtagVARIANT@@@Z
	DD	FLAT:?get_accSelection@CWnd@@UAEJPAUtagVARIANT@@@Z
	DD	FLAT:?get_accDefaultAction@CWnd@@UAEJUtagVARIANT@@PAPAG@Z
	DD	FLAT:?accSelect@CWnd@@UAEJJUtagVARIANT@@@Z
	DD	FLAT:?accLocation@CWnd@@UAEJPAJ000UtagVARIANT@@@Z
	DD	FLAT:?accNavigate@CWnd@@UAEJJUtagVARIANT@@PAU2@@Z
	DD	FLAT:?accHitTest@CWnd@@UAEJJJPAUtagVARIANT@@@Z
	DD	FLAT:?accDoDefaultAction@CWnd@@UAEJUtagVARIANT@@@Z
	DD	FLAT:?put_accName@CWnd@@UAEJUtagVARIANT@@PAG@Z
	DD	FLAT:?put_accValue@CWnd@@UAEJUtagVARIANT@@PAG@Z
	DD	FLAT:?SetProxy@CWnd@@UAEJPAUIAccessibleProxy@@@Z
	DD	FLAT:?CreateAccessibleProxy@CWnd@@UAEJIJPAJ@Z
	DD	FLAT:?OnCommand@CWnd@@MAEHIJ@Z
	DD	FLAT:?OnNotify@CWnd@@MAEHIJPAJ@Z
	DD	FLAT:?GetSuperWndProcAddr@CWnd@@MAEPAP6GJPAUHWND__@@IIJ@ZXZ
	DD	FLAT:?DoDataExchange@CWnd@@MAEXPAVCDataExchange@@@Z
	DD	FLAT:?BeginModalState@CWnd@@UAEXXZ
	DD	FLAT:?EndModalState@CWnd@@UAEXXZ
	DD	FLAT:?PreTranslateMessage@CWnd@@UAEHPAUtagMSG@@@Z
	DD	FLAT:?OnAmbientProperty@CWnd@@UAEHPAVCOleControlSite@@JPAUtagVARIANT@@@Z
	DD	FLAT:?WindowProc@CWnd@@MAEJIIJ@Z
	DD	FLAT:?OnWndMsg@CWnd@@MAEHIIJPAJ@Z
	DD	FLAT:?DefWindowProcA@CWnd@@MAEJIIJ@Z
	DD	FLAT:?PostNcDestroy@CWnd@@MAEXXZ
	DD	FLAT:?OnChildNotify@CWnd@@MAEHIIJPAJ@Z
	DD	FLAT:?CheckAutoCenter@CWnd@@UAEHXZ
	DD	FLAT:?IsFrameWnd@CWnd@@UBEHXZ
	DD	FLAT:?CreateControlContainer@CWnd@@MAEHPAPAVCOleControlContainer@@@Z
	DD	FLAT:?CreateControlSite@CWnd@@MAEHPAVCOleControlContainer@@PAPAVCOleControlSite@@IABU_GUID@@@Z
	DD	FLAT:?SetOccDialogInfo@CWnd@@MAEHPAU_AFX_OCC_DIALOG_INFO@@@Z
; Function compile flags: /Odt /RTCcsu /ZI
CONST	ENDS
;	COMDAT ??0CWSpell@@QAE@XZ
_TEXT	SEGMENT
_this$ = -8						; size = 4
??0CWSpell@@QAE@XZ PROC NEAR				; CWSpell::CWSpell, COMDAT
; _this$ = ecx
	push	ebp
	mov	ebp, esp
	sub	esp, 204				; 000000ccH
	push	ebx
	push	esi
	push	edi
	push	ecx
	lea	edi, DWORD PTR [ebp-204]
	mov	ecx, 51					; 00000033H
	mov	eax, -858993460				; ccccccccH
	rep stosd
	pop	ecx
	mov	DWORD PTR _this$[ebp], ecx
	mov	ecx, DWORD PTR _this$[ebp]
	call	??0CWnd@@QAE@XZ				; CWnd::CWnd
	mov	eax, DWORD PTR _this$[ebp]
	mov	DWORD PTR [eax], OFFSET FLAT:??_7CWSpell@@6B@
	mov	eax, DWORD PTR _this$[ebp]
	pop	edi
	pop	esi
	pop	ebx
	add	esp, 204				; 000000ccH
	cmp	ebp, esp
	call	__RTC_CheckEsp
	mov	esp, ebp
	pop	ebp
	ret	0
??0CWSpell@@QAE@XZ ENDP					; CWSpell::CWSpell
_TEXT	ENDS
PUBLIC	?GetClsid@CWSpell@@QAEABU_GUID@@XZ		; CWSpell::GetClsid
EXTRN	?CreateControl@CWnd@@QAEHABU_GUID@@PBDKABUtagRECT@@PAV1@IPAVCFile@@HPAG@Z:NEAR ; CWnd::CreateControl
; Function compile flags: /Odt /RTCcsu /ZI
; File c:\astrow32dev\tbt32\wspell.h
;	COMDAT ?Create@CWSpell@@UAEHPBD0KABUtagRECT@@PAVCWnd@@IPAUCCreateContext@@@Z
_TEXT	SEGMENT
_this$ = -8						; size = 4
_lpszClassName$ = 8					; size = 4
_lpszWindowName$ = 12					; size = 4
_dwStyle$ = 16						; size = 4
_rect$ = 20						; size = 4
_pParentWnd$ = 24					; size = 4
_nID$ = 28						; size = 4
_pContext$ = 32						; size = 4
?Create@CWSpell@@UAEHPBD0KABUtagRECT@@PAVCWnd@@IPAUCCreateContext@@@Z PROC NEAR ; CWSpell::Create, COMDAT
; _this$ = ecx

; 31   : 	{ return CreateControl(GetClsid(), lpszWindowName, dwStyle, rect, pParentWnd, nID); }

	push	ebp
	mov	ebp, esp
	sub	esp, 204				; 000000ccH
	push	ebx
	push	esi
	push	edi
	push	ecx
	lea	edi, DWORD PTR [ebp-204]
	mov	ecx, 51					; 00000033H
	mov	eax, -858993460				; ccccccccH
	rep stosd
	pop	ecx
	mov	DWORD PTR _this$[ebp], ecx
	push	0
	push	0
	push	0
	mov	eax, DWORD PTR _nID$[ebp]
	push	eax
	mov	ecx, DWORD PTR _pParentWnd$[ebp]
	push	ecx
	mov	edx, DWORD PTR _rect$[ebp]
	push	edx
	mov	eax, DWORD PTR _dwStyle$[ebp]
	push	eax
	mov	ecx, DWORD PTR _lpszWindowName$[ebp]
	push	ecx
	mov	ecx, DWORD PTR _this$[ebp]
	call	?GetClsid@CWSpell@@QAEABU_GUID@@XZ	; CWSpell::GetClsid
	push	eax
	mov	ecx, DWORD PTR _this$[ebp]
	call	?CreateControl@CWnd@@QAEHABU_GUID@@PBDKABUtagRECT@@PAV1@IPAVCFile@@HPAG@Z ; CWnd::CreateControl
	pop	edi
	pop	esi
	pop	ebx
	add	esp, 204				; 000000ccH
	cmp	ebp, esp
	call	__RTC_CheckEsp
	mov	esp, ebp
	pop	ebp
	ret	28					; 0000001cH
?Create@CWSpell@@UAEHPBD0KABUtagRECT@@PAVCWnd@@IPAUCCreateContext@@@Z ENDP ; CWSpell::Create
_TEXT	ENDS
PUBLIC	?clsid@?1??GetClsid@CWSpell@@QAEABU_GUID@@XZ@4U3@B ; `CWSpell::GetClsid'::`2'::clsid
;	COMDAT ?clsid@?1??GetClsid@CWSpell@@QAEABU_GUID@@XZ@4U3@B
CONST	SEGMENT
?clsid@?1??GetClsid@CWSpell@@QAEABU_GUID@@XZ@4U3@B DD 0245338c3H ; `CWSpell::GetClsid'::`2'::clsid
	DW	0bca3H
	DW	04a2cH
	DB	0a7H
	DB	0b7H
	DB	053H
	DB	034H
	DB	059H
	DB	099H
	DB	0a8H
	DB	0e8H
; Function compile flags: /Odt /RTCcsu /ZI
CONST	ENDS
;	COMDAT ?GetClsid@CWSpell@@QAEABU_GUID@@XZ
_TEXT	SEGMENT
_this$ = -8						; size = 4
?GetClsid@CWSpell@@QAEABU_GUID@@XZ PROC NEAR		; CWSpell::GetClsid, COMDAT
; _this$ = ecx

; 21   : 	{

	push	ebp
	mov	ebp, esp
	sub	esp, 204				; 000000ccH
	push	ebx
	push	esi
	push	edi
	push	ecx
	lea	edi, DWORD PTR [ebp-204]
	mov	ecx, 51					; 00000033H
	mov	eax, -858993460				; ccccccccH
	rep stosd
	pop	ecx
	mov	DWORD PTR _this$[ebp], ecx

; 22   : 		static CLSID const clsid
; 23   : 			= { 0x245338c3, 0xbca3, 0x4a2c, { 0xa7, 0xb7, 0x53, 0x34, 0x59, 0x99, 0xa8, 0xe8 } };
; 24   : 		return clsid;

	mov	eax, OFFSET FLAT:?clsid@?1??GetClsid@CWSpell@@QAEABU_GUID@@XZ@4U3@B ; `CWSpell::GetClsid'::`2'::clsid

; 25   : 	}

	pop	edi
	pop	esi
	pop	ebx
	mov	esp, ebp
	pop	ebp
	ret	0
?GetClsid@CWSpell@@QAEABU_GUID@@XZ ENDP			; CWSpell::GetClsid
_TEXT	ENDS
PUBLIC	??1CWSpell@@UAE@XZ				; CWSpell::~CWSpell
; Function compile flags: /Odt /RTCcsu /ZI
;	COMDAT ??_GCWSpell@@UAEPAXI@Z
_TEXT	SEGMENT
_this$ = -8						; size = 4
___flags$ = 8						; size = 4
??_GCWSpell@@UAEPAXI@Z PROC NEAR			; CWSpell::`scalar deleting destructor', COMDAT
; _this$ = ecx
	push	ebp
	mov	ebp, esp
	sub	esp, 204				; 000000ccH
	push	ebx
	push	esi
	push	edi
	push	ecx
	lea	edi, DWORD PTR [ebp-204]
	mov	ecx, 51					; 00000033H
	mov	eax, -858993460				; ccccccccH
	rep stosd
	pop	ecx
	mov	DWORD PTR _this$[ebp], ecx
	mov	ecx, DWORD PTR _this$[ebp]
	call	??1CWSpell@@UAE@XZ
	mov	eax, DWORD PTR ___flags$[ebp]
	and	eax, 1
	je	SHORT $L93293
	mov	eax, DWORD PTR _this$[ebp]
	push	eax
	call	??3CObject@@SGXPAX@Z			; CObject::operator delete
$L93293:
	mov	eax, DWORD PTR _this$[ebp]
	pop	edi
	pop	esi
	pop	ebx
	add	esp, 204				; 000000ccH
	cmp	ebp, esp
	call	__RTC_CheckEsp
	mov	esp, ebp
	pop	ebp
	ret	4
??_GCWSpell@@UAEPAXI@Z ENDP				; CWSpell::`scalar deleting destructor'
_TEXT	ENDS
EXTRN	??1CWnd@@UAE@XZ:NEAR				; CWnd::~CWnd
; Function compile flags: /Odt /RTCcsu /ZI
;	COMDAT ??1CWSpell@@UAE@XZ
_TEXT	SEGMENT
_this$ = -8						; size = 4
??1CWSpell@@UAE@XZ PROC NEAR				; CWSpell::~CWSpell, COMDAT
; _this$ = ecx
	push	ebp
	mov	ebp, esp
	sub	esp, 204				; 000000ccH
	push	ebx
	push	esi
	push	edi
	push	ecx
	lea	edi, DWORD PTR [ebp-204]
	mov	ecx, 51					; 00000033H
	mov	eax, -858993460				; ccccccccH
	rep stosd
	pop	ecx
	mov	DWORD PTR _this$[ebp], ecx
	mov	ecx, DWORD PTR _this$[ebp]
	call	??1CWnd@@UAE@XZ				; CWnd::~CWnd
	pop	edi
	pop	esi
	pop	ebx
	add	esp, 204				; 000000ccH
	cmp	ebp, esp
	call	__RTC_CheckEsp
	mov	esp, ebp
	pop	ebp
	ret	0
??1CWSpell@@UAE@XZ ENDP					; CWSpell::~CWSpell
; Function compile flags: /Odt /RTCcsu /ZI
; File c:\astrow32dev\tbt32\wspell.cpp
_TEXT	ENDS
;	COMDAT ?GetRuntimeClass@CWSpell@@UBEPAUCRuntimeClass@@XZ
_TEXT	SEGMENT
_this$ = -8						; size = 4
?GetRuntimeClass@CWSpell@@UBEPAUCRuntimeClass@@XZ PROC NEAR ; CWSpell::GetRuntimeClass, COMDAT
; _this$ = ecx

; 18   : IMPLEMENT_DYNCREATE(CWSpell, CWnd)

	push	ebp
	mov	ebp, esp
	sub	esp, 204				; 000000ccH
	push	ebx
	push	esi
	push	edi
	push	ecx
	lea	edi, DWORD PTR [ebp-204]
	mov	ecx, 51					; 00000033H
	mov	eax, -858993460				; ccccccccH
	rep stosd
	pop	ecx
	mov	DWORD PTR _this$[ebp], ecx
	mov	eax, OFFSET FLAT:?classCWSpell@CWSpell@@2UCRuntimeClass@@B ; CWSpell::classCWSpell
	pop	edi
	pop	esi
	pop	ebx
	mov	esp, ebp
	pop	ebp
	ret	0
?GetRuntimeClass@CWSpell@@UBEPAUCRuntimeClass@@XZ ENDP	; CWSpell::GetRuntimeClass
_TEXT	ENDS
PUBLIC	?MakeName@@YA?AV?$CStringT@DV?$StrTraitMFC@DV?$ChTraitsCRT@D@ATL@@@@@ATL@@PADH@Z ; MakeName
PUBLIC	??_C@_01KICIPPFI@?2?$AA@			; `string'
PUBLIC	??_C@_05PGMGPAMI@2?4clx?$AA@			; `string'
PUBLIC	??_C@_05GIGJOCHO@?4tlx?$DL?$AA@			; `string'
PUBLIC	??A?$CSimpleStringT@D$0A@@ATL@@QBEDH@Z		; ATL::CSimpleStringT<char,0>::operator[]
PUBLIC	?GetLength@?$CSimpleStringT@D$0A@@ATL@@QBEHXZ	; ATL::CSimpleStringT<char,0>::GetLength
PUBLIC	??0?$CStringT@DV?$StrTraitMFC@DV?$ChTraitsCRT@D@ATL@@@@@ATL@@QAE@XZ ; ATL::CStringT<char,StrTraitMFC<char,ATL::ChTraitsCRT<char> > >::CStringT<char,StrTraitMFC<char,ATL::ChTraitsCRT<char> > >
PUBLIC	??0?$CStringT@DV?$StrTraitMFC@DV?$ChTraitsCRT@D@ATL@@@@@ATL@@QAE@ABV01@@Z ; ATL::CStringT<char,StrTraitMFC<char,ATL::ChTraitsCRT<char> > >::CStringT<char,StrTraitMFC<char,ATL::ChTraitsCRT<char> > >
PUBLIC	??1?$CStringT@DV?$StrTraitMFC@DV?$ChTraitsCRT@D@ATL@@@@@ATL@@QAE@XZ ; ATL::CStringT<char,StrTraitMFC<char,ATL::ChTraitsCRT<char> > >::~CStringT<char,StrTraitMFC<char,ATL::ChTraitsCRT<char> > >
PUBLIC	??4?$CStringT@DV?$StrTraitMFC@DV?$ChTraitsCRT@D@ATL@@@@@ATL@@QAEAAV01@ABV01@@Z ; ATL::CStringT<char,StrTraitMFC<char,ATL::ChTraitsCRT<char> > >::operator=
PUBLIC	??4?$CStringT@DV?$StrTraitMFC@DV?$ChTraitsCRT@D@ATL@@@@@ATL@@QAEAAV01@PBD@Z ; ATL::CStringT<char,StrTraitMFC<char,ATL::ChTraitsCRT<char> > >::operator=
PUBLIC	??Y?$CStringT@DV?$StrTraitMFC@DV?$ChTraitsCRT@D@ATL@@@@@ATL@@QAEAAV01@PBD@Z ; ATL::CStringT<char,StrTraitMFC<char,ATL::ChTraitsCRT<char> > >::operator+=
PUBLIC	??HATL@@YA?AV?$CStringT@DV?$StrTraitMFC@DV?$ChTraitsCRT@D@ATL@@@@@0@ABV10@0@Z ; ATL::operator+
PUBLIC	??HATL@@YA?AV?$CStringT@DV?$StrTraitMFC@DV?$ChTraitsCRT@D@ATL@@@@@0@ABV10@PBD@Z ; ATL::operator+
EXTRN	_getcwd:NEAR
EXTRN	___security_cookie:DWORD
EXTRN	@_RTC_CheckStackVars@8:NEAR
EXTRN	@__security_check_cookie@4:NEAR
;	COMDAT xdata$x
xdata$x	SEGMENT
__unwindtable$?MakeName@@YA?AV?$CStringT@DV?$StrTraitMFC@DV?$ChTraitsCRT@D@ATL@@@@@ATL@@PADH@Z DD 0ffffffffH
	DD	FLAT:__unwindfunclet$?MakeName@@YA?AV?$CStringT@DV?$StrTraitMFC@DV?$ChTraitsCRT@D@ATL@@@@@ATL@@PADH@Z$0
	DD	00H
	DD	FLAT:__unwindfunclet$?MakeName@@YA?AV?$CStringT@DV?$StrTraitMFC@DV?$ChTraitsCRT@D@ATL@@@@@ATL@@PADH@Z$1
	DD	01H
	DD	FLAT:__unwindfunclet$?MakeName@@YA?AV?$CStringT@DV?$StrTraitMFC@DV?$ChTraitsCRT@D@ATL@@@@@ATL@@PADH@Z$2
	DD	02H
	DD	FLAT:__unwindfunclet$?MakeName@@YA?AV?$CStringT@DV?$StrTraitMFC@DV?$ChTraitsCRT@D@ATL@@@@@ATL@@PADH@Z$3
	DD	03H
	DD	FLAT:__unwindfunclet$?MakeName@@YA?AV?$CStringT@DV?$StrTraitMFC@DV?$ChTraitsCRT@D@ATL@@@@@ATL@@PADH@Z$4
__ehfuncinfo$?MakeName@@YA?AV?$CStringT@DV?$StrTraitMFC@DV?$ChTraitsCRT@D@ATL@@@@@ATL@@PADH@Z DD 019930520H
	DD	05H
	DD	FLAT:__unwindtable$?MakeName@@YA?AV?$CStringT@DV?$StrTraitMFC@DV?$ChTraitsCRT@D@ATL@@@@@ATL@@PADH@Z
	DD	2 DUP(00H)
	DD	2 DUP(00H)
xdata$x	ENDS
;	COMDAT ??_C@_01KICIPPFI@?2?$AA@
CONST	SEGMENT
??_C@_01KICIPPFI@?2?$AA@ DB '\', 00H			; `string'
CONST	ENDS
;	COMDAT ??_C@_05GIGJOCHO@?4tlx?$DL?$AA@
CONST	SEGMENT
??_C@_05GIGJOCHO@?4tlx?$DL?$AA@ DB '.tlx;', 00H		; `string'
CONST	ENDS
;	COMDAT ??_C@_05PGMGPAMI@2?4clx?$AA@
CONST	SEGMENT
??_C@_05PGMGPAMI@2?4clx?$AA@ DB '2.clx', 00H		; `string'
; Function compile flags: /Odt /RTCcsu /ZI
CONST	ENDS
;	COMDAT ?MakeName@@YA?AV?$CStringT@DV?$StrTraitMFC@DV?$ChTraitsCRT@D@ATL@@@@@ATL@@PADH@Z
_TEXT	SEGMENT
tv151 = -564						; size = 4
tv141 = -560						; size = 4
tv149 = -556						; size = 4
tv65 = -552						; size = 4
tv147 = -548						; size = 4
tv68 = -544						; size = 4
$T94407 = -536						; size = 4
$T94408 = -524						; size = 4
$T94409 = -512						; size = 4
$T94416 = -500						; size = 4
_str$ = -296						; size = 4
_ret$ = -284						; size = 4
_buf$ = -272						; size = 250
__$ArrayPad$ = -16					; size = 4
__$EHRec$ = -12						; size = 12
__$ReturnAddr$ = 4					; size = 4
___$ReturnUdt$ = 8					; size = 4
_p$ = 12						; size = 4
_one$ = 16						; size = 4
?MakeName@@YA?AV?$CStringT@DV?$StrTraitMFC@DV?$ChTraitsCRT@D@ATL@@@@@ATL@@PADH@Z PROC NEAR ; MakeName, COMDAT

; 24   : {

	push	ebp
	mov	ebp, esp
	push	-1
	push	__ehhandler$?MakeName@@YA?AV?$CStringT@DV?$StrTraitMFC@DV?$ChTraitsCRT@D@ATL@@@@@ATL@@PADH@Z
	mov	eax, DWORD PTR fs:__except_list
	push	eax
	mov	DWORD PTR fs:__except_list, esp
	sub	esp, 552				; 00000228H
	push	ebx
	push	esi
	push	edi
	lea	edi, DWORD PTR [ebp-564]
	mov	ecx, 138				; 0000008aH
	mov	eax, -858993460				; ccccccccH
	rep stosd
	mov	eax, DWORD PTR ___security_cookie
	mov	DWORD PTR __$ArrayPad$[ebp], eax
	mov	DWORD PTR $T94416[ebp], 0

; 25   :   char buf[250];
; 26   :   CString ret, str;

	lea	ecx, DWORD PTR _ret$[ebp]
	call	??0?$CStringT@DV?$StrTraitMFC@DV?$ChTraitsCRT@D@ATL@@@@@ATL@@QAE@XZ ; ATL::CStringT<char,StrTraitMFC<char,ATL::ChTraitsCRT<char> > >::CStringT<char,StrTraitMFC<char,ATL::ChTraitsCRT<char> > >
	mov	DWORD PTR __$EHRec$[ebp+8], 0
	lea	ecx, DWORD PTR _str$[ebp]
	call	??0?$CStringT@DV?$StrTraitMFC@DV?$ChTraitsCRT@D@ATL@@@@@ATL@@QAE@XZ ; ATL::CStringT<char,StrTraitMFC<char,ATL::ChTraitsCRT<char> > >::CStringT<char,StrTraitMFC<char,ATL::ChTraitsCRT<char> > >
	mov	BYTE PTR __$EHRec$[ebp+8], 1

; 27   : #ifndef TBT32
; 28   :   str= theDirectories.getMain();
; 29   : #else
; 30   :   str = getcwd(buf,249);

	push	249					; 000000f9H
	lea	eax, DWORD PTR _buf$[ebp]
	push	eax
	call	_getcwd
	add	esp, 8
	push	eax
	lea	ecx, DWORD PTR _str$[ebp]
	call	??4?$CStringT@DV?$StrTraitMFC@DV?$ChTraitsCRT@D@ATL@@@@@ATL@@QAEAAV01@PBD@Z ; ATL::CStringT<char,StrTraitMFC<char,ATL::ChTraitsCRT<char> > >::operator=

; 31   : #endif
; 32   :   if ( str[str.GetLength()-1] != '\\' )

	lea	ecx, DWORD PTR _str$[ebp]
	call	?GetLength@?$CSimpleStringT@D$0A@@ATL@@QBEHXZ ; ATL::CSimpleStringT<char,0>::GetLength
	sub	eax, 1
	push	eax
	lea	ecx, DWORD PTR _str$[ebp]
	call	??A?$CSimpleStringT@D$0A@@ATL@@QBEDH@Z	; ATL::CSimpleStringT<char,0>::operator[]
	movsx	eax, al
	cmp	eax, 92					; 0000005cH
	je	SHORT $L93311

; 33   : 	  str += "\\";

	push	OFFSET FLAT:??_C@_01KICIPPFI@?2?$AA@
	lea	ecx, DWORD PTR _str$[ebp]
	call	??Y?$CStringT@DV?$StrTraitMFC@DV?$ChTraitsCRT@D@ATL@@@@@ATL@@QAEAAV01@PBD@Z ; ATL::CStringT<char,StrTraitMFC<char,ATL::ChTraitsCRT<char> > >::operator+=
$L93311:

; 34   :   str += p;

	mov	eax, DWORD PTR _p$[ebp]
	push	eax
	lea	ecx, DWORD PTR _str$[ebp]
	call	??Y?$CStringT@DV?$StrTraitMFC@DV?$ChTraitsCRT@D@ATL@@@@@ATL@@QAEAAV01@PBD@Z ; ATL::CStringT<char,StrTraitMFC<char,ATL::ChTraitsCRT<char> > >::operator+=

; 35   :   if ( !one )

	cmp	DWORD PTR _one$[ebp], 0
	jne	$L93313

; 36   :     ret = str + ".tlx;" + str + "2.clx";

	push	OFFSET FLAT:??_C@_05GIGJOCHO@?4tlx?$DL?$AA@
	lea	eax, DWORD PTR _str$[ebp]
	push	eax
	lea	ecx, DWORD PTR $T94407[ebp]
	push	ecx
	call	??HATL@@YA?AV?$CStringT@DV?$StrTraitMFC@DV?$ChTraitsCRT@D@ATL@@@@@0@ABV10@PBD@Z ; ATL::operator+
	add	esp, 12					; 0000000cH
	mov	DWORD PTR tv68[ebp], eax
	mov	edx, DWORD PTR tv68[ebp]
	mov	DWORD PTR tv147[ebp], edx
	mov	BYTE PTR __$EHRec$[ebp+8], 2
	lea	eax, DWORD PTR _str$[ebp]
	push	eax
	mov	ecx, DWORD PTR tv147[ebp]
	push	ecx
	lea	edx, DWORD PTR $T94408[ebp]
	push	edx
	call	??HATL@@YA?AV?$CStringT@DV?$StrTraitMFC@DV?$ChTraitsCRT@D@ATL@@@@@0@ABV10@0@Z ; ATL::operator+
	add	esp, 12					; 0000000cH
	mov	DWORD PTR tv65[ebp], eax
	mov	eax, DWORD PTR tv65[ebp]
	mov	DWORD PTR tv149[ebp], eax
	mov	BYTE PTR __$EHRec$[ebp+8], 3
	push	OFFSET FLAT:??_C@_05PGMGPAMI@2?4clx?$AA@
	mov	ecx, DWORD PTR tv149[ebp]
	push	ecx
	lea	edx, DWORD PTR $T94409[ebp]
	push	edx
	call	??HATL@@YA?AV?$CStringT@DV?$StrTraitMFC@DV?$ChTraitsCRT@D@ATL@@@@@0@ABV10@PBD@Z ; ATL::operator+
	add	esp, 12					; 0000000cH
	mov	DWORD PTR tv141[ebp], eax
	mov	eax, DWORD PTR tv141[ebp]
	mov	DWORD PTR tv151[ebp], eax
	mov	BYTE PTR __$EHRec$[ebp+8], 4
	mov	ecx, DWORD PTR tv151[ebp]
	push	ecx
	lea	ecx, DWORD PTR _ret$[ebp]
	call	??4?$CStringT@DV?$StrTraitMFC@DV?$ChTraitsCRT@D@ATL@@@@@ATL@@QAEAAV01@ABV01@@Z ; ATL::CStringT<char,StrTraitMFC<char,ATL::ChTraitsCRT<char> > >::operator=
	mov	BYTE PTR __$EHRec$[ebp+8], 3
	lea	ecx, DWORD PTR $T94409[ebp]
	call	??1?$CStringT@DV?$StrTraitMFC@DV?$ChTraitsCRT@D@ATL@@@@@ATL@@QAE@XZ ; ATL::CStringT<char,StrTraitMFC<char,ATL::ChTraitsCRT<char> > >::~CStringT<char,StrTraitMFC<char,ATL::ChTraitsCRT<char> > >
	mov	BYTE PTR __$EHRec$[ebp+8], 2
	lea	ecx, DWORD PTR $T94408[ebp]
	call	??1?$CStringT@DV?$StrTraitMFC@DV?$ChTraitsCRT@D@ATL@@@@@ATL@@QAE@XZ ; ATL::CStringT<char,StrTraitMFC<char,ATL::ChTraitsCRT<char> > >::~CStringT<char,StrTraitMFC<char,ATL::ChTraitsCRT<char> > >
	mov	BYTE PTR __$EHRec$[ebp+8], 1
	lea	ecx, DWORD PTR $T94407[ebp]
	call	??1?$CStringT@DV?$StrTraitMFC@DV?$ChTraitsCRT@D@ATL@@@@@ATL@@QAE@XZ ; ATL::CStringT<char,StrTraitMFC<char,ATL::ChTraitsCRT<char> > >::~CStringT<char,StrTraitMFC<char,ATL::ChTraitsCRT<char> > >
$L93313:

; 37   :   return( ret );

	lea	eax, DWORD PTR _ret$[ebp]
	push	eax
	mov	ecx, DWORD PTR ___$ReturnUdt$[ebp]
	call	??0?$CStringT@DV?$StrTraitMFC@DV?$ChTraitsCRT@D@ATL@@@@@ATL@@QAE@ABV01@@Z ; ATL::CStringT<char,StrTraitMFC<char,ATL::ChTraitsCRT<char> > >::CStringT<char,StrTraitMFC<char,ATL::ChTraitsCRT<char> > >
	mov	ecx, DWORD PTR $T94416[ebp]
	or	ecx, 1
	mov	DWORD PTR $T94416[ebp], ecx
	mov	BYTE PTR __$EHRec$[ebp+8], 0
	lea	ecx, DWORD PTR _str$[ebp]
	call	??1?$CStringT@DV?$StrTraitMFC@DV?$ChTraitsCRT@D@ATL@@@@@ATL@@QAE@XZ ; ATL::CStringT<char,StrTraitMFC<char,ATL::ChTraitsCRT<char> > >::~CStringT<char,StrTraitMFC<char,ATL::ChTraitsCRT<char> > >
	mov	DWORD PTR __$EHRec$[ebp+8], -1
	lea	ecx, DWORD PTR _ret$[ebp]
	call	??1?$CStringT@DV?$StrTraitMFC@DV?$ChTraitsCRT@D@ATL@@@@@ATL@@QAE@XZ ; ATL::CStringT<char,StrTraitMFC<char,ATL::ChTraitsCRT<char> > >::~CStringT<char,StrTraitMFC<char,ATL::ChTraitsCRT<char> > >
	mov	eax, DWORD PTR ___$ReturnUdt$[ebp]

; 38   : }

	push	edx
	mov	ecx, ebp
	push	eax
	lea	edx, DWORD PTR $L94427
	call	@_RTC_CheckStackVars@8
	pop	eax
	pop	edx
	mov	ecx, DWORD PTR __$EHRec$[ebp]
	mov	DWORD PTR fs:__except_list, ecx
	mov	ecx, DWORD PTR __$ArrayPad$[ebp]
	call	@__security_check_cookie@4
	pop	edi
	pop	esi
	pop	ebx
	add	esp, 564				; 00000234H
	cmp	ebp, esp
	call	__RTC_CheckEsp
	mov	esp, ebp
	pop	ebp
	ret	0
$L94427:
	DD	3
	DD	$L94426
$L94426:
	DD	-272					; fffffef0H
	DD	250					; 000000faH
	DD	$L94420
	DD	-284					; fffffee4H
	DD	4
	DD	$L94421
	DD	-296					; fffffed8H
	DD	4
	DD	$L94422
$L94422:
	DB	115					; 00000073H
	DB	116					; 00000074H
	DB	114					; 00000072H
	DB	0
$L94421:
	DB	114					; 00000072H
	DB	101					; 00000065H
	DB	116					; 00000074H
	DB	0
$L94420:
	DB	98					; 00000062H
	DB	117					; 00000075H
	DB	102					; 00000066H
	DB	0
_TEXT	ENDS
;	COMDAT text$x
text$x	SEGMENT
__unwindfunclet$?MakeName@@YA?AV?$CStringT@DV?$StrTraitMFC@DV?$ChTraitsCRT@D@ATL@@@@@ATL@@PADH@Z$0:
	lea	ecx, DWORD PTR _ret$[ebp]
	jmp	??1?$CStringT@DV?$StrTraitMFC@DV?$ChTraitsCRT@D@ATL@@@@@ATL@@QAE@XZ ; ATL::CStringT<char,StrTraitMFC<char,ATL::ChTraitsCRT<char> > >::~CStringT<char,StrTraitMFC<char,ATL::ChTraitsCRT<char> > >
__unwindfunclet$?MakeName@@YA?AV?$CStringT@DV?$StrTraitMFC@DV?$ChTraitsCRT@D@ATL@@@@@ATL@@PADH@Z$1:
	lea	ecx, DWORD PTR _str$[ebp]
	jmp	??1?$CStringT@DV?$StrTraitMFC@DV?$ChTraitsCRT@D@ATL@@@@@ATL@@QAE@XZ ; ATL::CStringT<char,StrTraitMFC<char,ATL::ChTraitsCRT<char> > >::~CStringT<char,StrTraitMFC<char,ATL::ChTraitsCRT<char> > >
__unwindfunclet$?MakeName@@YA?AV?$CStringT@DV?$StrTraitMFC@DV?$ChTraitsCRT@D@ATL@@@@@ATL@@PADH@Z$2:
	lea	ecx, DWORD PTR $T94407[ebp]
	jmp	??1?$CStringT@DV?$StrTraitMFC@DV?$ChTraitsCRT@D@ATL@@@@@ATL@@QAE@XZ ; ATL::CStringT<char,StrTraitMFC<char,ATL::ChTraitsCRT<char> > >::~CStringT<char,StrTraitMFC<char,ATL::ChTraitsCRT<char> > >
__unwindfunclet$?MakeName@@YA?AV?$CStringT@DV?$StrTraitMFC@DV?$ChTraitsCRT@D@ATL@@@@@ATL@@PADH@Z$3:
	lea	ecx, DWORD PTR $T94408[ebp]
	jmp	??1?$CStringT@DV?$StrTraitMFC@DV?$ChTraitsCRT@D@ATL@@@@@ATL@@QAE@XZ ; ATL::CStringT<char,StrTraitMFC<char,ATL::ChTraitsCRT<char> > >::~CStringT<char,StrTraitMFC<char,ATL::ChTraitsCRT<char> > >
__unwindfunclet$?MakeName@@YA?AV?$CStringT@DV?$StrTraitMFC@DV?$ChTraitsCRT@D@ATL@@@@@ATL@@PADH@Z$4:
	lea	ecx, DWORD PTR $T94409[ebp]
	jmp	??1?$CStringT@DV?$StrTraitMFC@DV?$ChTraitsCRT@D@ATL@@@@@ATL@@QAE@XZ ; ATL::CStringT<char,StrTraitMFC<char,ATL::ChTraitsCRT<char> > >::~CStringT<char,StrTraitMFC<char,ATL::ChTraitsCRT<char> > >
__ehhandler$?MakeName@@YA?AV?$CStringT@DV?$StrTraitMFC@DV?$ChTraitsCRT@D@ATL@@@@@ATL@@PADH@Z:
	mov	eax, OFFSET FLAT:__ehfuncinfo$?MakeName@@YA?AV?$CStringT@DV?$StrTraitMFC@DV?$ChTraitsCRT@D@ATL@@@@@ATL@@PADH@Z
	jmp	___CxxFrameHandler
text$x	ENDS
?MakeName@@YA?AV?$CStringT@DV?$StrTraitMFC@DV?$ChTraitsCRT@D@ATL@@@@@ATL@@PADH@Z ENDP ; MakeName
PUBLIC	?MakeDics@@YA?AV?$CStringT@DV?$StrTraitMFC@DV?$ChTraitsCRT@D@ATL@@@@@ATL@@XZ ; MakeDics
PUBLIC	??_C@_07PNEOABME@sscream?$AA@			; `string'
PUBLIC	??_C@_01ICJEACDI@?$DL?$AA@			; `string'
PUBLIC	??_C@_06NGLILAGL@ssceca?$AA@			; `string'
PUBLIC	??_C@_06LGJFJLMO@sscebr?$AA@			; `string'
PUBLIC	??_C@_0L@HIGENLHL@accent?4clx?$AA@		; `string'
PUBLIC	??_C@_0M@HHIMOECC@correct?4clx?$AA@		; `string'
PUBLIC	??_C@_08EOMMGLAM@tech?4tlx?$AA@			; `string'
PUBLIC	??Y?$CStringT@DV?$StrTraitMFC@DV?$ChTraitsCRT@D@ATL@@@@@ATL@@QAEAAV01@ABV?$CSimpleStringT@D$0A@@1@@Z ; ATL::CStringT<char,StrTraitMFC<char,ATL::ChTraitsCRT<char> > >::operator+=
;	COMDAT xdata$x
xdata$x	SEGMENT
__unwindtable$?MakeDics@@YA?AV?$CStringT@DV?$StrTraitMFC@DV?$ChTraitsCRT@D@ATL@@@@@ATL@@XZ DD 0ffffffffH
	DD	FLAT:__unwindfunclet$?MakeDics@@YA?AV?$CStringT@DV?$StrTraitMFC@DV?$ChTraitsCRT@D@ATL@@@@@ATL@@XZ$0
	DD	00H
	DD	FLAT:__unwindfunclet$?MakeDics@@YA?AV?$CStringT@DV?$StrTraitMFC@DV?$ChTraitsCRT@D@ATL@@@@@ATL@@XZ$1
	DD	00H
	DD	FLAT:__unwindfunclet$?MakeDics@@YA?AV?$CStringT@DV?$StrTraitMFC@DV?$ChTraitsCRT@D@ATL@@@@@ATL@@XZ$2
	DD	00H
	DD	FLAT:__unwindfunclet$?MakeDics@@YA?AV?$CStringT@DV?$StrTraitMFC@DV?$ChTraitsCRT@D@ATL@@@@@ATL@@XZ$3
	DD	00H
	DD	FLAT:__unwindfunclet$?MakeDics@@YA?AV?$CStringT@DV?$StrTraitMFC@DV?$ChTraitsCRT@D@ATL@@@@@ATL@@XZ$4
	DD	00H
	DD	FLAT:__unwindfunclet$?MakeDics@@YA?AV?$CStringT@DV?$StrTraitMFC@DV?$ChTraitsCRT@D@ATL@@@@@ATL@@XZ$5
	DD	00H
	DD	FLAT:__unwindfunclet$?MakeDics@@YA?AV?$CStringT@DV?$StrTraitMFC@DV?$ChTraitsCRT@D@ATL@@@@@ATL@@XZ$6
__ehfuncinfo$?MakeDics@@YA?AV?$CStringT@DV?$StrTraitMFC@DV?$ChTraitsCRT@D@ATL@@@@@ATL@@XZ DD 019930520H
	DD	07H
	DD	FLAT:__unwindtable$?MakeDics@@YA?AV?$CStringT@DV?$StrTraitMFC@DV?$ChTraitsCRT@D@ATL@@@@@ATL@@XZ
	DD	2 DUP(00H)
	DD	2 DUP(00H)
xdata$x	ENDS
;	COMDAT ??_C@_07PNEOABME@sscream?$AA@
CONST	SEGMENT
??_C@_07PNEOABME@sscream?$AA@ DB 'sscream', 00H		; `string'
CONST	ENDS
;	COMDAT ??_C@_01ICJEACDI@?$DL?$AA@
CONST	SEGMENT
??_C@_01ICJEACDI@?$DL?$AA@ DB ';', 00H			; `string'
CONST	ENDS
;	COMDAT ??_C@_06NGLILAGL@ssceca?$AA@
CONST	SEGMENT
??_C@_06NGLILAGL@ssceca?$AA@ DB 'ssceca', 00H		; `string'
CONST	ENDS
;	COMDAT ??_C@_06LGJFJLMO@sscebr?$AA@
CONST	SEGMENT
??_C@_06LGJFJLMO@sscebr?$AA@ DB 'sscebr', 00H		; `string'
CONST	ENDS
;	COMDAT ??_C@_0L@HIGENLHL@accent?4clx?$AA@
CONST	SEGMENT
??_C@_0L@HIGENLHL@accent?4clx?$AA@ DB 'accent.clx', 00H	; `string'
CONST	ENDS
;	COMDAT ??_C@_0M@HHIMOECC@correct?4clx?$AA@
CONST	SEGMENT
??_C@_0M@HHIMOECC@correct?4clx?$AA@ DB 'correct.clx', 00H ; `string'
CONST	ENDS
;	COMDAT ??_C@_08EOMMGLAM@tech?4tlx?$AA@
CONST	SEGMENT
??_C@_08EOMMGLAM@tech?4tlx?$AA@ DB 'tech.tlx', 00H	; `string'
; Function compile flags: /Odt /RTCcsu /ZI
CONST	ENDS
;	COMDAT ?MakeDics@@YA?AV?$CStringT@DV?$StrTraitMFC@DV?$ChTraitsCRT@D@ATL@@@@@ATL@@XZ
_TEXT	SEGMENT
tv173 = -308						; size = 4
tv171 = -308						; size = 4
tv169 = -308						; size = 4
tv167 = -308						; size = 4
tv165 = -308						; size = 4
tv163 = -308						; size = 4
tv182 = -304						; size = 4
tv181 = -304						; size = 4
tv180 = -304						; size = 4
tv179 = -304						; size = 4
tv158 = -304						; size = 4
tv65 = -304						; size = 4
$T94435 = -296						; size = 4
$T94436 = -284						; size = 4
$T94437 = -272						; size = 4
$T94438 = -260						; size = 4
$T94439 = -248						; size = 4
$T94440 = -236						; size = 4
$T94449 = -224						; size = 4
_dirs$ = -20						; size = 4
__$EHRec$ = -12						; size = 12
___$ReturnUdt$ = 8					; size = 4
?MakeDics@@YA?AV?$CStringT@DV?$StrTraitMFC@DV?$ChTraitsCRT@D@ATL@@@@@ATL@@XZ PROC NEAR ; MakeDics, COMDAT

; 41   : {

	push	ebp
	mov	ebp, esp
	push	-1
	push	__ehhandler$?MakeDics@@YA?AV?$CStringT@DV?$StrTraitMFC@DV?$ChTraitsCRT@D@ATL@@@@@ATL@@XZ
	mov	eax, DWORD PTR fs:__except_list
	push	eax
	mov	DWORD PTR fs:__except_list, esp
	sub	esp, 296				; 00000128H
	push	ebx
	push	esi
	push	edi
	lea	edi, DWORD PTR [ebp-308]
	mov	ecx, 74					; 0000004aH
	mov	eax, -858993460				; ccccccccH
	rep stosd
	mov	DWORD PTR $T94449[ebp], 0

; 42   :  CString dirs;

	lea	ecx, DWORD PTR _dirs$[ebp]
	call	??0?$CStringT@DV?$StrTraitMFC@DV?$ChTraitsCRT@D@ATL@@@@@ATL@@QAE@XZ ; ATL::CStringT<char,StrTraitMFC<char,ATL::ChTraitsCRT<char> > >::CStringT<char,StrTraitMFC<char,ATL::ChTraitsCRT<char> > >
	mov	DWORD PTR __$EHRec$[ebp+8], 0

; 43   : 
; 44   :  dirs = MakeName("sscream",0);

	push	0
	push	OFFSET FLAT:??_C@_07PNEOABME@sscream?$AA@
	lea	eax, DWORD PTR $T94435[ebp]
	push	eax
	call	?MakeName@@YA?AV?$CStringT@DV?$StrTraitMFC@DV?$ChTraitsCRT@D@ATL@@@@@ATL@@PADH@Z ; MakeName
	add	esp, 12					; 0000000cH
	mov	DWORD PTR tv65[ebp], eax
	mov	ecx, DWORD PTR tv65[ebp]
	mov	DWORD PTR tv163[ebp], ecx
	mov	BYTE PTR __$EHRec$[ebp+8], 1
	mov	edx, DWORD PTR tv163[ebp]
	push	edx
	lea	ecx, DWORD PTR _dirs$[ebp]
	call	??4?$CStringT@DV?$StrTraitMFC@DV?$ChTraitsCRT@D@ATL@@@@@ATL@@QAEAAV01@ABV01@@Z ; ATL::CStringT<char,StrTraitMFC<char,ATL::ChTraitsCRT<char> > >::operator=
	mov	BYTE PTR __$EHRec$[ebp+8], 0
	lea	ecx, DWORD PTR $T94435[ebp]
	call	??1?$CStringT@DV?$StrTraitMFC@DV?$ChTraitsCRT@D@ATL@@@@@ATL@@QAE@XZ ; ATL::CStringT<char,StrTraitMFC<char,ATL::ChTraitsCRT<char> > >::~CStringT<char,StrTraitMFC<char,ATL::ChTraitsCRT<char> > >

; 45   :  dirs += ";";

	push	OFFSET FLAT:??_C@_01ICJEACDI@?$DL?$AA@
	lea	ecx, DWORD PTR _dirs$[ebp]
	call	??Y?$CStringT@DV?$StrTraitMFC@DV?$ChTraitsCRT@D@ATL@@@@@ATL@@QAEAAV01@PBD@Z ; ATL::CStringT<char,StrTraitMFC<char,ATL::ChTraitsCRT<char> > >::operator+=

; 46   :  dirs += MakeName("ssceca",0);

	push	0
	push	OFFSET FLAT:??_C@_06NGLILAGL@ssceca?$AA@
	lea	eax, DWORD PTR $T94436[ebp]
	push	eax
	call	?MakeName@@YA?AV?$CStringT@DV?$StrTraitMFC@DV?$ChTraitsCRT@D@ATL@@@@@ATL@@PADH@Z ; MakeName
	add	esp, 12					; 0000000cH
	mov	DWORD PTR tv158[ebp], eax
	mov	ecx, DWORD PTR tv158[ebp]
	mov	DWORD PTR tv165[ebp], ecx
	mov	BYTE PTR __$EHRec$[ebp+8], 2
	mov	edx, DWORD PTR tv165[ebp]
	push	edx
	lea	ecx, DWORD PTR _dirs$[ebp]
	call	??Y?$CStringT@DV?$StrTraitMFC@DV?$ChTraitsCRT@D@ATL@@@@@ATL@@QAEAAV01@ABV?$CSimpleStringT@D$0A@@1@@Z ; ATL::CStringT<char,StrTraitMFC<char,ATL::ChTraitsCRT<char> > >::operator+=
	mov	BYTE PTR __$EHRec$[ebp+8], 0
	lea	ecx, DWORD PTR $T94436[ebp]
	call	??1?$CStringT@DV?$StrTraitMFC@DV?$ChTraitsCRT@D@ATL@@@@@ATL@@QAE@XZ ; ATL::CStringT<char,StrTraitMFC<char,ATL::ChTraitsCRT<char> > >::~CStringT<char,StrTraitMFC<char,ATL::ChTraitsCRT<char> > >

; 47   :  dirs += ";";

	push	OFFSET FLAT:??_C@_01ICJEACDI@?$DL?$AA@
	lea	ecx, DWORD PTR _dirs$[ebp]
	call	??Y?$CStringT@DV?$StrTraitMFC@DV?$ChTraitsCRT@D@ATL@@@@@ATL@@QAEAAV01@PBD@Z ; ATL::CStringT<char,StrTraitMFC<char,ATL::ChTraitsCRT<char> > >::operator+=

; 48   :  dirs += MakeName("sscebr",0);

	push	0
	push	OFFSET FLAT:??_C@_06LGJFJLMO@sscebr?$AA@
	lea	eax, DWORD PTR $T94437[ebp]
	push	eax
	call	?MakeName@@YA?AV?$CStringT@DV?$StrTraitMFC@DV?$ChTraitsCRT@D@ATL@@@@@ATL@@PADH@Z ; MakeName
	add	esp, 12					; 0000000cH
	mov	DWORD PTR tv179[ebp], eax
	mov	ecx, DWORD PTR tv179[ebp]
	mov	DWORD PTR tv167[ebp], ecx
	mov	BYTE PTR __$EHRec$[ebp+8], 3
	mov	edx, DWORD PTR tv167[ebp]
	push	edx
	lea	ecx, DWORD PTR _dirs$[ebp]
	call	??Y?$CStringT@DV?$StrTraitMFC@DV?$ChTraitsCRT@D@ATL@@@@@ATL@@QAEAAV01@ABV?$CSimpleStringT@D$0A@@1@@Z ; ATL::CStringT<char,StrTraitMFC<char,ATL::ChTraitsCRT<char> > >::operator+=
	mov	BYTE PTR __$EHRec$[ebp+8], 0
	lea	ecx, DWORD PTR $T94437[ebp]
	call	??1?$CStringT@DV?$StrTraitMFC@DV?$ChTraitsCRT@D@ATL@@@@@ATL@@QAE@XZ ; ATL::CStringT<char,StrTraitMFC<char,ATL::ChTraitsCRT<char> > >::~CStringT<char,StrTraitMFC<char,ATL::ChTraitsCRT<char> > >

; 49   :  dirs += ";";

	push	OFFSET FLAT:??_C@_01ICJEACDI@?$DL?$AA@
	lea	ecx, DWORD PTR _dirs$[ebp]
	call	??Y?$CStringT@DV?$StrTraitMFC@DV?$ChTraitsCRT@D@ATL@@@@@ATL@@QAEAAV01@PBD@Z ; ATL::CStringT<char,StrTraitMFC<char,ATL::ChTraitsCRT<char> > >::operator+=

; 50   :  dirs += MakeName("accent.clx",1);

	push	1
	push	OFFSET FLAT:??_C@_0L@HIGENLHL@accent?4clx?$AA@
	lea	eax, DWORD PTR $T94438[ebp]
	push	eax
	call	?MakeName@@YA?AV?$CStringT@DV?$StrTraitMFC@DV?$ChTraitsCRT@D@ATL@@@@@ATL@@PADH@Z ; MakeName
	add	esp, 12					; 0000000cH
	mov	DWORD PTR tv180[ebp], eax
	mov	ecx, DWORD PTR tv180[ebp]
	mov	DWORD PTR tv169[ebp], ecx
	mov	BYTE PTR __$EHRec$[ebp+8], 4
	mov	edx, DWORD PTR tv169[ebp]
	push	edx
	lea	ecx, DWORD PTR _dirs$[ebp]
	call	??Y?$CStringT@DV?$StrTraitMFC@DV?$ChTraitsCRT@D@ATL@@@@@ATL@@QAEAAV01@ABV?$CSimpleStringT@D$0A@@1@@Z ; ATL::CStringT<char,StrTraitMFC<char,ATL::ChTraitsCRT<char> > >::operator+=
	mov	BYTE PTR __$EHRec$[ebp+8], 0
	lea	ecx, DWORD PTR $T94438[ebp]
	call	??1?$CStringT@DV?$StrTraitMFC@DV?$ChTraitsCRT@D@ATL@@@@@ATL@@QAE@XZ ; ATL::CStringT<char,StrTraitMFC<char,ATL::ChTraitsCRT<char> > >::~CStringT<char,StrTraitMFC<char,ATL::ChTraitsCRT<char> > >

; 51   :  dirs += ";";

	push	OFFSET FLAT:??_C@_01ICJEACDI@?$DL?$AA@
	lea	ecx, DWORD PTR _dirs$[ebp]
	call	??Y?$CStringT@DV?$StrTraitMFC@DV?$ChTraitsCRT@D@ATL@@@@@ATL@@QAEAAV01@PBD@Z ; ATL::CStringT<char,StrTraitMFC<char,ATL::ChTraitsCRT<char> > >::operator+=

; 52   :  dirs += MakeName("correct.clx",1);

	push	1
	push	OFFSET FLAT:??_C@_0M@HHIMOECC@correct?4clx?$AA@
	lea	eax, DWORD PTR $T94439[ebp]
	push	eax
	call	?MakeName@@YA?AV?$CStringT@DV?$StrTraitMFC@DV?$ChTraitsCRT@D@ATL@@@@@ATL@@PADH@Z ; MakeName
	add	esp, 12					; 0000000cH
	mov	DWORD PTR tv181[ebp], eax
	mov	ecx, DWORD PTR tv181[ebp]
	mov	DWORD PTR tv171[ebp], ecx
	mov	BYTE PTR __$EHRec$[ebp+8], 5
	mov	edx, DWORD PTR tv171[ebp]
	push	edx
	lea	ecx, DWORD PTR _dirs$[ebp]
	call	??Y?$CStringT@DV?$StrTraitMFC@DV?$ChTraitsCRT@D@ATL@@@@@ATL@@QAEAAV01@ABV?$CSimpleStringT@D$0A@@1@@Z ; ATL::CStringT<char,StrTraitMFC<char,ATL::ChTraitsCRT<char> > >::operator+=
	mov	BYTE PTR __$EHRec$[ebp+8], 0
	lea	ecx, DWORD PTR $T94439[ebp]
	call	??1?$CStringT@DV?$StrTraitMFC@DV?$ChTraitsCRT@D@ATL@@@@@ATL@@QAE@XZ ; ATL::CStringT<char,StrTraitMFC<char,ATL::ChTraitsCRT<char> > >::~CStringT<char,StrTraitMFC<char,ATL::ChTraitsCRT<char> > >

; 53   :  dirs += ";";

	push	OFFSET FLAT:??_C@_01ICJEACDI@?$DL?$AA@
	lea	ecx, DWORD PTR _dirs$[ebp]
	call	??Y?$CStringT@DV?$StrTraitMFC@DV?$ChTraitsCRT@D@ATL@@@@@ATL@@QAEAAV01@PBD@Z ; ATL::CStringT<char,StrTraitMFC<char,ATL::ChTraitsCRT<char> > >::operator+=

; 54   :  dirs += MakeName("tech.tlx",1);

	push	1
	push	OFFSET FLAT:??_C@_08EOMMGLAM@tech?4tlx?$AA@
	lea	eax, DWORD PTR $T94440[ebp]
	push	eax
	call	?MakeName@@YA?AV?$CStringT@DV?$StrTraitMFC@DV?$ChTraitsCRT@D@ATL@@@@@ATL@@PADH@Z ; MakeName
	add	esp, 12					; 0000000cH
	mov	DWORD PTR tv182[ebp], eax
	mov	ecx, DWORD PTR tv182[ebp]
	mov	DWORD PTR tv173[ebp], ecx
	mov	BYTE PTR __$EHRec$[ebp+8], 6
	mov	edx, DWORD PTR tv173[ebp]
	push	edx
	lea	ecx, DWORD PTR _dirs$[ebp]
	call	??Y?$CStringT@DV?$StrTraitMFC@DV?$ChTraitsCRT@D@ATL@@@@@ATL@@QAEAAV01@ABV?$CSimpleStringT@D$0A@@1@@Z ; ATL::CStringT<char,StrTraitMFC<char,ATL::ChTraitsCRT<char> > >::operator+=
	mov	BYTE PTR __$EHRec$[ebp+8], 0
	lea	ecx, DWORD PTR $T94440[ebp]
	call	??1?$CStringT@DV?$StrTraitMFC@DV?$ChTraitsCRT@D@ATL@@@@@ATL@@QAE@XZ ; ATL::CStringT<char,StrTraitMFC<char,ATL::ChTraitsCRT<char> > >::~CStringT<char,StrTraitMFC<char,ATL::ChTraitsCRT<char> > >

; 55   :  return(dirs);

	lea	eax, DWORD PTR _dirs$[ebp]
	push	eax
	mov	ecx, DWORD PTR ___$ReturnUdt$[ebp]
	call	??0?$CStringT@DV?$StrTraitMFC@DV?$ChTraitsCRT@D@ATL@@@@@ATL@@QAE@ABV01@@Z ; ATL::CStringT<char,StrTraitMFC<char,ATL::ChTraitsCRT<char> > >::CStringT<char,StrTraitMFC<char,ATL::ChTraitsCRT<char> > >
	mov	ecx, DWORD PTR $T94449[ebp]
	or	ecx, 1
	mov	DWORD PTR $T94449[ebp], ecx
	mov	DWORD PTR __$EHRec$[ebp+8], -1
	lea	ecx, DWORD PTR _dirs$[ebp]
	call	??1?$CStringT@DV?$StrTraitMFC@DV?$ChTraitsCRT@D@ATL@@@@@ATL@@QAE@XZ ; ATL::CStringT<char,StrTraitMFC<char,ATL::ChTraitsCRT<char> > >::~CStringT<char,StrTraitMFC<char,ATL::ChTraitsCRT<char> > >
	mov	eax, DWORD PTR ___$ReturnUdt$[ebp]

; 56   : }

	push	edx
	mov	ecx, ebp
	push	eax
	lea	edx, DWORD PTR $L94456
	call	@_RTC_CheckStackVars@8
	pop	eax
	pop	edx
	mov	ecx, DWORD PTR __$EHRec$[ebp]
	mov	DWORD PTR fs:__except_list, ecx
	pop	edi
	pop	esi
	pop	ebx
	add	esp, 308				; 00000134H
	cmp	ebp, esp
	call	__RTC_CheckEsp
	mov	esp, ebp
	pop	ebp
	ret	0
$L94456:
	DD	1
	DD	$L94455
$L94455:
	DD	-20					; ffffffecH
	DD	4
	DD	$L94453
$L94453:
	DB	100					; 00000064H
	DB	105					; 00000069H
	DB	114					; 00000072H
	DB	115					; 00000073H
	DB	0
_TEXT	ENDS
;	COMDAT text$x
text$x	SEGMENT
__unwindfunclet$?MakeDics@@YA?AV?$CStringT@DV?$StrTraitMFC@DV?$ChTraitsCRT@D@ATL@@@@@ATL@@XZ$0:
	lea	ecx, DWORD PTR _dirs$[ebp]
	jmp	??1?$CStringT@DV?$StrTraitMFC@DV?$ChTraitsCRT@D@ATL@@@@@ATL@@QAE@XZ ; ATL::CStringT<char,StrTraitMFC<char,ATL::ChTraitsCRT<char> > >::~CStringT<char,StrTraitMFC<char,ATL::ChTraitsCRT<char> > >
__unwindfunclet$?MakeDics@@YA?AV?$CStringT@DV?$StrTraitMFC@DV?$ChTraitsCRT@D@ATL@@@@@ATL@@XZ$1:
	lea	ecx, DWORD PTR $T94435[ebp]
	jmp	??1?$CStringT@DV?$StrTraitMFC@DV?$ChTraitsCRT@D@ATL@@@@@ATL@@QAE@XZ ; ATL::CStringT<char,StrTraitMFC<char,ATL::ChTraitsCRT<char> > >::~CStringT<char,StrTraitMFC<char,ATL::ChTraitsCRT<char> > >
__unwindfunclet$?MakeDics@@YA?AV?$CStringT@DV?$StrTraitMFC@DV?$ChTraitsCRT@D@ATL@@@@@ATL@@XZ$2:
	lea	ecx, DWORD PTR $T94436[ebp]
	jmp	??1?$CStringT@DV?$StrTraitMFC@DV?$ChTraitsCRT@D@ATL@@@@@ATL@@QAE@XZ ; ATL::CStringT<char,StrTraitMFC<char,ATL::ChTraitsCRT<char> > >::~CStringT<char,StrTraitMFC<char,ATL::ChTraitsCRT<char> > >
__unwindfunclet$?MakeDics@@YA?AV?$CStringT@DV?$StrTraitMFC@DV?$ChTraitsCRT@D@ATL@@@@@ATL@@XZ$3:
	lea	ecx, DWORD PTR $T94437[ebp]
	jmp	??1?$CStringT@DV?$StrTraitMFC@DV?$ChTraitsCRT@D@ATL@@@@@ATL@@QAE@XZ ; ATL::CStringT<char,StrTraitMFC<char,ATL::ChTraitsCRT<char> > >::~CStringT<char,StrTraitMFC<char,ATL::ChTraitsCRT<char> > >
__unwindfunclet$?MakeDics@@YA?AV?$CStringT@DV?$StrTraitMFC@DV?$ChTraitsCRT@D@ATL@@@@@ATL@@XZ$4:
	lea	ecx, DWORD PTR $T94438[ebp]
	jmp	??1?$CStringT@DV?$StrTraitMFC@DV?$ChTraitsCRT@D@ATL@@@@@ATL@@QAE@XZ ; ATL::CStringT<char,StrTraitMFC<char,ATL::ChTraitsCRT<char> > >::~CStringT<char,StrTraitMFC<char,ATL::ChTraitsCRT<char> > >
__unwindfunclet$?MakeDics@@YA?AV?$CStringT@DV?$StrTraitMFC@DV?$ChTraitsCRT@D@ATL@@@@@ATL@@XZ$5:
	lea	ecx, DWORD PTR $T94439[ebp]
	jmp	??1?$CStringT@DV?$StrTraitMFC@DV?$ChTraitsCRT@D@ATL@@@@@ATL@@QAE@XZ ; ATL::CStringT<char,StrTraitMFC<char,ATL::ChTraitsCRT<char> > >::~CStringT<char,StrTraitMFC<char,ATL::ChTraitsCRT<char> > >
__unwindfunclet$?MakeDics@@YA?AV?$CStringT@DV?$StrTraitMFC@DV?$ChTraitsCRT@D@ATL@@@@@ATL@@XZ$6:
	lea	ecx, DWORD PTR $T94440[ebp]
	jmp	??1?$CStringT@DV?$StrTraitMFC@DV?$ChTraitsCRT@D@ATL@@@@@ATL@@QAE@XZ ; ATL::CStringT<char,StrTraitMFC<char,ATL::ChTraitsCRT<char> > >::~CStringT<char,StrTraitMFC<char,ATL::ChTraitsCRT<char> > >
__ehhandler$?MakeDics@@YA?AV?$CStringT@DV?$StrTraitMFC@DV?$ChTraitsCRT@D@ATL@@@@@ATL@@XZ:
	mov	eax, OFFSET FLAT:__ehfuncinfo$?MakeDics@@YA?AV?$CStringT@DV?$StrTraitMFC@DV?$ChTraitsCRT@D@ATL@@@@@ATL@@XZ
	jmp	___CxxFrameHandler
text$x	ENDS
?MakeDics@@YA?AV?$CStringT@DV?$StrTraitMFC@DV?$ChTraitsCRT@D@ATL@@@@@ATL@@XZ ENDP ; MakeDics
PUBLIC	?GetSuggestionCount@CWSpell@@QAEFXZ		; CWSpell::GetSuggestionCount
EXTRN	?GetProperty@CWnd@@QBEXJGPAX@Z:NEAR		; CWnd::GetProperty
; Function compile flags: /Odt /RTCcsu /ZI
;	COMDAT ?GetSuggestionCount@CWSpell@@QAEFXZ
_TEXT	SEGMENT
_result$ = -20						; size = 2
_this$ = -8						; size = 4
?GetSuggestionCount@CWSpell@@QAEFXZ PROC NEAR		; CWSpell::GetSuggestionCount, COMDAT
; _this$ = ecx

; 59   : {

	push	ebp
	mov	ebp, esp
	sub	esp, 216				; 000000d8H
	push	ebx
	push	esi
	push	edi
	push	ecx
	lea	edi, DWORD PTR [ebp-216]
	mov	ecx, 54					; 00000036H
	mov	eax, -858993460				; ccccccccH
	rep stosd
	pop	ecx
	mov	DWORD PTR _this$[ebp], ecx

; 60   : 	short result;
; 61   : 	GetProperty(0x6, VT_I2, (void*)&result);

	lea	eax, DWORD PTR _result$[ebp]
	push	eax
	push	2
	push	6
	mov	ecx, DWORD PTR _this$[ebp]
	call	?GetProperty@CWnd@@QBEXJGPAX@Z		; CWnd::GetProperty

; 62   : 	return result;

	mov	ax, WORD PTR _result$[ebp]

; 63   : }

	push	edx
	mov	ecx, ebp
	push	eax
	lea	edx, DWORD PTR $L94464
	call	@_RTC_CheckStackVars@8
	pop	eax
	pop	edx
	pop	edi
	pop	esi
	pop	ebx
	add	esp, 216				; 000000d8H
	cmp	ebp, esp
	call	__RTC_CheckEsp
	mov	esp, ebp
	pop	ebp
	ret	0
$L94464:
	DD	1
	DD	$L94463
$L94463:
	DD	-20					; ffffffecH
	DD	2
	DD	$L94462
$L94462:
	DB	114					; 00000072H
	DB	101					; 00000065H
	DB	115					; 00000073H
	DB	117					; 00000075H
	DB	108					; 0000006cH
	DB	116					; 00000074H
	DB	0
?GetSuggestionCount@CWSpell@@QAEFXZ ENDP		; CWSpell::GetSuggestionCount
_TEXT	ENDS
PUBLIC	?SetSuggestionCount@CWSpell@@QAEXF@Z		; CWSpell::SetSuggestionCount
EXTRN	?SetProperty@CWnd@@QAAXJGZZ:NEAR		; CWnd::SetProperty
; Function compile flags: /Odt /RTCcsu /ZI
;	COMDAT ?SetSuggestionCount@CWSpell@@QAEXF@Z
_TEXT	SEGMENT
_this$ = -8						; size = 4
_propVal$ = 8						; size = 2
?SetSuggestionCount@CWSpell@@QAEXF@Z PROC NEAR		; CWSpell::SetSuggestionCount, COMDAT
; _this$ = ecx

; 66   : {

	push	ebp
	mov	ebp, esp
	sub	esp, 204				; 000000ccH
	push	ebx
	push	esi
	push	edi
	push	ecx
	lea	edi, DWORD PTR [ebp-204]
	mov	ecx, 51					; 00000033H
	mov	eax, -858993460				; ccccccccH
	rep stosd
	pop	ecx
	mov	DWORD PTR _this$[ebp], ecx

; 67   : 	SetProperty(0x6, VT_I2, propVal);

	movsx	eax, WORD PTR _propVal$[ebp]
	push	eax
	push	2
	push	6
	mov	ecx, DWORD PTR _this$[ebp]
	push	ecx
	call	?SetProperty@CWnd@@QAAXJGZZ		; CWnd::SetProperty
	add	esp, 16					; 00000010H

; 68   : }

	pop	edi
	pop	esi
	pop	ebx
	add	esp, 204				; 000000ccH
	cmp	ebp, esp
	call	__RTC_CheckEsp
	mov	esp, ebp
	pop	ebp
	ret	4
?SetSuggestionCount@CWSpell@@QAEXF@Z ENDP		; CWSpell::SetSuggestionCount
_TEXT	ENDS
PUBLIC	?GetMisspelledWord@CWSpell@@QAE?AV?$CStringT@DV?$StrTraitMFC@DV?$ChTraitsCRT@D@ATL@@@@@ATL@@XZ ; CWSpell::GetMisspelledWord
;	COMDAT xdata$x
xdata$x	SEGMENT
__unwindtable$?GetMisspelledWord@CWSpell@@QAE?AV?$CStringT@DV?$StrTraitMFC@DV?$ChTraitsCRT@D@ATL@@@@@ATL@@XZ DD 0ffffffffH
	DD	FLAT:__unwindfunclet$?GetMisspelledWord@CWSpell@@QAE?AV?$CStringT@DV?$StrTraitMFC@DV?$ChTraitsCRT@D@ATL@@@@@ATL@@XZ$0
__ehfuncinfo$?GetMisspelledWord@CWSpell@@QAE?AV?$CStringT@DV?$StrTraitMFC@DV?$ChTraitsCRT@D@ATL@@@@@ATL@@XZ DD 019930520H
	DD	01H
	DD	FLAT:__unwindtable$?GetMisspelledWord@CWSpell@@QAE?AV?$CStringT@DV?$StrTraitMFC@DV?$ChTraitsCRT@D@ATL@@@@@ATL@@XZ
	DD	2 DUP(00H)
	DD	2 DUP(00H)
; Function compile flags: /Odt /RTCcsu /ZI
xdata$x	ENDS
;	COMDAT ?GetMisspelledWord@CWSpell@@QAE?AV?$CStringT@DV?$StrTraitMFC@DV?$ChTraitsCRT@D@ATL@@@@@ATL@@XZ
_TEXT	SEGMENT
$T94471 = -236						; size = 4
_result$ = -32						; size = 4
_this$ = -20						; size = 4
__$EHRec$ = -12						; size = 12
___$ReturnUdt$ = 8					; size = 4
?GetMisspelledWord@CWSpell@@QAE?AV?$CStringT@DV?$StrTraitMFC@DV?$ChTraitsCRT@D@ATL@@@@@ATL@@XZ PROC NEAR ; CWSpell::GetMisspelledWord, COMDAT
; _this$ = ecx

; 71   : {

	push	ebp
	mov	ebp, esp
	push	-1
	push	__ehhandler$?GetMisspelledWord@CWSpell@@QAE?AV?$CStringT@DV?$StrTraitMFC@DV?$ChTraitsCRT@D@ATL@@@@@ATL@@XZ
	mov	eax, DWORD PTR fs:__except_list
	push	eax
	mov	DWORD PTR fs:__except_list, esp
	sub	esp, 228				; 000000e4H
	push	ebx
	push	esi
	push	edi
	push	ecx
	lea	edi, DWORD PTR [ebp-240]
	mov	ecx, 57					; 00000039H
	mov	eax, -858993460				; ccccccccH
	rep stosd
	pop	ecx
	mov	DWORD PTR _this$[ebp], ecx
	mov	DWORD PTR $T94471[ebp], 0

; 72   : 	CString result;

	lea	ecx, DWORD PTR _result$[ebp]
	call	??0?$CStringT@DV?$StrTraitMFC@DV?$ChTraitsCRT@D@ATL@@@@@ATL@@QAE@XZ ; ATL::CStringT<char,StrTraitMFC<char,ATL::ChTraitsCRT<char> > >::CStringT<char,StrTraitMFC<char,ATL::ChTraitsCRT<char> > >
	mov	DWORD PTR __$EHRec$[ebp+8], 0

; 73   : 	GetProperty(0x7, VT_BSTR, (void*)&result);

	lea	eax, DWORD PTR _result$[ebp]
	push	eax
	push	8
	push	7
	mov	ecx, DWORD PTR _this$[ebp]
	call	?GetProperty@CWnd@@QBEXJGPAX@Z		; CWnd::GetProperty

; 74   : 	return result;

	lea	eax, DWORD PTR _result$[ebp]
	push	eax
	mov	ecx, DWORD PTR ___$ReturnUdt$[ebp]
	call	??0?$CStringT@DV?$StrTraitMFC@DV?$ChTraitsCRT@D@ATL@@@@@ATL@@QAE@ABV01@@Z ; ATL::CStringT<char,StrTraitMFC<char,ATL::ChTraitsCRT<char> > >::CStringT<char,StrTraitMFC<char,ATL::ChTraitsCRT<char> > >
	mov	ecx, DWORD PTR $T94471[ebp]
	or	ecx, 1
	mov	DWORD PTR $T94471[ebp], ecx
	mov	DWORD PTR __$EHRec$[ebp+8], -1
	lea	ecx, DWORD PTR _result$[ebp]
	call	??1?$CStringT@DV?$StrTraitMFC@DV?$ChTraitsCRT@D@ATL@@@@@ATL@@QAE@XZ ; ATL::CStringT<char,StrTraitMFC<char,ATL::ChTraitsCRT<char> > >::~CStringT<char,StrTraitMFC<char,ATL::ChTraitsCRT<char> > >
	mov	eax, DWORD PTR ___$ReturnUdt$[ebp]

; 75   : }

	push	edx
	mov	ecx, ebp
	push	eax
	lea	edx, DWORD PTR $L94478
	call	@_RTC_CheckStackVars@8
	pop	eax
	pop	edx
	mov	ecx, DWORD PTR __$EHRec$[ebp]
	mov	DWORD PTR fs:__except_list, ecx
	pop	edi
	pop	esi
	pop	ebx
	add	esp, 240				; 000000f0H
	cmp	ebp, esp
	call	__RTC_CheckEsp
	mov	esp, ebp
	pop	ebp
	ret	4
$L94478:
	DD	1
	DD	$L94477
$L94477:
	DD	-32					; ffffffe0H
	DD	4
	DD	$L94475
$L94475:
	DB	114					; 00000072H
	DB	101					; 00000065H
	DB	115					; 00000073H
	DB	117					; 00000075H
	DB	108					; 0000006cH
	DB	116					; 00000074H
	DB	0
_TEXT	ENDS
;	COMDAT text$x
text$x	SEGMENT
__unwindfunclet$?GetMisspelledWord@CWSpell@@QAE?AV?$CStringT@DV?$StrTraitMFC@DV?$ChTraitsCRT@D@ATL@@@@@ATL@@XZ$0:
	lea	ecx, DWORD PTR _result$[ebp]
	jmp	??1?$CStringT@DV?$StrTraitMFC@DV?$ChTraitsCRT@D@ATL@@@@@ATL@@QAE@XZ ; ATL::CStringT<char,StrTraitMFC<char,ATL::ChTraitsCRT<char> > >::~CStringT<char,StrTraitMFC<char,ATL::ChTraitsCRT<char> > >
__ehhandler$?GetMisspelledWord@CWSpell@@QAE?AV?$CStringT@DV?$StrTraitMFC@DV?$ChTraitsCRT@D@ATL@@@@@ATL@@XZ:
	mov	eax, OFFSET FLAT:__ehfuncinfo$?GetMisspelledWord@CWSpell@@QAE?AV?$CStringT@DV?$StrTraitMFC@DV?$ChTraitsCRT@D@ATL@@@@@ATL@@XZ
	jmp	___CxxFrameHandler
text$x	ENDS
?GetMisspelledWord@CWSpell@@QAE?AV?$CStringT@DV?$StrTraitMFC@DV?$ChTraitsCRT@D@ATL@@@@@ATL@@XZ ENDP ; CWSpell::GetMisspelledWord
PUBLIC	?SetMisspelledWord@CWSpell@@QAEXPBD@Z		; CWSpell::SetMisspelledWord
; Function compile flags: /Odt /RTCcsu /ZI
;	COMDAT ?SetMisspelledWord@CWSpell@@QAEXPBD@Z
_TEXT	SEGMENT
_this$ = -8						; size = 4
_propVal$ = 8						; size = 4
?SetMisspelledWord@CWSpell@@QAEXPBD@Z PROC NEAR		; CWSpell::SetMisspelledWord, COMDAT
; _this$ = ecx

; 78   : {

	push	ebp
	mov	ebp, esp
	sub	esp, 204				; 000000ccH
	push	ebx
	push	esi
	push	edi
	push	ecx
	lea	edi, DWORD PTR [ebp-204]
	mov	ecx, 51					; 00000033H
	mov	eax, -858993460				; ccccccccH
	rep stosd
	pop	ecx
	mov	DWORD PTR _this$[ebp], ecx

; 79   : 	SetProperty(0x7, VT_BSTR, propVal);

	mov	eax, DWORD PTR _propVal$[ebp]
	push	eax
	push	8
	push	7
	mov	ecx, DWORD PTR _this$[ebp]
	push	ecx
	call	?SetProperty@CWnd@@QAAXJGZZ		; CWnd::SetProperty
	add	esp, 16					; 00000010H

; 80   : }

	pop	edi
	pop	esi
	pop	ebx
	add	esp, 204				; 000000ccH
	cmp	ebp, esp
	call	__RTC_CheckEsp
	mov	esp, ebp
	pop	ebp
	ret	4
?SetMisspelledWord@CWSpell@@QAEXPBD@Z ENDP		; CWSpell::SetMisspelledWord
_TEXT	ENDS
PUBLIC	?GetReplacementWord@CWSpell@@QAE?AV?$CStringT@DV?$StrTraitMFC@DV?$ChTraitsCRT@D@ATL@@@@@ATL@@XZ ; CWSpell::GetReplacementWord
;	COMDAT xdata$x
xdata$x	SEGMENT
__unwindtable$?GetReplacementWord@CWSpell@@QAE?AV?$CStringT@DV?$StrTraitMFC@DV?$ChTraitsCRT@D@ATL@@@@@ATL@@XZ DD 0ffffffffH
	DD	FLAT:__unwindfunclet$?GetReplacementWord@CWSpell@@QAE?AV?$CStringT@DV?$StrTraitMFC@DV?$ChTraitsCRT@D@ATL@@@@@ATL@@XZ$0
__ehfuncinfo$?GetReplacementWord@CWSpell@@QAE?AV?$CStringT@DV?$StrTraitMFC@DV?$ChTraitsCRT@D@ATL@@@@@ATL@@XZ DD 019930520H
	DD	01H
	DD	FLAT:__unwindtable$?GetReplacementWord@CWSpell@@QAE?AV?$CStringT@DV?$StrTraitMFC@DV?$ChTraitsCRT@D@ATL@@@@@ATL@@XZ
	DD	2 DUP(00H)
	DD	2 DUP(00H)
; Function compile flags: /Odt /RTCcsu /ZI
xdata$x	ENDS
;	COMDAT ?GetReplacementWord@CWSpell@@QAE?AV?$CStringT@DV?$StrTraitMFC@DV?$ChTraitsCRT@D@ATL@@@@@ATL@@XZ
_TEXT	SEGMENT
$T94488 = -236						; size = 4
_result$ = -32						; size = 4
_this$ = -20						; size = 4
__$EHRec$ = -12						; size = 12
___$ReturnUdt$ = 8					; size = 4
?GetReplacementWord@CWSpell@@QAE?AV?$CStringT@DV?$StrTraitMFC@DV?$ChTraitsCRT@D@ATL@@@@@ATL@@XZ PROC NEAR ; CWSpell::GetReplacementWord, COMDAT
; _this$ = ecx

; 83   : {

	push	ebp
	mov	ebp, esp
	push	-1
	push	__ehhandler$?GetReplacementWord@CWSpell@@QAE?AV?$CStringT@DV?$StrTraitMFC@DV?$ChTraitsCRT@D@ATL@@@@@ATL@@XZ
	mov	eax, DWORD PTR fs:__except_list
	push	eax
	mov	DWORD PTR fs:__except_list, esp
	sub	esp, 228				; 000000e4H
	push	ebx
	push	esi
	push	edi
	push	ecx
	lea	edi, DWORD PTR [ebp-240]
	mov	ecx, 57					; 00000039H
	mov	eax, -858993460				; ccccccccH
	rep stosd
	pop	ecx
	mov	DWORD PTR _this$[ebp], ecx
	mov	DWORD PTR $T94488[ebp], 0

; 84   : 	CString result;

	lea	ecx, DWORD PTR _result$[ebp]
	call	??0?$CStringT@DV?$StrTraitMFC@DV?$ChTraitsCRT@D@ATL@@@@@ATL@@QAE@XZ ; ATL::CStringT<char,StrTraitMFC<char,ATL::ChTraitsCRT<char> > >::CStringT<char,StrTraitMFC<char,ATL::ChTraitsCRT<char> > >
	mov	DWORD PTR __$EHRec$[ebp+8], 0

; 85   : 	GetProperty(0x8, VT_BSTR, (void*)&result);

	lea	eax, DWORD PTR _result$[ebp]
	push	eax
	push	8
	push	8
	mov	ecx, DWORD PTR _this$[ebp]
	call	?GetProperty@CWnd@@QBEXJGPAX@Z		; CWnd::GetProperty

; 86   : 	return result;

	lea	eax, DWORD PTR _result$[ebp]
	push	eax
	mov	ecx, DWORD PTR ___$ReturnUdt$[ebp]
	call	??0?$CStringT@DV?$StrTraitMFC@DV?$ChTraitsCRT@D@ATL@@@@@ATL@@QAE@ABV01@@Z ; ATL::CStringT<char,StrTraitMFC<char,ATL::ChTraitsCRT<char> > >::CStringT<char,StrTraitMFC<char,ATL::ChTraitsCRT<char> > >
	mov	ecx, DWORD PTR $T94488[ebp]
	or	ecx, 1
	mov	DWORD PTR $T94488[ebp], ecx
	mov	DWORD PTR __$EHRec$[ebp+8], -1
	lea	ecx, DWORD PTR _result$[ebp]
	call	??1?$CStringT@DV?$StrTraitMFC@DV?$ChTraitsCRT@D@ATL@@@@@ATL@@QAE@XZ ; ATL::CStringT<char,StrTraitMFC<char,ATL::ChTraitsCRT<char> > >::~CStringT<char,StrTraitMFC<char,ATL::ChTraitsCRT<char> > >
	mov	eax, DWORD PTR ___$ReturnUdt$[ebp]

; 87   : }

	push	edx
	mov	ecx, ebp
	push	eax
	lea	edx, DWORD PTR $L94495
	call	@_RTC_CheckStackVars@8
	pop	eax
	pop	edx
	mov	ecx, DWORD PTR __$EHRec$[ebp]
	mov	DWORD PTR fs:__except_list, ecx
	pop	edi
	pop	esi
	pop	ebx
	add	esp, 240				; 000000f0H
	cmp	ebp, esp
	call	__RTC_CheckEsp
	mov	esp, ebp
	pop	ebp
	ret	4
$L94495:
	DD	1
	DD	$L94494
$L94494:
	DD	-32					; ffffffe0H
	DD	4
	DD	$L94492
$L94492:
	DB	114					; 00000072H
	DB	101					; 00000065H
	DB	115					; 00000073H
	DB	117					; 00000075H
	DB	108					; 0000006cH
	DB	116					; 00000074H
	DB	0
_TEXT	ENDS
;	COMDAT text$x
text$x	SEGMENT
__unwindfunclet$?GetReplacementWord@CWSpell@@QAE?AV?$CStringT@DV?$StrTraitMFC@DV?$ChTraitsCRT@D@ATL@@@@@ATL@@XZ$0:
	lea	ecx, DWORD PTR _result$[ebp]
	jmp	??1?$CStringT@DV?$StrTraitMFC@DV?$ChTraitsCRT@D@ATL@@@@@ATL@@QAE@XZ ; ATL::CStringT<char,StrTraitMFC<char,ATL::ChTraitsCRT<char> > >::~CStringT<char,StrTraitMFC<char,ATL::ChTraitsCRT<char> > >
__ehhandler$?GetReplacementWord@CWSpell@@QAE?AV?$CStringT@DV?$StrTraitMFC@DV?$ChTraitsCRT@D@ATL@@@@@ATL@@XZ:
	mov	eax, OFFSET FLAT:__ehfuncinfo$?GetReplacementWord@CWSpell@@QAE?AV?$CStringT@DV?$StrTraitMFC@DV?$ChTraitsCRT@D@ATL@@@@@ATL@@XZ
	jmp	___CxxFrameHandler
text$x	ENDS
?GetReplacementWord@CWSpell@@QAE?AV?$CStringT@DV?$StrTraitMFC@DV?$ChTraitsCRT@D@ATL@@@@@ATL@@XZ ENDP ; CWSpell::GetReplacementWord
PUBLIC	?SetReplacementWord@CWSpell@@QAEXPBD@Z		; CWSpell::SetReplacementWord
; Function compile flags: /Odt /RTCcsu /ZI
;	COMDAT ?SetReplacementWord@CWSpell@@QAEXPBD@Z
_TEXT	SEGMENT
_this$ = -8						; size = 4
_propVal$ = 8						; size = 4
?SetReplacementWord@CWSpell@@QAEXPBD@Z PROC NEAR	; CWSpell::SetReplacementWord, COMDAT
; _this$ = ecx

; 90   : {

	push	ebp
	mov	ebp, esp
	sub	esp, 204				; 000000ccH
	push	ebx
	push	esi
	push	edi
	push	ecx
	lea	edi, DWORD PTR [ebp-204]
	mov	ecx, 51					; 00000033H
	mov	eax, -858993460				; ccccccccH
	rep stosd
	pop	ecx
	mov	DWORD PTR _this$[ebp], ecx

; 91   : 	SetProperty(0x8, VT_BSTR, propVal);

	mov	eax, DWORD PTR _propVal$[ebp]
	push	eax
	push	8
	push	8
	mov	ecx, DWORD PTR _this$[ebp]
	push	ecx
	call	?SetProperty@CWnd@@QAAXJGZZ		; CWnd::SetProperty
	add	esp, 16					; 00000010H

; 92   : }

	pop	edi
	pop	esi
	pop	ebx
	add	esp, 204				; 000000ccH
	cmp	ebp, esp
	call	__RTC_CheckEsp
	mov	esp, ebp
	pop	ebp
	ret	4
?SetReplacementWord@CWSpell@@QAEXPBD@Z ENDP		; CWSpell::SetReplacementWord
_TEXT	ENDS
PUBLIC	?GetText@CWSpell@@QAE?AV?$CStringT@DV?$StrTraitMFC@DV?$ChTraitsCRT@D@ATL@@@@@ATL@@XZ ; CWSpell::GetText
;	COMDAT xdata$x
xdata$x	SEGMENT
__unwindtable$?GetText@CWSpell@@QAE?AV?$CStringT@DV?$StrTraitMFC@DV?$ChTraitsCRT@D@ATL@@@@@ATL@@XZ DD 0ffffffffH
	DD	FLAT:__unwindfunclet$?GetText@CWSpell@@QAE?AV?$CStringT@DV?$StrTraitMFC@DV?$ChTraitsCRT@D@ATL@@@@@ATL@@XZ$0
__ehfuncinfo$?GetText@CWSpell@@QAE?AV?$CStringT@DV?$StrTraitMFC@DV?$ChTraitsCRT@D@ATL@@@@@ATL@@XZ DD 019930520H
	DD	01H
	DD	FLAT:__unwindtable$?GetText@CWSpell@@QAE?AV?$CStringT@DV?$StrTraitMFC@DV?$ChTraitsCRT@D@ATL@@@@@ATL@@XZ
	DD	2 DUP(00H)
	DD	2 DUP(00H)
; Function compile flags: /Odt /RTCcsu /ZI
xdata$x	ENDS
;	COMDAT ?GetText@CWSpell@@QAE?AV?$CStringT@DV?$StrTraitMFC@DV?$ChTraitsCRT@D@ATL@@@@@ATL@@XZ
_TEXT	SEGMENT
$T94505 = -236						; size = 4
_result$ = -32						; size = 4
_this$ = -20						; size = 4
__$EHRec$ = -12						; size = 12
___$ReturnUdt$ = 8					; size = 4
?GetText@CWSpell@@QAE?AV?$CStringT@DV?$StrTraitMFC@DV?$ChTraitsCRT@D@ATL@@@@@ATL@@XZ PROC NEAR ; CWSpell::GetText, COMDAT
; _this$ = ecx

; 95   : {

	push	ebp
	mov	ebp, esp
	push	-1
	push	__ehhandler$?GetText@CWSpell@@QAE?AV?$CStringT@DV?$StrTraitMFC@DV?$ChTraitsCRT@D@ATL@@@@@ATL@@XZ
	mov	eax, DWORD PTR fs:__except_list
	push	eax
	mov	DWORD PTR fs:__except_list, esp
	sub	esp, 228				; 000000e4H
	push	ebx
	push	esi
	push	edi
	push	ecx
	lea	edi, DWORD PTR [ebp-240]
	mov	ecx, 57					; 00000039H
	mov	eax, -858993460				; ccccccccH
	rep stosd
	pop	ecx
	mov	DWORD PTR _this$[ebp], ecx
	mov	DWORD PTR $T94505[ebp], 0

; 96   : 	CString result;

	lea	ecx, DWORD PTR _result$[ebp]
	call	??0?$CStringT@DV?$StrTraitMFC@DV?$ChTraitsCRT@D@ATL@@@@@ATL@@QAE@XZ ; ATL::CStringT<char,StrTraitMFC<char,ATL::ChTraitsCRT<char> > >::CStringT<char,StrTraitMFC<char,ATL::ChTraitsCRT<char> > >
	mov	DWORD PTR __$EHRec$[ebp+8], 0

; 97   : 	GetProperty(DISPID_TEXT, VT_BSTR, (void*)&result);

	lea	eax, DWORD PTR _result$[ebp]
	push	eax
	push	8
	push	-517					; fffffdfbH
	mov	ecx, DWORD PTR _this$[ebp]
	call	?GetProperty@CWnd@@QBEXJGPAX@Z		; CWnd::GetProperty

; 98   : 	return result;

	lea	eax, DWORD PTR _result$[ebp]
	push	eax
	mov	ecx, DWORD PTR ___$ReturnUdt$[ebp]
	call	??0?$CStringT@DV?$StrTraitMFC@DV?$ChTraitsCRT@D@ATL@@@@@ATL@@QAE@ABV01@@Z ; ATL::CStringT<char,StrTraitMFC<char,ATL::ChTraitsCRT<char> > >::CStringT<char,StrTraitMFC<char,ATL::ChTraitsCRT<char> > >
	mov	ecx, DWORD PTR $T94505[ebp]
	or	ecx, 1
	mov	DWORD PTR $T94505[ebp], ecx
	mov	DWORD PTR __$EHRec$[ebp+8], -1
	lea	ecx, DWORD PTR _result$[ebp]
	call	??1?$CStringT@DV?$StrTraitMFC@DV?$ChTraitsCRT@D@ATL@@@@@ATL@@QAE@XZ ; ATL::CStringT<char,StrTraitMFC<char,ATL::ChTraitsCRT<char> > >::~CStringT<char,StrTraitMFC<char,ATL::ChTraitsCRT<char> > >
	mov	eax, DWORD PTR ___$ReturnUdt$[ebp]

; 99   : }

	push	edx
	mov	ecx, ebp
	push	eax
	lea	edx, DWORD PTR $L94512
	call	@_RTC_CheckStackVars@8
	pop	eax
	pop	edx
	mov	ecx, DWORD PTR __$EHRec$[ebp]
	mov	DWORD PTR fs:__except_list, ecx
	pop	edi
	pop	esi
	pop	ebx
	add	esp, 240				; 000000f0H
	cmp	ebp, esp
	call	__RTC_CheckEsp
	mov	esp, ebp
	pop	ebp
	ret	4
$L94512:
	DD	1
	DD	$L94511
$L94511:
	DD	-32					; ffffffe0H
	DD	4
	DD	$L94509
$L94509:
	DB	114					; 00000072H
	DB	101					; 00000065H
	DB	115					; 00000073H
	DB	117					; 00000075H
	DB	108					; 0000006cH
	DB	116					; 00000074H
	DB	0
_TEXT	ENDS
;	COMDAT text$x
text$x	SEGMENT
__unwindfunclet$?GetText@CWSpell@@QAE?AV?$CStringT@DV?$StrTraitMFC@DV?$ChTraitsCRT@D@ATL@@@@@ATL@@XZ$0:
	lea	ecx, DWORD PTR _result$[ebp]
	jmp	??1?$CStringT@DV?$StrTraitMFC@DV?$ChTraitsCRT@D@ATL@@@@@ATL@@QAE@XZ ; ATL::CStringT<char,StrTraitMFC<char,ATL::ChTraitsCRT<char> > >::~CStringT<char,StrTraitMFC<char,ATL::ChTraitsCRT<char> > >
__ehhandler$?GetText@CWSpell@@QAE?AV?$CStringT@DV?$StrTraitMFC@DV?$ChTraitsCRT@D@ATL@@@@@ATL@@XZ:
	mov	eax, OFFSET FLAT:__ehfuncinfo$?GetText@CWSpell@@QAE?AV?$CStringT@DV?$StrTraitMFC@DV?$ChTraitsCRT@D@ATL@@@@@ATL@@XZ
	jmp	___CxxFrameHandler
text$x	ENDS
?GetText@CWSpell@@QAE?AV?$CStringT@DV?$StrTraitMFC@DV?$ChTraitsCRT@D@ATL@@@@@ATL@@XZ ENDP ; CWSpell::GetText
PUBLIC	?SetText@CWSpell@@QAEXPBD@Z			; CWSpell::SetText
; Function compile flags: /Odt /RTCcsu /ZI
;	COMDAT ?SetText@CWSpell@@QAEXPBD@Z
_TEXT	SEGMENT
_this$ = -8						; size = 4
_propVal$ = 8						; size = 4
?SetText@CWSpell@@QAEXPBD@Z PROC NEAR			; CWSpell::SetText, COMDAT
; _this$ = ecx

; 102  : {

	push	ebp
	mov	ebp, esp
	sub	esp, 204				; 000000ccH
	push	ebx
	push	esi
	push	edi
	push	ecx
	lea	edi, DWORD PTR [ebp-204]
	mov	ecx, 51					; 00000033H
	mov	eax, -858993460				; ccccccccH
	rep stosd
	pop	ecx
	mov	DWORD PTR _this$[ebp], ecx

; 103  : 	SetProperty(DISPID_TEXT, VT_BSTR, propVal);

	mov	eax, DWORD PTR _propVal$[ebp]
	push	eax
	push	8
	push	-517					; fffffdfbH
	mov	ecx, DWORD PTR _this$[ebp]
	push	ecx
	call	?SetProperty@CWnd@@QAAXJGZZ		; CWnd::SetProperty
	add	esp, 16					; 00000010H

; 104  : }

	pop	edi
	pop	esi
	pop	ebx
	add	esp, 204				; 000000ccH
	cmp	ebp, esp
	call	__RTC_CheckEsp
	mov	esp, ebp
	pop	ebp
	ret	4
?SetText@CWSpell@@QAEXPBD@Z ENDP			; CWSpell::SetText
_TEXT	ENDS
PUBLIC	?GetWordOffset@CWSpell@@QAEJXZ			; CWSpell::GetWordOffset
; Function compile flags: /Odt /RTCcsu /ZI
;	COMDAT ?GetWordOffset@CWSpell@@QAEJXZ
_TEXT	SEGMENT
_result$ = -20						; size = 4
_this$ = -8						; size = 4
?GetWordOffset@CWSpell@@QAEJXZ PROC NEAR		; CWSpell::GetWordOffset, COMDAT
; _this$ = ecx

; 107  : {

	push	ebp
	mov	ebp, esp
	sub	esp, 216				; 000000d8H
	push	ebx
	push	esi
	push	edi
	push	ecx
	lea	edi, DWORD PTR [ebp-216]
	mov	ecx, 54					; 00000036H
	mov	eax, -858993460				; ccccccccH
	rep stosd
	pop	ecx
	mov	DWORD PTR _this$[ebp], ecx

; 108  : 	long result;
; 109  : 	GetProperty(0x9, VT_I4, (void*)&result);

	lea	eax, DWORD PTR _result$[ebp]
	push	eax
	push	3
	push	9
	mov	ecx, DWORD PTR _this$[ebp]
	call	?GetProperty@CWnd@@QBEXJGPAX@Z		; CWnd::GetProperty

; 110  : 	return result;

	mov	eax, DWORD PTR _result$[ebp]

; 111  : }

	push	edx
	mov	ecx, ebp
	push	eax
	lea	edx, DWORD PTR $L94522
	call	@_RTC_CheckStackVars@8
	pop	eax
	pop	edx
	pop	edi
	pop	esi
	pop	ebx
	add	esp, 216				; 000000d8H
	cmp	ebp, esp
	call	__RTC_CheckEsp
	mov	esp, ebp
	pop	ebp
	ret	0
$L94522:
	DD	1
	DD	$L94521
$L94521:
	DD	-20					; ffffffecH
	DD	4
	DD	$L94520
$L94520:
	DB	114					; 00000072H
	DB	101					; 00000065H
	DB	115					; 00000073H
	DB	117					; 00000075H
	DB	108					; 0000006cH
	DB	116					; 00000074H
	DB	0
?GetWordOffset@CWSpell@@QAEJXZ ENDP			; CWSpell::GetWordOffset
_TEXT	ENDS
PUBLIC	?SetWordOffset@CWSpell@@QAEXJ@Z			; CWSpell::SetWordOffset
; Function compile flags: /Odt /RTCcsu /ZI
;	COMDAT ?SetWordOffset@CWSpell@@QAEXJ@Z
_TEXT	SEGMENT
_this$ = -8						; size = 4
_propVal$ = 8						; size = 4
?SetWordOffset@CWSpell@@QAEXJ@Z PROC NEAR		; CWSpell::SetWordOffset, COMDAT
; _this$ = ecx

; 114  : {

	push	ebp
	mov	ebp, esp
	sub	esp, 204				; 000000ccH
	push	ebx
	push	esi
	push	edi
	push	ecx
	lea	edi, DWORD PTR [ebp-204]
	mov	ecx, 51					; 00000033H
	mov	eax, -858993460				; ccccccccH
	rep stosd
	pop	ecx
	mov	DWORD PTR _this$[ebp], ecx

; 115  : 	SetProperty(0x9, VT_I4, propVal);

	mov	eax, DWORD PTR _propVal$[ebp]
	push	eax
	push	3
	push	9
	mov	ecx, DWORD PTR _this$[ebp]
	push	ecx
	call	?SetProperty@CWnd@@QAAXJGZZ		; CWnd::SetProperty
	add	esp, 16					; 00000010H

; 116  : }

	pop	edi
	pop	esi
	pop	ebx
	add	esp, 204				; 000000ccH
	cmp	ebp, esp
	call	__RTC_CheckEsp
	mov	esp, ebp
	pop	ebp
	ret	4
?SetWordOffset@CWSpell@@QAEXJ@Z ENDP			; CWSpell::SetWordOffset
_TEXT	ENDS
PUBLIC	?GetWordCount@CWSpell@@QAEJXZ			; CWSpell::GetWordCount
; Function compile flags: /Odt /RTCcsu /ZI
;	COMDAT ?GetWordCount@CWSpell@@QAEJXZ
_TEXT	SEGMENT
_result$ = -20						; size = 4
_this$ = -8						; size = 4
?GetWordCount@CWSpell@@QAEJXZ PROC NEAR			; CWSpell::GetWordCount, COMDAT
; _this$ = ecx

; 119  : {

	push	ebp
	mov	ebp, esp
	sub	esp, 216				; 000000d8H
	push	ebx
	push	esi
	push	edi
	push	ecx
	lea	edi, DWORD PTR [ebp-216]
	mov	ecx, 54					; 00000036H
	mov	eax, -858993460				; ccccccccH
	rep stosd
	pop	ecx
	mov	DWORD PTR _this$[ebp], ecx

; 120  : 	long result;
; 121  : 	GetProperty(0xa, VT_I4, (void*)&result);

	lea	eax, DWORD PTR _result$[ebp]
	push	eax
	push	3
	push	10					; 0000000aH
	mov	ecx, DWORD PTR _this$[ebp]
	call	?GetProperty@CWnd@@QBEXJGPAX@Z		; CWnd::GetProperty

; 122  : 	return result;

	mov	eax, DWORD PTR _result$[ebp]

; 123  : }

	push	edx
	mov	ecx, ebp
	push	eax
	lea	edx, DWORD PTR $L94529
	call	@_RTC_CheckStackVars@8
	pop	eax
	pop	edx
	pop	edi
	pop	esi
	pop	ebx
	add	esp, 216				; 000000d8H
	cmp	ebp, esp
	call	__RTC_CheckEsp
	mov	esp, ebp
	pop	ebp
	ret	0
$L94529:
	DD	1
	DD	$L94528
$L94528:
	DD	-20					; ffffffecH
	DD	4
	DD	$L94527
$L94527:
	DB	114					; 00000072H
	DB	101					; 00000065H
	DB	115					; 00000073H
	DB	117					; 00000075H
	DB	108					; 0000006cH
	DB	116					; 00000074H
	DB	0
?GetWordCount@CWSpell@@QAEJXZ ENDP			; CWSpell::GetWordCount
_TEXT	ENDS
PUBLIC	?SetWordCount@CWSpell@@QAEXJ@Z			; CWSpell::SetWordCount
; Function compile flags: /Odt /RTCcsu /ZI
;	COMDAT ?SetWordCount@CWSpell@@QAEXJ@Z
_TEXT	SEGMENT
_this$ = -8						; size = 4
_propVal$ = 8						; size = 4
?SetWordCount@CWSpell@@QAEXJ@Z PROC NEAR		; CWSpell::SetWordCount, COMDAT
; _this$ = ecx

; 126  : {

	push	ebp
	mov	ebp, esp
	sub	esp, 204				; 000000ccH
	push	ebx
	push	esi
	push	edi
	push	ecx
	lea	edi, DWORD PTR [ebp-204]
	mov	ecx, 51					; 00000033H
	mov	eax, -858993460				; ccccccccH
	rep stosd
	pop	ecx
	mov	DWORD PTR _this$[ebp], ecx

; 127  : 	SetProperty(0xa, VT_I4, propVal);

	mov	eax, DWORD PTR _propVal$[ebp]
	push	eax
	push	3
	push	10					; 0000000aH
	mov	ecx, DWORD PTR _this$[ebp]
	push	ecx
	call	?SetProperty@CWnd@@QAAXJGZZ		; CWnd::SetProperty
	add	esp, 16					; 00000010H

; 128  : }

	pop	edi
	pop	esi
	pop	ebx
	add	esp, 204				; 000000ccH
	cmp	ebp, esp
	call	__RTC_CheckEsp
	mov	esp, ebp
	pop	ebp
	ret	4
?SetWordCount@CWSpell@@QAEXJ@Z ENDP			; CWSpell::SetWordCount
_TEXT	ENDS
PUBLIC	?GetWordsReplacedCount@CWSpell@@QAEJXZ		; CWSpell::GetWordsReplacedCount
; Function compile flags: /Odt /RTCcsu /ZI
;	COMDAT ?GetWordsReplacedCount@CWSpell@@QAEJXZ
_TEXT	SEGMENT
_result$ = -20						; size = 4
_this$ = -8						; size = 4
?GetWordsReplacedCount@CWSpell@@QAEJXZ PROC NEAR	; CWSpell::GetWordsReplacedCount, COMDAT
; _this$ = ecx

; 131  : {

	push	ebp
	mov	ebp, esp
	sub	esp, 216				; 000000d8H
	push	ebx
	push	esi
	push	edi
	push	ecx
	lea	edi, DWORD PTR [ebp-216]
	mov	ecx, 54					; 00000036H
	mov	eax, -858993460				; ccccccccH
	rep stosd
	pop	ecx
	mov	DWORD PTR _this$[ebp], ecx

; 132  : 	long result;
; 133  : 	GetProperty(0xb, VT_I4, (void*)&result);

	lea	eax, DWORD PTR _result$[ebp]
	push	eax
	push	3
	push	11					; 0000000bH
	mov	ecx, DWORD PTR _this$[ebp]
	call	?GetProperty@CWnd@@QBEXJGPAX@Z		; CWnd::GetProperty

; 134  : 	return result;

	mov	eax, DWORD PTR _result$[ebp]

; 135  : }

	push	edx
	mov	ecx, ebp
	push	eax
	lea	edx, DWORD PTR $L94536
	call	@_RTC_CheckStackVars@8
	pop	eax
	pop	edx
	pop	edi
	pop	esi
	pop	ebx
	add	esp, 216				; 000000d8H
	cmp	ebp, esp
	call	__RTC_CheckEsp
	mov	esp, ebp
	pop	ebp
	ret	0
$L94536:
	DD	1
	DD	$L94535
$L94535:
	DD	-20					; ffffffecH
	DD	4
	DD	$L94534
$L94534:
	DB	114					; 00000072H
	DB	101					; 00000065H
	DB	115					; 00000073H
	DB	117					; 00000075H
	DB	108					; 0000006cH
	DB	116					; 00000074H
	DB	0
?GetWordsReplacedCount@CWSpell@@QAEJXZ ENDP		; CWSpell::GetWordsReplacedCount
_TEXT	ENDS
PUBLIC	?SetWordsReplacedCount@CWSpell@@QAEXJ@Z		; CWSpell::SetWordsReplacedCount
; Function compile flags: /Odt /RTCcsu /ZI
;	COMDAT ?SetWordsReplacedCount@CWSpell@@QAEXJ@Z
_TEXT	SEGMENT
_this$ = -8						; size = 4
_propVal$ = 8						; size = 4
?SetWordsReplacedCount@CWSpell@@QAEXJ@Z PROC NEAR	; CWSpell::SetWordsReplacedCount, COMDAT
; _this$ = ecx

; 138  : {

	push	ebp
	mov	ebp, esp
	sub	esp, 204				; 000000ccH
	push	ebx
	push	esi
	push	edi
	push	ecx
	lea	edi, DWORD PTR [ebp-204]
	mov	ecx, 51					; 00000033H
	mov	eax, -858993460				; ccccccccH
	rep stosd
	pop	ecx
	mov	DWORD PTR _this$[ebp], ecx

; 139  : 	SetProperty(0xb, VT_I4, propVal);

	mov	eax, DWORD PTR _propVal$[ebp]
	push	eax
	push	3
	push	11					; 0000000bH
	mov	ecx, DWORD PTR _this$[ebp]
	push	ecx
	call	?SetProperty@CWnd@@QAAXJGZZ		; CWnd::SetProperty
	add	esp, 16					; 00000010H

; 140  : }

	pop	edi
	pop	esi
	pop	ebx
	add	esp, 204				; 000000ccH
	cmp	ebp, esp
	call	__RTC_CheckEsp
	mov	esp, ebp
	pop	ebp
	ret	4
?SetWordsReplacedCount@CWSpell@@QAEXJ@Z ENDP		; CWSpell::SetWordsReplacedCount
_TEXT	ENDS
PUBLIC	?GetCaseSensitive@CWSpell@@QAEHXZ		; CWSpell::GetCaseSensitive
; Function compile flags: /Odt /RTCcsu /ZI
;	COMDAT ?GetCaseSensitive@CWSpell@@QAEHXZ
_TEXT	SEGMENT
_result$ = -20						; size = 4
_this$ = -8						; size = 4
?GetCaseSensitive@CWSpell@@QAEHXZ PROC NEAR		; CWSpell::GetCaseSensitive, COMDAT
; _this$ = ecx

; 143  : {

	push	ebp
	mov	ebp, esp
	sub	esp, 216				; 000000d8H
	push	ebx
	push	esi
	push	edi
	push	ecx
	lea	edi, DWORD PTR [ebp-216]
	mov	ecx, 54					; 00000036H
	mov	eax, -858993460				; ccccccccH
	rep stosd
	pop	ecx
	mov	DWORD PTR _this$[ebp], ecx

; 144  : 	BOOL result;
; 145  : 	GetProperty(0xc, VT_BOOL, (void*)&result);

	lea	eax, DWORD PTR _result$[ebp]
	push	eax
	push	11					; 0000000bH
	push	12					; 0000000cH
	mov	ecx, DWORD PTR _this$[ebp]
	call	?GetProperty@CWnd@@QBEXJGPAX@Z		; CWnd::GetProperty

; 146  : 	return result;

	mov	eax, DWORD PTR _result$[ebp]

; 147  : }

	push	edx
	mov	ecx, ebp
	push	eax
	lea	edx, DWORD PTR $L94543
	call	@_RTC_CheckStackVars@8
	pop	eax
	pop	edx
	pop	edi
	pop	esi
	pop	ebx
	add	esp, 216				; 000000d8H
	cmp	ebp, esp
	call	__RTC_CheckEsp
	mov	esp, ebp
	pop	ebp
	ret	0
$L94543:
	DD	1
	DD	$L94542
$L94542:
	DD	-20					; ffffffecH
	DD	4
	DD	$L94541
$L94541:
	DB	114					; 00000072H
	DB	101					; 00000065H
	DB	115					; 00000073H
	DB	117					; 00000075H
	DB	108					; 0000006cH
	DB	116					; 00000074H
	DB	0
?GetCaseSensitive@CWSpell@@QAEHXZ ENDP			; CWSpell::GetCaseSensitive
_TEXT	ENDS
PUBLIC	?SetCaseSensitive@CWSpell@@QAEXH@Z		; CWSpell::SetCaseSensitive
; Function compile flags: /Odt /RTCcsu /ZI
;	COMDAT ?SetCaseSensitive@CWSpell@@QAEXH@Z
_TEXT	SEGMENT
_this$ = -8						; size = 4
_propVal$ = 8						; size = 4
?SetCaseSensitive@CWSpell@@QAEXH@Z PROC NEAR		; CWSpell::SetCaseSensitive, COMDAT
; _this$ = ecx

; 150  : {

	push	ebp
	mov	ebp, esp
	sub	esp, 204				; 000000ccH
	push	ebx
	push	esi
	push	edi
	push	ecx
	lea	edi, DWORD PTR [ebp-204]
	mov	ecx, 51					; 00000033H
	mov	eax, -858993460				; ccccccccH
	rep stosd
	pop	ecx
	mov	DWORD PTR _this$[ebp], ecx

; 151  : 	SetProperty(0xc, VT_BOOL, propVal);

	mov	eax, DWORD PTR _propVal$[ebp]
	push	eax
	push	11					; 0000000bH
	push	12					; 0000000cH
	mov	ecx, DWORD PTR _this$[ebp]
	push	ecx
	call	?SetProperty@CWnd@@QAAXJGZZ		; CWnd::SetProperty
	add	esp, 16					; 00000010H

; 152  : }

	pop	edi
	pop	esi
	pop	ebx
	add	esp, 204				; 000000ccH
	cmp	ebp, esp
	call	__RTC_CheckEsp
	mov	esp, ebp
	pop	ebp
	ret	4
?SetCaseSensitive@CWSpell@@QAEXH@Z ENDP			; CWSpell::SetCaseSensitive
_TEXT	ENDS
PUBLIC	?GetCanUndo@CWSpell@@QAEHXZ			; CWSpell::GetCanUndo
; Function compile flags: /Odt /RTCcsu /ZI
;	COMDAT ?GetCanUndo@CWSpell@@QAEHXZ
_TEXT	SEGMENT
_result$ = -20						; size = 4
_this$ = -8						; size = 4
?GetCanUndo@CWSpell@@QAEHXZ PROC NEAR			; CWSpell::GetCanUndo, COMDAT
; _this$ = ecx

; 155  : {

	push	ebp
	mov	ebp, esp
	sub	esp, 216				; 000000d8H
	push	ebx
	push	esi
	push	edi
	push	ecx
	lea	edi, DWORD PTR [ebp-216]
	mov	ecx, 54					; 00000036H
	mov	eax, -858993460				; ccccccccH
	rep stosd
	pop	ecx
	mov	DWORD PTR _this$[ebp], ecx

; 156  : 	BOOL result;
; 157  : 	GetProperty(0xd, VT_BOOL, (void*)&result);

	lea	eax, DWORD PTR _result$[ebp]
	push	eax
	push	11					; 0000000bH
	push	13					; 0000000dH
	mov	ecx, DWORD PTR _this$[ebp]
	call	?GetProperty@CWnd@@QBEXJGPAX@Z		; CWnd::GetProperty

; 158  : 	return result;

	mov	eax, DWORD PTR _result$[ebp]

; 159  : }

	push	edx
	mov	ecx, ebp
	push	eax
	lea	edx, DWORD PTR $L94550
	call	@_RTC_CheckStackVars@8
	pop	eax
	pop	edx
	pop	edi
	pop	esi
	pop	ebx
	add	esp, 216				; 000000d8H
	cmp	ebp, esp
	call	__RTC_CheckEsp
	mov	esp, ebp
	pop	ebp
	ret	0
$L94550:
	DD	1
	DD	$L94549
$L94549:
	DD	-20					; ffffffecH
	DD	4
	DD	$L94548
$L94548:
	DB	114					; 00000072H
	DB	101					; 00000065H
	DB	115					; 00000073H
	DB	117					; 00000075H
	DB	108					; 0000006cH
	DB	116					; 00000074H
	DB	0
?GetCanUndo@CWSpell@@QAEHXZ ENDP			; CWSpell::GetCanUndo
_TEXT	ENDS
PUBLIC	?SetCanUndo@CWSpell@@QAEXH@Z			; CWSpell::SetCanUndo
; Function compile flags: /Odt /RTCcsu /ZI
;	COMDAT ?SetCanUndo@CWSpell@@QAEXH@Z
_TEXT	SEGMENT
_this$ = -8						; size = 4
_propVal$ = 8						; size = 4
?SetCanUndo@CWSpell@@QAEXH@Z PROC NEAR			; CWSpell::SetCanUndo, COMDAT
; _this$ = ecx

; 162  : {

	push	ebp
	mov	ebp, esp
	sub	esp, 204				; 000000ccH
	push	ebx
	push	esi
	push	edi
	push	ecx
	lea	edi, DWORD PTR [ebp-204]
	mov	ecx, 51					; 00000033H
	mov	eax, -858993460				; ccccccccH
	rep stosd
	pop	ecx
	mov	DWORD PTR _this$[ebp], ecx

; 163  : 	SetProperty(0xd, VT_BOOL, propVal);

	mov	eax, DWORD PTR _propVal$[ebp]
	push	eax
	push	11					; 0000000bH
	push	13					; 0000000dH
	mov	ecx, DWORD PTR _this$[ebp]
	push	ecx
	call	?SetProperty@CWnd@@QAAXJGZZ		; CWnd::SetProperty
	add	esp, 16					; 00000010H

; 164  : }

	pop	edi
	pop	esi
	pop	ebx
	add	esp, 204				; 000000ccH
	cmp	ebp, esp
	call	__RTC_CheckEsp
	mov	esp, ebp
	pop	ebp
	ret	4
?SetCanUndo@CWSpell@@QAEXH@Z ENDP			; CWSpell::SetCanUndo
_TEXT	ENDS
PUBLIC	?GetCatchDoubledWords@CWSpell@@QAEHXZ		; CWSpell::GetCatchDoubledWords
; Function compile flags: /Odt /RTCcsu /ZI
;	COMDAT ?GetCatchDoubledWords@CWSpell@@QAEHXZ
_TEXT	SEGMENT
_result$ = -20						; size = 4
_this$ = -8						; size = 4
?GetCatchDoubledWords@CWSpell@@QAEHXZ PROC NEAR		; CWSpell::GetCatchDoubledWords, COMDAT
; _this$ = ecx

; 167  : {

	push	ebp
	mov	ebp, esp
	sub	esp, 216				; 000000d8H
	push	ebx
	push	esi
	push	edi
	push	ecx
	lea	edi, DWORD PTR [ebp-216]
	mov	ecx, 54					; 00000036H
	mov	eax, -858993460				; ccccccccH
	rep stosd
	pop	ecx
	mov	DWORD PTR _this$[ebp], ecx

; 168  : 	BOOL result;
; 169  : 	GetProperty(0xe, VT_BOOL, (void*)&result);

	lea	eax, DWORD PTR _result$[ebp]
	push	eax
	push	11					; 0000000bH
	push	14					; 0000000eH
	mov	ecx, DWORD PTR _this$[ebp]
	call	?GetProperty@CWnd@@QBEXJGPAX@Z		; CWnd::GetProperty

; 170  : 	return result;

	mov	eax, DWORD PTR _result$[ebp]

; 171  : }

	push	edx
	mov	ecx, ebp
	push	eax
	lea	edx, DWORD PTR $L94557
	call	@_RTC_CheckStackVars@8
	pop	eax
	pop	edx
	pop	edi
	pop	esi
	pop	ebx
	add	esp, 216				; 000000d8H
	cmp	ebp, esp
	call	__RTC_CheckEsp
	mov	esp, ebp
	pop	ebp
	ret	0
$L94557:
	DD	1
	DD	$L94556
$L94556:
	DD	-20					; ffffffecH
	DD	4
	DD	$L94555
$L94555:
	DB	114					; 00000072H
	DB	101					; 00000065H
	DB	115					; 00000073H
	DB	117					; 00000075H
	DB	108					; 0000006cH
	DB	116					; 00000074H
	DB	0
?GetCatchDoubledWords@CWSpell@@QAEHXZ ENDP		; CWSpell::GetCatchDoubledWords
_TEXT	ENDS
PUBLIC	?SetCatchDoubledWords@CWSpell@@QAEXH@Z		; CWSpell::SetCatchDoubledWords
; Function compile flags: /Odt /RTCcsu /ZI
;	COMDAT ?SetCatchDoubledWords@CWSpell@@QAEXH@Z
_TEXT	SEGMENT
_this$ = -8						; size = 4
_propVal$ = 8						; size = 4
?SetCatchDoubledWords@CWSpell@@QAEXH@Z PROC NEAR	; CWSpell::SetCatchDoubledWords, COMDAT
; _this$ = ecx

; 174  : {

	push	ebp
	mov	ebp, esp
	sub	esp, 204				; 000000ccH
	push	ebx
	push	esi
	push	edi
	push	ecx
	lea	edi, DWORD PTR [ebp-204]
	mov	ecx, 51					; 00000033H
	mov	eax, -858993460				; ccccccccH
	rep stosd
	pop	ecx
	mov	DWORD PTR _this$[ebp], ecx

; 175  : 	SetProperty(0xe, VT_BOOL, propVal);

	mov	eax, DWORD PTR _propVal$[ebp]
	push	eax
	push	11					; 0000000bH
	push	14					; 0000000eH
	mov	ecx, DWORD PTR _this$[ebp]
	push	ecx
	call	?SetProperty@CWnd@@QAAXJGZZ		; CWnd::SetProperty
	add	esp, 16					; 00000010H

; 176  : }

	pop	edi
	pop	esi
	pop	ebx
	add	esp, 204				; 000000ccH
	cmp	ebp, esp
	call	__RTC_CheckEsp
	mov	esp, ebp
	pop	ebp
	ret	4
?SetCatchDoubledWords@CWSpell@@QAEXH@Z ENDP		; CWSpell::SetCatchDoubledWords
_TEXT	ENDS
PUBLIC	?GetCatchMixedCaseWords@CWSpell@@QAEHXZ		; CWSpell::GetCatchMixedCaseWords
; Function compile flags: /Odt /RTCcsu /ZI
;	COMDAT ?GetCatchMixedCaseWords@CWSpell@@QAEHXZ
_TEXT	SEGMENT
_result$ = -20						; size = 4
_this$ = -8						; size = 4
?GetCatchMixedCaseWords@CWSpell@@QAEHXZ PROC NEAR	; CWSpell::GetCatchMixedCaseWords, COMDAT
; _this$ = ecx

; 179  : {

	push	ebp
	mov	ebp, esp
	sub	esp, 216				; 000000d8H
	push	ebx
	push	esi
	push	edi
	push	ecx
	lea	edi, DWORD PTR [ebp-216]
	mov	ecx, 54					; 00000036H
	mov	eax, -858993460				; ccccccccH
	rep stosd
	pop	ecx
	mov	DWORD PTR _this$[ebp], ecx

; 180  : 	BOOL result;
; 181  : 	GetProperty(0xf, VT_BOOL, (void*)&result);

	lea	eax, DWORD PTR _result$[ebp]
	push	eax
	push	11					; 0000000bH
	push	15					; 0000000fH
	mov	ecx, DWORD PTR _this$[ebp]
	call	?GetProperty@CWnd@@QBEXJGPAX@Z		; CWnd::GetProperty

; 182  : 	return result;

	mov	eax, DWORD PTR _result$[ebp]

; 183  : }

	push	edx
	mov	ecx, ebp
	push	eax
	lea	edx, DWORD PTR $L94564
	call	@_RTC_CheckStackVars@8
	pop	eax
	pop	edx
	pop	edi
	pop	esi
	pop	ebx
	add	esp, 216				; 000000d8H
	cmp	ebp, esp
	call	__RTC_CheckEsp
	mov	esp, ebp
	pop	ebp
	ret	0
$L94564:
	DD	1
	DD	$L94563
$L94563:
	DD	-20					; ffffffecH
	DD	4
	DD	$L94562
$L94562:
	DB	114					; 00000072H
	DB	101					; 00000065H
	DB	115					; 00000073H
	DB	117					; 00000075H
	DB	108					; 0000006cH
	DB	116					; 00000074H
	DB	0
?GetCatchMixedCaseWords@CWSpell@@QAEHXZ ENDP		; CWSpell::GetCatchMixedCaseWords
_TEXT	ENDS
PUBLIC	?SetCatchMixedCaseWords@CWSpell@@QAEXH@Z	; CWSpell::SetCatchMixedCaseWords
; Function compile flags: /Odt /RTCcsu /ZI
;	COMDAT ?SetCatchMixedCaseWords@CWSpell@@QAEXH@Z
_TEXT	SEGMENT
_this$ = -8						; size = 4
_propVal$ = 8						; size = 4
?SetCatchMixedCaseWords@CWSpell@@QAEXH@Z PROC NEAR	; CWSpell::SetCatchMixedCaseWords, COMDAT
; _this$ = ecx

; 186  : {

	push	ebp
	mov	ebp, esp
	sub	esp, 204				; 000000ccH
	push	ebx
	push	esi
	push	edi
	push	ecx
	lea	edi, DWORD PTR [ebp-204]
	mov	ecx, 51					; 00000033H
	mov	eax, -858993460				; ccccccccH
	rep stosd
	pop	ecx
	mov	DWORD PTR _this$[ebp], ecx

; 187  : 	SetProperty(0xf, VT_BOOL, propVal);

	mov	eax, DWORD PTR _propVal$[ebp]
	push	eax
	push	11					; 0000000bH
	push	15					; 0000000fH
	mov	ecx, DWORD PTR _this$[ebp]
	push	ecx
	call	?SetProperty@CWnd@@QAAXJGZZ		; CWnd::SetProperty
	add	esp, 16					; 00000010H

; 188  : }

	pop	edi
	pop	esi
	pop	ebx
	add	esp, 204				; 000000ccH
	cmp	ebp, esp
	call	__RTC_CheckEsp
	mov	esp, ebp
	pop	ebp
	ret	4
?SetCatchMixedCaseWords@CWSpell@@QAEXH@Z ENDP		; CWSpell::SetCatchMixedCaseWords
_TEXT	ENDS
PUBLIC	?GetCatchWordsWithDigits@CWSpell@@QAEHXZ	; CWSpell::GetCatchWordsWithDigits
; Function compile flags: /Odt /RTCcsu /ZI
;	COMDAT ?GetCatchWordsWithDigits@CWSpell@@QAEHXZ
_TEXT	SEGMENT
_result$ = -20						; size = 4
_this$ = -8						; size = 4
?GetCatchWordsWithDigits@CWSpell@@QAEHXZ PROC NEAR	; CWSpell::GetCatchWordsWithDigits, COMDAT
; _this$ = ecx

; 191  : {

	push	ebp
	mov	ebp, esp
	sub	esp, 216				; 000000d8H
	push	ebx
	push	esi
	push	edi
	push	ecx
	lea	edi, DWORD PTR [ebp-216]
	mov	ecx, 54					; 00000036H
	mov	eax, -858993460				; ccccccccH
	rep stosd
	pop	ecx
	mov	DWORD PTR _this$[ebp], ecx

; 192  : 	BOOL result;
; 193  : 	GetProperty(0x10, VT_BOOL, (void*)&result);

	lea	eax, DWORD PTR _result$[ebp]
	push	eax
	push	11					; 0000000bH
	push	16					; 00000010H
	mov	ecx, DWORD PTR _this$[ebp]
	call	?GetProperty@CWnd@@QBEXJGPAX@Z		; CWnd::GetProperty

; 194  : 	return result;

	mov	eax, DWORD PTR _result$[ebp]

; 195  : }

	push	edx
	mov	ecx, ebp
	push	eax
	lea	edx, DWORD PTR $L94571
	call	@_RTC_CheckStackVars@8
	pop	eax
	pop	edx
	pop	edi
	pop	esi
	pop	ebx
	add	esp, 216				; 000000d8H
	cmp	ebp, esp
	call	__RTC_CheckEsp
	mov	esp, ebp
	pop	ebp
	ret	0
$L94571:
	DD	1
	DD	$L94570
$L94570:
	DD	-20					; ffffffecH
	DD	4
	DD	$L94569
$L94569:
	DB	114					; 00000072H
	DB	101					; 00000065H
	DB	115					; 00000073H
	DB	117					; 00000075H
	DB	108					; 0000006cH
	DB	116					; 00000074H
	DB	0
?GetCatchWordsWithDigits@CWSpell@@QAEHXZ ENDP		; CWSpell::GetCatchWordsWithDigits
_TEXT	ENDS
PUBLIC	?SetCatchWordsWithDigits@CWSpell@@QAEXH@Z	; CWSpell::SetCatchWordsWithDigits
; Function compile flags: /Odt /RTCcsu /ZI
;	COMDAT ?SetCatchWordsWithDigits@CWSpell@@QAEXH@Z
_TEXT	SEGMENT
_this$ = -8						; size = 4
_propVal$ = 8						; size = 4
?SetCatchWordsWithDigits@CWSpell@@QAEXH@Z PROC NEAR	; CWSpell::SetCatchWordsWithDigits, COMDAT
; _this$ = ecx

; 198  : {

	push	ebp
	mov	ebp, esp
	sub	esp, 204				; 000000ccH
	push	ebx
	push	esi
	push	edi
	push	ecx
	lea	edi, DWORD PTR [ebp-204]
	mov	ecx, 51					; 00000033H
	mov	eax, -858993460				; ccccccccH
	rep stosd
	pop	ecx
	mov	DWORD PTR _this$[ebp], ecx

; 199  : 	SetProperty(0x10, VT_BOOL, propVal);

	mov	eax, DWORD PTR _propVal$[ebp]
	push	eax
	push	11					; 0000000bH
	push	16					; 00000010H
	mov	ecx, DWORD PTR _this$[ebp]
	push	ecx
	call	?SetProperty@CWnd@@QAAXJGZZ		; CWnd::SetProperty
	add	esp, 16					; 00000010H

; 200  : }

	pop	edi
	pop	esi
	pop	ebx
	add	esp, 204				; 000000ccH
	cmp	ebp, esp
	call	__RTC_CheckEsp
	mov	esp, ebp
	pop	ebp
	ret	4
?SetCatchWordsWithDigits@CWSpell@@QAEXH@Z ENDP		; CWSpell::SetCatchWordsWithDigits
_TEXT	ENDS
PUBLIC	?GetCurrentWord@CWSpell@@QAE?AV?$CStringT@DV?$StrTraitMFC@DV?$ChTraitsCRT@D@ATL@@@@@ATL@@XZ ; CWSpell::GetCurrentWord
;	COMDAT xdata$x
xdata$x	SEGMENT
__unwindtable$?GetCurrentWord@CWSpell@@QAE?AV?$CStringT@DV?$StrTraitMFC@DV?$ChTraitsCRT@D@ATL@@@@@ATL@@XZ DD 0ffffffffH
	DD	FLAT:__unwindfunclet$?GetCurrentWord@CWSpell@@QAE?AV?$CStringT@DV?$StrTraitMFC@DV?$ChTraitsCRT@D@ATL@@@@@ATL@@XZ$0
__ehfuncinfo$?GetCurrentWord@CWSpell@@QAE?AV?$CStringT@DV?$StrTraitMFC@DV?$ChTraitsCRT@D@ATL@@@@@ATL@@XZ DD 019930520H
	DD	01H
	DD	FLAT:__unwindtable$?GetCurrentWord@CWSpell@@QAE?AV?$CStringT@DV?$StrTraitMFC@DV?$ChTraitsCRT@D@ATL@@@@@ATL@@XZ
	DD	2 DUP(00H)
	DD	2 DUP(00H)
; Function compile flags: /Odt /RTCcsu /ZI
xdata$x	ENDS
;	COMDAT ?GetCurrentWord@CWSpell@@QAE?AV?$CStringT@DV?$StrTraitMFC@DV?$ChTraitsCRT@D@ATL@@@@@ATL@@XZ
_TEXT	SEGMENT
$T94578 = -236						; size = 4
_result$ = -32						; size = 4
_this$ = -20						; size = 4
__$EHRec$ = -12						; size = 12
___$ReturnUdt$ = 8					; size = 4
?GetCurrentWord@CWSpell@@QAE?AV?$CStringT@DV?$StrTraitMFC@DV?$ChTraitsCRT@D@ATL@@@@@ATL@@XZ PROC NEAR ; CWSpell::GetCurrentWord, COMDAT
; _this$ = ecx

; 203  : {

	push	ebp
	mov	ebp, esp
	push	-1
	push	__ehhandler$?GetCurrentWord@CWSpell@@QAE?AV?$CStringT@DV?$StrTraitMFC@DV?$ChTraitsCRT@D@ATL@@@@@ATL@@XZ
	mov	eax, DWORD PTR fs:__except_list
	push	eax
	mov	DWORD PTR fs:__except_list, esp
	sub	esp, 228				; 000000e4H
	push	ebx
	push	esi
	push	edi
	push	ecx
	lea	edi, DWORD PTR [ebp-240]
	mov	ecx, 57					; 00000039H
	mov	eax, -858993460				; ccccccccH
	rep stosd
	pop	ecx
	mov	DWORD PTR _this$[ebp], ecx
	mov	DWORD PTR $T94578[ebp], 0

; 204  : 	CString result;

	lea	ecx, DWORD PTR _result$[ebp]
	call	??0?$CStringT@DV?$StrTraitMFC@DV?$ChTraitsCRT@D@ATL@@@@@ATL@@QAE@XZ ; ATL::CStringT<char,StrTraitMFC<char,ATL::ChTraitsCRT<char> > >::CStringT<char,StrTraitMFC<char,ATL::ChTraitsCRT<char> > >
	mov	DWORD PTR __$EHRec$[ebp+8], 0

; 205  : 	GetProperty(0x11, VT_BSTR, (void*)&result);

	lea	eax, DWORD PTR _result$[ebp]
	push	eax
	push	8
	push	17					; 00000011H
	mov	ecx, DWORD PTR _this$[ebp]
	call	?GetProperty@CWnd@@QBEXJGPAX@Z		; CWnd::GetProperty

; 206  : 	return result;

	lea	eax, DWORD PTR _result$[ebp]
	push	eax
	mov	ecx, DWORD PTR ___$ReturnUdt$[ebp]
	call	??0?$CStringT@DV?$StrTraitMFC@DV?$ChTraitsCRT@D@ATL@@@@@ATL@@QAE@ABV01@@Z ; ATL::CStringT<char,StrTraitMFC<char,ATL::ChTraitsCRT<char> > >::CStringT<char,StrTraitMFC<char,ATL::ChTraitsCRT<char> > >
	mov	ecx, DWORD PTR $T94578[ebp]
	or	ecx, 1
	mov	DWORD PTR $T94578[ebp], ecx
	mov	DWORD PTR __$EHRec$[ebp+8], -1
	lea	ecx, DWORD PTR _result$[ebp]
	call	??1?$CStringT@DV?$StrTraitMFC@DV?$ChTraitsCRT@D@ATL@@@@@ATL@@QAE@XZ ; ATL::CStringT<char,StrTraitMFC<char,ATL::ChTraitsCRT<char> > >::~CStringT<char,StrTraitMFC<char,ATL::ChTraitsCRT<char> > >
	mov	eax, DWORD PTR ___$ReturnUdt$[ebp]

; 207  : }

	push	edx
	mov	ecx, ebp
	push	eax
	lea	edx, DWORD PTR $L94585
	call	@_RTC_CheckStackVars@8
	pop	eax
	pop	edx
	mov	ecx, DWORD PTR __$EHRec$[ebp]
	mov	DWORD PTR fs:__except_list, ecx
	pop	edi
	pop	esi
	pop	ebx
	add	esp, 240				; 000000f0H
	cmp	ebp, esp
	call	__RTC_CheckEsp
	mov	esp, ebp
	pop	ebp
	ret	4
$L94585:
	DD	1
	DD	$L94584
$L94584:
	DD	-32					; ffffffe0H
	DD	4
	DD	$L94582
$L94582:
	DB	114					; 00000072H
	DB	101					; 00000065H
	DB	115					; 00000073H
	DB	117					; 00000075H
	DB	108					; 0000006cH
	DB	116					; 00000074H
	DB	0
_TEXT	ENDS
;	COMDAT text$x
text$x	SEGMENT
__unwindfunclet$?GetCurrentWord@CWSpell@@QAE?AV?$CStringT@DV?$StrTraitMFC@DV?$ChTraitsCRT@D@ATL@@@@@ATL@@XZ$0:
	lea	ecx, DWORD PTR _result$[ebp]
	jmp	??1?$CStringT@DV?$StrTraitMFC@DV?$ChTraitsCRT@D@ATL@@@@@ATL@@QAE@XZ ; ATL::CStringT<char,StrTraitMFC<char,ATL::ChTraitsCRT<char> > >::~CStringT<char,StrTraitMFC<char,ATL::ChTraitsCRT<char> > >
__ehhandler$?GetCurrentWord@CWSpell@@QAE?AV?$CStringT@DV?$StrTraitMFC@DV?$ChTraitsCRT@D@ATL@@@@@ATL@@XZ:
	mov	eax, OFFSET FLAT:__ehfuncinfo$?GetCurrentWord@CWSpell@@QAE?AV?$CStringT@DV?$StrTraitMFC@DV?$ChTraitsCRT@D@ATL@@@@@ATL@@XZ
	jmp	___CxxFrameHandler
text$x	ENDS
?GetCurrentWord@CWSpell@@QAE?AV?$CStringT@DV?$StrTraitMFC@DV?$ChTraitsCRT@D@ATL@@@@@ATL@@XZ ENDP ; CWSpell::GetCurrentWord
PUBLIC	?SetCurrentWord@CWSpell@@QAEXPBD@Z		; CWSpell::SetCurrentWord
; Function compile flags: /Odt /RTCcsu /ZI
;	COMDAT ?SetCurrentWord@CWSpell@@QAEXPBD@Z
_TEXT	SEGMENT
_this$ = -8						; size = 4
_propVal$ = 8						; size = 4
?SetCurrentWord@CWSpell@@QAEXPBD@Z PROC NEAR		; CWSpell::SetCurrentWord, COMDAT
; _this$ = ecx

; 210  : {

	push	ebp
	mov	ebp, esp
	sub	esp, 204				; 000000ccH
	push	ebx
	push	esi
	push	edi
	push	ecx
	lea	edi, DWORD PTR [ebp-204]
	mov	ecx, 51					; 00000033H
	mov	eax, -858993460				; ccccccccH
	rep stosd
	pop	ecx
	mov	DWORD PTR _this$[ebp], ecx

; 211  : 	SetProperty(0x11, VT_BSTR, propVal);

	mov	eax, DWORD PTR _propVal$[ebp]
	push	eax
	push	8
	push	17					; 00000011H
	mov	ecx, DWORD PTR _this$[ebp]
	push	ecx
	call	?SetProperty@CWnd@@QAAXJGZZ		; CWnd::SetProperty
	add	esp, 16					; 00000010H

; 212  : }

	pop	edi
	pop	esi
	pop	ebx
	add	esp, 204				; 000000ccH
	cmp	ebp, esp
	call	__RTC_CheckEsp
	mov	esp, ebp
	pop	ebp
	ret	4
?SetCurrentWord@CWSpell@@QAEXPBD@Z ENDP			; CWSpell::SetCurrentWord
_TEXT	ENDS
PUBLIC	?GetIgnoreAllCapsWords@CWSpell@@QAEHXZ		; CWSpell::GetIgnoreAllCapsWords
; Function compile flags: /Odt /RTCcsu /ZI
;	COMDAT ?GetIgnoreAllCapsWords@CWSpell@@QAEHXZ
_TEXT	SEGMENT
_result$ = -20						; size = 4
_this$ = -8						; size = 4
?GetIgnoreAllCapsWords@CWSpell@@QAEHXZ PROC NEAR	; CWSpell::GetIgnoreAllCapsWords, COMDAT
; _this$ = ecx

; 215  : {

	push	ebp
	mov	ebp, esp
	sub	esp, 216				; 000000d8H
	push	ebx
	push	esi
	push	edi
	push	ecx
	lea	edi, DWORD PTR [ebp-216]
	mov	ecx, 54					; 00000036H
	mov	eax, -858993460				; ccccccccH
	rep stosd
	pop	ecx
	mov	DWORD PTR _this$[ebp], ecx

; 216  : 	BOOL result;
; 217  : 	GetProperty(0x12, VT_BOOL, (void*)&result);

	lea	eax, DWORD PTR _result$[ebp]
	push	eax
	push	11					; 0000000bH
	push	18					; 00000012H
	mov	ecx, DWORD PTR _this$[ebp]
	call	?GetProperty@CWnd@@QBEXJGPAX@Z		; CWnd::GetProperty

; 218  : 	return result;

	mov	eax, DWORD PTR _result$[ebp]

; 219  : }

	push	edx
	mov	ecx, ebp
	push	eax
	lea	edx, DWORD PTR $L94595
	call	@_RTC_CheckStackVars@8
	pop	eax
	pop	edx
	pop	edi
	pop	esi
	pop	ebx
	add	esp, 216				; 000000d8H
	cmp	ebp, esp
	call	__RTC_CheckEsp
	mov	esp, ebp
	pop	ebp
	ret	0
$L94595:
	DD	1
	DD	$L94594
$L94594:
	DD	-20					; ffffffecH
	DD	4
	DD	$L94593
$L94593:
	DB	114					; 00000072H
	DB	101					; 00000065H
	DB	115					; 00000073H
	DB	117					; 00000075H
	DB	108					; 0000006cH
	DB	116					; 00000074H
	DB	0
?GetIgnoreAllCapsWords@CWSpell@@QAEHXZ ENDP		; CWSpell::GetIgnoreAllCapsWords
_TEXT	ENDS
PUBLIC	?SetIgnoreAllCapsWords@CWSpell@@QAEXH@Z		; CWSpell::SetIgnoreAllCapsWords
; Function compile flags: /Odt /RTCcsu /ZI
;	COMDAT ?SetIgnoreAllCapsWords@CWSpell@@QAEXH@Z
_TEXT	SEGMENT
_this$ = -8						; size = 4
_propVal$ = 8						; size = 4
?SetIgnoreAllCapsWords@CWSpell@@QAEXH@Z PROC NEAR	; CWSpell::SetIgnoreAllCapsWords, COMDAT
; _this$ = ecx

; 222  : {

	push	ebp
	mov	ebp, esp
	sub	esp, 204				; 000000ccH
	push	ebx
	push	esi
	push	edi
	push	ecx
	lea	edi, DWORD PTR [ebp-204]
	mov	ecx, 51					; 00000033H
	mov	eax, -858993460				; ccccccccH
	rep stosd
	pop	ecx
	mov	DWORD PTR _this$[ebp], ecx

; 223  : 	SetProperty(0x12, VT_BOOL, propVal);

	mov	eax, DWORD PTR _propVal$[ebp]
	push	eax
	push	11					; 0000000bH
	push	18					; 00000012H
	mov	ecx, DWORD PTR _this$[ebp]
	push	ecx
	call	?SetProperty@CWnd@@QAAXJGZZ		; CWnd::SetProperty
	add	esp, 16					; 00000010H

; 224  : }

	pop	edi
	pop	esi
	pop	ebx
	add	esp, 204				; 000000ccH
	cmp	ebp, esp
	call	__RTC_CheckEsp
	mov	esp, ebp
	pop	ebp
	ret	4
?SetIgnoreAllCapsWords@CWSpell@@QAEXH@Z ENDP		; CWSpell::SetIgnoreAllCapsWords
_TEXT	ENDS
PUBLIC	?GetIgnoreMixedCaseWords@CWSpell@@QAEHXZ	; CWSpell::GetIgnoreMixedCaseWords
; Function compile flags: /Odt /RTCcsu /ZI
;	COMDAT ?GetIgnoreMixedCaseWords@CWSpell@@QAEHXZ
_TEXT	SEGMENT
_result$ = -20						; size = 4
_this$ = -8						; size = 4
?GetIgnoreMixedCaseWords@CWSpell@@QAEHXZ PROC NEAR	; CWSpell::GetIgnoreMixedCaseWords, COMDAT
; _this$ = ecx

; 227  : {

	push	ebp
	mov	ebp, esp
	sub	esp, 216				; 000000d8H
	push	ebx
	push	esi
	push	edi
	push	ecx
	lea	edi, DWORD PTR [ebp-216]
	mov	ecx, 54					; 00000036H
	mov	eax, -858993460				; ccccccccH
	rep stosd
	pop	ecx
	mov	DWORD PTR _this$[ebp], ecx

; 228  : 	BOOL result;
; 229  : 	GetProperty(0x13, VT_BOOL, (void*)&result);

	lea	eax, DWORD PTR _result$[ebp]
	push	eax
	push	11					; 0000000bH
	push	19					; 00000013H
	mov	ecx, DWORD PTR _this$[ebp]
	call	?GetProperty@CWnd@@QBEXJGPAX@Z		; CWnd::GetProperty

; 230  : 	return result;

	mov	eax, DWORD PTR _result$[ebp]

; 231  : }

	push	edx
	mov	ecx, ebp
	push	eax
	lea	edx, DWORD PTR $L94602
	call	@_RTC_CheckStackVars@8
	pop	eax
	pop	edx
	pop	edi
	pop	esi
	pop	ebx
	add	esp, 216				; 000000d8H
	cmp	ebp, esp
	call	__RTC_CheckEsp
	mov	esp, ebp
	pop	ebp
	ret	0
$L94602:
	DD	1
	DD	$L94601
$L94601:
	DD	-20					; ffffffecH
	DD	4
	DD	$L94600
$L94600:
	DB	114					; 00000072H
	DB	101					; 00000065H
	DB	115					; 00000073H
	DB	117					; 00000075H
	DB	108					; 0000006cH
	DB	116					; 00000074H
	DB	0
?GetIgnoreMixedCaseWords@CWSpell@@QAEHXZ ENDP		; CWSpell::GetIgnoreMixedCaseWords
_TEXT	ENDS
PUBLIC	?SetIgnoreMixedCaseWords@CWSpell@@QAEXH@Z	; CWSpell::SetIgnoreMixedCaseWords
; Function compile flags: /Odt /RTCcsu /ZI
;	COMDAT ?SetIgnoreMixedCaseWords@CWSpell@@QAEXH@Z
_TEXT	SEGMENT
_this$ = -8						; size = 4
_propVal$ = 8						; size = 4
?SetIgnoreMixedCaseWords@CWSpell@@QAEXH@Z PROC NEAR	; CWSpell::SetIgnoreMixedCaseWords, COMDAT
; _this$ = ecx

; 234  : {

	push	ebp
	mov	ebp, esp
	sub	esp, 204				; 000000ccH
	push	ebx
	push	esi
	push	edi
	push	ecx
	lea	edi, DWORD PTR [ebp-204]
	mov	ecx, 51					; 00000033H
	mov	eax, -858993460				; ccccccccH
	rep stosd
	pop	ecx
	mov	DWORD PTR _this$[ebp], ecx

; 235  : 	SetProperty(0x13, VT_BOOL, propVal);

	mov	eax, DWORD PTR _propVal$[ebp]
	push	eax
	push	11					; 0000000bH
	push	19					; 00000013H
	mov	ecx, DWORD PTR _this$[ebp]
	push	ecx
	call	?SetProperty@CWnd@@QAAXJGZZ		; CWnd::SetProperty
	add	esp, 16					; 00000010H

; 236  : }

	pop	edi
	pop	esi
	pop	ebx
	add	esp, 204				; 000000ccH
	cmp	ebp, esp
	call	__RTC_CheckEsp
	mov	esp, ebp
	pop	ebp
	ret	4
?SetIgnoreMixedCaseWords@CWSpell@@QAEXH@Z ENDP		; CWSpell::SetIgnoreMixedCaseWords
_TEXT	ENDS
PUBLIC	?GetIgnoreWordsWithDigits@CWSpell@@QAEHXZ	; CWSpell::GetIgnoreWordsWithDigits
; Function compile flags: /Odt /RTCcsu /ZI
;	COMDAT ?GetIgnoreWordsWithDigits@CWSpell@@QAEHXZ
_TEXT	SEGMENT
_result$ = -20						; size = 4
_this$ = -8						; size = 4
?GetIgnoreWordsWithDigits@CWSpell@@QAEHXZ PROC NEAR	; CWSpell::GetIgnoreWordsWithDigits, COMDAT
; _this$ = ecx

; 239  : {

	push	ebp
	mov	ebp, esp
	sub	esp, 216				; 000000d8H
	push	ebx
	push	esi
	push	edi
	push	ecx
	lea	edi, DWORD PTR [ebp-216]
	mov	ecx, 54					; 00000036H
	mov	eax, -858993460				; ccccccccH
	rep stosd
	pop	ecx
	mov	DWORD PTR _this$[ebp], ecx

; 240  : 	BOOL result;
; 241  : 	GetProperty(0x14, VT_BOOL, (void*)&result);

	lea	eax, DWORD PTR _result$[ebp]
	push	eax
	push	11					; 0000000bH
	push	20					; 00000014H
	mov	ecx, DWORD PTR _this$[ebp]
	call	?GetProperty@CWnd@@QBEXJGPAX@Z		; CWnd::GetProperty

; 242  : 	return result;

	mov	eax, DWORD PTR _result$[ebp]

; 243  : }

	push	edx
	mov	ecx, ebp
	push	eax
	lea	edx, DWORD PTR $L94609
	call	@_RTC_CheckStackVars@8
	pop	eax
	pop	edx
	pop	edi
	pop	esi
	pop	ebx
	add	esp, 216				; 000000d8H
	cmp	ebp, esp
	call	__RTC_CheckEsp
	mov	esp, ebp
	pop	ebp
	ret	0
$L94609:
	DD	1
	DD	$L94608
$L94608:
	DD	-20					; ffffffecH
	DD	4
	DD	$L94607
$L94607:
	DB	114					; 00000072H
	DB	101					; 00000065H
	DB	115					; 00000073H
	DB	117					; 00000075H
	DB	108					; 0000006cH
	DB	116					; 00000074H
	DB	0
?GetIgnoreWordsWithDigits@CWSpell@@QAEHXZ ENDP		; CWSpell::GetIgnoreWordsWithDigits
_TEXT	ENDS
PUBLIC	?SetIgnoreWordsWithDigits@CWSpell@@QAEXH@Z	; CWSpell::SetIgnoreWordsWithDigits
; Function compile flags: /Odt /RTCcsu /ZI
;	COMDAT ?SetIgnoreWordsWithDigits@CWSpell@@QAEXH@Z
_TEXT	SEGMENT
_this$ = -8						; size = 4
_propVal$ = 8						; size = 4
?SetIgnoreWordsWithDigits@CWSpell@@QAEXH@Z PROC NEAR	; CWSpell::SetIgnoreWordsWithDigits, COMDAT
; _this$ = ecx

; 246  : {

	push	ebp
	mov	ebp, esp
	sub	esp, 204				; 000000ccH
	push	ebx
	push	esi
	push	edi
	push	ecx
	lea	edi, DWORD PTR [ebp-204]
	mov	ecx, 51					; 00000033H
	mov	eax, -858993460				; ccccccccH
	rep stosd
	pop	ecx
	mov	DWORD PTR _this$[ebp], ecx

; 247  : 	SetProperty(0x14, VT_BOOL, propVal);

	mov	eax, DWORD PTR _propVal$[ebp]
	push	eax
	push	11					; 0000000bH
	push	20					; 00000014H
	mov	ecx, DWORD PTR _this$[ebp]
	push	ecx
	call	?SetProperty@CWnd@@QAAXJGZZ		; CWnd::SetProperty
	add	esp, 16					; 00000010H

; 248  : }

	pop	edi
	pop	esi
	pop	ebx
	add	esp, 204				; 000000ccH
	cmp	ebp, esp
	call	__RTC_CheckEsp
	mov	esp, ebp
	pop	ebp
	ret	4
?SetIgnoreWordsWithDigits@CWSpell@@QAEXH@Z ENDP		; CWSpell::SetIgnoreWordsWithDigits
_TEXT	ENDS
PUBLIC	?GetMainDictionaryCount@CWSpell@@QAEFXZ		; CWSpell::GetMainDictionaryCount
; Function compile flags: /Odt /RTCcsu /ZI
;	COMDAT ?GetMainDictionaryCount@CWSpell@@QAEFXZ
_TEXT	SEGMENT
_result$ = -20						; size = 2
_this$ = -8						; size = 4
?GetMainDictionaryCount@CWSpell@@QAEFXZ PROC NEAR	; CWSpell::GetMainDictionaryCount, COMDAT
; _this$ = ecx

; 251  : {

	push	ebp
	mov	ebp, esp
	sub	esp, 216				; 000000d8H
	push	ebx
	push	esi
	push	edi
	push	ecx
	lea	edi, DWORD PTR [ebp-216]
	mov	ecx, 54					; 00000036H
	mov	eax, -858993460				; ccccccccH
	rep stosd
	pop	ecx
	mov	DWORD PTR _this$[ebp], ecx

; 252  : 	short result;
; 253  : 	GetProperty(0x15, VT_I2, (void*)&result);

	lea	eax, DWORD PTR _result$[ebp]
	push	eax
	push	2
	push	21					; 00000015H
	mov	ecx, DWORD PTR _this$[ebp]
	call	?GetProperty@CWnd@@QBEXJGPAX@Z		; CWnd::GetProperty

; 254  : 	return result;

	mov	ax, WORD PTR _result$[ebp]

; 255  : }

	push	edx
	mov	ecx, ebp
	push	eax
	lea	edx, DWORD PTR $L94616
	call	@_RTC_CheckStackVars@8
	pop	eax
	pop	edx
	pop	edi
	pop	esi
	pop	ebx
	add	esp, 216				; 000000d8H
	cmp	ebp, esp
	call	__RTC_CheckEsp
	mov	esp, ebp
	pop	ebp
	ret	0
$L94616:
	DD	1
	DD	$L94615
$L94615:
	DD	-20					; ffffffecH
	DD	2
	DD	$L94614
$L94614:
	DB	114					; 00000072H
	DB	101					; 00000065H
	DB	115					; 00000073H
	DB	117					; 00000075H
	DB	108					; 0000006cH
	DB	116					; 00000074H
	DB	0
?GetMainDictionaryCount@CWSpell@@QAEFXZ ENDP		; CWSpell::GetMainDictionaryCount
_TEXT	ENDS
PUBLIC	?SetMainDictionaryCount@CWSpell@@QAEXF@Z	; CWSpell::SetMainDictionaryCount
; Function compile flags: /Odt /RTCcsu /ZI
;	COMDAT ?SetMainDictionaryCount@CWSpell@@QAEXF@Z
_TEXT	SEGMENT
_this$ = -8						; size = 4
_propVal$ = 8						; size = 2
?SetMainDictionaryCount@CWSpell@@QAEXF@Z PROC NEAR	; CWSpell::SetMainDictionaryCount, COMDAT
; _this$ = ecx

; 258  : {

	push	ebp
	mov	ebp, esp
	sub	esp, 204				; 000000ccH
	push	ebx
	push	esi
	push	edi
	push	ecx
	lea	edi, DWORD PTR [ebp-204]
	mov	ecx, 51					; 00000033H
	mov	eax, -858993460				; ccccccccH
	rep stosd
	pop	ecx
	mov	DWORD PTR _this$[ebp], ecx

; 259  : 	SetProperty(0x15, VT_I2, propVal);

	movsx	eax, WORD PTR _propVal$[ebp]
	push	eax
	push	2
	push	21					; 00000015H
	mov	ecx, DWORD PTR _this$[ebp]
	push	ecx
	call	?SetProperty@CWnd@@QAAXJGZZ		; CWnd::SetProperty
	add	esp, 16					; 00000010H

; 260  : }

	pop	edi
	pop	esi
	pop	ebx
	add	esp, 204				; 000000ccH
	cmp	ebp, esp
	call	__RTC_CheckEsp
	mov	esp, ebp
	pop	ebp
	ret	4
?SetMainDictionaryCount@CWSpell@@QAEXF@Z ENDP		; CWSpell::SetMainDictionaryCount
_TEXT	ENDS
PUBLIC	?GetMainDictionaryFiles@CWSpell@@QAE?AV?$CStringT@DV?$StrTraitMFC@DV?$ChTraitsCRT@D@ATL@@@@@ATL@@XZ ; CWSpell::GetMainDictionaryFiles
;	COMDAT xdata$x
xdata$x	SEGMENT
__unwindtable$?GetMainDictionaryFiles@CWSpell@@QAE?AV?$CStringT@DV?$StrTraitMFC@DV?$ChTraitsCRT@D@ATL@@@@@ATL@@XZ DD 0ffffffffH
	DD	FLAT:__unwindfunclet$?GetMainDictionaryFiles@CWSpell@@QAE?AV?$CStringT@DV?$StrTraitMFC@DV?$ChTraitsCRT@D@ATL@@@@@ATL@@XZ$0
__ehfuncinfo$?GetMainDictionaryFiles@CWSpell@@QAE?AV?$CStringT@DV?$StrTraitMFC@DV?$ChTraitsCRT@D@ATL@@@@@ATL@@XZ DD 019930520H
	DD	01H
	DD	FLAT:__unwindtable$?GetMainDictionaryFiles@CWSpell@@QAE?AV?$CStringT@DV?$StrTraitMFC@DV?$ChTraitsCRT@D@ATL@@@@@ATL@@XZ
	DD	2 DUP(00H)
	DD	2 DUP(00H)
; Function compile flags: /Odt /RTCcsu /ZI
xdata$x	ENDS
;	COMDAT ?GetMainDictionaryFiles@CWSpell@@QAE?AV?$CStringT@DV?$StrTraitMFC@DV?$ChTraitsCRT@D@ATL@@@@@ATL@@XZ
_TEXT	SEGMENT
$T94623 = -236						; size = 4
_result$ = -32						; size = 4
_this$ = -20						; size = 4
__$EHRec$ = -12						; size = 12
___$ReturnUdt$ = 8					; size = 4
?GetMainDictionaryFiles@CWSpell@@QAE?AV?$CStringT@DV?$StrTraitMFC@DV?$ChTraitsCRT@D@ATL@@@@@ATL@@XZ PROC NEAR ; CWSpell::GetMainDictionaryFiles, COMDAT
; _this$ = ecx

; 263  : {

	push	ebp
	mov	ebp, esp
	push	-1
	push	__ehhandler$?GetMainDictionaryFiles@CWSpell@@QAE?AV?$CStringT@DV?$StrTraitMFC@DV?$ChTraitsCRT@D@ATL@@@@@ATL@@XZ
	mov	eax, DWORD PTR fs:__except_list
	push	eax
	mov	DWORD PTR fs:__except_list, esp
	sub	esp, 228				; 000000e4H
	push	ebx
	push	esi
	push	edi
	push	ecx
	lea	edi, DWORD PTR [ebp-240]
	mov	ecx, 57					; 00000039H
	mov	eax, -858993460				; ccccccccH
	rep stosd
	pop	ecx
	mov	DWORD PTR _this$[ebp], ecx
	mov	DWORD PTR $T94623[ebp], 0

; 264  : 	CString result;

	lea	ecx, DWORD PTR _result$[ebp]
	call	??0?$CStringT@DV?$StrTraitMFC@DV?$ChTraitsCRT@D@ATL@@@@@ATL@@QAE@XZ ; ATL::CStringT<char,StrTraitMFC<char,ATL::ChTraitsCRT<char> > >::CStringT<char,StrTraitMFC<char,ATL::ChTraitsCRT<char> > >
	mov	DWORD PTR __$EHRec$[ebp+8], 0

; 265  : 	GetProperty(0x16, VT_BSTR, (void*)&result);

	lea	eax, DWORD PTR _result$[ebp]
	push	eax
	push	8
	push	22					; 00000016H
	mov	ecx, DWORD PTR _this$[ebp]
	call	?GetProperty@CWnd@@QBEXJGPAX@Z		; CWnd::GetProperty

; 266  : 	return result;

	lea	eax, DWORD PTR _result$[ebp]
	push	eax
	mov	ecx, DWORD PTR ___$ReturnUdt$[ebp]
	call	??0?$CStringT@DV?$StrTraitMFC@DV?$ChTraitsCRT@D@ATL@@@@@ATL@@QAE@ABV01@@Z ; ATL::CStringT<char,StrTraitMFC<char,ATL::ChTraitsCRT<char> > >::CStringT<char,StrTraitMFC<char,ATL::ChTraitsCRT<char> > >
	mov	ecx, DWORD PTR $T94623[ebp]
	or	ecx, 1
	mov	DWORD PTR $T94623[ebp], ecx
	mov	DWORD PTR __$EHRec$[ebp+8], -1
	lea	ecx, DWORD PTR _result$[ebp]
	call	??1?$CStringT@DV?$StrTraitMFC@DV?$ChTraitsCRT@D@ATL@@@@@ATL@@QAE@XZ ; ATL::CStringT<char,StrTraitMFC<char,ATL::ChTraitsCRT<char> > >::~CStringT<char,StrTraitMFC<char,ATL::ChTraitsCRT<char> > >
	mov	eax, DWORD PTR ___$ReturnUdt$[ebp]

; 267  : }

	push	edx
	mov	ecx, ebp
	push	eax
	lea	edx, DWORD PTR $L94630
	call	@_RTC_CheckStackVars@8
	pop	eax
	pop	edx
	mov	ecx, DWORD PTR __$EHRec$[ebp]
	mov	DWORD PTR fs:__except_list, ecx
	pop	edi
	pop	esi
	pop	ebx
	add	esp, 240				; 000000f0H
	cmp	ebp, esp
	call	__RTC_CheckEsp
	mov	esp, ebp
	pop	ebp
	ret	4
$L94630:
	DD	1
	DD	$L94629
$L94629:
	DD	-32					; ffffffe0H
	DD	4
	DD	$L94627
$L94627:
	DB	114					; 00000072H
	DB	101					; 00000065H
	DB	115					; 00000073H
	DB	117					; 00000075H
	DB	108					; 0000006cH
	DB	116					; 00000074H
	DB	0
_TEXT	ENDS
;	COMDAT text$x
text$x	SEGMENT
__unwindfunclet$?GetMainDictionaryFiles@CWSpell@@QAE?AV?$CStringT@DV?$StrTraitMFC@DV?$ChTraitsCRT@D@ATL@@@@@ATL@@XZ$0:
	lea	ecx, DWORD PTR _result$[ebp]
	jmp	??1?$CStringT@DV?$StrTraitMFC@DV?$ChTraitsCRT@D@ATL@@@@@ATL@@QAE@XZ ; ATL::CStringT<char,StrTraitMFC<char,ATL::ChTraitsCRT<char> > >::~CStringT<char,StrTraitMFC<char,ATL::ChTraitsCRT<char> > >
__ehhandler$?GetMainDictionaryFiles@CWSpell@@QAE?AV?$CStringT@DV?$StrTraitMFC@DV?$ChTraitsCRT@D@ATL@@@@@ATL@@XZ:
	mov	eax, OFFSET FLAT:__ehfuncinfo$?GetMainDictionaryFiles@CWSpell@@QAE?AV?$CStringT@DV?$StrTraitMFC@DV?$ChTraitsCRT@D@ATL@@@@@ATL@@XZ
	jmp	___CxxFrameHandler
text$x	ENDS
?GetMainDictionaryFiles@CWSpell@@QAE?AV?$CStringT@DV?$StrTraitMFC@DV?$ChTraitsCRT@D@ATL@@@@@ATL@@XZ ENDP ; CWSpell::GetMainDictionaryFiles
PUBLIC	?SetMainDictionaryFiles@CWSpell@@QAEXPBD@Z	; CWSpell::SetMainDictionaryFiles
; Function compile flags: /Odt /RTCcsu /ZI
;	COMDAT ?SetMainDictionaryFiles@CWSpell@@QAEXPBD@Z
_TEXT	SEGMENT
_this$ = -8						; size = 4
_propVal$ = 8						; size = 4
?SetMainDictionaryFiles@CWSpell@@QAEXPBD@Z PROC NEAR	; CWSpell::SetMainDictionaryFiles, COMDAT
; _this$ = ecx

; 270  : {

	push	ebp
	mov	ebp, esp
	sub	esp, 204				; 000000ccH
	push	ebx
	push	esi
	push	edi
	push	ecx
	lea	edi, DWORD PTR [ebp-204]
	mov	ecx, 51					; 00000033H
	mov	eax, -858993460				; ccccccccH
	rep stosd
	pop	ecx
	mov	DWORD PTR _this$[ebp], ecx

; 271  : 	SetProperty(0x16, VT_BSTR, propVal);

	mov	eax, DWORD PTR _propVal$[ebp]
	push	eax
	push	8
	push	22					; 00000016H
	mov	ecx, DWORD PTR _this$[ebp]
	push	ecx
	call	?SetProperty@CWnd@@QAAXJGZZ		; CWnd::SetProperty
	add	esp, 16					; 00000010H

; 272  : }

	pop	edi
	pop	esi
	pop	ebx
	add	esp, 204				; 000000ccH
	cmp	ebp, esp
	call	__RTC_CheckEsp
	mov	esp, ebp
	pop	ebp
	ret	4
?SetMainDictionaryFiles@CWSpell@@QAEXPBD@Z ENDP		; CWSpell::SetMainDictionaryFiles
_TEXT	ENDS
PUBLIC	?GetMaxSuggestions@CWSpell@@QAEFXZ		; CWSpell::GetMaxSuggestions
; Function compile flags: /Odt /RTCcsu /ZI
;	COMDAT ?GetMaxSuggestions@CWSpell@@QAEFXZ
_TEXT	SEGMENT
_result$ = -20						; size = 2
_this$ = -8						; size = 4
?GetMaxSuggestions@CWSpell@@QAEFXZ PROC NEAR		; CWSpell::GetMaxSuggestions, COMDAT
; _this$ = ecx

; 275  : {

	push	ebp
	mov	ebp, esp
	sub	esp, 216				; 000000d8H
	push	ebx
	push	esi
	push	edi
	push	ecx
	lea	edi, DWORD PTR [ebp-216]
	mov	ecx, 54					; 00000036H
	mov	eax, -858993460				; ccccccccH
	rep stosd
	pop	ecx
	mov	DWORD PTR _this$[ebp], ecx

; 276  : 	short result;
; 277  : 	GetProperty(0x17, VT_I2, (void*)&result);

	lea	eax, DWORD PTR _result$[ebp]
	push	eax
	push	2
	push	23					; 00000017H
	mov	ecx, DWORD PTR _this$[ebp]
	call	?GetProperty@CWnd@@QBEXJGPAX@Z		; CWnd::GetProperty

; 278  : 	return result;

	mov	ax, WORD PTR _result$[ebp]

; 279  : }

	push	edx
	mov	ecx, ebp
	push	eax
	lea	edx, DWORD PTR $L94640
	call	@_RTC_CheckStackVars@8
	pop	eax
	pop	edx
	pop	edi
	pop	esi
	pop	ebx
	add	esp, 216				; 000000d8H
	cmp	ebp, esp
	call	__RTC_CheckEsp
	mov	esp, ebp
	pop	ebp
	ret	0
$L94640:
	DD	1
	DD	$L94639
$L94639:
	DD	-20					; ffffffecH
	DD	2
	DD	$L94638
$L94638:
	DB	114					; 00000072H
	DB	101					; 00000065H
	DB	115					; 00000073H
	DB	117					; 00000075H
	DB	108					; 0000006cH
	DB	116					; 00000074H
	DB	0
?GetMaxSuggestions@CWSpell@@QAEFXZ ENDP			; CWSpell::GetMaxSuggestions
_TEXT	ENDS
PUBLIC	?SetMaxSuggestions@CWSpell@@QAEXF@Z		; CWSpell::SetMaxSuggestions
; Function compile flags: /Odt /RTCcsu /ZI
;	COMDAT ?SetMaxSuggestions@CWSpell@@QAEXF@Z
_TEXT	SEGMENT
_this$ = -8						; size = 4
_propVal$ = 8						; size = 2
?SetMaxSuggestions@CWSpell@@QAEXF@Z PROC NEAR		; CWSpell::SetMaxSuggestions, COMDAT
; _this$ = ecx

; 282  : {

	push	ebp
	mov	ebp, esp
	sub	esp, 204				; 000000ccH
	push	ebx
	push	esi
	push	edi
	push	ecx
	lea	edi, DWORD PTR [ebp-204]
	mov	ecx, 51					; 00000033H
	mov	eax, -858993460				; ccccccccH
	rep stosd
	pop	ecx
	mov	DWORD PTR _this$[ebp], ecx

; 283  : 	SetProperty(0x17, VT_I2, propVal);

	movsx	eax, WORD PTR _propVal$[ebp]
	push	eax
	push	2
	push	23					; 00000017H
	mov	ecx, DWORD PTR _this$[ebp]
	push	ecx
	call	?SetProperty@CWnd@@QAAXJGZZ		; CWnd::SetProperty
	add	esp, 16					; 00000010H

; 284  : }

	pop	edi
	pop	esi
	pop	ebx
	add	esp, 204				; 000000ccH
	cmp	ebp, esp
	call	__RTC_CheckEsp
	mov	esp, ebp
	pop	ebp
	ret	4
?SetMaxSuggestions@CWSpell@@QAEXF@Z ENDP		; CWSpell::SetMaxSuggestions
_TEXT	ENDS
PUBLIC	?GetMinSuggestionDepth@CWSpell@@QAEFXZ		; CWSpell::GetMinSuggestionDepth
; Function compile flags: /Odt /RTCcsu /ZI
;	COMDAT ?GetMinSuggestionDepth@CWSpell@@QAEFXZ
_TEXT	SEGMENT
_result$ = -20						; size = 2
_this$ = -8						; size = 4
?GetMinSuggestionDepth@CWSpell@@QAEFXZ PROC NEAR	; CWSpell::GetMinSuggestionDepth, COMDAT
; _this$ = ecx

; 287  : {

	push	ebp
	mov	ebp, esp
	sub	esp, 216				; 000000d8H
	push	ebx
	push	esi
	push	edi
	push	ecx
	lea	edi, DWORD PTR [ebp-216]
	mov	ecx, 54					; 00000036H
	mov	eax, -858993460				; ccccccccH
	rep stosd
	pop	ecx
	mov	DWORD PTR _this$[ebp], ecx

; 288  : 	short result;
; 289  : 	GetProperty(0x18, VT_I2, (void*)&result);

	lea	eax, DWORD PTR _result$[ebp]
	push	eax
	push	2
	push	24					; 00000018H
	mov	ecx, DWORD PTR _this$[ebp]
	call	?GetProperty@CWnd@@QBEXJGPAX@Z		; CWnd::GetProperty

; 290  : 	return result;

	mov	ax, WORD PTR _result$[ebp]

; 291  : }

	push	edx
	mov	ecx, ebp
	push	eax
	lea	edx, DWORD PTR $L94647
	call	@_RTC_CheckStackVars@8
	pop	eax
	pop	edx
	pop	edi
	pop	esi
	pop	ebx
	add	esp, 216				; 000000d8H
	cmp	ebp, esp
	call	__RTC_CheckEsp
	mov	esp, ebp
	pop	ebp
	ret	0
$L94647:
	DD	1
	DD	$L94646
$L94646:
	DD	-20					; ffffffecH
	DD	2
	DD	$L94645
$L94645:
	DB	114					; 00000072H
	DB	101					; 00000065H
	DB	115					; 00000073H
	DB	117					; 00000075H
	DB	108					; 0000006cH
	DB	116					; 00000074H
	DB	0
?GetMinSuggestionDepth@CWSpell@@QAEFXZ ENDP		; CWSpell::GetMinSuggestionDepth
_TEXT	ENDS
PUBLIC	?SetMinSuggestionDepth@CWSpell@@QAEXF@Z		; CWSpell::SetMinSuggestionDepth
; Function compile flags: /Odt /RTCcsu /ZI
;	COMDAT ?SetMinSuggestionDepth@CWSpell@@QAEXF@Z
_TEXT	SEGMENT
_this$ = -8						; size = 4
_propVal$ = 8						; size = 2
?SetMinSuggestionDepth@CWSpell@@QAEXF@Z PROC NEAR	; CWSpell::SetMinSuggestionDepth, COMDAT
; _this$ = ecx

; 294  : {

	push	ebp
	mov	ebp, esp
	sub	esp, 204				; 000000ccH
	push	ebx
	push	esi
	push	edi
	push	ecx
	lea	edi, DWORD PTR [ebp-204]
	mov	ecx, 51					; 00000033H
	mov	eax, -858993460				; ccccccccH
	rep stosd
	pop	ecx
	mov	DWORD PTR _this$[ebp], ecx

; 295  : 	SetProperty(0x18, VT_I2, propVal);

	movsx	eax, WORD PTR _propVal$[ebp]
	push	eax
	push	2
	push	24					; 00000018H
	mov	ecx, DWORD PTR _this$[ebp]
	push	ecx
	call	?SetProperty@CWnd@@QAAXJGZZ		; CWnd::SetProperty
	add	esp, 16					; 00000010H

; 296  : }

	pop	edi
	pop	esi
	pop	ebx
	add	esp, 204				; 000000ccH
	cmp	ebp, esp
	call	__RTC_CheckEsp
	mov	esp, ebp
	pop	ebp
	ret	4
?SetMinSuggestionDepth@CWSpell@@QAEXF@Z ENDP		; CWSpell::SetMinSuggestionDepth
_TEXT	ENDS
PUBLIC	?GetPhoneticSuggestions@CWSpell@@QAEHXZ		; CWSpell::GetPhoneticSuggestions
; Function compile flags: /Odt /RTCcsu /ZI
;	COMDAT ?GetPhoneticSuggestions@CWSpell@@QAEHXZ
_TEXT	SEGMENT
_result$ = -20						; size = 4
_this$ = -8						; size = 4
?GetPhoneticSuggestions@CWSpell@@QAEHXZ PROC NEAR	; CWSpell::GetPhoneticSuggestions, COMDAT
; _this$ = ecx

; 299  : {

	push	ebp
	mov	ebp, esp
	sub	esp, 216				; 000000d8H
	push	ebx
	push	esi
	push	edi
	push	ecx
	lea	edi, DWORD PTR [ebp-216]
	mov	ecx, 54					; 00000036H
	mov	eax, -858993460				; ccccccccH
	rep stosd
	pop	ecx
	mov	DWORD PTR _this$[ebp], ecx

; 300  : 	BOOL result;
; 301  : 	GetProperty(0x19, VT_BOOL, (void*)&result);

	lea	eax, DWORD PTR _result$[ebp]
	push	eax
	push	11					; 0000000bH
	push	25					; 00000019H
	mov	ecx, DWORD PTR _this$[ebp]
	call	?GetProperty@CWnd@@QBEXJGPAX@Z		; CWnd::GetProperty

; 302  : 	return result;

	mov	eax, DWORD PTR _result$[ebp]

; 303  : }

	push	edx
	mov	ecx, ebp
	push	eax
	lea	edx, DWORD PTR $L94654
	call	@_RTC_CheckStackVars@8
	pop	eax
	pop	edx
	pop	edi
	pop	esi
	pop	ebx
	add	esp, 216				; 000000d8H
	cmp	ebp, esp
	call	__RTC_CheckEsp
	mov	esp, ebp
	pop	ebp
	ret	0
$L94654:
	DD	1
	DD	$L94653
$L94653:
	DD	-20					; ffffffecH
	DD	4
	DD	$L94652
$L94652:
	DB	114					; 00000072H
	DB	101					; 00000065H
	DB	115					; 00000073H
	DB	117					; 00000075H
	DB	108					; 0000006cH
	DB	116					; 00000074H
	DB	0
?GetPhoneticSuggestions@CWSpell@@QAEHXZ ENDP		; CWSpell::GetPhoneticSuggestions
_TEXT	ENDS
PUBLIC	?SetPhoneticSuggestions@CWSpell@@QAEXH@Z	; CWSpell::SetPhoneticSuggestions
; Function compile flags: /Odt /RTCcsu /ZI
;	COMDAT ?SetPhoneticSuggestions@CWSpell@@QAEXH@Z
_TEXT	SEGMENT
_this$ = -8						; size = 4
_propVal$ = 8						; size = 4
?SetPhoneticSuggestions@CWSpell@@QAEXH@Z PROC NEAR	; CWSpell::SetPhoneticSuggestions, COMDAT
; _this$ = ecx

; 306  : {

	push	ebp
	mov	ebp, esp
	sub	esp, 204				; 000000ccH
	push	ebx
	push	esi
	push	edi
	push	ecx
	lea	edi, DWORD PTR [ebp-204]
	mov	ecx, 51					; 00000033H
	mov	eax, -858993460				; ccccccccH
	rep stosd
	pop	ecx
	mov	DWORD PTR _this$[ebp], ecx

; 307  : 	SetProperty(0x19, VT_BOOL, propVal);

	mov	eax, DWORD PTR _propVal$[ebp]
	push	eax
	push	11					; 0000000bH
	push	25					; 00000019H
	mov	ecx, DWORD PTR _this$[ebp]
	push	ecx
	call	?SetProperty@CWnd@@QAAXJGZZ		; CWnd::SetProperty
	add	esp, 16					; 00000010H

; 308  : }

	pop	edi
	pop	esi
	pop	ebx
	add	esp, 204				; 000000ccH
	cmp	ebp, esp
	call	__RTC_CheckEsp
	mov	esp, ebp
	pop	ebp
	ret	4
?SetPhoneticSuggestions@CWSpell@@QAEXH@Z ENDP		; CWSpell::SetPhoneticSuggestions
_TEXT	ENDS
PUBLIC	?GetSplitContractedWords@CWSpell@@QAEHXZ	; CWSpell::GetSplitContractedWords
; Function compile flags: /Odt /RTCcsu /ZI
;	COMDAT ?GetSplitContractedWords@CWSpell@@QAEHXZ
_TEXT	SEGMENT
_result$ = -20						; size = 4
_this$ = -8						; size = 4
?GetSplitContractedWords@CWSpell@@QAEHXZ PROC NEAR	; CWSpell::GetSplitContractedWords, COMDAT
; _this$ = ecx

; 311  : {

	push	ebp
	mov	ebp, esp
	sub	esp, 216				; 000000d8H
	push	ebx
	push	esi
	push	edi
	push	ecx
	lea	edi, DWORD PTR [ebp-216]
	mov	ecx, 54					; 00000036H
	mov	eax, -858993460				; ccccccccH
	rep stosd
	pop	ecx
	mov	DWORD PTR _this$[ebp], ecx

; 312  : 	BOOL result;
; 313  : 	GetProperty(0x1a, VT_BOOL, (void*)&result);

	lea	eax, DWORD PTR _result$[ebp]
	push	eax
	push	11					; 0000000bH
	push	26					; 0000001aH
	mov	ecx, DWORD PTR _this$[ebp]
	call	?GetProperty@CWnd@@QBEXJGPAX@Z		; CWnd::GetProperty

; 314  : 	return result;

	mov	eax, DWORD PTR _result$[ebp]

; 315  : }

	push	edx
	mov	ecx, ebp
	push	eax
	lea	edx, DWORD PTR $L94661
	call	@_RTC_CheckStackVars@8
	pop	eax
	pop	edx
	pop	edi
	pop	esi
	pop	ebx
	add	esp, 216				; 000000d8H
	cmp	ebp, esp
	call	__RTC_CheckEsp
	mov	esp, ebp
	pop	ebp
	ret	0
$L94661:
	DD	1
	DD	$L94660
$L94660:
	DD	-20					; ffffffecH
	DD	4
	DD	$L94659
$L94659:
	DB	114					; 00000072H
	DB	101					; 00000065H
	DB	115					; 00000073H
	DB	117					; 00000075H
	DB	108					; 0000006cH
	DB	116					; 00000074H
	DB	0
?GetSplitContractedWords@CWSpell@@QAEHXZ ENDP		; CWSpell::GetSplitContractedWords
_TEXT	ENDS
PUBLIC	?SetSplitContractedWords@CWSpell@@QAEXH@Z	; CWSpell::SetSplitContractedWords
; Function compile flags: /Odt /RTCcsu /ZI
;	COMDAT ?SetSplitContractedWords@CWSpell@@QAEXH@Z
_TEXT	SEGMENT
_this$ = -8						; size = 4
_propVal$ = 8						; size = 4
?SetSplitContractedWords@CWSpell@@QAEXH@Z PROC NEAR	; CWSpell::SetSplitContractedWords, COMDAT
; _this$ = ecx

; 318  : {

	push	ebp
	mov	ebp, esp
	sub	esp, 204				; 000000ccH
	push	ebx
	push	esi
	push	edi
	push	ecx
	lea	edi, DWORD PTR [ebp-204]
	mov	ecx, 51					; 00000033H
	mov	eax, -858993460				; ccccccccH
	rep stosd
	pop	ecx
	mov	DWORD PTR _this$[ebp], ecx

; 319  : 	SetProperty(0x1a, VT_BOOL, propVal);

	mov	eax, DWORD PTR _propVal$[ebp]
	push	eax
	push	11					; 0000000bH
	push	26					; 0000001aH
	mov	ecx, DWORD PTR _this$[ebp]
	push	ecx
	call	?SetProperty@CWnd@@QAAXJGZZ		; CWnd::SetProperty
	add	esp, 16					; 00000010H

; 320  : }

	pop	edi
	pop	esi
	pop	ebx
	add	esp, 204				; 000000ccH
	cmp	ebp, esp
	call	__RTC_CheckEsp
	mov	esp, ebp
	pop	ebp
	ret	4
?SetSplitContractedWords@CWSpell@@QAEXH@Z ENDP		; CWSpell::SetSplitContractedWords
_TEXT	ENDS
PUBLIC	?GetSplitHyphenatedWords@CWSpell@@QAEHXZ	; CWSpell::GetSplitHyphenatedWords
; Function compile flags: /Odt /RTCcsu /ZI
;	COMDAT ?GetSplitHyphenatedWords@CWSpell@@QAEHXZ
_TEXT	SEGMENT
_result$ = -20						; size = 4
_this$ = -8						; size = 4
?GetSplitHyphenatedWords@CWSpell@@QAEHXZ PROC NEAR	; CWSpell::GetSplitHyphenatedWords, COMDAT
; _this$ = ecx

; 323  : {

	push	ebp
	mov	ebp, esp
	sub	esp, 216				; 000000d8H
	push	ebx
	push	esi
	push	edi
	push	ecx
	lea	edi, DWORD PTR [ebp-216]
	mov	ecx, 54					; 00000036H
	mov	eax, -858993460				; ccccccccH
	rep stosd
	pop	ecx
	mov	DWORD PTR _this$[ebp], ecx

; 324  : 	BOOL result;
; 325  : 	GetProperty(0x1b, VT_BOOL, (void*)&result);

	lea	eax, DWORD PTR _result$[ebp]
	push	eax
	push	11					; 0000000bH
	push	27					; 0000001bH
	mov	ecx, DWORD PTR _this$[ebp]
	call	?GetProperty@CWnd@@QBEXJGPAX@Z		; CWnd::GetProperty

; 326  : 	return result;

	mov	eax, DWORD PTR _result$[ebp]

; 327  : }

	push	edx
	mov	ecx, ebp
	push	eax
	lea	edx, DWORD PTR $L94668
	call	@_RTC_CheckStackVars@8
	pop	eax
	pop	edx
	pop	edi
	pop	esi
	pop	ebx
	add	esp, 216				; 000000d8H
	cmp	ebp, esp
	call	__RTC_CheckEsp
	mov	esp, ebp
	pop	ebp
	ret	0
$L94668:
	DD	1
	DD	$L94667
$L94667:
	DD	-20					; ffffffecH
	DD	4
	DD	$L94666
$L94666:
	DB	114					; 00000072H
	DB	101					; 00000065H
	DB	115					; 00000073H
	DB	117					; 00000075H
	DB	108					; 0000006cH
	DB	116					; 00000074H
	DB	0
?GetSplitHyphenatedWords@CWSpell@@QAEHXZ ENDP		; CWSpell::GetSplitHyphenatedWords
_TEXT	ENDS
PUBLIC	?SetSplitHyphenatedWords@CWSpell@@QAEXH@Z	; CWSpell::SetSplitHyphenatedWords
; Function compile flags: /Odt /RTCcsu /ZI
;	COMDAT ?SetSplitHyphenatedWords@CWSpell@@QAEXH@Z
_TEXT	SEGMENT
_this$ = -8						; size = 4
_propVal$ = 8						; size = 4
?SetSplitHyphenatedWords@CWSpell@@QAEXH@Z PROC NEAR	; CWSpell::SetSplitHyphenatedWords, COMDAT
; _this$ = ecx

; 330  : {

	push	ebp
	mov	ebp, esp
	sub	esp, 204				; 000000ccH
	push	ebx
	push	esi
	push	edi
	push	ecx
	lea	edi, DWORD PTR [ebp-204]
	mov	ecx, 51					; 00000033H
	mov	eax, -858993460				; ccccccccH
	rep stosd
	pop	ecx
	mov	DWORD PTR _this$[ebp], ecx

; 331  : 	SetProperty(0x1b, VT_BOOL, propVal);

	mov	eax, DWORD PTR _propVal$[ebp]
	push	eax
	push	11					; 0000000bH
	push	27					; 0000001bH
	mov	ecx, DWORD PTR _this$[ebp]
	push	ecx
	call	?SetProperty@CWnd@@QAAXJGZZ		; CWnd::SetProperty
	add	esp, 16					; 00000010H

; 332  : }

	pop	edi
	pop	esi
	pop	ebx
	add	esp, 204				; 000000ccH
	cmp	ebp, esp
	call	__RTC_CheckEsp
	mov	esp, ebp
	pop	ebp
	ret	4
?SetSplitHyphenatedWords@CWSpell@@QAEXH@Z ENDP		; CWSpell::SetSplitHyphenatedWords
_TEXT	ENDS
PUBLIC	?GetSplitWords@CWSpell@@QAEHXZ			; CWSpell::GetSplitWords
; Function compile flags: /Odt /RTCcsu /ZI
;	COMDAT ?GetSplitWords@CWSpell@@QAEHXZ
_TEXT	SEGMENT
_result$ = -20						; size = 4
_this$ = -8						; size = 4
?GetSplitWords@CWSpell@@QAEHXZ PROC NEAR		; CWSpell::GetSplitWords, COMDAT
; _this$ = ecx

; 335  : {

	push	ebp
	mov	ebp, esp
	sub	esp, 216				; 000000d8H
	push	ebx
	push	esi
	push	edi
	push	ecx
	lea	edi, DWORD PTR [ebp-216]
	mov	ecx, 54					; 00000036H
	mov	eax, -858993460				; ccccccccH
	rep stosd
	pop	ecx
	mov	DWORD PTR _this$[ebp], ecx

; 336  : 	BOOL result;
; 337  : 	GetProperty(0x1c, VT_BOOL, (void*)&result);

	lea	eax, DWORD PTR _result$[ebp]
	push	eax
	push	11					; 0000000bH
	push	28					; 0000001cH
	mov	ecx, DWORD PTR _this$[ebp]
	call	?GetProperty@CWnd@@QBEXJGPAX@Z		; CWnd::GetProperty

; 338  : 	return result;

	mov	eax, DWORD PTR _result$[ebp]

; 339  : }

	push	edx
	mov	ecx, ebp
	push	eax
	lea	edx, DWORD PTR $L94675
	call	@_RTC_CheckStackVars@8
	pop	eax
	pop	edx
	pop	edi
	pop	esi
	pop	ebx
	add	esp, 216				; 000000d8H
	cmp	ebp, esp
	call	__RTC_CheckEsp
	mov	esp, ebp
	pop	ebp
	ret	0
$L94675:
	DD	1
	DD	$L94674
$L94674:
	DD	-20					; ffffffecH
	DD	4
	DD	$L94673
$L94673:
	DB	114					; 00000072H
	DB	101					; 00000065H
	DB	115					; 00000073H
	DB	117					; 00000075H
	DB	108					; 0000006cH
	DB	116					; 00000074H
	DB	0
?GetSplitWords@CWSpell@@QAEHXZ ENDP			; CWSpell::GetSplitWords
_TEXT	ENDS
PUBLIC	?SetSplitWords@CWSpell@@QAEXH@Z			; CWSpell::SetSplitWords
; Function compile flags: /Odt /RTCcsu /ZI
;	COMDAT ?SetSplitWords@CWSpell@@QAEXH@Z
_TEXT	SEGMENT
_this$ = -8						; size = 4
_propVal$ = 8						; size = 4
?SetSplitWords@CWSpell@@QAEXH@Z PROC NEAR		; CWSpell::SetSplitWords, COMDAT
; _this$ = ecx

; 342  : {

	push	ebp
	mov	ebp, esp
	sub	esp, 204				; 000000ccH
	push	ebx
	push	esi
	push	edi
	push	ecx
	lea	edi, DWORD PTR [ebp-204]
	mov	ecx, 51					; 00000033H
	mov	eax, -858993460				; ccccccccH
	rep stosd
	pop	ecx
	mov	DWORD PTR _this$[ebp], ecx

; 343  : 	SetProperty(0x1c, VT_BOOL, propVal);

	mov	eax, DWORD PTR _propVal$[ebp]
	push	eax
	push	11					; 0000000bH
	push	28					; 0000001cH
	mov	ecx, DWORD PTR _this$[ebp]
	push	ecx
	call	?SetProperty@CWnd@@QAAXJGZZ		; CWnd::SetProperty
	add	esp, 16					; 00000010H

; 344  : }

	pop	edi
	pop	esi
	pop	ebx
	add	esp, 204				; 000000ccH
	cmp	ebp, esp
	call	__RTC_CheckEsp
	mov	esp, ebp
	pop	ebp
	ret	4
?SetSplitWords@CWSpell@@QAEXH@Z ENDP			; CWSpell::SetSplitWords
_TEXT	ENDS
PUBLIC	?GetStripPossessives@CWSpell@@QAEHXZ		; CWSpell::GetStripPossessives
; Function compile flags: /Odt /RTCcsu /ZI
;	COMDAT ?GetStripPossessives@CWSpell@@QAEHXZ
_TEXT	SEGMENT
_result$ = -20						; size = 4
_this$ = -8						; size = 4
?GetStripPossessives@CWSpell@@QAEHXZ PROC NEAR		; CWSpell::GetStripPossessives, COMDAT
; _this$ = ecx

; 347  : {

	push	ebp
	mov	ebp, esp
	sub	esp, 216				; 000000d8H
	push	ebx
	push	esi
	push	edi
	push	ecx
	lea	edi, DWORD PTR [ebp-216]
	mov	ecx, 54					; 00000036H
	mov	eax, -858993460				; ccccccccH
	rep stosd
	pop	ecx
	mov	DWORD PTR _this$[ebp], ecx

; 348  : 	BOOL result;
; 349  : 	GetProperty(0x1d, VT_BOOL, (void*)&result);

	lea	eax, DWORD PTR _result$[ebp]
	push	eax
	push	11					; 0000000bH
	push	29					; 0000001dH
	mov	ecx, DWORD PTR _this$[ebp]
	call	?GetProperty@CWnd@@QBEXJGPAX@Z		; CWnd::GetProperty

; 350  : 	return result;

	mov	eax, DWORD PTR _result$[ebp]

; 351  : }

	push	edx
	mov	ecx, ebp
	push	eax
	lea	edx, DWORD PTR $L94682
	call	@_RTC_CheckStackVars@8
	pop	eax
	pop	edx
	pop	edi
	pop	esi
	pop	ebx
	add	esp, 216				; 000000d8H
	cmp	ebp, esp
	call	__RTC_CheckEsp
	mov	esp, ebp
	pop	ebp
	ret	0
$L94682:
	DD	1
	DD	$L94681
$L94681:
	DD	-20					; ffffffecH
	DD	4
	DD	$L94680
$L94680:
	DB	114					; 00000072H
	DB	101					; 00000065H
	DB	115					; 00000073H
	DB	117					; 00000075H
	DB	108					; 0000006cH
	DB	116					; 00000074H
	DB	0
?GetStripPossessives@CWSpell@@QAEHXZ ENDP		; CWSpell::GetStripPossessives
_TEXT	ENDS
PUBLIC	?SetStripPossessives@CWSpell@@QAEXH@Z		; CWSpell::SetStripPossessives
; Function compile flags: /Odt /RTCcsu /ZI
;	COMDAT ?SetStripPossessives@CWSpell@@QAEXH@Z
_TEXT	SEGMENT
_this$ = -8						; size = 4
_propVal$ = 8						; size = 4
?SetStripPossessives@CWSpell@@QAEXH@Z PROC NEAR		; CWSpell::SetStripPossessives, COMDAT
; _this$ = ecx

; 354  : {

	push	ebp
	mov	ebp, esp
	sub	esp, 204				; 000000ccH
	push	ebx
	push	esi
	push	edi
	push	ecx
	lea	edi, DWORD PTR [ebp-204]
	mov	ecx, 51					; 00000033H
	mov	eax, -858993460				; ccccccccH
	rep stosd
	pop	ecx
	mov	DWORD PTR _this$[ebp], ecx

; 355  : 	SetProperty(0x1d, VT_BOOL, propVal);

	mov	eax, DWORD PTR _propVal$[ebp]
	push	eax
	push	11					; 0000000bH
	push	29					; 0000001dH
	mov	ecx, DWORD PTR _this$[ebp]
	push	ecx
	call	?SetProperty@CWnd@@QAAXJGZZ		; CWnd::SetProperty
	add	esp, 16					; 00000010H

; 356  : }

	pop	edi
	pop	esi
	pop	ebx
	add	esp, 204				; 000000ccH
	cmp	ebp, esp
	call	__RTC_CheckEsp
	mov	esp, ebp
	pop	ebp
	ret	4
?SetStripPossessives@CWSpell@@QAEXH@Z ENDP		; CWSpell::SetStripPossessives
_TEXT	ENDS
PUBLIC	?GetSuggestionDepth@CWSpell@@QAEFXZ		; CWSpell::GetSuggestionDepth
; Function compile flags: /Odt /RTCcsu /ZI
;	COMDAT ?GetSuggestionDepth@CWSpell@@QAEFXZ
_TEXT	SEGMENT
_result$ = -20						; size = 2
_this$ = -8						; size = 4
?GetSuggestionDepth@CWSpell@@QAEFXZ PROC NEAR		; CWSpell::GetSuggestionDepth, COMDAT
; _this$ = ecx

; 359  : {

	push	ebp
	mov	ebp, esp
	sub	esp, 216				; 000000d8H
	push	ebx
	push	esi
	push	edi
	push	ecx
	lea	edi, DWORD PTR [ebp-216]
	mov	ecx, 54					; 00000036H
	mov	eax, -858993460				; ccccccccH
	rep stosd
	pop	ecx
	mov	DWORD PTR _this$[ebp], ecx

; 360  : 	short result;
; 361  : 	GetProperty(0x1e, VT_I2, (void*)&result);

	lea	eax, DWORD PTR _result$[ebp]
	push	eax
	push	2
	push	30					; 0000001eH
	mov	ecx, DWORD PTR _this$[ebp]
	call	?GetProperty@CWnd@@QBEXJGPAX@Z		; CWnd::GetProperty

; 362  : 	return result;

	mov	ax, WORD PTR _result$[ebp]

; 363  : }

	push	edx
	mov	ecx, ebp
	push	eax
	lea	edx, DWORD PTR $L94689
	call	@_RTC_CheckStackVars@8
	pop	eax
	pop	edx
	pop	edi
	pop	esi
	pop	ebx
	add	esp, 216				; 000000d8H
	cmp	ebp, esp
	call	__RTC_CheckEsp
	mov	esp, ebp
	pop	ebp
	ret	0
$L94689:
	DD	1
	DD	$L94688
$L94688:
	DD	-20					; ffffffecH
	DD	2
	DD	$L94687
$L94687:
	DB	114					; 00000072H
	DB	101					; 00000065H
	DB	115					; 00000073H
	DB	117					; 00000075H
	DB	108					; 0000006cH
	DB	116					; 00000074H
	DB	0
?GetSuggestionDepth@CWSpell@@QAEFXZ ENDP		; CWSpell::GetSuggestionDepth
_TEXT	ENDS
PUBLIC	?SetSuggestionDepth@CWSpell@@QAEXF@Z		; CWSpell::SetSuggestionDepth
; Function compile flags: /Odt /RTCcsu /ZI
;	COMDAT ?SetSuggestionDepth@CWSpell@@QAEXF@Z
_TEXT	SEGMENT
_this$ = -8						; size = 4
_propVal$ = 8						; size = 2
?SetSuggestionDepth@CWSpell@@QAEXF@Z PROC NEAR		; CWSpell::SetSuggestionDepth, COMDAT
; _this$ = ecx

; 366  : {

	push	ebp
	mov	ebp, esp
	sub	esp, 204				; 000000ccH
	push	ebx
	push	esi
	push	edi
	push	ecx
	lea	edi, DWORD PTR [ebp-204]
	mov	ecx, 51					; 00000033H
	mov	eax, -858993460				; ccccccccH
	rep stosd
	pop	ecx
	mov	DWORD PTR _this$[ebp], ecx

; 367  : 	SetProperty(0x1e, VT_I2, propVal);

	movsx	eax, WORD PTR _propVal$[ebp]
	push	eax
	push	2
	push	30					; 0000001eH
	mov	ecx, DWORD PTR _this$[ebp]
	push	ecx
	call	?SetProperty@CWnd@@QAAXJGZZ		; CWnd::SetProperty
	add	esp, 16					; 00000010H

; 368  : }

	pop	edi
	pop	esi
	pop	ebx
	add	esp, 204				; 000000ccH
	cmp	ebp, esp
	call	__RTC_CheckEsp
	mov	esp, ebp
	pop	ebp
	ret	4
?SetSuggestionDepth@CWSpell@@QAEXF@Z ENDP		; CWSpell::SetSuggestionDepth
_TEXT	ENDS
PUBLIC	?GetSuggestionDepthIncrement@CWSpell@@QAEFXZ	; CWSpell::GetSuggestionDepthIncrement
; Function compile flags: /Odt /RTCcsu /ZI
;	COMDAT ?GetSuggestionDepthIncrement@CWSpell@@QAEFXZ
_TEXT	SEGMENT
_result$ = -20						; size = 2
_this$ = -8						; size = 4
?GetSuggestionDepthIncrement@CWSpell@@QAEFXZ PROC NEAR	; CWSpell::GetSuggestionDepthIncrement, COMDAT
; _this$ = ecx

; 371  : {

	push	ebp
	mov	ebp, esp
	sub	esp, 216				; 000000d8H
	push	ebx
	push	esi
	push	edi
	push	ecx
	lea	edi, DWORD PTR [ebp-216]
	mov	ecx, 54					; 00000036H
	mov	eax, -858993460				; ccccccccH
	rep stosd
	pop	ecx
	mov	DWORD PTR _this$[ebp], ecx

; 372  : 	short result;
; 373  : 	GetProperty(0x1f, VT_I2, (void*)&result);

	lea	eax, DWORD PTR _result$[ebp]
	push	eax
	push	2
	push	31					; 0000001fH
	mov	ecx, DWORD PTR _this$[ebp]
	call	?GetProperty@CWnd@@QBEXJGPAX@Z		; CWnd::GetProperty

; 374  : 	return result;

	mov	ax, WORD PTR _result$[ebp]

; 375  : }

	push	edx
	mov	ecx, ebp
	push	eax
	lea	edx, DWORD PTR $L94696
	call	@_RTC_CheckStackVars@8
	pop	eax
	pop	edx
	pop	edi
	pop	esi
	pop	ebx
	add	esp, 216				; 000000d8H
	cmp	ebp, esp
	call	__RTC_CheckEsp
	mov	esp, ebp
	pop	ebp
	ret	0
$L94696:
	DD	1
	DD	$L94695
$L94695:
	DD	-20					; ffffffecH
	DD	2
	DD	$L94694
$L94694:
	DB	114					; 00000072H
	DB	101					; 00000065H
	DB	115					; 00000073H
	DB	117					; 00000075H
	DB	108					; 0000006cH
	DB	116					; 00000074H
	DB	0
?GetSuggestionDepthIncrement@CWSpell@@QAEFXZ ENDP	; CWSpell::GetSuggestionDepthIncrement
_TEXT	ENDS
PUBLIC	?SetSuggestionDepthIncrement@CWSpell@@QAEXF@Z	; CWSpell::SetSuggestionDepthIncrement
; Function compile flags: /Odt /RTCcsu /ZI
;	COMDAT ?SetSuggestionDepthIncrement@CWSpell@@QAEXF@Z
_TEXT	SEGMENT
_this$ = -8						; size = 4
_propVal$ = 8						; size = 2
?SetSuggestionDepthIncrement@CWSpell@@QAEXF@Z PROC NEAR	; CWSpell::SetSuggestionDepthIncrement, COMDAT
; _this$ = ecx

; 378  : {

	push	ebp
	mov	ebp, esp
	sub	esp, 204				; 000000ccH
	push	ebx
	push	esi
	push	edi
	push	ecx
	lea	edi, DWORD PTR [ebp-204]
	mov	ecx, 51					; 00000033H
	mov	eax, -858993460				; ccccccccH
	rep stosd
	pop	ecx
	mov	DWORD PTR _this$[ebp], ecx

; 379  : 	SetProperty(0x1f, VT_I2, propVal);

	movsx	eax, WORD PTR _propVal$[ebp]
	push	eax
	push	2
	push	31					; 0000001fH
	mov	ecx, DWORD PTR _this$[ebp]
	push	ecx
	call	?SetProperty@CWnd@@QAAXJGZZ		; CWnd::SetProperty
	add	esp, 16					; 00000010H

; 380  : }

	pop	edi
	pop	esi
	pop	ebx
	add	esp, 204				; 000000ccH
	cmp	ebp, esp
	call	__RTC_CheckEsp
	mov	esp, ebp
	pop	ebp
	ret	4
?SetSuggestionDepthIncrement@CWSpell@@QAEXF@Z ENDP	; CWSpell::SetSuggestionDepthIncrement
_TEXT	ENDS
PUBLIC	?GetSuggestSplitWords@CWSpell@@QAEHXZ		; CWSpell::GetSuggestSplitWords
; Function compile flags: /Odt /RTCcsu /ZI
;	COMDAT ?GetSuggestSplitWords@CWSpell@@QAEHXZ
_TEXT	SEGMENT
_result$ = -20						; size = 4
_this$ = -8						; size = 4
?GetSuggestSplitWords@CWSpell@@QAEHXZ PROC NEAR		; CWSpell::GetSuggestSplitWords, COMDAT
; _this$ = ecx

; 383  : {

	push	ebp
	mov	ebp, esp
	sub	esp, 216				; 000000d8H
	push	ebx
	push	esi
	push	edi
	push	ecx
	lea	edi, DWORD PTR [ebp-216]
	mov	ecx, 54					; 00000036H
	mov	eax, -858993460				; ccccccccH
	rep stosd
	pop	ecx
	mov	DWORD PTR _this$[ebp], ecx

; 384  : 	BOOL result;
; 385  : 	GetProperty(0x20, VT_BOOL, (void*)&result);

	lea	eax, DWORD PTR _result$[ebp]
	push	eax
	push	11					; 0000000bH
	push	32					; 00000020H
	mov	ecx, DWORD PTR _this$[ebp]
	call	?GetProperty@CWnd@@QBEXJGPAX@Z		; CWnd::GetProperty

; 386  : 	return result;

	mov	eax, DWORD PTR _result$[ebp]

; 387  : }

	push	edx
	mov	ecx, ebp
	push	eax
	lea	edx, DWORD PTR $L94703
	call	@_RTC_CheckStackVars@8
	pop	eax
	pop	edx
	pop	edi
	pop	esi
	pop	ebx
	add	esp, 216				; 000000d8H
	cmp	ebp, esp
	call	__RTC_CheckEsp
	mov	esp, ebp
	pop	ebp
	ret	0
$L94703:
	DD	1
	DD	$L94702
$L94702:
	DD	-20					; ffffffecH
	DD	4
	DD	$L94701
$L94701:
	DB	114					; 00000072H
	DB	101					; 00000065H
	DB	115					; 00000073H
	DB	117					; 00000075H
	DB	108					; 0000006cH
	DB	116					; 00000074H
	DB	0
?GetSuggestSplitWords@CWSpell@@QAEHXZ ENDP		; CWSpell::GetSuggestSplitWords
_TEXT	ENDS
PUBLIC	?SetSuggestSplitWords@CWSpell@@QAEXH@Z		; CWSpell::SetSuggestSplitWords
; Function compile flags: /Odt /RTCcsu /ZI
;	COMDAT ?SetSuggestSplitWords@CWSpell@@QAEXH@Z
_TEXT	SEGMENT
_this$ = -8						; size = 4
_propVal$ = 8						; size = 4
?SetSuggestSplitWords@CWSpell@@QAEXH@Z PROC NEAR	; CWSpell::SetSuggestSplitWords, COMDAT
; _this$ = ecx

; 390  : {

	push	ebp
	mov	ebp, esp
	sub	esp, 204				; 000000ccH
	push	ebx
	push	esi
	push	edi
	push	ecx
	lea	edi, DWORD PTR [ebp-204]
	mov	ecx, 51					; 00000033H
	mov	eax, -858993460				; ccccccccH
	rep stosd
	pop	ecx
	mov	DWORD PTR _this$[ebp], ecx

; 391  : 	SetProperty(0x20, VT_BOOL, propVal);

	mov	eax, DWORD PTR _propVal$[ebp]
	push	eax
	push	11					; 0000000bH
	push	32					; 00000020H
	mov	ecx, DWORD PTR _this$[ebp]
	push	ecx
	call	?SetProperty@CWnd@@QAAXJGZZ		; CWnd::SetProperty
	add	esp, 16					; 00000010H

; 392  : }

	pop	edi
	pop	esi
	pop	ebx
	add	esp, 204				; 000000ccH
	cmp	ebp, esp
	call	__RTC_CheckEsp
	mov	esp, ebp
	pop	ebp
	ret	4
?SetSuggestSplitWords@CWSpell@@QAEXH@Z ENDP		; CWSpell::SetSuggestSplitWords
_TEXT	ENDS
PUBLIC	?GetTextLength@CWSpell@@QAEJXZ			; CWSpell::GetTextLength
; Function compile flags: /Odt /RTCcsu /ZI
;	COMDAT ?GetTextLength@CWSpell@@QAEJXZ
_TEXT	SEGMENT
_result$ = -20						; size = 4
_this$ = -8						; size = 4
?GetTextLength@CWSpell@@QAEJXZ PROC NEAR		; CWSpell::GetTextLength, COMDAT
; _this$ = ecx

; 395  : {

	push	ebp
	mov	ebp, esp
	sub	esp, 216				; 000000d8H
	push	ebx
	push	esi
	push	edi
	push	ecx
	lea	edi, DWORD PTR [ebp-216]
	mov	ecx, 54					; 00000036H
	mov	eax, -858993460				; ccccccccH
	rep stosd
	pop	ecx
	mov	DWORD PTR _this$[ebp], ecx

; 396  : 	long result;
; 397  : 	GetProperty(0x21, VT_I4, (void*)&result);

	lea	eax, DWORD PTR _result$[ebp]
	push	eax
	push	3
	push	33					; 00000021H
	mov	ecx, DWORD PTR _this$[ebp]
	call	?GetProperty@CWnd@@QBEXJGPAX@Z		; CWnd::GetProperty

; 398  : 	return result;

	mov	eax, DWORD PTR _result$[ebp]

; 399  : }

	push	edx
	mov	ecx, ebp
	push	eax
	lea	edx, DWORD PTR $L94710
	call	@_RTC_CheckStackVars@8
	pop	eax
	pop	edx
	pop	edi
	pop	esi
	pop	ebx
	add	esp, 216				; 000000d8H
	cmp	ebp, esp
	call	__RTC_CheckEsp
	mov	esp, ebp
	pop	ebp
	ret	0
$L94710:
	DD	1
	DD	$L94709
$L94709:
	DD	-20					; ffffffecH
	DD	4
	DD	$L94708
$L94708:
	DB	114					; 00000072H
	DB	101					; 00000065H
	DB	115					; 00000073H
	DB	117					; 00000075H
	DB	108					; 0000006cH
	DB	116					; 00000074H
	DB	0
?GetTextLength@CWSpell@@QAEJXZ ENDP			; CWSpell::GetTextLength
_TEXT	ENDS
PUBLIC	?SetTextLength@CWSpell@@QAEXJ@Z			; CWSpell::SetTextLength
; Function compile flags: /Odt /RTCcsu /ZI
;	COMDAT ?SetTextLength@CWSpell@@QAEXJ@Z
_TEXT	SEGMENT
_this$ = -8						; size = 4
_propVal$ = 8						; size = 4
?SetTextLength@CWSpell@@QAEXJ@Z PROC NEAR		; CWSpell::SetTextLength, COMDAT
; _this$ = ecx

; 402  : {

	push	ebp
	mov	ebp, esp
	sub	esp, 204				; 000000ccH
	push	ebx
	push	esi
	push	edi
	push	ecx
	lea	edi, DWORD PTR [ebp-204]
	mov	ecx, 51					; 00000033H
	mov	eax, -858993460				; ccccccccH
	rep stosd
	pop	ecx
	mov	DWORD PTR _this$[ebp], ecx

; 403  : 	SetProperty(0x21, VT_I4, propVal);

	mov	eax, DWORD PTR _propVal$[ebp]
	push	eax
	push	3
	push	33					; 00000021H
	mov	ecx, DWORD PTR _this$[ebp]
	push	ecx
	call	?SetProperty@CWnd@@QAAXJGZZ		; CWnd::SetProperty
	add	esp, 16					; 00000010H

; 404  : }

	pop	edi
	pop	esi
	pop	ebx
	add	esp, 204				; 000000ccH
	cmp	ebp, esp
	call	__RTC_CheckEsp
	mov	esp, ebp
	pop	ebp
	ret	4
?SetTextLength@CWSpell@@QAEXJ@Z ENDP			; CWSpell::SetTextLength
_TEXT	ENDS
PUBLIC	?GetTypographicalSuggestions@CWSpell@@QAEHXZ	; CWSpell::GetTypographicalSuggestions
; Function compile flags: /Odt /RTCcsu /ZI
;	COMDAT ?GetTypographicalSuggestions@CWSpell@@QAEHXZ
_TEXT	SEGMENT
_result$ = -20						; size = 4
_this$ = -8						; size = 4
?GetTypographicalSuggestions@CWSpell@@QAEHXZ PROC NEAR	; CWSpell::GetTypographicalSuggestions, COMDAT
; _this$ = ecx

; 407  : {

	push	ebp
	mov	ebp, esp
	sub	esp, 216				; 000000d8H
	push	ebx
	push	esi
	push	edi
	push	ecx
	lea	edi, DWORD PTR [ebp-216]
	mov	ecx, 54					; 00000036H
	mov	eax, -858993460				; ccccccccH
	rep stosd
	pop	ecx
	mov	DWORD PTR _this$[ebp], ecx

; 408  : 	BOOL result;
; 409  : 	GetProperty(0x22, VT_BOOL, (void*)&result);

	lea	eax, DWORD PTR _result$[ebp]
	push	eax
	push	11					; 0000000bH
	push	34					; 00000022H
	mov	ecx, DWORD PTR _this$[ebp]
	call	?GetProperty@CWnd@@QBEXJGPAX@Z		; CWnd::GetProperty

; 410  : 	return result;

	mov	eax, DWORD PTR _result$[ebp]

; 411  : }

	push	edx
	mov	ecx, ebp
	push	eax
	lea	edx, DWORD PTR $L94717
	call	@_RTC_CheckStackVars@8
	pop	eax
	pop	edx
	pop	edi
	pop	esi
	pop	ebx
	add	esp, 216				; 000000d8H
	cmp	ebp, esp
	call	__RTC_CheckEsp
	mov	esp, ebp
	pop	ebp
	ret	0
$L94717:
	DD	1
	DD	$L94716
$L94716:
	DD	-20					; ffffffecH
	DD	4
	DD	$L94715
$L94715:
	DB	114					; 00000072H
	DB	101					; 00000065H
	DB	115					; 00000073H
	DB	117					; 00000075H
	DB	108					; 0000006cH
	DB	116					; 00000074H
	DB	0
?GetTypographicalSuggestions@CWSpell@@QAEHXZ ENDP	; CWSpell::GetTypographicalSuggestions
_TEXT	ENDS
PUBLIC	?SetTypographicalSuggestions@CWSpell@@QAEXH@Z	; CWSpell::SetTypographicalSuggestions
; Function compile flags: /Odt /RTCcsu /ZI
;	COMDAT ?SetTypographicalSuggestions@CWSpell@@QAEXH@Z
_TEXT	SEGMENT
_this$ = -8						; size = 4
_propVal$ = 8						; size = 4
?SetTypographicalSuggestions@CWSpell@@QAEXH@Z PROC NEAR	; CWSpell::SetTypographicalSuggestions, COMDAT
; _this$ = ecx

; 414  : {

	push	ebp
	mov	ebp, esp
	sub	esp, 204				; 000000ccH
	push	ebx
	push	esi
	push	edi
	push	ecx
	lea	edi, DWORD PTR [ebp-204]
	mov	ecx, 51					; 00000033H
	mov	eax, -858993460				; ccccccccH
	rep stosd
	pop	ecx
	mov	DWORD PTR _this$[ebp], ecx

; 415  : 	SetProperty(0x22, VT_BOOL, propVal);

	mov	eax, DWORD PTR _propVal$[ebp]
	push	eax
	push	11					; 0000000bH
	push	34					; 00000022H
	mov	ecx, DWORD PTR _this$[ebp]
	push	ecx
	call	?SetProperty@CWnd@@QAAXJGZZ		; CWnd::SetProperty
	add	esp, 16					; 00000010H

; 416  : }

	pop	edi
	pop	esi
	pop	ebx
	add	esp, 204				; 000000ccH
	cmp	ebp, esp
	call	__RTC_CheckEsp
	mov	esp, ebp
	pop	ebp
	ret	4
?SetTypographicalSuggestions@CWSpell@@QAEXH@Z ENDP	; CWSpell::SetTypographicalSuggestions
_TEXT	ENDS
PUBLIC	?GetUndoNewText@CWSpell@@QAE?AV?$CStringT@DV?$StrTraitMFC@DV?$ChTraitsCRT@D@ATL@@@@@ATL@@XZ ; CWSpell::GetUndoNewText
;	COMDAT xdata$x
xdata$x	SEGMENT
__unwindtable$?GetUndoNewText@CWSpell@@QAE?AV?$CStringT@DV?$StrTraitMFC@DV?$ChTraitsCRT@D@ATL@@@@@ATL@@XZ DD 0ffffffffH
	DD	FLAT:__unwindfunclet$?GetUndoNewText@CWSpell@@QAE?AV?$CStringT@DV?$StrTraitMFC@DV?$ChTraitsCRT@D@ATL@@@@@ATL@@XZ$0
__ehfuncinfo$?GetUndoNewText@CWSpell@@QAE?AV?$CStringT@DV?$StrTraitMFC@DV?$ChTraitsCRT@D@ATL@@@@@ATL@@XZ DD 019930520H
	DD	01H
	DD	FLAT:__unwindtable$?GetUndoNewText@CWSpell@@QAE?AV?$CStringT@DV?$StrTraitMFC@DV?$ChTraitsCRT@D@ATL@@@@@ATL@@XZ
	DD	2 DUP(00H)
	DD	2 DUP(00H)
; Function compile flags: /Odt /RTCcsu /ZI
xdata$x	ENDS
;	COMDAT ?GetUndoNewText@CWSpell@@QAE?AV?$CStringT@DV?$StrTraitMFC@DV?$ChTraitsCRT@D@ATL@@@@@ATL@@XZ
_TEXT	SEGMENT
$T94724 = -236						; size = 4
_result$ = -32						; size = 4
_this$ = -20						; size = 4
__$EHRec$ = -12						; size = 12
___$ReturnUdt$ = 8					; size = 4
?GetUndoNewText@CWSpell@@QAE?AV?$CStringT@DV?$StrTraitMFC@DV?$ChTraitsCRT@D@ATL@@@@@ATL@@XZ PROC NEAR ; CWSpell::GetUndoNewText, COMDAT
; _this$ = ecx

; 419  : {

	push	ebp
	mov	ebp, esp
	push	-1
	push	__ehhandler$?GetUndoNewText@CWSpell@@QAE?AV?$CStringT@DV?$StrTraitMFC@DV?$ChTraitsCRT@D@ATL@@@@@ATL@@XZ
	mov	eax, DWORD PTR fs:__except_list
	push	eax
	mov	DWORD PTR fs:__except_list, esp
	sub	esp, 228				; 000000e4H
	push	ebx
	push	esi
	push	edi
	push	ecx
	lea	edi, DWORD PTR [ebp-240]
	mov	ecx, 57					; 00000039H
	mov	eax, -858993460				; ccccccccH
	rep stosd
	pop	ecx
	mov	DWORD PTR _this$[ebp], ecx
	mov	DWORD PTR $T94724[ebp], 0

; 420  : 	CString result;

	lea	ecx, DWORD PTR _result$[ebp]
	call	??0?$CStringT@DV?$StrTraitMFC@DV?$ChTraitsCRT@D@ATL@@@@@ATL@@QAE@XZ ; ATL::CStringT<char,StrTraitMFC<char,ATL::ChTraitsCRT<char> > >::CStringT<char,StrTraitMFC<char,ATL::ChTraitsCRT<char> > >
	mov	DWORD PTR __$EHRec$[ebp+8], 0

; 421  : 	GetProperty(0x23, VT_BSTR, (void*)&result);

	lea	eax, DWORD PTR _result$[ebp]
	push	eax
	push	8
	push	35					; 00000023H
	mov	ecx, DWORD PTR _this$[ebp]
	call	?GetProperty@CWnd@@QBEXJGPAX@Z		; CWnd::GetProperty

; 422  : 	return result;

	lea	eax, DWORD PTR _result$[ebp]
	push	eax
	mov	ecx, DWORD PTR ___$ReturnUdt$[ebp]
	call	??0?$CStringT@DV?$StrTraitMFC@DV?$ChTraitsCRT@D@ATL@@@@@ATL@@QAE@ABV01@@Z ; ATL::CStringT<char,StrTraitMFC<char,ATL::ChTraitsCRT<char> > >::CStringT<char,StrTraitMFC<char,ATL::ChTraitsCRT<char> > >
	mov	ecx, DWORD PTR $T94724[ebp]
	or	ecx, 1
	mov	DWORD PTR $T94724[ebp], ecx
	mov	DWORD PTR __$EHRec$[ebp+8], -1
	lea	ecx, DWORD PTR _result$[ebp]
	call	??1?$CStringT@DV?$StrTraitMFC@DV?$ChTraitsCRT@D@ATL@@@@@ATL@@QAE@XZ ; ATL::CStringT<char,StrTraitMFC<char,ATL::ChTraitsCRT<char> > >::~CStringT<char,StrTraitMFC<char,ATL::ChTraitsCRT<char> > >
	mov	eax, DWORD PTR ___$ReturnUdt$[ebp]

; 423  : }

	push	edx
	mov	ecx, ebp
	push	eax
	lea	edx, DWORD PTR $L94731
	call	@_RTC_CheckStackVars@8
	pop	eax
	pop	edx
	mov	ecx, DWORD PTR __$EHRec$[ebp]
	mov	DWORD PTR fs:__except_list, ecx
	pop	edi
	pop	esi
	pop	ebx
	add	esp, 240				; 000000f0H
	cmp	ebp, esp
	call	__RTC_CheckEsp
	mov	esp, ebp
	pop	ebp
	ret	4
$L94731:
	DD	1
	DD	$L94730
$L94730:
	DD	-32					; ffffffe0H
	DD	4
	DD	$L94728
$L94728:
	DB	114					; 00000072H
	DB	101					; 00000065H
	DB	115					; 00000073H
	DB	117					; 00000075H
	DB	108					; 0000006cH
	DB	116					; 00000074H
	DB	0
_TEXT	ENDS
;	COMDAT text$x
text$x	SEGMENT
__unwindfunclet$?GetUndoNewText@CWSpell@@QAE?AV?$CStringT@DV?$StrTraitMFC@DV?$ChTraitsCRT@D@ATL@@@@@ATL@@XZ$0:
	lea	ecx, DWORD PTR _result$[ebp]
	jmp	??1?$CStringT@DV?$StrTraitMFC@DV?$ChTraitsCRT@D@ATL@@@@@ATL@@QAE@XZ ; ATL::CStringT<char,StrTraitMFC<char,ATL::ChTraitsCRT<char> > >::~CStringT<char,StrTraitMFC<char,ATL::ChTraitsCRT<char> > >
__ehhandler$?GetUndoNewText@CWSpell@@QAE?AV?$CStringT@DV?$StrTraitMFC@DV?$ChTraitsCRT@D@ATL@@@@@ATL@@XZ:
	mov	eax, OFFSET FLAT:__ehfuncinfo$?GetUndoNewText@CWSpell@@QAE?AV?$CStringT@DV?$StrTraitMFC@DV?$ChTraitsCRT@D@ATL@@@@@ATL@@XZ
	jmp	___CxxFrameHandler
text$x	ENDS
?GetUndoNewText@CWSpell@@QAE?AV?$CStringT@DV?$StrTraitMFC@DV?$ChTraitsCRT@D@ATL@@@@@ATL@@XZ ENDP ; CWSpell::GetUndoNewText
PUBLIC	?SetUndoNewText@CWSpell@@QAEXPBD@Z		; CWSpell::SetUndoNewText
; Function compile flags: /Odt /RTCcsu /ZI
;	COMDAT ?SetUndoNewText@CWSpell@@QAEXPBD@Z
_TEXT	SEGMENT
_this$ = -8						; size = 4
_propVal$ = 8						; size = 4
?SetUndoNewText@CWSpell@@QAEXPBD@Z PROC NEAR		; CWSpell::SetUndoNewText, COMDAT
; _this$ = ecx

; 426  : {

	push	ebp
	mov	ebp, esp
	sub	esp, 204				; 000000ccH
	push	ebx
	push	esi
	push	edi
	push	ecx
	lea	edi, DWORD PTR [ebp-204]
	mov	ecx, 51					; 00000033H
	mov	eax, -858993460				; ccccccccH
	rep stosd
	pop	ecx
	mov	DWORD PTR _this$[ebp], ecx

; 427  : 	SetProperty(0x23, VT_BSTR, propVal);

	mov	eax, DWORD PTR _propVal$[ebp]
	push	eax
	push	8
	push	35					; 00000023H
	mov	ecx, DWORD PTR _this$[ebp]
	push	ecx
	call	?SetProperty@CWnd@@QAAXJGZZ		; CWnd::SetProperty
	add	esp, 16					; 00000010H

; 428  : }

	pop	edi
	pop	esi
	pop	ebx
	add	esp, 204				; 000000ccH
	cmp	ebp, esp
	call	__RTC_CheckEsp
	mov	esp, ebp
	pop	ebp
	ret	4
?SetUndoNewText@CWSpell@@QAEXPBD@Z ENDP			; CWSpell::SetUndoNewText
_TEXT	ENDS
PUBLIC	?GetUndoOffset@CWSpell@@QAEJXZ			; CWSpell::GetUndoOffset
; Function compile flags: /Odt /RTCcsu /ZI
;	COMDAT ?GetUndoOffset@CWSpell@@QAEJXZ
_TEXT	SEGMENT
_result$ = -20						; size = 4
_this$ = -8						; size = 4
?GetUndoOffset@CWSpell@@QAEJXZ PROC NEAR		; CWSpell::GetUndoOffset, COMDAT
; _this$ = ecx

; 431  : {

	push	ebp
	mov	ebp, esp
	sub	esp, 216				; 000000d8H
	push	ebx
	push	esi
	push	edi
	push	ecx
	lea	edi, DWORD PTR [ebp-216]
	mov	ecx, 54					; 00000036H
	mov	eax, -858993460				; ccccccccH
	rep stosd
	pop	ecx
	mov	DWORD PTR _this$[ebp], ecx

; 432  : 	long result;
; 433  : 	GetProperty(0x24, VT_I4, (void*)&result);

	lea	eax, DWORD PTR _result$[ebp]
	push	eax
	push	3
	push	36					; 00000024H
	mov	ecx, DWORD PTR _this$[ebp]
	call	?GetProperty@CWnd@@QBEXJGPAX@Z		; CWnd::GetProperty

; 434  : 	return result;

	mov	eax, DWORD PTR _result$[ebp]

; 435  : }

	push	edx
	mov	ecx, ebp
	push	eax
	lea	edx, DWORD PTR $L94741
	call	@_RTC_CheckStackVars@8
	pop	eax
	pop	edx
	pop	edi
	pop	esi
	pop	ebx
	add	esp, 216				; 000000d8H
	cmp	ebp, esp
	call	__RTC_CheckEsp
	mov	esp, ebp
	pop	ebp
	ret	0
$L94741:
	DD	1
	DD	$L94740
$L94740:
	DD	-20					; ffffffecH
	DD	4
	DD	$L94739
$L94739:
	DB	114					; 00000072H
	DB	101					; 00000065H
	DB	115					; 00000073H
	DB	117					; 00000075H
	DB	108					; 0000006cH
	DB	116					; 00000074H
	DB	0
?GetUndoOffset@CWSpell@@QAEJXZ ENDP			; CWSpell::GetUndoOffset
_TEXT	ENDS
PUBLIC	?SetUndoOffset@CWSpell@@QAEXJ@Z			; CWSpell::SetUndoOffset
; Function compile flags: /Odt /RTCcsu /ZI
;	COMDAT ?SetUndoOffset@CWSpell@@QAEXJ@Z
_TEXT	SEGMENT
_this$ = -8						; size = 4
_propVal$ = 8						; size = 4
?SetUndoOffset@CWSpell@@QAEXJ@Z PROC NEAR		; CWSpell::SetUndoOffset, COMDAT
; _this$ = ecx

; 438  : {

	push	ebp
	mov	ebp, esp
	sub	esp, 204				; 000000ccH
	push	ebx
	push	esi
	push	edi
	push	ecx
	lea	edi, DWORD PTR [ebp-204]
	mov	ecx, 51					; 00000033H
	mov	eax, -858993460				; ccccccccH
	rep stosd
	pop	ecx
	mov	DWORD PTR _this$[ebp], ecx

; 439  : 	SetProperty(0x24, VT_I4, propVal);

	mov	eax, DWORD PTR _propVal$[ebp]
	push	eax
	push	3
	push	36					; 00000024H
	mov	ecx, DWORD PTR _this$[ebp]
	push	ecx
	call	?SetProperty@CWnd@@QAAXJGZZ		; CWnd::SetProperty
	add	esp, 16					; 00000010H

; 440  : }

	pop	edi
	pop	esi
	pop	ebx
	add	esp, 204				; 000000ccH
	cmp	ebp, esp
	call	__RTC_CheckEsp
	mov	esp, ebp
	pop	ebp
	ret	4
?SetUndoOffset@CWSpell@@QAEXJ@Z ENDP			; CWSpell::SetUndoOffset
_TEXT	ENDS
PUBLIC	?GetUndoOldText@CWSpell@@QAE?AV?$CStringT@DV?$StrTraitMFC@DV?$ChTraitsCRT@D@ATL@@@@@ATL@@XZ ; CWSpell::GetUndoOldText
;	COMDAT xdata$x
xdata$x	SEGMENT
__unwindtable$?GetUndoOldText@CWSpell@@QAE?AV?$CStringT@DV?$StrTraitMFC@DV?$ChTraitsCRT@D@ATL@@@@@ATL@@XZ DD 0ffffffffH
	DD	FLAT:__unwindfunclet$?GetUndoOldText@CWSpell@@QAE?AV?$CStringT@DV?$StrTraitMFC@DV?$ChTraitsCRT@D@ATL@@@@@ATL@@XZ$0
__ehfuncinfo$?GetUndoOldText@CWSpell@@QAE?AV?$CStringT@DV?$StrTraitMFC@DV?$ChTraitsCRT@D@ATL@@@@@ATL@@XZ DD 019930520H
	DD	01H
	DD	FLAT:__unwindtable$?GetUndoOldText@CWSpell@@QAE?AV?$CStringT@DV?$StrTraitMFC@DV?$ChTraitsCRT@D@ATL@@@@@ATL@@XZ
	DD	2 DUP(00H)
	DD	2 DUP(00H)
; Function compile flags: /Odt /RTCcsu /ZI
xdata$x	ENDS
;	COMDAT ?GetUndoOldText@CWSpell@@QAE?AV?$CStringT@DV?$StrTraitMFC@DV?$ChTraitsCRT@D@ATL@@@@@ATL@@XZ
_TEXT	SEGMENT
$T94748 = -236						; size = 4
_result$ = -32						; size = 4
_this$ = -20						; size = 4
__$EHRec$ = -12						; size = 12
___$ReturnUdt$ = 8					; size = 4
?GetUndoOldText@CWSpell@@QAE?AV?$CStringT@DV?$StrTraitMFC@DV?$ChTraitsCRT@D@ATL@@@@@ATL@@XZ PROC NEAR ; CWSpell::GetUndoOldText, COMDAT
; _this$ = ecx

; 443  : {

	push	ebp
	mov	ebp, esp
	push	-1
	push	__ehhandler$?GetUndoOldText@CWSpell@@QAE?AV?$CStringT@DV?$StrTraitMFC@DV?$ChTraitsCRT@D@ATL@@@@@ATL@@XZ
	mov	eax, DWORD PTR fs:__except_list
	push	eax
	mov	DWORD PTR fs:__except_list, esp
	sub	esp, 228				; 000000e4H
	push	ebx
	push	esi
	push	edi
	push	ecx
	lea	edi, DWORD PTR [ebp-240]
	mov	ecx, 57					; 00000039H
	mov	eax, -858993460				; ccccccccH
	rep stosd
	pop	ecx
	mov	DWORD PTR _this$[ebp], ecx
	mov	DWORD PTR $T94748[ebp], 0

; 444  : 	CString result;

	lea	ecx, DWORD PTR _result$[ebp]
	call	??0?$CStringT@DV?$StrTraitMFC@DV?$ChTraitsCRT@D@ATL@@@@@ATL@@QAE@XZ ; ATL::CStringT<char,StrTraitMFC<char,ATL::ChTraitsCRT<char> > >::CStringT<char,StrTraitMFC<char,ATL::ChTraitsCRT<char> > >
	mov	DWORD PTR __$EHRec$[ebp+8], 0

; 445  : 	GetProperty(0x25, VT_BSTR, (void*)&result);

	lea	eax, DWORD PTR _result$[ebp]
	push	eax
	push	8
	push	37					; 00000025H
	mov	ecx, DWORD PTR _this$[ebp]
	call	?GetProperty@CWnd@@QBEXJGPAX@Z		; CWnd::GetProperty

; 446  : 	return result;

	lea	eax, DWORD PTR _result$[ebp]
	push	eax
	mov	ecx, DWORD PTR ___$ReturnUdt$[ebp]
	call	??0?$CStringT@DV?$StrTraitMFC@DV?$ChTraitsCRT@D@ATL@@@@@ATL@@QAE@ABV01@@Z ; ATL::CStringT<char,StrTraitMFC<char,ATL::ChTraitsCRT<char> > >::CStringT<char,StrTraitMFC<char,ATL::ChTraitsCRT<char> > >
	mov	ecx, DWORD PTR $T94748[ebp]
	or	ecx, 1
	mov	DWORD PTR $T94748[ebp], ecx
	mov	DWORD PTR __$EHRec$[ebp+8], -1
	lea	ecx, DWORD PTR _result$[ebp]
	call	??1?$CStringT@DV?$StrTraitMFC@DV?$ChTraitsCRT@D@ATL@@@@@ATL@@QAE@XZ ; ATL::CStringT<char,StrTraitMFC<char,ATL::ChTraitsCRT<char> > >::~CStringT<char,StrTraitMFC<char,ATL::ChTraitsCRT<char> > >
	mov	eax, DWORD PTR ___$ReturnUdt$[ebp]

; 447  : }

	push	edx
	mov	ecx, ebp
	push	eax
	lea	edx, DWORD PTR $L94755
	call	@_RTC_CheckStackVars@8
	pop	eax
	pop	edx
	mov	ecx, DWORD PTR __$EHRec$[ebp]
	mov	DWORD PTR fs:__except_list, ecx
	pop	edi
	pop	esi
	pop	ebx
	add	esp, 240				; 000000f0H
	cmp	ebp, esp
	call	__RTC_CheckEsp
	mov	esp, ebp
	pop	ebp
	ret	4
$L94755:
	DD	1
	DD	$L94754
$L94754:
	DD	-32					; ffffffe0H
	DD	4
	DD	$L94752
$L94752:
	DB	114					; 00000072H
	DB	101					; 00000065H
	DB	115					; 00000073H
	DB	117					; 00000075H
	DB	108					; 0000006cH
	DB	116					; 00000074H
	DB	0
_TEXT	ENDS
;	COMDAT text$x
text$x	SEGMENT
__unwindfunclet$?GetUndoOldText@CWSpell@@QAE?AV?$CStringT@DV?$StrTraitMFC@DV?$ChTraitsCRT@D@ATL@@@@@ATL@@XZ$0:
	lea	ecx, DWORD PTR _result$[ebp]
	jmp	??1?$CStringT@DV?$StrTraitMFC@DV?$ChTraitsCRT@D@ATL@@@@@ATL@@QAE@XZ ; ATL::CStringT<char,StrTraitMFC<char,ATL::ChTraitsCRT<char> > >::~CStringT<char,StrTraitMFC<char,ATL::ChTraitsCRT<char> > >
__ehhandler$?GetUndoOldText@CWSpell@@QAE?AV?$CStringT@DV?$StrTraitMFC@DV?$ChTraitsCRT@D@ATL@@@@@ATL@@XZ:
	mov	eax, OFFSET FLAT:__ehfuncinfo$?GetUndoOldText@CWSpell@@QAE?AV?$CStringT@DV?$StrTraitMFC@DV?$ChTraitsCRT@D@ATL@@@@@ATL@@XZ
	jmp	___CxxFrameHandler
text$x	ENDS
?GetUndoOldText@CWSpell@@QAE?AV?$CStringT@DV?$StrTraitMFC@DV?$ChTraitsCRT@D@ATL@@@@@ATL@@XZ ENDP ; CWSpell::GetUndoOldText
PUBLIC	?SetUndoOldText@CWSpell@@QAEXPBD@Z		; CWSpell::SetUndoOldText
; Function compile flags: /Odt /RTCcsu /ZI
;	COMDAT ?SetUndoOldText@CWSpell@@QAEXPBD@Z
_TEXT	SEGMENT
_this$ = -8						; size = 4
_propVal$ = 8						; size = 4
?SetUndoOldText@CWSpell@@QAEXPBD@Z PROC NEAR		; CWSpell::SetUndoOldText, COMDAT
; _this$ = ecx

; 450  : {

	push	ebp
	mov	ebp, esp
	sub	esp, 204				; 000000ccH
	push	ebx
	push	esi
	push	edi
	push	ecx
	lea	edi, DWORD PTR [ebp-204]
	mov	ecx, 51					; 00000033H
	mov	eax, -858993460				; ccccccccH
	rep stosd
	pop	ecx
	mov	DWORD PTR _this$[ebp], ecx

; 451  : 	SetProperty(0x25, VT_BSTR, propVal);

	mov	eax, DWORD PTR _propVal$[ebp]
	push	eax
	push	8
	push	37					; 00000025H
	mov	ecx, DWORD PTR _this$[ebp]
	push	ecx
	call	?SetProperty@CWnd@@QAAXJGZZ		; CWnd::SetProperty
	add	esp, 16					; 00000010H

; 452  : }

	pop	edi
	pop	esi
	pop	ebx
	add	esp, 204				; 000000ccH
	cmp	ebp, esp
	call	__RTC_CheckEsp
	mov	esp, ebp
	pop	ebp
	ret	4
?SetUndoOldText@CWSpell@@QAEXPBD@Z ENDP			; CWSpell::SetUndoOldText
_TEXT	ENDS
PUBLIC	?GetUserDictionaryCount@CWSpell@@QAEFXZ		; CWSpell::GetUserDictionaryCount
; Function compile flags: /Odt /RTCcsu /ZI
;	COMDAT ?GetUserDictionaryCount@CWSpell@@QAEFXZ
_TEXT	SEGMENT
_result$ = -20						; size = 2
_this$ = -8						; size = 4
?GetUserDictionaryCount@CWSpell@@QAEFXZ PROC NEAR	; CWSpell::GetUserDictionaryCount, COMDAT
; _this$ = ecx

; 455  : {

	push	ebp
	mov	ebp, esp
	sub	esp, 216				; 000000d8H
	push	ebx
	push	esi
	push	edi
	push	ecx
	lea	edi, DWORD PTR [ebp-216]
	mov	ecx, 54					; 00000036H
	mov	eax, -858993460				; ccccccccH
	rep stosd
	pop	ecx
	mov	DWORD PTR _this$[ebp], ecx

; 456  : 	short result;
; 457  : 	GetProperty(0x26, VT_I2, (void*)&result);

	lea	eax, DWORD PTR _result$[ebp]
	push	eax
	push	2
	push	38					; 00000026H
	mov	ecx, DWORD PTR _this$[ebp]
	call	?GetProperty@CWnd@@QBEXJGPAX@Z		; CWnd::GetProperty

; 458  : 	return result;

	mov	ax, WORD PTR _result$[ebp]

; 459  : }

	push	edx
	mov	ecx, ebp
	push	eax
	lea	edx, DWORD PTR $L94765
	call	@_RTC_CheckStackVars@8
	pop	eax
	pop	edx
	pop	edi
	pop	esi
	pop	ebx
	add	esp, 216				; 000000d8H
	cmp	ebp, esp
	call	__RTC_CheckEsp
	mov	esp, ebp
	pop	ebp
	ret	0
$L94765:
	DD	1
	DD	$L94764
$L94764:
	DD	-20					; ffffffecH
	DD	2
	DD	$L94763
$L94763:
	DB	114					; 00000072H
	DB	101					; 00000065H
	DB	115					; 00000073H
	DB	117					; 00000075H
	DB	108					; 0000006cH
	DB	116					; 00000074H
	DB	0
?GetUserDictionaryCount@CWSpell@@QAEFXZ ENDP		; CWSpell::GetUserDictionaryCount
_TEXT	ENDS
PUBLIC	?SetUserDictionaryCount@CWSpell@@QAEXF@Z	; CWSpell::SetUserDictionaryCount
; Function compile flags: /Odt /RTCcsu /ZI
;	COMDAT ?SetUserDictionaryCount@CWSpell@@QAEXF@Z
_TEXT	SEGMENT
_this$ = -8						; size = 4
_propVal$ = 8						; size = 2
?SetUserDictionaryCount@CWSpell@@QAEXF@Z PROC NEAR	; CWSpell::SetUserDictionaryCount, COMDAT
; _this$ = ecx

; 462  : {

	push	ebp
	mov	ebp, esp
	sub	esp, 204				; 000000ccH
	push	ebx
	push	esi
	push	edi
	push	ecx
	lea	edi, DWORD PTR [ebp-204]
	mov	ecx, 51					; 00000033H
	mov	eax, -858993460				; ccccccccH
	rep stosd
	pop	ecx
	mov	DWORD PTR _this$[ebp], ecx

; 463  : 	SetProperty(0x26, VT_I2, propVal);

	movsx	eax, WORD PTR _propVal$[ebp]
	push	eax
	push	2
	push	38					; 00000026H
	mov	ecx, DWORD PTR _this$[ebp]
	push	ecx
	call	?SetProperty@CWnd@@QAAXJGZZ		; CWnd::SetProperty
	add	esp, 16					; 00000010H

; 464  : }

	pop	edi
	pop	esi
	pop	ebx
	add	esp, 204				; 000000ccH
	cmp	ebp, esp
	call	__RTC_CheckEsp
	mov	esp, ebp
	pop	ebp
	ret	4
?SetUserDictionaryCount@CWSpell@@QAEXF@Z ENDP		; CWSpell::SetUserDictionaryCount
_TEXT	ENDS
PUBLIC	?GetUserDictionaryFiles@CWSpell@@QAE?AV?$CStringT@DV?$StrTraitMFC@DV?$ChTraitsCRT@D@ATL@@@@@ATL@@XZ ; CWSpell::GetUserDictionaryFiles
;	COMDAT xdata$x
xdata$x	SEGMENT
__unwindtable$?GetUserDictionaryFiles@CWSpell@@QAE?AV?$CStringT@DV?$StrTraitMFC@DV?$ChTraitsCRT@D@ATL@@@@@ATL@@XZ DD 0ffffffffH
	DD	FLAT:__unwindfunclet$?GetUserDictionaryFiles@CWSpell@@QAE?AV?$CStringT@DV?$StrTraitMFC@DV?$ChTraitsCRT@D@ATL@@@@@ATL@@XZ$0
__ehfuncinfo$?GetUserDictionaryFiles@CWSpell@@QAE?AV?$CStringT@DV?$StrTraitMFC@DV?$ChTraitsCRT@D@ATL@@@@@ATL@@XZ DD 019930520H
	DD	01H
	DD	FLAT:__unwindtable$?GetUserDictionaryFiles@CWSpell@@QAE?AV?$CStringT@DV?$StrTraitMFC@DV?$ChTraitsCRT@D@ATL@@@@@ATL@@XZ
	DD	2 DUP(00H)
	DD	2 DUP(00H)
; Function compile flags: /Odt /RTCcsu /ZI
xdata$x	ENDS
;	COMDAT ?GetUserDictionaryFiles@CWSpell@@QAE?AV?$CStringT@DV?$StrTraitMFC@DV?$ChTraitsCRT@D@ATL@@@@@ATL@@XZ
_TEXT	SEGMENT
$T94772 = -236						; size = 4
_result$ = -32						; size = 4
_this$ = -20						; size = 4
__$EHRec$ = -12						; size = 12
___$ReturnUdt$ = 8					; size = 4
?GetUserDictionaryFiles@CWSpell@@QAE?AV?$CStringT@DV?$StrTraitMFC@DV?$ChTraitsCRT@D@ATL@@@@@ATL@@XZ PROC NEAR ; CWSpell::GetUserDictionaryFiles, COMDAT
; _this$ = ecx

; 467  : {

	push	ebp
	mov	ebp, esp
	push	-1
	push	__ehhandler$?GetUserDictionaryFiles@CWSpell@@QAE?AV?$CStringT@DV?$StrTraitMFC@DV?$ChTraitsCRT@D@ATL@@@@@ATL@@XZ
	mov	eax, DWORD PTR fs:__except_list
	push	eax
	mov	DWORD PTR fs:__except_list, esp
	sub	esp, 228				; 000000e4H
	push	ebx
	push	esi
	push	edi
	push	ecx
	lea	edi, DWORD PTR [ebp-240]
	mov	ecx, 57					; 00000039H
	mov	eax, -858993460				; ccccccccH
	rep stosd
	pop	ecx
	mov	DWORD PTR _this$[ebp], ecx
	mov	DWORD PTR $T94772[ebp], 0

; 468  : 	CString result;

	lea	ecx, DWORD PTR _result$[ebp]
	call	??0?$CStringT@DV?$StrTraitMFC@DV?$ChTraitsCRT@D@ATL@@@@@ATL@@QAE@XZ ; ATL::CStringT<char,StrTraitMFC<char,ATL::ChTraitsCRT<char> > >::CStringT<char,StrTraitMFC<char,ATL::ChTraitsCRT<char> > >
	mov	DWORD PTR __$EHRec$[ebp+8], 0

; 469  : 	GetProperty(0x27, VT_BSTR, (void*)&result);

	lea	eax, DWORD PTR _result$[ebp]
	push	eax
	push	8
	push	39					; 00000027H
	mov	ecx, DWORD PTR _this$[ebp]
	call	?GetProperty@CWnd@@QBEXJGPAX@Z		; CWnd::GetProperty

; 470  : 	return result;

	lea	eax, DWORD PTR _result$[ebp]
	push	eax
	mov	ecx, DWORD PTR ___$ReturnUdt$[ebp]
	call	??0?$CStringT@DV?$StrTraitMFC@DV?$ChTraitsCRT@D@ATL@@@@@ATL@@QAE@ABV01@@Z ; ATL::CStringT<char,StrTraitMFC<char,ATL::ChTraitsCRT<char> > >::CStringT<char,StrTraitMFC<char,ATL::ChTraitsCRT<char> > >
	mov	ecx, DWORD PTR $T94772[ebp]
	or	ecx, 1
	mov	DWORD PTR $T94772[ebp], ecx
	mov	DWORD PTR __$EHRec$[ebp+8], -1
	lea	ecx, DWORD PTR _result$[ebp]
	call	??1?$CStringT@DV?$StrTraitMFC@DV?$ChTraitsCRT@D@ATL@@@@@ATL@@QAE@XZ ; ATL::CStringT<char,StrTraitMFC<char,ATL::ChTraitsCRT<char> > >::~CStringT<char,StrTraitMFC<char,ATL::ChTraitsCRT<char> > >
	mov	eax, DWORD PTR ___$ReturnUdt$[ebp]

; 471  : }

	push	edx
	mov	ecx, ebp
	push	eax
	lea	edx, DWORD PTR $L94779
	call	@_RTC_CheckStackVars@8
	pop	eax
	pop	edx
	mov	ecx, DWORD PTR __$EHRec$[ebp]
	mov	DWORD PTR fs:__except_list, ecx
	pop	edi
	pop	esi
	pop	ebx
	add	esp, 240				; 000000f0H
	cmp	ebp, esp
	call	__RTC_CheckEsp
	mov	esp, ebp
	pop	ebp
	ret	4
$L94779:
	DD	1
	DD	$L94778
$L94778:
	DD	-32					; ffffffe0H
	DD	4
	DD	$L94776
$L94776:
	DB	114					; 00000072H
	DB	101					; 00000065H
	DB	115					; 00000073H
	DB	117					; 00000075H
	DB	108					; 0000006cH
	DB	116					; 00000074H
	DB	0
_TEXT	ENDS
;	COMDAT text$x
text$x	SEGMENT
__unwindfunclet$?GetUserDictionaryFiles@CWSpell@@QAE?AV?$CStringT@DV?$StrTraitMFC@DV?$ChTraitsCRT@D@ATL@@@@@ATL@@XZ$0:
	lea	ecx, DWORD PTR _result$[ebp]
	jmp	??1?$CStringT@DV?$StrTraitMFC@DV?$ChTraitsCRT@D@ATL@@@@@ATL@@QAE@XZ ; ATL::CStringT<char,StrTraitMFC<char,ATL::ChTraitsCRT<char> > >::~CStringT<char,StrTraitMFC<char,ATL::ChTraitsCRT<char> > >
__ehhandler$?GetUserDictionaryFiles@CWSpell@@QAE?AV?$CStringT@DV?$StrTraitMFC@DV?$ChTraitsCRT@D@ATL@@@@@ATL@@XZ:
	mov	eax, OFFSET FLAT:__ehfuncinfo$?GetUserDictionaryFiles@CWSpell@@QAE?AV?$CStringT@DV?$StrTraitMFC@DV?$ChTraitsCRT@D@ATL@@@@@ATL@@XZ
	jmp	___CxxFrameHandler
text$x	ENDS
?GetUserDictionaryFiles@CWSpell@@QAE?AV?$CStringT@DV?$StrTraitMFC@DV?$ChTraitsCRT@D@ATL@@@@@ATL@@XZ ENDP ; CWSpell::GetUserDictionaryFiles
PUBLIC	?SetUserDictionaryFiles@CWSpell@@QAEXPBD@Z	; CWSpell::SetUserDictionaryFiles
; Function compile flags: /Odt /RTCcsu /ZI
;	COMDAT ?SetUserDictionaryFiles@CWSpell@@QAEXPBD@Z
_TEXT	SEGMENT
_this$ = -8						; size = 4
_propVal$ = 8						; size = 4
?SetUserDictionaryFiles@CWSpell@@QAEXPBD@Z PROC NEAR	; CWSpell::SetUserDictionaryFiles, COMDAT
; _this$ = ecx

; 474  : {

	push	ebp
	mov	ebp, esp
	sub	esp, 204				; 000000ccH
	push	ebx
	push	esi
	push	edi
	push	ecx
	lea	edi, DWORD PTR [ebp-204]
	mov	ecx, 51					; 00000033H
	mov	eax, -858993460				; ccccccccH
	rep stosd
	pop	ecx
	mov	DWORD PTR _this$[ebp], ecx

; 475  : 	SetProperty(0x27, VT_BSTR, propVal);

	mov	eax, DWORD PTR _propVal$[ebp]
	push	eax
	push	8
	push	39					; 00000027H
	mov	ecx, DWORD PTR _this$[ebp]
	push	ecx
	call	?SetProperty@CWnd@@QAAXJGZZ		; CWnd::SetProperty
	add	esp, 16					; 00000010H

; 476  : }

	pop	edi
	pop	esi
	pop	ebx
	add	esp, 204				; 000000ccH
	cmp	ebp, esp
	call	__RTC_CheckEsp
	mov	esp, ebp
	pop	ebp
	ret	4
?SetUserDictionaryFiles@CWSpell@@QAEXPBD@Z ENDP		; CWSpell::SetUserDictionaryFiles
_TEXT	ENDS
PUBLIC	?GetIgnoreCapitalizedWords@CWSpell@@QAEHXZ	; CWSpell::GetIgnoreCapitalizedWords
; Function compile flags: /Odt /RTCcsu /ZI
;	COMDAT ?GetIgnoreCapitalizedWords@CWSpell@@QAEHXZ
_TEXT	SEGMENT
_result$ = -20						; size = 4
_this$ = -8						; size = 4
?GetIgnoreCapitalizedWords@CWSpell@@QAEHXZ PROC NEAR	; CWSpell::GetIgnoreCapitalizedWords, COMDAT
; _this$ = ecx

; 479  : {

	push	ebp
	mov	ebp, esp
	sub	esp, 216				; 000000d8H
	push	ebx
	push	esi
	push	edi
	push	ecx
	lea	edi, DWORD PTR [ebp-216]
	mov	ecx, 54					; 00000036H
	mov	eax, -858993460				; ccccccccH
	rep stosd
	pop	ecx
	mov	DWORD PTR _this$[ebp], ecx

; 480  : 	BOOL result;
; 481  : 	GetProperty(0x28, VT_BOOL, (void*)&result);

	lea	eax, DWORD PTR _result$[ebp]
	push	eax
	push	11					; 0000000bH
	push	40					; 00000028H
	mov	ecx, DWORD PTR _this$[ebp]
	call	?GetProperty@CWnd@@QBEXJGPAX@Z		; CWnd::GetProperty

; 482  : 	return result;

	mov	eax, DWORD PTR _result$[ebp]

; 483  : }

	push	edx
	mov	ecx, ebp
	push	eax
	lea	edx, DWORD PTR $L94789
	call	@_RTC_CheckStackVars@8
	pop	eax
	pop	edx
	pop	edi
	pop	esi
	pop	ebx
	add	esp, 216				; 000000d8H
	cmp	ebp, esp
	call	__RTC_CheckEsp
	mov	esp, ebp
	pop	ebp
	ret	0
$L94789:
	DD	1
	DD	$L94788
$L94788:
	DD	-20					; ffffffecH
	DD	4
	DD	$L94787
$L94787:
	DB	114					; 00000072H
	DB	101					; 00000065H
	DB	115					; 00000073H
	DB	117					; 00000075H
	DB	108					; 0000006cH
	DB	116					; 00000074H
	DB	0
?GetIgnoreCapitalizedWords@CWSpell@@QAEHXZ ENDP		; CWSpell::GetIgnoreCapitalizedWords
_TEXT	ENDS
PUBLIC	?SetIgnoreCapitalizedWords@CWSpell@@QAEXH@Z	; CWSpell::SetIgnoreCapitalizedWords
; Function compile flags: /Odt /RTCcsu /ZI
;	COMDAT ?SetIgnoreCapitalizedWords@CWSpell@@QAEXH@Z
_TEXT	SEGMENT
_this$ = -8						; size = 4
_propVal$ = 8						; size = 4
?SetIgnoreCapitalizedWords@CWSpell@@QAEXH@Z PROC NEAR	; CWSpell::SetIgnoreCapitalizedWords, COMDAT
; _this$ = ecx

; 486  : {

	push	ebp
	mov	ebp, esp
	sub	esp, 204				; 000000ccH
	push	ebx
	push	esi
	push	edi
	push	ecx
	lea	edi, DWORD PTR [ebp-204]
	mov	ecx, 51					; 00000033H
	mov	eax, -858993460				; ccccccccH
	rep stosd
	pop	ecx
	mov	DWORD PTR _this$[ebp], ecx

; 487  : 	SetProperty(0x28, VT_BOOL, propVal);

	mov	eax, DWORD PTR _propVal$[ebp]
	push	eax
	push	11					; 0000000bH
	push	40					; 00000028H
	mov	ecx, DWORD PTR _this$[ebp]
	push	ecx
	call	?SetProperty@CWnd@@QAAXJGZZ		; CWnd::SetProperty
	add	esp, 16					; 00000010H

; 488  : }

	pop	edi
	pop	esi
	pop	ebx
	add	esp, 204				; 000000ccH
	cmp	ebp, esp
	call	__RTC_CheckEsp
	mov	esp, ebp
	pop	ebp
	ret	4
?SetIgnoreCapitalizedWords@CWSpell@@QAEXH@Z ENDP	; CWSpell::SetIgnoreCapitalizedWords
_TEXT	ENDS
PUBLIC	?GetShowContext@CWSpell@@QAEHXZ			; CWSpell::GetShowContext
; Function compile flags: /Odt /RTCcsu /ZI
;	COMDAT ?GetShowContext@CWSpell@@QAEHXZ
_TEXT	SEGMENT
_result$ = -20						; size = 4
_this$ = -8						; size = 4
?GetShowContext@CWSpell@@QAEHXZ PROC NEAR		; CWSpell::GetShowContext, COMDAT
; _this$ = ecx

; 491  : {

	push	ebp
	mov	ebp, esp
	sub	esp, 216				; 000000d8H
	push	ebx
	push	esi
	push	edi
	push	ecx
	lea	edi, DWORD PTR [ebp-216]
	mov	ecx, 54					; 00000036H
	mov	eax, -858993460				; ccccccccH
	rep stosd
	pop	ecx
	mov	DWORD PTR _this$[ebp], ecx

; 492  : 	BOOL result;
; 493  : 	GetProperty(0x1, VT_BOOL, (void*)&result);

	lea	eax, DWORD PTR _result$[ebp]
	push	eax
	push	11					; 0000000bH
	push	1
	mov	ecx, DWORD PTR _this$[ebp]
	call	?GetProperty@CWnd@@QBEXJGPAX@Z		; CWnd::GetProperty

; 494  : 	return result;

	mov	eax, DWORD PTR _result$[ebp]

; 495  : }

	push	edx
	mov	ecx, ebp
	push	eax
	lea	edx, DWORD PTR $L94796
	call	@_RTC_CheckStackVars@8
	pop	eax
	pop	edx
	pop	edi
	pop	esi
	pop	ebx
	add	esp, 216				; 000000d8H
	cmp	ebp, esp
	call	__RTC_CheckEsp
	mov	esp, ebp
	pop	ebp
	ret	0
$L94796:
	DD	1
	DD	$L94795
$L94795:
	DD	-20					; ffffffecH
	DD	4
	DD	$L94794
$L94794:
	DB	114					; 00000072H
	DB	101					; 00000065H
	DB	115					; 00000073H
	DB	117					; 00000075H
	DB	108					; 0000006cH
	DB	116					; 00000074H
	DB	0
?GetShowContext@CWSpell@@QAEHXZ ENDP			; CWSpell::GetShowContext
_TEXT	ENDS
PUBLIC	?SetShowContext@CWSpell@@QAEXH@Z		; CWSpell::SetShowContext
; Function compile flags: /Odt /RTCcsu /ZI
;	COMDAT ?SetShowContext@CWSpell@@QAEXH@Z
_TEXT	SEGMENT
_this$ = -8						; size = 4
_propVal$ = 8						; size = 4
?SetShowContext@CWSpell@@QAEXH@Z PROC NEAR		; CWSpell::SetShowContext, COMDAT
; _this$ = ecx

; 498  : {

	push	ebp
	mov	ebp, esp
	sub	esp, 204				; 000000ccH
	push	ebx
	push	esi
	push	edi
	push	ecx
	lea	edi, DWORD PTR [ebp-204]
	mov	ecx, 51					; 00000033H
	mov	eax, -858993460				; ccccccccH
	rep stosd
	pop	ecx
	mov	DWORD PTR _this$[ebp], ecx

; 499  : 	SetProperty(0x1, VT_BOOL, propVal);

	mov	eax, DWORD PTR _propVal$[ebp]
	push	eax
	push	11					; 0000000bH
	push	1
	mov	ecx, DWORD PTR _this$[ebp]
	push	ecx
	call	?SetProperty@CWnd@@QAAXJGZZ		; CWnd::SetProperty
	add	esp, 16					; 00000010H

; 500  : }

	pop	edi
	pop	esi
	pop	ebx
	add	esp, 204				; 000000ccH
	cmp	ebp, esp
	call	__RTC_CheckEsp
	mov	esp, ebp
	pop	ebp
	ret	4
?SetShowContext@CWSpell@@QAEXH@Z ENDP			; CWSpell::SetShowContext
_TEXT	ENDS
PUBLIC	?GetShowDialog@CWSpell@@QAEHXZ			; CWSpell::GetShowDialog
; Function compile flags: /Odt /RTCcsu /ZI
;	COMDAT ?GetShowDialog@CWSpell@@QAEHXZ
_TEXT	SEGMENT
_result$ = -20						; size = 4
_this$ = -8						; size = 4
?GetShowDialog@CWSpell@@QAEHXZ PROC NEAR		; CWSpell::GetShowDialog, COMDAT
; _this$ = ecx

; 503  : {

	push	ebp
	mov	ebp, esp
	sub	esp, 216				; 000000d8H
	push	ebx
	push	esi
	push	edi
	push	ecx
	lea	edi, DWORD PTR [ebp-216]
	mov	ecx, 54					; 00000036H
	mov	eax, -858993460				; ccccccccH
	rep stosd
	pop	ecx
	mov	DWORD PTR _this$[ebp], ecx

; 504  : 	BOOL result;
; 505  : 	GetProperty(0x2, VT_BOOL, (void*)&result);

	lea	eax, DWORD PTR _result$[ebp]
	push	eax
	push	11					; 0000000bH
	push	2
	mov	ecx, DWORD PTR _this$[ebp]
	call	?GetProperty@CWnd@@QBEXJGPAX@Z		; CWnd::GetProperty

; 506  : 	return result;

	mov	eax, DWORD PTR _result$[ebp]

; 507  : }

	push	edx
	mov	ecx, ebp
	push	eax
	lea	edx, DWORD PTR $L94803
	call	@_RTC_CheckStackVars@8
	pop	eax
	pop	edx
	pop	edi
	pop	esi
	pop	ebx
	add	esp, 216				; 000000d8H
	cmp	ebp, esp
	call	__RTC_CheckEsp
	mov	esp, ebp
	pop	ebp
	ret	0
$L94803:
	DD	1
	DD	$L94802
$L94802:
	DD	-20					; ffffffecH
	DD	4
	DD	$L94801
$L94801:
	DB	114					; 00000072H
	DB	101					; 00000065H
	DB	115					; 00000073H
	DB	117					; 00000075H
	DB	108					; 0000006cH
	DB	116					; 00000074H
	DB	0
?GetShowDialog@CWSpell@@QAEHXZ ENDP			; CWSpell::GetShowDialog
_TEXT	ENDS
PUBLIC	?SetShowDialog@CWSpell@@QAEXH@Z			; CWSpell::SetShowDialog
; Function compile flags: /Odt /RTCcsu /ZI
;	COMDAT ?SetShowDialog@CWSpell@@QAEXH@Z
_TEXT	SEGMENT
_this$ = -8						; size = 4
_propVal$ = 8						; size = 4
?SetShowDialog@CWSpell@@QAEXH@Z PROC NEAR		; CWSpell::SetShowDialog, COMDAT
; _this$ = ecx

; 510  : {

	push	ebp
	mov	ebp, esp
	sub	esp, 204				; 000000ccH
	push	ebx
	push	esi
	push	edi
	push	ecx
	lea	edi, DWORD PTR [ebp-204]
	mov	ecx, 51					; 00000033H
	mov	eax, -858993460				; ccccccccH
	rep stosd
	pop	ecx
	mov	DWORD PTR _this$[ebp], ecx

; 511  : 	SetProperty(0x2, VT_BOOL, propVal);

	mov	eax, DWORD PTR _propVal$[ebp]
	push	eax
	push	11					; 0000000bH
	push	2
	mov	ecx, DWORD PTR _this$[ebp]
	push	ecx
	call	?SetProperty@CWnd@@QAAXJGZZ		; CWnd::SetProperty
	add	esp, 16					; 00000010H

; 512  : }

	pop	edi
	pop	esi
	pop	ebx
	add	esp, 204				; 000000ccH
	cmp	ebp, esp
	call	__RTC_CheckEsp
	mov	esp, ebp
	pop	ebp
	ret	4
?SetShowDialog@CWSpell@@QAEXH@Z ENDP			; CWSpell::SetShowDialog
_TEXT	ENDS
PUBLIC	?GetTextControlHWnd@CWSpell@@QAEJXZ		; CWSpell::GetTextControlHWnd
; Function compile flags: /Odt /RTCcsu /ZI
;	COMDAT ?GetTextControlHWnd@CWSpell@@QAEJXZ
_TEXT	SEGMENT
_result$ = -20						; size = 4
_this$ = -8						; size = 4
?GetTextControlHWnd@CWSpell@@QAEJXZ PROC NEAR		; CWSpell::GetTextControlHWnd, COMDAT
; _this$ = ecx

; 515  : {

	push	ebp
	mov	ebp, esp
	sub	esp, 216				; 000000d8H
	push	ebx
	push	esi
	push	edi
	push	ecx
	lea	edi, DWORD PTR [ebp-216]
	mov	ecx, 54					; 00000036H
	mov	eax, -858993460				; ccccccccH
	rep stosd
	pop	ecx
	mov	DWORD PTR _this$[ebp], ecx

; 516  : 	long result;
; 517  : 	GetProperty(0x3, VT_I4, (void*)&result);

	lea	eax, DWORD PTR _result$[ebp]
	push	eax
	push	3
	push	3
	mov	ecx, DWORD PTR _this$[ebp]
	call	?GetProperty@CWnd@@QBEXJGPAX@Z		; CWnd::GetProperty

; 518  : 	return result;

	mov	eax, DWORD PTR _result$[ebp]

; 519  : }

	push	edx
	mov	ecx, ebp
	push	eax
	lea	edx, DWORD PTR $L94810
	call	@_RTC_CheckStackVars@8
	pop	eax
	pop	edx
	pop	edi
	pop	esi
	pop	ebx
	add	esp, 216				; 000000d8H
	cmp	ebp, esp
	call	__RTC_CheckEsp
	mov	esp, ebp
	pop	ebp
	ret	0
$L94810:
	DD	1
	DD	$L94809
$L94809:
	DD	-20					; ffffffecH
	DD	4
	DD	$L94808
$L94808:
	DB	114					; 00000072H
	DB	101					; 00000065H
	DB	115					; 00000073H
	DB	117					; 00000075H
	DB	108					; 0000006cH
	DB	116					; 00000074H
	DB	0
?GetTextControlHWnd@CWSpell@@QAEJXZ ENDP		; CWSpell::GetTextControlHWnd
_TEXT	ENDS
PUBLIC	?SetTextControlHWnd@CWSpell@@QAEXJ@Z		; CWSpell::SetTextControlHWnd
; Function compile flags: /Odt /RTCcsu /ZI
;	COMDAT ?SetTextControlHWnd@CWSpell@@QAEXJ@Z
_TEXT	SEGMENT
_this$ = -8						; size = 4
_propVal$ = 8						; size = 4
?SetTextControlHWnd@CWSpell@@QAEXJ@Z PROC NEAR		; CWSpell::SetTextControlHWnd, COMDAT
; _this$ = ecx

; 522  : {

	push	ebp
	mov	ebp, esp
	sub	esp, 204				; 000000ccH
	push	ebx
	push	esi
	push	edi
	push	ecx
	lea	edi, DWORD PTR [ebp-204]
	mov	ecx, 51					; 00000033H
	mov	eax, -858993460				; ccccccccH
	rep stosd
	pop	ecx
	mov	DWORD PTR _this$[ebp], ecx

; 523  : 	SetProperty(0x3, VT_I4, propVal);

	mov	eax, DWORD PTR _propVal$[ebp]
	push	eax
	push	3
	push	3
	mov	ecx, DWORD PTR _this$[ebp]
	push	ecx
	call	?SetProperty@CWnd@@QAAXJGZZ		; CWnd::SetProperty
	add	esp, 16					; 00000010H

; 524  : }

	pop	edi
	pop	esi
	pop	ebx
	add	esp, 204				; 000000ccH
	cmp	ebp, esp
	call	__RTC_CheckEsp
	mov	esp, ebp
	pop	ebp
	ret	4
?SetTextControlHWnd@CWSpell@@QAEXJ@Z ENDP		; CWSpell::SetTextControlHWnd
_TEXT	ENDS
PUBLIC	?GetDialogLeft@CWSpell@@QAEJXZ			; CWSpell::GetDialogLeft
; Function compile flags: /Odt /RTCcsu /ZI
;	COMDAT ?GetDialogLeft@CWSpell@@QAEJXZ
_TEXT	SEGMENT
_result$ = -20						; size = 4
_this$ = -8						; size = 4
?GetDialogLeft@CWSpell@@QAEJXZ PROC NEAR		; CWSpell::GetDialogLeft, COMDAT
; _this$ = ecx

; 527  : {

	push	ebp
	mov	ebp, esp
	sub	esp, 216				; 000000d8H
	push	ebx
	push	esi
	push	edi
	push	ecx
	lea	edi, DWORD PTR [ebp-216]
	mov	ecx, 54					; 00000036H
	mov	eax, -858993460				; ccccccccH
	rep stosd
	pop	ecx
	mov	DWORD PTR _this$[ebp], ecx

; 528  : 	long result;
; 529  : 	GetProperty(0x4, VT_I4, (void*)&result);

	lea	eax, DWORD PTR _result$[ebp]
	push	eax
	push	3
	push	4
	mov	ecx, DWORD PTR _this$[ebp]
	call	?GetProperty@CWnd@@QBEXJGPAX@Z		; CWnd::GetProperty

; 530  : 	return result;

	mov	eax, DWORD PTR _result$[ebp]

; 531  : }

	push	edx
	mov	ecx, ebp
	push	eax
	lea	edx, DWORD PTR $L94817
	call	@_RTC_CheckStackVars@8
	pop	eax
	pop	edx
	pop	edi
	pop	esi
	pop	ebx
	add	esp, 216				; 000000d8H
	cmp	ebp, esp
	call	__RTC_CheckEsp
	mov	esp, ebp
	pop	ebp
	ret	0
$L94817:
	DD	1
	DD	$L94816
$L94816:
	DD	-20					; ffffffecH
	DD	4
	DD	$L94815
$L94815:
	DB	114					; 00000072H
	DB	101					; 00000065H
	DB	115					; 00000073H
	DB	117					; 00000075H
	DB	108					; 0000006cH
	DB	116					; 00000074H
	DB	0
?GetDialogLeft@CWSpell@@QAEJXZ ENDP			; CWSpell::GetDialogLeft
_TEXT	ENDS
PUBLIC	?SetDialogLeft@CWSpell@@QAEXJ@Z			; CWSpell::SetDialogLeft
; Function compile flags: /Odt /RTCcsu /ZI
;	COMDAT ?SetDialogLeft@CWSpell@@QAEXJ@Z
_TEXT	SEGMENT
_this$ = -8						; size = 4
_propVal$ = 8						; size = 4
?SetDialogLeft@CWSpell@@QAEXJ@Z PROC NEAR		; CWSpell::SetDialogLeft, COMDAT
; _this$ = ecx

; 534  : {

	push	ebp
	mov	ebp, esp
	sub	esp, 204				; 000000ccH
	push	ebx
	push	esi
	push	edi
	push	ecx
	lea	edi, DWORD PTR [ebp-204]
	mov	ecx, 51					; 00000033H
	mov	eax, -858993460				; ccccccccH
	rep stosd
	pop	ecx
	mov	DWORD PTR _this$[ebp], ecx

; 535  : 	SetProperty(0x4, VT_I4, propVal);

	mov	eax, DWORD PTR _propVal$[ebp]
	push	eax
	push	3
	push	4
	mov	ecx, DWORD PTR _this$[ebp]
	push	ecx
	call	?SetProperty@CWnd@@QAAXJGZZ		; CWnd::SetProperty
	add	esp, 16					; 00000010H

; 536  : }

	pop	edi
	pop	esi
	pop	ebx
	add	esp, 204				; 000000ccH
	cmp	ebp, esp
	call	__RTC_CheckEsp
	mov	esp, ebp
	pop	ebp
	ret	4
?SetDialogLeft@CWSpell@@QAEXJ@Z ENDP			; CWSpell::SetDialogLeft
_TEXT	ENDS
PUBLIC	?GetDialogTop@CWSpell@@QAEJXZ			; CWSpell::GetDialogTop
; Function compile flags: /Odt /RTCcsu /ZI
;	COMDAT ?GetDialogTop@CWSpell@@QAEJXZ
_TEXT	SEGMENT
_result$ = -20						; size = 4
_this$ = -8						; size = 4
?GetDialogTop@CWSpell@@QAEJXZ PROC NEAR			; CWSpell::GetDialogTop, COMDAT
; _this$ = ecx

; 539  : {

	push	ebp
	mov	ebp, esp
	sub	esp, 216				; 000000d8H
	push	ebx
	push	esi
	push	edi
	push	ecx
	lea	edi, DWORD PTR [ebp-216]
	mov	ecx, 54					; 00000036H
	mov	eax, -858993460				; ccccccccH
	rep stosd
	pop	ecx
	mov	DWORD PTR _this$[ebp], ecx

; 540  : 	long result;
; 541  : 	GetProperty(0x5, VT_I4, (void*)&result);

	lea	eax, DWORD PTR _result$[ebp]
	push	eax
	push	3
	push	5
	mov	ecx, DWORD PTR _this$[ebp]
	call	?GetProperty@CWnd@@QBEXJGPAX@Z		; CWnd::GetProperty

; 542  : 	return result;

	mov	eax, DWORD PTR _result$[ebp]

; 543  : }

	push	edx
	mov	ecx, ebp
	push	eax
	lea	edx, DWORD PTR $L94824
	call	@_RTC_CheckStackVars@8
	pop	eax
	pop	edx
	pop	edi
	pop	esi
	pop	ebx
	add	esp, 216				; 000000d8H
	cmp	ebp, esp
	call	__RTC_CheckEsp
	mov	esp, ebp
	pop	ebp
	ret	0
$L94824:
	DD	1
	DD	$L94823
$L94823:
	DD	-20					; ffffffecH
	DD	4
	DD	$L94822
$L94822:
	DB	114					; 00000072H
	DB	101					; 00000065H
	DB	115					; 00000073H
	DB	117					; 00000075H
	DB	108					; 0000006cH
	DB	116					; 00000074H
	DB	0
?GetDialogTop@CWSpell@@QAEJXZ ENDP			; CWSpell::GetDialogTop
_TEXT	ENDS
PUBLIC	?SetDialogTop@CWSpell@@QAEXJ@Z			; CWSpell::SetDialogTop
; Function compile flags: /Odt /RTCcsu /ZI
;	COMDAT ?SetDialogTop@CWSpell@@QAEXJ@Z
_TEXT	SEGMENT
_this$ = -8						; size = 4
_propVal$ = 8						; size = 4
?SetDialogTop@CWSpell@@QAEXJ@Z PROC NEAR		; CWSpell::SetDialogTop, COMDAT
; _this$ = ecx

; 546  : {

	push	ebp
	mov	ebp, esp
	sub	esp, 204				; 000000ccH
	push	ebx
	push	esi
	push	edi
	push	ecx
	lea	edi, DWORD PTR [ebp-204]
	mov	ecx, 51					; 00000033H
	mov	eax, -858993460				; ccccccccH
	rep stosd
	pop	ecx
	mov	DWORD PTR _this$[ebp], ecx

; 547  : 	SetProperty(0x5, VT_I4, propVal);

	mov	eax, DWORD PTR _propVal$[ebp]
	push	eax
	push	3
	push	5
	mov	ecx, DWORD PTR _this$[ebp]
	push	ecx
	call	?SetProperty@CWnd@@QAAXJGZZ		; CWnd::SetProperty
	add	esp, 16					; 00000010H

; 548  : }

	pop	edi
	pop	esi
	pop	ebx
	add	esp, 204				; 000000ccH
	cmp	ebp, esp
	call	__RTC_CheckEsp
	mov	esp, ebp
	pop	ebp
	ret	4
?SetDialogTop@CWSpell@@QAEXJ@Z ENDP			; CWSpell::SetDialogTop
_TEXT	ENDS
PUBLIC	?GetSuggestionScoreRange@CWSpell@@QAEFXZ	; CWSpell::GetSuggestionScoreRange
; Function compile flags: /Odt /RTCcsu /ZI
;	COMDAT ?GetSuggestionScoreRange@CWSpell@@QAEFXZ
_TEXT	SEGMENT
_result$ = -20						; size = 2
_this$ = -8						; size = 4
?GetSuggestionScoreRange@CWSpell@@QAEFXZ PROC NEAR	; CWSpell::GetSuggestionScoreRange, COMDAT
; _this$ = ecx

; 551  : {

	push	ebp
	mov	ebp, esp
	sub	esp, 216				; 000000d8H
	push	ebx
	push	esi
	push	edi
	push	ecx
	lea	edi, DWORD PTR [ebp-216]
	mov	ecx, 54					; 00000036H
	mov	eax, -858993460				; ccccccccH
	rep stosd
	pop	ecx
	mov	DWORD PTR _this$[ebp], ecx

; 552  : 	short result;
; 553  : 	GetProperty(0x29, VT_I2, (void*)&result);

	lea	eax, DWORD PTR _result$[ebp]
	push	eax
	push	2
	push	41					; 00000029H
	mov	ecx, DWORD PTR _this$[ebp]
	call	?GetProperty@CWnd@@QBEXJGPAX@Z		; CWnd::GetProperty

; 554  : 	return result;

	mov	ax, WORD PTR _result$[ebp]

; 555  : }

	push	edx
	mov	ecx, ebp
	push	eax
	lea	edx, DWORD PTR $L94831
	call	@_RTC_CheckStackVars@8
	pop	eax
	pop	edx
	pop	edi
	pop	esi
	pop	ebx
	add	esp, 216				; 000000d8H
	cmp	ebp, esp
	call	__RTC_CheckEsp
	mov	esp, ebp
	pop	ebp
	ret	0
$L94831:
	DD	1
	DD	$L94830
$L94830:
	DD	-20					; ffffffecH
	DD	2
	DD	$L94829
$L94829:
	DB	114					; 00000072H
	DB	101					; 00000065H
	DB	115					; 00000073H
	DB	117					; 00000075H
	DB	108					; 0000006cH
	DB	116					; 00000074H
	DB	0
?GetSuggestionScoreRange@CWSpell@@QAEFXZ ENDP		; CWSpell::GetSuggestionScoreRange
_TEXT	ENDS
PUBLIC	?SetSuggestionScoreRange@CWSpell@@QAEXF@Z	; CWSpell::SetSuggestionScoreRange
; Function compile flags: /Odt /RTCcsu /ZI
;	COMDAT ?SetSuggestionScoreRange@CWSpell@@QAEXF@Z
_TEXT	SEGMENT
_this$ = -8						; size = 4
_propVal$ = 8						; size = 2
?SetSuggestionScoreRange@CWSpell@@QAEXF@Z PROC NEAR	; CWSpell::SetSuggestionScoreRange, COMDAT
; _this$ = ecx

; 558  : {

	push	ebp
	mov	ebp, esp
	sub	esp, 204				; 000000ccH
	push	ebx
	push	esi
	push	edi
	push	ecx
	lea	edi, DWORD PTR [ebp-204]
	mov	ecx, 51					; 00000033H
	mov	eax, -858993460				; ccccccccH
	rep stosd
	pop	ecx
	mov	DWORD PTR _this$[ebp], ecx

; 559  : 	SetProperty(0x29, VT_I2, propVal);

	movsx	eax, WORD PTR _propVal$[ebp]
	push	eax
	push	2
	push	41					; 00000029H
	mov	ecx, DWORD PTR _this$[ebp]
	push	ecx
	call	?SetProperty@CWnd@@QAAXJGZZ		; CWnd::SetProperty
	add	esp, 16					; 00000010H

; 560  : }

	pop	edi
	pop	esi
	pop	ebx
	add	esp, 204				; 000000ccH
	cmp	ebp, esp
	call	__RTC_CheckEsp
	mov	esp, ebp
	pop	ebp
	ret	4
?SetSuggestionScoreRange@CWSpell@@QAEXF@Z ENDP		; CWSpell::SetSuggestionScoreRange
_TEXT	ENDS
PUBLIC	?GetMinSuggestionScore@CWSpell@@QAEFXZ		; CWSpell::GetMinSuggestionScore
; Function compile flags: /Odt /RTCcsu /ZI
;	COMDAT ?GetMinSuggestionScore@CWSpell@@QAEFXZ
_TEXT	SEGMENT
_result$ = -20						; size = 2
_this$ = -8						; size = 4
?GetMinSuggestionScore@CWSpell@@QAEFXZ PROC NEAR	; CWSpell::GetMinSuggestionScore, COMDAT
; _this$ = ecx

; 563  : {

	push	ebp
	mov	ebp, esp
	sub	esp, 216				; 000000d8H
	push	ebx
	push	esi
	push	edi
	push	ecx
	lea	edi, DWORD PTR [ebp-216]
	mov	ecx, 54					; 00000036H
	mov	eax, -858993460				; ccccccccH
	rep stosd
	pop	ecx
	mov	DWORD PTR _this$[ebp], ecx

; 564  : 	short result;
; 565  : 	GetProperty(0x2a, VT_I2, (void*)&result);

	lea	eax, DWORD PTR _result$[ebp]
	push	eax
	push	2
	push	42					; 0000002aH
	mov	ecx, DWORD PTR _this$[ebp]
	call	?GetProperty@CWnd@@QBEXJGPAX@Z		; CWnd::GetProperty

; 566  : 	return result;

	mov	ax, WORD PTR _result$[ebp]

; 567  : }

	push	edx
	mov	ecx, ebp
	push	eax
	lea	edx, DWORD PTR $L94838
	call	@_RTC_CheckStackVars@8
	pop	eax
	pop	edx
	pop	edi
	pop	esi
	pop	ebx
	add	esp, 216				; 000000d8H
	cmp	ebp, esp
	call	__RTC_CheckEsp
	mov	esp, ebp
	pop	ebp
	ret	0
$L94838:
	DD	1
	DD	$L94837
$L94837:
	DD	-20					; ffffffecH
	DD	2
	DD	$L94836
$L94836:
	DB	114					; 00000072H
	DB	101					; 00000065H
	DB	115					; 00000073H
	DB	117					; 00000075H
	DB	108					; 0000006cH
	DB	116					; 00000074H
	DB	0
?GetMinSuggestionScore@CWSpell@@QAEFXZ ENDP		; CWSpell::GetMinSuggestionScore
_TEXT	ENDS
PUBLIC	?SetMinSuggestionScore@CWSpell@@QAEXF@Z		; CWSpell::SetMinSuggestionScore
; Function compile flags: /Odt /RTCcsu /ZI
;	COMDAT ?SetMinSuggestionScore@CWSpell@@QAEXF@Z
_TEXT	SEGMENT
_this$ = -8						; size = 4
_propVal$ = 8						; size = 2
?SetMinSuggestionScore@CWSpell@@QAEXF@Z PROC NEAR	; CWSpell::SetMinSuggestionScore, COMDAT
; _this$ = ecx

; 570  : {

	push	ebp
	mov	ebp, esp
	sub	esp, 204				; 000000ccH
	push	ebx
	push	esi
	push	edi
	push	ecx
	lea	edi, DWORD PTR [ebp-204]
	mov	ecx, 51					; 00000033H
	mov	eax, -858993460				; ccccccccH
	rep stosd
	pop	ecx
	mov	DWORD PTR _this$[ebp], ecx

; 571  : 	SetProperty(0x2a, VT_I2, propVal);

	movsx	eax, WORD PTR _propVal$[ebp]
	push	eax
	push	2
	push	42					; 0000002aH
	mov	ecx, DWORD PTR _this$[ebp]
	push	ecx
	call	?SetProperty@CWnd@@QAAXJGZZ		; CWnd::SetProperty
	add	esp, 16					; 00000010H

; 572  : }

	pop	edi
	pop	esi
	pop	ebx
	add	esp, 204				; 000000ccH
	cmp	ebp, esp
	call	__RTC_CheckEsp
	mov	esp, ebp
	pop	ebp
	ret	4
?SetMinSuggestionScore@CWSpell@@QAEXF@Z ENDP		; CWSpell::SetMinSuggestionScore
_TEXT	ENDS
PUBLIC	?GetAutoCorrect@CWSpell@@QAEHXZ			; CWSpell::GetAutoCorrect
; Function compile flags: /Odt /RTCcsu /ZI
;	COMDAT ?GetAutoCorrect@CWSpell@@QAEHXZ
_TEXT	SEGMENT
_result$ = -20						; size = 4
_this$ = -8						; size = 4
?GetAutoCorrect@CWSpell@@QAEHXZ PROC NEAR		; CWSpell::GetAutoCorrect, COMDAT
; _this$ = ecx

; 575  : {

	push	ebp
	mov	ebp, esp
	sub	esp, 216				; 000000d8H
	push	ebx
	push	esi
	push	edi
	push	ecx
	lea	edi, DWORD PTR [ebp-216]
	mov	ecx, 54					; 00000036H
	mov	eax, -858993460				; ccccccccH
	rep stosd
	pop	ecx
	mov	DWORD PTR _this$[ebp], ecx

; 576  : 	BOOL result;
; 577  : 	GetProperty(0x2b, VT_BOOL, (void*)&result);

	lea	eax, DWORD PTR _result$[ebp]
	push	eax
	push	11					; 0000000bH
	push	43					; 0000002bH
	mov	ecx, DWORD PTR _this$[ebp]
	call	?GetProperty@CWnd@@QBEXJGPAX@Z		; CWnd::GetProperty

; 578  : 	return result;

	mov	eax, DWORD PTR _result$[ebp]

; 579  : }

	push	edx
	mov	ecx, ebp
	push	eax
	lea	edx, DWORD PTR $L94845
	call	@_RTC_CheckStackVars@8
	pop	eax
	pop	edx
	pop	edi
	pop	esi
	pop	ebx
	add	esp, 216				; 000000d8H
	cmp	ebp, esp
	call	__RTC_CheckEsp
	mov	esp, ebp
	pop	ebp
	ret	0
$L94845:
	DD	1
	DD	$L94844
$L94844:
	DD	-20					; ffffffecH
	DD	4
	DD	$L94843
$L94843:
	DB	114					; 00000072H
	DB	101					; 00000065H
	DB	115					; 00000073H
	DB	117					; 00000075H
	DB	108					; 0000006cH
	DB	116					; 00000074H
	DB	0
?GetAutoCorrect@CWSpell@@QAEHXZ ENDP			; CWSpell::GetAutoCorrect
_TEXT	ENDS
PUBLIC	?SetAutoCorrect@CWSpell@@QAEXH@Z		; CWSpell::SetAutoCorrect
; Function compile flags: /Odt /RTCcsu /ZI
;	COMDAT ?SetAutoCorrect@CWSpell@@QAEXH@Z
_TEXT	SEGMENT
_this$ = -8						; size = 4
_propVal$ = 8						; size = 4
?SetAutoCorrect@CWSpell@@QAEXH@Z PROC NEAR		; CWSpell::SetAutoCorrect, COMDAT
; _this$ = ecx

; 582  : {

	push	ebp
	mov	ebp, esp
	sub	esp, 204				; 000000ccH
	push	ebx
	push	esi
	push	edi
	push	ecx
	lea	edi, DWORD PTR [ebp-204]
	mov	ecx, 51					; 00000033H
	mov	eax, -858993460				; ccccccccH
	rep stosd
	pop	ecx
	mov	DWORD PTR _this$[ebp], ecx

; 583  : 	SetProperty(0x2b, VT_BOOL, propVal);

	mov	eax, DWORD PTR _propVal$[ebp]
	push	eax
	push	11					; 0000000bH
	push	43					; 0000002bH
	mov	ecx, DWORD PTR _this$[ebp]
	push	ecx
	call	?SetProperty@CWnd@@QAAXJGZZ		; CWnd::SetProperty
	add	esp, 16					; 00000010H

; 584  : }

	pop	edi
	pop	esi
	pop	ebx
	add	esp, 204				; 000000ccH
	cmp	ebp, esp
	call	__RTC_CheckEsp
	mov	esp, ebp
	pop	ebp
	ret	4
?SetAutoCorrect@CWSpell@@QAEXH@Z ENDP			; CWSpell::SetAutoCorrect
_TEXT	ENDS
PUBLIC	?GetVersion@CWSpell@@QAE?AV?$CStringT@DV?$StrTraitMFC@DV?$ChTraitsCRT@D@ATL@@@@@ATL@@XZ ; CWSpell::GetVersion
;	COMDAT xdata$x
xdata$x	SEGMENT
__unwindtable$?GetVersion@CWSpell@@QAE?AV?$CStringT@DV?$StrTraitMFC@DV?$ChTraitsCRT@D@ATL@@@@@ATL@@XZ DD 0ffffffffH
	DD	FLAT:__unwindfunclet$?GetVersion@CWSpell@@QAE?AV?$CStringT@DV?$StrTraitMFC@DV?$ChTraitsCRT@D@ATL@@@@@ATL@@XZ$0
__ehfuncinfo$?GetVersion@CWSpell@@QAE?AV?$CStringT@DV?$StrTraitMFC@DV?$ChTraitsCRT@D@ATL@@@@@ATL@@XZ DD 019930520H
	DD	01H
	DD	FLAT:__unwindtable$?GetVersion@CWSpell@@QAE?AV?$CStringT@DV?$StrTraitMFC@DV?$ChTraitsCRT@D@ATL@@@@@ATL@@XZ
	DD	2 DUP(00H)
	DD	2 DUP(00H)
; Function compile flags: /Odt /RTCcsu /ZI
xdata$x	ENDS
;	COMDAT ?GetVersion@CWSpell@@QAE?AV?$CStringT@DV?$StrTraitMFC@DV?$ChTraitsCRT@D@ATL@@@@@ATL@@XZ
_TEXT	SEGMENT
$T94852 = -236						; size = 4
_result$ = -32						; size = 4
_this$ = -20						; size = 4
__$EHRec$ = -12						; size = 12
___$ReturnUdt$ = 8					; size = 4
?GetVersion@CWSpell@@QAE?AV?$CStringT@DV?$StrTraitMFC@DV?$ChTraitsCRT@D@ATL@@@@@ATL@@XZ PROC NEAR ; CWSpell::GetVersion, COMDAT
; _this$ = ecx

; 587  : {

	push	ebp
	mov	ebp, esp
	push	-1
	push	__ehhandler$?GetVersion@CWSpell@@QAE?AV?$CStringT@DV?$StrTraitMFC@DV?$ChTraitsCRT@D@ATL@@@@@ATL@@XZ
	mov	eax, DWORD PTR fs:__except_list
	push	eax
	mov	DWORD PTR fs:__except_list, esp
	sub	esp, 228				; 000000e4H
	push	ebx
	push	esi
	push	edi
	push	ecx
	lea	edi, DWORD PTR [ebp-240]
	mov	ecx, 57					; 00000039H
	mov	eax, -858993460				; ccccccccH
	rep stosd
	pop	ecx
	mov	DWORD PTR _this$[ebp], ecx
	mov	DWORD PTR $T94852[ebp], 0

; 588  : 	CString result;

	lea	ecx, DWORD PTR _result$[ebp]
	call	??0?$CStringT@DV?$StrTraitMFC@DV?$ChTraitsCRT@D@ATL@@@@@ATL@@QAE@XZ ; ATL::CStringT<char,StrTraitMFC<char,ATL::ChTraitsCRT<char> > >::CStringT<char,StrTraitMFC<char,ATL::ChTraitsCRT<char> > >
	mov	DWORD PTR __$EHRec$[ebp+8], 0

; 589  : 	GetProperty(0x2c, VT_BSTR, (void*)&result);

	lea	eax, DWORD PTR _result$[ebp]
	push	eax
	push	8
	push	44					; 0000002cH
	mov	ecx, DWORD PTR _this$[ebp]
	call	?GetProperty@CWnd@@QBEXJGPAX@Z		; CWnd::GetProperty

; 590  : 	return result;

	lea	eax, DWORD PTR _result$[ebp]
	push	eax
	mov	ecx, DWORD PTR ___$ReturnUdt$[ebp]
	call	??0?$CStringT@DV?$StrTraitMFC@DV?$ChTraitsCRT@D@ATL@@@@@ATL@@QAE@ABV01@@Z ; ATL::CStringT<char,StrTraitMFC<char,ATL::ChTraitsCRT<char> > >::CStringT<char,StrTraitMFC<char,ATL::ChTraitsCRT<char> > >
	mov	ecx, DWORD PTR $T94852[ebp]
	or	ecx, 1
	mov	DWORD PTR $T94852[ebp], ecx
	mov	DWORD PTR __$EHRec$[ebp+8], -1
	lea	ecx, DWORD PTR _result$[ebp]
	call	??1?$CStringT@DV?$StrTraitMFC@DV?$ChTraitsCRT@D@ATL@@@@@ATL@@QAE@XZ ; ATL::CStringT<char,StrTraitMFC<char,ATL::ChTraitsCRT<char> > >::~CStringT<char,StrTraitMFC<char,ATL::ChTraitsCRT<char> > >
	mov	eax, DWORD PTR ___$ReturnUdt$[ebp]

; 591  : }

	push	edx
	mov	ecx, ebp
	push	eax
	lea	edx, DWORD PTR $L94859
	call	@_RTC_CheckStackVars@8
	pop	eax
	pop	edx
	mov	ecx, DWORD PTR __$EHRec$[ebp]
	mov	DWORD PTR fs:__except_list, ecx
	pop	edi
	pop	esi
	pop	ebx
	add	esp, 240				; 000000f0H
	cmp	ebp, esp
	call	__RTC_CheckEsp
	mov	esp, ebp
	pop	ebp
	ret	4
$L94859:
	DD	1
	DD	$L94858
$L94858:
	DD	-32					; ffffffe0H
	DD	4
	DD	$L94856
$L94856:
	DB	114					; 00000072H
	DB	101					; 00000065H
	DB	115					; 00000073H
	DB	117					; 00000075H
	DB	108					; 0000006cH
	DB	116					; 00000074H
	DB	0
_TEXT	ENDS
;	COMDAT text$x
text$x	SEGMENT
__unwindfunclet$?GetVersion@CWSpell@@QAE?AV?$CStringT@DV?$StrTraitMFC@DV?$ChTraitsCRT@D@ATL@@@@@ATL@@XZ$0:
	lea	ecx, DWORD PTR _result$[ebp]
	jmp	??1?$CStringT@DV?$StrTraitMFC@DV?$ChTraitsCRT@D@ATL@@@@@ATL@@QAE@XZ ; ATL::CStringT<char,StrTraitMFC<char,ATL::ChTraitsCRT<char> > >::~CStringT<char,StrTraitMFC<char,ATL::ChTraitsCRT<char> > >
__ehhandler$?GetVersion@CWSpell@@QAE?AV?$CStringT@DV?$StrTraitMFC@DV?$ChTraitsCRT@D@ATL@@@@@ATL@@XZ:
	mov	eax, OFFSET FLAT:__ehfuncinfo$?GetVersion@CWSpell@@QAE?AV?$CStringT@DV?$StrTraitMFC@DV?$ChTraitsCRT@D@ATL@@@@@ATL@@XZ
	jmp	___CxxFrameHandler
text$x	ENDS
?GetVersion@CWSpell@@QAE?AV?$CStringT@DV?$StrTraitMFC@DV?$ChTraitsCRT@D@ATL@@@@@ATL@@XZ ENDP ; CWSpell::GetVersion
PUBLIC	?SetVersion@CWSpell@@QAEXPBD@Z			; CWSpell::SetVersion
; Function compile flags: /Odt /RTCcsu /ZI
;	COMDAT ?SetVersion@CWSpell@@QAEXPBD@Z
_TEXT	SEGMENT
_this$ = -8						; size = 4
_propVal$ = 8						; size = 4
?SetVersion@CWSpell@@QAEXPBD@Z PROC NEAR		; CWSpell::SetVersion, COMDAT
; _this$ = ecx

; 594  : {

	push	ebp
	mov	ebp, esp
	sub	esp, 204				; 000000ccH
	push	ebx
	push	esi
	push	edi
	push	ecx
	lea	edi, DWORD PTR [ebp-204]
	mov	ecx, 51					; 00000033H
	mov	eax, -858993460				; ccccccccH
	rep stosd
	pop	ecx
	mov	DWORD PTR _this$[ebp], ecx

; 595  : 	SetProperty(0x2c, VT_BSTR, propVal);

	mov	eax, DWORD PTR _propVal$[ebp]
	push	eax
	push	8
	push	44					; 0000002cH
	mov	ecx, DWORD PTR _this$[ebp]
	push	ecx
	call	?SetProperty@CWnd@@QAAXJGZZ		; CWnd::SetProperty
	add	esp, 16					; 00000010H

; 596  : }

	pop	edi
	pop	esi
	pop	ebx
	add	esp, 204				; 000000ccH
	cmp	ebp, esp
	call	__RTC_CheckEsp
	mov	esp, ebp
	pop	ebp
	ret	4
?SetVersion@CWSpell@@QAEXPBD@Z ENDP			; CWSpell::SetVersion
_TEXT	ENDS
PUBLIC	?GetMisspelledWordCount@CWSpell@@QAEJXZ		; CWSpell::GetMisspelledWordCount
; Function compile flags: /Odt /RTCcsu /ZI
;	COMDAT ?GetMisspelledWordCount@CWSpell@@QAEJXZ
_TEXT	SEGMENT
_result$ = -20						; size = 4
_this$ = -8						; size = 4
?GetMisspelledWordCount@CWSpell@@QAEJXZ PROC NEAR	; CWSpell::GetMisspelledWordCount, COMDAT
; _this$ = ecx

; 599  : {

	push	ebp
	mov	ebp, esp
	sub	esp, 216				; 000000d8H
	push	ebx
	push	esi
	push	edi
	push	ecx
	lea	edi, DWORD PTR [ebp-216]
	mov	ecx, 54					; 00000036H
	mov	eax, -858993460				; ccccccccH
	rep stosd
	pop	ecx
	mov	DWORD PTR _this$[ebp], ecx

; 600  : 	long result;
; 601  : 	GetProperty(0x2d, VT_I4, (void*)&result);

	lea	eax, DWORD PTR _result$[ebp]
	push	eax
	push	3
	push	45					; 0000002dH
	mov	ecx, DWORD PTR _this$[ebp]
	call	?GetProperty@CWnd@@QBEXJGPAX@Z		; CWnd::GetProperty

; 602  : 	return result;

	mov	eax, DWORD PTR _result$[ebp]

; 603  : }

	push	edx
	mov	ecx, ebp
	push	eax
	lea	edx, DWORD PTR $L94869
	call	@_RTC_CheckStackVars@8
	pop	eax
	pop	edx
	pop	edi
	pop	esi
	pop	ebx
	add	esp, 216				; 000000d8H
	cmp	ebp, esp
	call	__RTC_CheckEsp
	mov	esp, ebp
	pop	ebp
	ret	0
$L94869:
	DD	1
	DD	$L94868
$L94868:
	DD	-20					; ffffffecH
	DD	4
	DD	$L94867
$L94867:
	DB	114					; 00000072H
	DB	101					; 00000065H
	DB	115					; 00000073H
	DB	117					; 00000075H
	DB	108					; 0000006cH
	DB	116					; 00000074H
	DB	0
?GetMisspelledWordCount@CWSpell@@QAEJXZ ENDP		; CWSpell::GetMisspelledWordCount
_TEXT	ENDS
PUBLIC	?SetMisspelledWordCount@CWSpell@@QAEXJ@Z	; CWSpell::SetMisspelledWordCount
; Function compile flags: /Odt /RTCcsu /ZI
;	COMDAT ?SetMisspelledWordCount@CWSpell@@QAEXJ@Z
_TEXT	SEGMENT
_this$ = -8						; size = 4
_propVal$ = 8						; size = 4
?SetMisspelledWordCount@CWSpell@@QAEXJ@Z PROC NEAR	; CWSpell::SetMisspelledWordCount, COMDAT
; _this$ = ecx

; 606  : {

	push	ebp
	mov	ebp, esp
	sub	esp, 204				; 000000ccH
	push	ebx
	push	esi
	push	edi
	push	ecx
	lea	edi, DWORD PTR [ebp-204]
	mov	ecx, 51					; 00000033H
	mov	eax, -858993460				; ccccccccH
	rep stosd
	pop	ecx
	mov	DWORD PTR _this$[ebp], ecx

; 607  : 	SetProperty(0x2d, VT_I4, propVal);

	mov	eax, DWORD PTR _propVal$[ebp]
	push	eax
	push	3
	push	45					; 0000002dH
	mov	ecx, DWORD PTR _this$[ebp]
	push	ecx
	call	?SetProperty@CWnd@@QAAXJGZZ		; CWnd::SetProperty
	add	esp, 16					; 00000010H

; 608  : }

	pop	edi
	pop	esi
	pop	ebx
	add	esp, 204				; 000000ccH
	cmp	ebp, esp
	call	__RTC_CheckEsp
	mov	esp, ebp
	pop	ebp
	ret	4
?SetMisspelledWordCount@CWSpell@@QAEXJ@Z ENDP		; CWSpell::SetMisspelledWordCount
_TEXT	ENDS
PUBLIC	?GetErrorCode@CWSpell@@QAEFXZ			; CWSpell::GetErrorCode
; Function compile flags: /Odt /RTCcsu /ZI
;	COMDAT ?GetErrorCode@CWSpell@@QAEFXZ
_TEXT	SEGMENT
_result$ = -20						; size = 2
_this$ = -8						; size = 4
?GetErrorCode@CWSpell@@QAEFXZ PROC NEAR			; CWSpell::GetErrorCode, COMDAT
; _this$ = ecx

; 611  : {

	push	ebp
	mov	ebp, esp
	sub	esp, 216				; 000000d8H
	push	ebx
	push	esi
	push	edi
	push	ecx
	lea	edi, DWORD PTR [ebp-216]
	mov	ecx, 54					; 00000036H
	mov	eax, -858993460				; ccccccccH
	rep stosd
	pop	ecx
	mov	DWORD PTR _this$[ebp], ecx

; 612  : 	short result;
; 613  : 	GetProperty(0x2e, VT_I2, (void*)&result);

	lea	eax, DWORD PTR _result$[ebp]
	push	eax
	push	2
	push	46					; 0000002eH
	mov	ecx, DWORD PTR _this$[ebp]
	call	?GetProperty@CWnd@@QBEXJGPAX@Z		; CWnd::GetProperty

; 614  : 	return result;

	mov	ax, WORD PTR _result$[ebp]

; 615  : }

	push	edx
	mov	ecx, ebp
	push	eax
	lea	edx, DWORD PTR $L94876
	call	@_RTC_CheckStackVars@8
	pop	eax
	pop	edx
	pop	edi
	pop	esi
	pop	ebx
	add	esp, 216				; 000000d8H
	cmp	ebp, esp
	call	__RTC_CheckEsp
	mov	esp, ebp
	pop	ebp
	ret	0
$L94876:
	DD	1
	DD	$L94875
$L94875:
	DD	-20					; ffffffecH
	DD	2
	DD	$L94874
$L94874:
	DB	114					; 00000072H
	DB	101					; 00000065H
	DB	115					; 00000073H
	DB	117					; 00000075H
	DB	108					; 0000006cH
	DB	116					; 00000074H
	DB	0
?GetErrorCode@CWSpell@@QAEFXZ ENDP			; CWSpell::GetErrorCode
_TEXT	ENDS
PUBLIC	?SetErrorCode@CWSpell@@QAEXF@Z			; CWSpell::SetErrorCode
; Function compile flags: /Odt /RTCcsu /ZI
;	COMDAT ?SetErrorCode@CWSpell@@QAEXF@Z
_TEXT	SEGMENT
_this$ = -8						; size = 4
_propVal$ = 8						; size = 2
?SetErrorCode@CWSpell@@QAEXF@Z PROC NEAR		; CWSpell::SetErrorCode, COMDAT
; _this$ = ecx

; 618  : {

	push	ebp
	mov	ebp, esp
	sub	esp, 204				; 000000ccH
	push	ebx
	push	esi
	push	edi
	push	ecx
	lea	edi, DWORD PTR [ebp-204]
	mov	ecx, 51					; 00000033H
	mov	eax, -858993460				; ccccccccH
	rep stosd
	pop	ecx
	mov	DWORD PTR _this$[ebp], ecx

; 619  : 	SetProperty(0x2e, VT_I2, propVal);

	movsx	eax, WORD PTR _propVal$[ebp]
	push	eax
	push	2
	push	46					; 0000002eH
	mov	ecx, DWORD PTR _this$[ebp]
	push	ecx
	call	?SetProperty@CWnd@@QAAXJGZZ		; CWnd::SetProperty
	add	esp, 16					; 00000010H

; 620  : }

	pop	edi
	pop	esi
	pop	ebx
	add	esp, 204				; 000000ccH
	cmp	ebp, esp
	call	__RTC_CheckEsp
	mov	esp, ebp
	pop	ebp
	ret	4
?SetErrorCode@CWSpell@@QAEXF@Z ENDP			; CWSpell::SetErrorCode
_TEXT	ENDS
PUBLIC	?GetIgnoreNonAlphaWords@CWSpell@@QAEHXZ		; CWSpell::GetIgnoreNonAlphaWords
; Function compile flags: /Odt /RTCcsu /ZI
;	COMDAT ?GetIgnoreNonAlphaWords@CWSpell@@QAEHXZ
_TEXT	SEGMENT
_result$ = -20						; size = 4
_this$ = -8						; size = 4
?GetIgnoreNonAlphaWords@CWSpell@@QAEHXZ PROC NEAR	; CWSpell::GetIgnoreNonAlphaWords, COMDAT
; _this$ = ecx

; 623  : {

	push	ebp
	mov	ebp, esp
	sub	esp, 216				; 000000d8H
	push	ebx
	push	esi
	push	edi
	push	ecx
	lea	edi, DWORD PTR [ebp-216]
	mov	ecx, 54					; 00000036H
	mov	eax, -858993460				; ccccccccH
	rep stosd
	pop	ecx
	mov	DWORD PTR _this$[ebp], ecx

; 624  : 	BOOL result;
; 625  : 	GetProperty(0x2f, VT_BOOL, (void*)&result);

	lea	eax, DWORD PTR _result$[ebp]
	push	eax
	push	11					; 0000000bH
	push	47					; 0000002fH
	mov	ecx, DWORD PTR _this$[ebp]
	call	?GetProperty@CWnd@@QBEXJGPAX@Z		; CWnd::GetProperty

; 626  : 	return result;

	mov	eax, DWORD PTR _result$[ebp]

; 627  : }

	push	edx
	mov	ecx, ebp
	push	eax
	lea	edx, DWORD PTR $L94883
	call	@_RTC_CheckStackVars@8
	pop	eax
	pop	edx
	pop	edi
	pop	esi
	pop	ebx
	add	esp, 216				; 000000d8H
	cmp	ebp, esp
	call	__RTC_CheckEsp
	mov	esp, ebp
	pop	ebp
	ret	0
$L94883:
	DD	1
	DD	$L94882
$L94882:
	DD	-20					; ffffffecH
	DD	4
	DD	$L94881
$L94881:
	DB	114					; 00000072H
	DB	101					; 00000065H
	DB	115					; 00000073H
	DB	117					; 00000075H
	DB	108					; 0000006cH
	DB	116					; 00000074H
	DB	0
?GetIgnoreNonAlphaWords@CWSpell@@QAEHXZ ENDP		; CWSpell::GetIgnoreNonAlphaWords
_TEXT	ENDS
PUBLIC	?SetIgnoreNonAlphaWords@CWSpell@@QAEXH@Z	; CWSpell::SetIgnoreNonAlphaWords
; Function compile flags: /Odt /RTCcsu /ZI
;	COMDAT ?SetIgnoreNonAlphaWords@CWSpell@@QAEXH@Z
_TEXT	SEGMENT
_this$ = -8						; size = 4
_propVal$ = 8						; size = 4
?SetIgnoreNonAlphaWords@CWSpell@@QAEXH@Z PROC NEAR	; CWSpell::SetIgnoreNonAlphaWords, COMDAT
; _this$ = ecx

; 630  : {

	push	ebp
	mov	ebp, esp
	sub	esp, 204				; 000000ccH
	push	ebx
	push	esi
	push	edi
	push	ecx
	lea	edi, DWORD PTR [ebp-204]
	mov	ecx, 51					; 00000033H
	mov	eax, -858993460				; ccccccccH
	rep stosd
	pop	ecx
	mov	DWORD PTR _this$[ebp], ecx

; 631  : 	SetProperty(0x2f, VT_BOOL, propVal);

	mov	eax, DWORD PTR _propVal$[ebp]
	push	eax
	push	11					; 0000000bH
	push	47					; 0000002fH
	mov	ecx, DWORD PTR _this$[ebp]
	push	ecx
	call	?SetProperty@CWnd@@QAAXJGZZ		; CWnd::SetProperty
	add	esp, 16					; 00000010H

; 632  : }

	pop	edi
	pop	esi
	pop	ebx
	add	esp, 204				; 000000ccH
	cmp	ebp, esp
	call	__RTC_CheckEsp
	mov	esp, ebp
	pop	ebp
	ret	4
?SetIgnoreNonAlphaWords@CWSpell@@QAEXH@Z ENDP		; CWSpell::SetIgnoreNonAlphaWords
_TEXT	ENDS
PUBLIC	?GetIgnoreDomainNames@CWSpell@@QAEHXZ		; CWSpell::GetIgnoreDomainNames
; Function compile flags: /Odt /RTCcsu /ZI
;	COMDAT ?GetIgnoreDomainNames@CWSpell@@QAEHXZ
_TEXT	SEGMENT
_result$ = -20						; size = 4
_this$ = -8						; size = 4
?GetIgnoreDomainNames@CWSpell@@QAEHXZ PROC NEAR		; CWSpell::GetIgnoreDomainNames, COMDAT
; _this$ = ecx

; 635  : {

	push	ebp
	mov	ebp, esp
	sub	esp, 216				; 000000d8H
	push	ebx
	push	esi
	push	edi
	push	ecx
	lea	edi, DWORD PTR [ebp-216]
	mov	ecx, 54					; 00000036H
	mov	eax, -858993460				; ccccccccH
	rep stosd
	pop	ecx
	mov	DWORD PTR _this$[ebp], ecx

; 636  : 	BOOL result;
; 637  : 	GetProperty(0x30, VT_BOOL, (void*)&result);

	lea	eax, DWORD PTR _result$[ebp]
	push	eax
	push	11					; 0000000bH
	push	48					; 00000030H
	mov	ecx, DWORD PTR _this$[ebp]
	call	?GetProperty@CWnd@@QBEXJGPAX@Z		; CWnd::GetProperty

; 638  : 	return result;

	mov	eax, DWORD PTR _result$[ebp]

; 639  : }

	push	edx
	mov	ecx, ebp
	push	eax
	lea	edx, DWORD PTR $L94890
	call	@_RTC_CheckStackVars@8
	pop	eax
	pop	edx
	pop	edi
	pop	esi
	pop	ebx
	add	esp, 216				; 000000d8H
	cmp	ebp, esp
	call	__RTC_CheckEsp
	mov	esp, ebp
	pop	ebp
	ret	0
$L94890:
	DD	1
	DD	$L94889
$L94889:
	DD	-20					; ffffffecH
	DD	4
	DD	$L94888
$L94888:
	DB	114					; 00000072H
	DB	101					; 00000065H
	DB	115					; 00000073H
	DB	117					; 00000075H
	DB	108					; 0000006cH
	DB	116					; 00000074H
	DB	0
?GetIgnoreDomainNames@CWSpell@@QAEHXZ ENDP		; CWSpell::GetIgnoreDomainNames
_TEXT	ENDS
PUBLIC	?SetIgnoreDomainNames@CWSpell@@QAEXH@Z		; CWSpell::SetIgnoreDomainNames
; Function compile flags: /Odt /RTCcsu /ZI
;	COMDAT ?SetIgnoreDomainNames@CWSpell@@QAEXH@Z
_TEXT	SEGMENT
_this$ = -8						; size = 4
_propVal$ = 8						; size = 4
?SetIgnoreDomainNames@CWSpell@@QAEXH@Z PROC NEAR	; CWSpell::SetIgnoreDomainNames, COMDAT
; _this$ = ecx

; 642  : {

	push	ebp
	mov	ebp, esp
	sub	esp, 204				; 000000ccH
	push	ebx
	push	esi
	push	edi
	push	ecx
	lea	edi, DWORD PTR [ebp-204]
	mov	ecx, 51					; 00000033H
	mov	eax, -858993460				; ccccccccH
	rep stosd
	pop	ecx
	mov	DWORD PTR _this$[ebp], ecx

; 643  : 	SetProperty(0x30, VT_BOOL, propVal);

	mov	eax, DWORD PTR _propVal$[ebp]
	push	eax
	push	11					; 0000000bH
	push	48					; 00000030H
	mov	ecx, DWORD PTR _this$[ebp]
	push	ecx
	call	?SetProperty@CWnd@@QAAXJGZZ		; CWnd::SetProperty
	add	esp, 16					; 00000010H

; 644  : }

	pop	edi
	pop	esi
	pop	ebx
	add	esp, 204				; 000000ccH
	cmp	ebp, esp
	call	__RTC_CheckEsp
	mov	esp, ebp
	pop	ebp
	ret	4
?SetIgnoreDomainNames@CWSpell@@QAEXH@Z ENDP		; CWSpell::SetIgnoreDomainNames
_TEXT	ENDS
PUBLIC	?GetAllowAccentedCaps@CWSpell@@QAEHXZ		; CWSpell::GetAllowAccentedCaps
; Function compile flags: /Odt /RTCcsu /ZI
;	COMDAT ?GetAllowAccentedCaps@CWSpell@@QAEHXZ
_TEXT	SEGMENT
_result$ = -20						; size = 4
_this$ = -8						; size = 4
?GetAllowAccentedCaps@CWSpell@@QAEHXZ PROC NEAR		; CWSpell::GetAllowAccentedCaps, COMDAT
; _this$ = ecx

; 647  : {

	push	ebp
	mov	ebp, esp
	sub	esp, 216				; 000000d8H
	push	ebx
	push	esi
	push	edi
	push	ecx
	lea	edi, DWORD PTR [ebp-216]
	mov	ecx, 54					; 00000036H
	mov	eax, -858993460				; ccccccccH
	rep stosd
	pop	ecx
	mov	DWORD PTR _this$[ebp], ecx

; 648  : 	BOOL result;
; 649  : 	GetProperty(0x31, VT_BOOL, (void*)&result);

	lea	eax, DWORD PTR _result$[ebp]
	push	eax
	push	11					; 0000000bH
	push	49					; 00000031H
	mov	ecx, DWORD PTR _this$[ebp]
	call	?GetProperty@CWnd@@QBEXJGPAX@Z		; CWnd::GetProperty

; 650  : 	return result;

	mov	eax, DWORD PTR _result$[ebp]

; 651  : }

	push	edx
	mov	ecx, ebp
	push	eax
	lea	edx, DWORD PTR $L94897
	call	@_RTC_CheckStackVars@8
	pop	eax
	pop	edx
	pop	edi
	pop	esi
	pop	ebx
	add	esp, 216				; 000000d8H
	cmp	ebp, esp
	call	__RTC_CheckEsp
	mov	esp, ebp
	pop	ebp
	ret	0
$L94897:
	DD	1
	DD	$L94896
$L94896:
	DD	-20					; ffffffecH
	DD	4
	DD	$L94895
$L94895:
	DB	114					; 00000072H
	DB	101					; 00000065H
	DB	115					; 00000073H
	DB	117					; 00000075H
	DB	108					; 0000006cH
	DB	116					; 00000074H
	DB	0
?GetAllowAccentedCaps@CWSpell@@QAEHXZ ENDP		; CWSpell::GetAllowAccentedCaps
_TEXT	ENDS
PUBLIC	?SetAllowAccentedCaps@CWSpell@@QAEXH@Z		; CWSpell::SetAllowAccentedCaps
; Function compile flags: /Odt /RTCcsu /ZI
;	COMDAT ?SetAllowAccentedCaps@CWSpell@@QAEXH@Z
_TEXT	SEGMENT
_this$ = -8						; size = 4
_propVal$ = 8						; size = 4
?SetAllowAccentedCaps@CWSpell@@QAEXH@Z PROC NEAR	; CWSpell::SetAllowAccentedCaps, COMDAT
; _this$ = ecx

; 654  : {

	push	ebp
	mov	ebp, esp
	sub	esp, 204				; 000000ccH
	push	ebx
	push	esi
	push	edi
	push	ecx
	lea	edi, DWORD PTR [ebp-204]
	mov	ecx, 51					; 00000033H
	mov	eax, -858993460				; ccccccccH
	rep stosd
	pop	ecx
	mov	DWORD PTR _this$[ebp], ecx

; 655  : 	SetProperty(0x31, VT_BOOL, propVal);

	mov	eax, DWORD PTR _propVal$[ebp]
	push	eax
	push	11					; 0000000bH
	push	49					; 00000031H
	mov	ecx, DWORD PTR _this$[ebp]
	push	ecx
	call	?SetProperty@CWnd@@QAAXJGZZ		; CWnd::SetProperty
	add	esp, 16					; 00000010H

; 656  : }

	pop	edi
	pop	esi
	pop	ebx
	add	esp, 204				; 000000ccH
	cmp	ebp, esp
	call	__RTC_CheckEsp
	mov	esp, ebp
	pop	ebp
	ret	4
?SetAllowAccentedCaps@CWSpell@@QAEXH@Z ENDP		; CWSpell::SetAllowAccentedCaps
_TEXT	ENDS
PUBLIC	?GetIgnoreHTMLMarkups@CWSpell@@QAEHXZ		; CWSpell::GetIgnoreHTMLMarkups
; Function compile flags: /Odt /RTCcsu /ZI
;	COMDAT ?GetIgnoreHTMLMarkups@CWSpell@@QAEHXZ
_TEXT	SEGMENT
_result$ = -20						; size = 4
_this$ = -8						; size = 4
?GetIgnoreHTMLMarkups@CWSpell@@QAEHXZ PROC NEAR		; CWSpell::GetIgnoreHTMLMarkups, COMDAT
; _this$ = ecx

; 659  : {

	push	ebp
	mov	ebp, esp
	sub	esp, 216				; 000000d8H
	push	ebx
	push	esi
	push	edi
	push	ecx
	lea	edi, DWORD PTR [ebp-216]
	mov	ecx, 54					; 00000036H
	mov	eax, -858993460				; ccccccccH
	rep stosd
	pop	ecx
	mov	DWORD PTR _this$[ebp], ecx

; 660  : 	BOOL result;
; 661  : 	GetProperty(0x32, VT_BOOL, (void*)&result);

	lea	eax, DWORD PTR _result$[ebp]
	push	eax
	push	11					; 0000000bH
	push	50					; 00000032H
	mov	ecx, DWORD PTR _this$[ebp]
	call	?GetProperty@CWnd@@QBEXJGPAX@Z		; CWnd::GetProperty

; 662  : 	return result;

	mov	eax, DWORD PTR _result$[ebp]

; 663  : }

	push	edx
	mov	ecx, ebp
	push	eax
	lea	edx, DWORD PTR $L94904
	call	@_RTC_CheckStackVars@8
	pop	eax
	pop	edx
	pop	edi
	pop	esi
	pop	ebx
	add	esp, 216				; 000000d8H
	cmp	ebp, esp
	call	__RTC_CheckEsp
	mov	esp, ebp
	pop	ebp
	ret	0
$L94904:
	DD	1
	DD	$L94903
$L94903:
	DD	-20					; ffffffecH
	DD	4
	DD	$L94902
$L94902:
	DB	114					; 00000072H
	DB	101					; 00000065H
	DB	115					; 00000073H
	DB	117					; 00000075H
	DB	108					; 0000006cH
	DB	116					; 00000074H
	DB	0
?GetIgnoreHTMLMarkups@CWSpell@@QAEHXZ ENDP		; CWSpell::GetIgnoreHTMLMarkups
_TEXT	ENDS
PUBLIC	?SetIgnoreHTMLMarkups@CWSpell@@QAEXH@Z		; CWSpell::SetIgnoreHTMLMarkups
; Function compile flags: /Odt /RTCcsu /ZI
;	COMDAT ?SetIgnoreHTMLMarkups@CWSpell@@QAEXH@Z
_TEXT	SEGMENT
_this$ = -8						; size = 4
_propVal$ = 8						; size = 4
?SetIgnoreHTMLMarkups@CWSpell@@QAEXH@Z PROC NEAR	; CWSpell::SetIgnoreHTMLMarkups, COMDAT
; _this$ = ecx

; 666  : {

	push	ebp
	mov	ebp, esp
	sub	esp, 204				; 000000ccH
	push	ebx
	push	esi
	push	edi
	push	ecx
	lea	edi, DWORD PTR [ebp-204]
	mov	ecx, 51					; 00000033H
	mov	eax, -858993460				; ccccccccH
	rep stosd
	pop	ecx
	mov	DWORD PTR _this$[ebp], ecx

; 667  : 	SetProperty(0x32, VT_BOOL, propVal);

	mov	eax, DWORD PTR _propVal$[ebp]
	push	eax
	push	11					; 0000000bH
	push	50					; 00000032H
	mov	ecx, DWORD PTR _this$[ebp]
	push	ecx
	call	?SetProperty@CWnd@@QAAXJGZZ		; CWnd::SetProperty
	add	esp, 16					; 00000010H

; 668  : }

	pop	edi
	pop	esi
	pop	ebx
	add	esp, 204				; 000000ccH
	cmp	ebp, esp
	call	__RTC_CheckEsp
	mov	esp, ebp
	pop	ebp
	ret	4
?SetIgnoreHTMLMarkups@CWSpell@@QAEXH@Z ENDP		; CWSpell::SetIgnoreHTMLMarkups
_TEXT	ENDS
PUBLIC	?GetCharacterSet@CWSpell@@QAEFXZ		; CWSpell::GetCharacterSet
; Function compile flags: /Odt /RTCcsu /ZI
;	COMDAT ?GetCharacterSet@CWSpell@@QAEFXZ
_TEXT	SEGMENT
_result$ = -20						; size = 2
_this$ = -8						; size = 4
?GetCharacterSet@CWSpell@@QAEFXZ PROC NEAR		; CWSpell::GetCharacterSet, COMDAT
; _this$ = ecx

; 671  : {

	push	ebp
	mov	ebp, esp
	sub	esp, 216				; 000000d8H
	push	ebx
	push	esi
	push	edi
	push	ecx
	lea	edi, DWORD PTR [ebp-216]
	mov	ecx, 54					; 00000036H
	mov	eax, -858993460				; ccccccccH
	rep stosd
	pop	ecx
	mov	DWORD PTR _this$[ebp], ecx

; 672  : 	short result;
; 673  : 	GetProperty(0x33, VT_I2, (void*)&result);

	lea	eax, DWORD PTR _result$[ebp]
	push	eax
	push	2
	push	51					; 00000033H
	mov	ecx, DWORD PTR _this$[ebp]
	call	?GetProperty@CWnd@@QBEXJGPAX@Z		; CWnd::GetProperty

; 674  : 	return result;

	mov	ax, WORD PTR _result$[ebp]

; 675  : }

	push	edx
	mov	ecx, ebp
	push	eax
	lea	edx, DWORD PTR $L94911
	call	@_RTC_CheckStackVars@8
	pop	eax
	pop	edx
	pop	edi
	pop	esi
	pop	ebx
	add	esp, 216				; 000000d8H
	cmp	ebp, esp
	call	__RTC_CheckEsp
	mov	esp, ebp
	pop	ebp
	ret	0
$L94911:
	DD	1
	DD	$L94910
$L94910:
	DD	-20					; ffffffecH
	DD	2
	DD	$L94909
$L94909:
	DB	114					; 00000072H
	DB	101					; 00000065H
	DB	115					; 00000073H
	DB	117					; 00000075H
	DB	108					; 0000006cH
	DB	116					; 00000074H
	DB	0
?GetCharacterSet@CWSpell@@QAEFXZ ENDP			; CWSpell::GetCharacterSet
_TEXT	ENDS
PUBLIC	?SetCharacterSet@CWSpell@@QAEXF@Z		; CWSpell::SetCharacterSet
; Function compile flags: /Odt /RTCcsu /ZI
;	COMDAT ?SetCharacterSet@CWSpell@@QAEXF@Z
_TEXT	SEGMENT
_this$ = -8						; size = 4
_propVal$ = 8						; size = 2
?SetCharacterSet@CWSpell@@QAEXF@Z PROC NEAR		; CWSpell::SetCharacterSet, COMDAT
; _this$ = ecx

; 678  : {

	push	ebp
	mov	ebp, esp
	sub	esp, 204				; 000000ccH
	push	ebx
	push	esi
	push	edi
	push	ecx
	lea	edi, DWORD PTR [ebp-204]
	mov	ecx, 51					; 00000033H
	mov	eax, -858993460				; ccccccccH
	rep stosd
	pop	ecx
	mov	DWORD PTR _this$[ebp], ecx

; 679  : 	SetProperty(0x33, VT_I2, propVal);

	movsx	eax, WORD PTR _propVal$[ebp]
	push	eax
	push	2
	push	51					; 00000033H
	mov	ecx, DWORD PTR _this$[ebp]
	push	ecx
	call	?SetProperty@CWnd@@QAAXJGZZ		; CWnd::SetProperty
	add	esp, 16					; 00000010H

; 680  : }

	pop	edi
	pop	esi
	pop	ebx
	add	esp, 204				; 000000ccH
	cmp	ebp, esp
	call	__RTC_CheckEsp
	mov	esp, ebp
	pop	ebp
	ret	4
?SetCharacterSet@CWSpell@@QAEXF@Z ENDP			; CWSpell::SetCharacterSet
_TEXT	ENDS
PUBLIC	?GetBackupUserDictionary@CWSpell@@QAEHXZ	; CWSpell::GetBackupUserDictionary
; Function compile flags: /Odt /RTCcsu /ZI
;	COMDAT ?GetBackupUserDictionary@CWSpell@@QAEHXZ
_TEXT	SEGMENT
_result$ = -20						; size = 4
_this$ = -8						; size = 4
?GetBackupUserDictionary@CWSpell@@QAEHXZ PROC NEAR	; CWSpell::GetBackupUserDictionary, COMDAT
; _this$ = ecx

; 683  : {

	push	ebp
	mov	ebp, esp
	sub	esp, 216				; 000000d8H
	push	ebx
	push	esi
	push	edi
	push	ecx
	lea	edi, DWORD PTR [ebp-216]
	mov	ecx, 54					; 00000036H
	mov	eax, -858993460				; ccccccccH
	rep stosd
	pop	ecx
	mov	DWORD PTR _this$[ebp], ecx

; 684  : 	BOOL result;
; 685  : 	GetProperty(0x34, VT_BOOL, (void*)&result);

	lea	eax, DWORD PTR _result$[ebp]
	push	eax
	push	11					; 0000000bH
	push	52					; 00000034H
	mov	ecx, DWORD PTR _this$[ebp]
	call	?GetProperty@CWnd@@QBEXJGPAX@Z		; CWnd::GetProperty

; 686  : 	return result;

	mov	eax, DWORD PTR _result$[ebp]

; 687  : }

	push	edx
	mov	ecx, ebp
	push	eax
	lea	edx, DWORD PTR $L94918
	call	@_RTC_CheckStackVars@8
	pop	eax
	pop	edx
	pop	edi
	pop	esi
	pop	ebx
	add	esp, 216				; 000000d8H
	cmp	ebp, esp
	call	__RTC_CheckEsp
	mov	esp, ebp
	pop	ebp
	ret	0
$L94918:
	DD	1
	DD	$L94917
$L94917:
	DD	-20					; ffffffecH
	DD	4
	DD	$L94916
$L94916:
	DB	114					; 00000072H
	DB	101					; 00000065H
	DB	115					; 00000073H
	DB	117					; 00000075H
	DB	108					; 0000006cH
	DB	116					; 00000074H
	DB	0
?GetBackupUserDictionary@CWSpell@@QAEHXZ ENDP		; CWSpell::GetBackupUserDictionary
_TEXT	ENDS
PUBLIC	?SetBackupUserDictionary@CWSpell@@QAEXH@Z	; CWSpell::SetBackupUserDictionary
; Function compile flags: /Odt /RTCcsu /ZI
;	COMDAT ?SetBackupUserDictionary@CWSpell@@QAEXH@Z
_TEXT	SEGMENT
_this$ = -8						; size = 4
_propVal$ = 8						; size = 4
?SetBackupUserDictionary@CWSpell@@QAEXH@Z PROC NEAR	; CWSpell::SetBackupUserDictionary, COMDAT
; _this$ = ecx

; 690  : {

	push	ebp
	mov	ebp, esp
	sub	esp, 204				; 000000ccH
	push	ebx
	push	esi
	push	edi
	push	ecx
	lea	edi, DWORD PTR [ebp-204]
	mov	ecx, 51					; 00000033H
	mov	eax, -858993460				; ccccccccH
	rep stosd
	pop	ecx
	mov	DWORD PTR _this$[ebp], ecx

; 691  : 	SetProperty(0x34, VT_BOOL, propVal);

	mov	eax, DWORD PTR _propVal$[ebp]
	push	eax
	push	11					; 0000000bH
	push	52					; 00000034H
	mov	ecx, DWORD PTR _this$[ebp]
	push	ecx
	call	?SetProperty@CWnd@@QAAXJGZZ		; CWnd::SetProperty
	add	esp, 16					; 00000010H

; 692  : }

	pop	edi
	pop	esi
	pop	ebx
	add	esp, 204				; 000000ccH
	cmp	ebp, esp
	call	__RTC_CheckEsp
	mov	esp, ebp
	pop	ebp
	ret	4
?SetBackupUserDictionary@CWSpell@@QAEXH@Z ENDP		; CWSpell::SetBackupUserDictionary
_TEXT	ENDS
PUBLIC	?GetShowOptionsButton@CWSpell@@QAEHXZ		; CWSpell::GetShowOptionsButton
; Function compile flags: /Odt /RTCcsu /ZI
;	COMDAT ?GetShowOptionsButton@CWSpell@@QAEHXZ
_TEXT	SEGMENT
_result$ = -20						; size = 4
_this$ = -8						; size = 4
?GetShowOptionsButton@CWSpell@@QAEHXZ PROC NEAR		; CWSpell::GetShowOptionsButton, COMDAT
; _this$ = ecx

; 695  : {

	push	ebp
	mov	ebp, esp
	sub	esp, 216				; 000000d8H
	push	ebx
	push	esi
	push	edi
	push	ecx
	lea	edi, DWORD PTR [ebp-216]
	mov	ecx, 54					; 00000036H
	mov	eax, -858993460				; ccccccccH
	rep stosd
	pop	ecx
	mov	DWORD PTR _this$[ebp], ecx

; 696  : 	BOOL result;
; 697  : 	GetProperty(0x35, VT_BOOL, (void*)&result);

	lea	eax, DWORD PTR _result$[ebp]
	push	eax
	push	11					; 0000000bH
	push	53					; 00000035H
	mov	ecx, DWORD PTR _this$[ebp]
	call	?GetProperty@CWnd@@QBEXJGPAX@Z		; CWnd::GetProperty

; 698  : 	return result;

	mov	eax, DWORD PTR _result$[ebp]

; 699  : }

	push	edx
	mov	ecx, ebp
	push	eax
	lea	edx, DWORD PTR $L94925
	call	@_RTC_CheckStackVars@8
	pop	eax
	pop	edx
	pop	edi
	pop	esi
	pop	ebx
	add	esp, 216				; 000000d8H
	cmp	ebp, esp
	call	__RTC_CheckEsp
	mov	esp, ebp
	pop	ebp
	ret	0
$L94925:
	DD	1
	DD	$L94924
$L94924:
	DD	-20					; ffffffecH
	DD	4
	DD	$L94923
$L94923:
	DB	114					; 00000072H
	DB	101					; 00000065H
	DB	115					; 00000073H
	DB	117					; 00000075H
	DB	108					; 0000006cH
	DB	116					; 00000074H
	DB	0
?GetShowOptionsButton@CWSpell@@QAEHXZ ENDP		; CWSpell::GetShowOptionsButton
_TEXT	ENDS
PUBLIC	?SetShowOptionsButton@CWSpell@@QAEXH@Z		; CWSpell::SetShowOptionsButton
; Function compile flags: /Odt /RTCcsu /ZI
;	COMDAT ?SetShowOptionsButton@CWSpell@@QAEXH@Z
_TEXT	SEGMENT
_this$ = -8						; size = 4
_propVal$ = 8						; size = 4
?SetShowOptionsButton@CWSpell@@QAEXH@Z PROC NEAR	; CWSpell::SetShowOptionsButton, COMDAT
; _this$ = ecx

; 702  : {

	push	ebp
	mov	ebp, esp
	sub	esp, 204				; 000000ccH
	push	ebx
	push	esi
	push	edi
	push	ecx
	lea	edi, DWORD PTR [ebp-204]
	mov	ecx, 51					; 00000033H
	mov	eax, -858993460				; ccccccccH
	rep stosd
	pop	ecx
	mov	DWORD PTR _this$[ebp], ecx

; 703  : 	SetProperty(0x35, VT_BOOL, propVal);

	mov	eax, DWORD PTR _propVal$[ebp]
	push	eax
	push	11					; 0000000bH
	push	53					; 00000035H
	mov	ecx, DWORD PTR _this$[ebp]
	push	ecx
	call	?SetProperty@CWnd@@QAAXJGZZ		; CWnd::SetProperty
	add	esp, 16					; 00000010H

; 704  : }

	pop	edi
	pop	esi
	pop	ebx
	add	esp, 204				; 000000ccH
	cmp	ebp, esp
	call	__RTC_CheckEsp
	mov	esp, ebp
	pop	ebp
	ret	4
?SetShowOptionsButton@CWSpell@@QAEXH@Z ENDP		; CWSpell::SetShowOptionsButton
_TEXT	ENDS
PUBLIC	?GetShowDictionariesButton@CWSpell@@QAEHXZ	; CWSpell::GetShowDictionariesButton
; Function compile flags: /Odt /RTCcsu /ZI
;	COMDAT ?GetShowDictionariesButton@CWSpell@@QAEHXZ
_TEXT	SEGMENT
_result$ = -20						; size = 4
_this$ = -8						; size = 4
?GetShowDictionariesButton@CWSpell@@QAEHXZ PROC NEAR	; CWSpell::GetShowDictionariesButton, COMDAT
; _this$ = ecx

; 707  : {

	push	ebp
	mov	ebp, esp
	sub	esp, 216				; 000000d8H
	push	ebx
	push	esi
	push	edi
	push	ecx
	lea	edi, DWORD PTR [ebp-216]
	mov	ecx, 54					; 00000036H
	mov	eax, -858993460				; ccccccccH
	rep stosd
	pop	ecx
	mov	DWORD PTR _this$[ebp], ecx

; 708  : 	BOOL result;
; 709  : 	GetProperty(0x36, VT_BOOL, (void*)&result);

	lea	eax, DWORD PTR _result$[ebp]
	push	eax
	push	11					; 0000000bH
	push	54					; 00000036H
	mov	ecx, DWORD PTR _this$[ebp]
	call	?GetProperty@CWnd@@QBEXJGPAX@Z		; CWnd::GetProperty

; 710  : 	return result;

	mov	eax, DWORD PTR _result$[ebp]

; 711  : }

	push	edx
	mov	ecx, ebp
	push	eax
	lea	edx, DWORD PTR $L94932
	call	@_RTC_CheckStackVars@8
	pop	eax
	pop	edx
	pop	edi
	pop	esi
	pop	ebx
	add	esp, 216				; 000000d8H
	cmp	ebp, esp
	call	__RTC_CheckEsp
	mov	esp, ebp
	pop	ebp
	ret	0
$L94932:
	DD	1
	DD	$L94931
$L94931:
	DD	-20					; ffffffecH
	DD	4
	DD	$L94930
$L94930:
	DB	114					; 00000072H
	DB	101					; 00000065H
	DB	115					; 00000073H
	DB	117					; 00000075H
	DB	108					; 0000006cH
	DB	116					; 00000074H
	DB	0
?GetShowDictionariesButton@CWSpell@@QAEHXZ ENDP		; CWSpell::GetShowDictionariesButton
_TEXT	ENDS
PUBLIC	?SetShowDictionariesButton@CWSpell@@QAEXH@Z	; CWSpell::SetShowDictionariesButton
; Function compile flags: /Odt /RTCcsu /ZI
;	COMDAT ?SetShowDictionariesButton@CWSpell@@QAEXH@Z
_TEXT	SEGMENT
_this$ = -8						; size = 4
_propVal$ = 8						; size = 4
?SetShowDictionariesButton@CWSpell@@QAEXH@Z PROC NEAR	; CWSpell::SetShowDictionariesButton, COMDAT
; _this$ = ecx

; 714  : {

	push	ebp
	mov	ebp, esp
	sub	esp, 204				; 000000ccH
	push	ebx
	push	esi
	push	edi
	push	ecx
	lea	edi, DWORD PTR [ebp-204]
	mov	ecx, 51					; 00000033H
	mov	eax, -858993460				; ccccccccH
	rep stosd
	pop	ecx
	mov	DWORD PTR _this$[ebp], ecx

; 715  : 	SetProperty(0x36, VT_BOOL, propVal);

	mov	eax, DWORD PTR _propVal$[ebp]
	push	eax
	push	11					; 0000000bH
	push	54					; 00000036H
	mov	ecx, DWORD PTR _this$[ebp]
	push	ecx
	call	?SetProperty@CWnd@@QAAXJGZZ		; CWnd::SetProperty
	add	esp, 16					; 00000010H

; 716  : }

	pop	edi
	pop	esi
	pop	ebx
	add	esp, 204				; 000000ccH
	cmp	ebp, esp
	call	__RTC_CheckEsp
	mov	esp, ebp
	pop	ebp
	ret	4
?SetShowDictionariesButton@CWSpell@@QAEXH@Z ENDP	; CWSpell::SetShowDictionariesButton
_TEXT	ENDS
PUBLIC	?GetSuggestion@CWSpell@@QAE?AV?$CStringT@DV?$StrTraitMFC@DV?$ChTraitsCRT@D@ATL@@@@@ATL@@F@Z ; CWSpell::GetSuggestion
EXTRN	?InvokeHelper@CWnd@@QAAXJGGPAXPBEZZ:NEAR	; CWnd::InvokeHelper
;	COMDAT xdata$x
xdata$x	SEGMENT
__unwindtable$?GetSuggestion@CWSpell@@QAE?AV?$CStringT@DV?$StrTraitMFC@DV?$ChTraitsCRT@D@ATL@@@@@ATL@@F@Z DD 0ffffffffH
	DD	FLAT:__unwindfunclet$?GetSuggestion@CWSpell@@QAE?AV?$CStringT@DV?$StrTraitMFC@DV?$ChTraitsCRT@D@ATL@@@@@ATL@@F@Z$0
__ehfuncinfo$?GetSuggestion@CWSpell@@QAE?AV?$CStringT@DV?$StrTraitMFC@DV?$ChTraitsCRT@D@ATL@@@@@ATL@@F@Z DD 019930520H
	DD	01H
	DD	FLAT:__unwindtable$?GetSuggestion@CWSpell@@QAE?AV?$CStringT@DV?$StrTraitMFC@DV?$ChTraitsCRT@D@ATL@@@@@ATL@@F@Z
	DD	2 DUP(00H)
	DD	2 DUP(00H)
; Function compile flags: /Odt /RTCcsu /ZI
xdata$x	ENDS
;	COMDAT ?GetSuggestion@CWSpell@@QAE?AV?$CStringT@DV?$StrTraitMFC@DV?$ChTraitsCRT@D@ATL@@@@@ATL@@F@Z
_TEXT	SEGMENT
$T94939 = -236						; size = 4
