; Listing generated by Microsoft (R) Optimizing Compiler Version 13.10.3077 

	TITLE	.\AspTextEdit.cpp
	.386P
include listing.inc
if @Version gt 510
.model FLAT
else
_TEXT	SEGMENT PARA USE32 PUBLIC 'CODE'
_TEXT	ENDS
_DATA	SEGMENT DWORD USE32 PUBLIC 'DATA'
_DATA	ENDS
CONST	SEGMENT DWORD USE32 PUBLIC 'CONST'
CONST	ENDS
_BSS	SEGMENT DWORD USE32 PUBLIC 'BSS'
_BSS	ENDS
$$SYMBOLS	SEGMENT BYTE USE32 'DEBSYM'
$$SYMBOLS	ENDS
$$TYPES	SEGMENT BYTE USE32 'DEBTYP'
$$TYPES	ENDS
_TLS	SEGMENT DWORD USE32 PUBLIC 'TLS'
_TLS	ENDS
;	COMDAT ??_C@_1CG@MLINDNFI@?$AAR?$AAe?$AAc?$AAo?$AAr?$AAd?$AA?5?$AAi?$AAs?$AA?5?$AAM?$AAo?$AAd?$AAi?$AAf?$AAi?$AAe?$AAd?$AA?$AA@
CONST	SEGMENT DWORD USE32 PUBLIC 'CONST'
CONST	ENDS
;	COMDAT ??_C@_1EA@ECMOPAHL@?$AAD?$AAo?$AA?5?$AAY?$AAo?$AAu?$AA?5?$AAW?$AAa?$AAn?$AAt?$AA?5?$AAt?$AAo?$AA?5?$AAS?$AAa?$AAv?$AAe?$AA?5@
CONST	SEGMENT DWORD USE32 PUBLIC 'CONST'
CONST	ENDS
;	COMDAT ??_C@_0BB@ECMMOHAG@?$CF?$FL?$FO?$HM?$FN?$CFc?$CF?$FL?$FO?$HM?$FN?$CFc?$CFs?$AA@
CONST	SEGMENT DWORD USE32 PUBLIC 'CONST'
CONST	ENDS
;	COMDAT ??_C@_05ECMNLKDI@?$CF?$FL?$FO?9?$FN?$AA@
CONST	SEGMENT DWORD USE32 PUBLIC 'CONST'
CONST	ENDS
;	COMDAT ??_C@_0GP@IEEFODCO@select?5?$CK?5from?5AspectText?5where?5P@
CONST	SEGMENT DWORD USE32 PUBLIC 'CONST'
CONST	ENDS
;	COMDAT ??_C@_1CE@OOAKNAGM@?$AAE?$AAr?$AAr?$AAo?$AAr?$AA?5?$AAo?$AAn?$AA?5?$AAD?$AAa?$AAt?$AAa?$AAb?$AAa?$AAs?$AAe?$AA?$AA@
CONST	SEGMENT DWORD USE32 PUBLIC 'CONST'
CONST	ENDS
;	COMDAT ??_C@_1CK@CLAGECII@?$AAC?$AAa?$AAn?$AA?8?$AAt?$AA?5?$AAF?$AAi?$AAn?$AAd?$AA?5?$AAS?$AAy?$AAm?$AAb?$AAo?$AAl?$AA?5?$AA?$CF?$AAs@
CONST	SEGMENT DWORD USE32 PUBLIC 'CONST'
CONST	ENDS
;	COMDAT ??_C@_1BG@NOPLIDDJ@?$AAB?$AAa?$AAd?$AA?5?$AAS?$AAy?$AAm?$AAb?$AAo?$AAl?$AA?$AA@
CONST	SEGMENT DWORD USE32 PUBLIC 'CONST'
CONST	ENDS
;	COMDAT ?GetClsid@CWSpell@@QAEABU_GUID@@XZ
_TEXT	SEGMENT PARA USE32 PUBLIC 'CODE'
_TEXT	ENDS
;	COMDAT ?Create@CWSpell@@UAEHPBG0KABUtagRECT@@PAVCWnd@@IPAUCCreateContext@@@Z
_TEXT	SEGMENT PARA USE32 PUBLIC 'CODE'
_TEXT	ENDS
;	COMDAT ?GetCtrl@RTFFuncs@@AAEPAVCRichEditCtrl@@H@Z
_TEXT	SEGMENT PARA USE32 PUBLIC 'CODE'
_TEXT	ENDS
;	COMDAT ??0RTFFuncs@@QAE@PAVCDialog@@@Z
_TEXT	SEGMENT PARA USE32 PUBLIC 'CODE'
_TEXT	ENDS
;	COMDAT ?Cut@RTFFuncs@@QAEXH@Z
_TEXT	SEGMENT PARA USE32 PUBLIC 'CODE'
_TEXT	ENDS
;	COMDAT ?Paste@RTFFuncs@@QAEXH@Z
_TEXT	SEGMENT PARA USE32 PUBLIC 'CODE'
_TEXT	ENDS
;	COMDAT ?Copy@RTFFuncs@@QAEXH@Z
_TEXT	SEGMENT PARA USE32 PUBLIC 'CODE'
_TEXT	ENDS
;	COMDAT ?Undo@RTFFuncs@@QAEXH@Z
_TEXT	SEGMENT PARA USE32 PUBLIC 'CODE'
_TEXT	ENDS
;	COMDAT ?Clear@RTFFuncs@@QAEXH@Z
_TEXT	SEGMENT PARA USE32 PUBLIC 'CODE'
_TEXT	ENDS
;	COMDAT ?Modified@RTFFuncs@@QAEHH@Z
_TEXT	SEGMENT PARA USE32 PUBLIC 'CODE'
_TEXT	ENDS
;	COMDAT ?GetTabString@RTFFuncs@@QAEAAV?$CStringT@GV?$StrTraitMFC@GV?$ChTraitsCRT@G@ATL@@@@@ATL@@XZ
_TEXT	SEGMENT PARA USE32 PUBLIC 'CODE'
_TEXT	ENDS
;	COMDAT ??1RTFFuncs@@UAE@XZ
_TEXT	SEGMENT PARA USE32 PUBLIC 'CODE'
_TEXT	ENDS
;	COMDAT ?getBasicString@RTFFuncs@@QAEAAV?$CStringT@GV?$StrTraitMFC@GV?$ChTraitsCRT@G@ATL@@@@@ATL@@XZ
_TEXT	SEGMENT PARA USE32 PUBLIC 'CODE'
_TEXT	ENDS
;	COMDAT ??_GRTFFuncs@@UAEPAXI@Z
_TEXT	SEGMENT PARA USE32 PUBLIC 'CODE'
_TEXT	ENDS
;	COMDAT ??0CSymbol@@QAE@XZ
_TEXT	SEGMENT PARA USE32 PUBLIC 'CODE'
_TEXT	ENDS
;	COMDAT ??1CSymbol@@QAE@XZ
_TEXT	SEGMENT PARA USE32 PUBLIC 'CODE'
_TEXT	ENDS
;	COMDAT ?value@CSymbol@@QAEAAHXZ
_TEXT	SEGMENT PARA USE32 PUBLIC 'CODE'
_TEXT	ENDS
;	COMDAT ??0CRSymbol@@QAE@XZ
_TEXT	SEGMENT PARA USE32 PUBLIC 'CODE'
_TEXT	ENDS
;	COMDAT ??1CRSymbol@@QAE@XZ
_TEXT	SEGMENT PARA USE32 PUBLIC 'CODE'
_TEXT	ENDS
;	COMDAT ??0CSymbolAry@@QAE@H@Z
_TEXT	SEGMENT PARA USE32 PUBLIC 'CODE'
_TEXT	ENDS
;	COMDAT ??1CSymbolAry@@QAE@XZ
_TEXT	SEGMENT PARA USE32 PUBLIC 'CODE'
_TEXT	ENDS
;	COMDAT ??_ECSymbol@@QAEPAXI@Z
_TEXT	SEGMENT PARA USE32 PUBLIC 'CODE'
_TEXT	ENDS
;	COMDAT ??_ECRSymbol@@QAEPAXI@Z
_TEXT	SEGMENT PARA USE32 PUBLIC 'CODE'
_TEXT	ENDS
;	COMDAT ??0CATextType@@QAE@XZ
_TEXT	SEGMENT PARA USE32 PUBLIC 'CODE'
_TEXT	ENDS
;	COMDAT ??1CATextType@@QAE@XZ
_TEXT	SEGMENT PARA USE32 PUBLIC 'CODE'
_TEXT	ENDS
;	COMDAT ?type@CATextType@@QAEAAHXZ
_TEXT	SEGMENT PARA USE32 PUBLIC 'CODE'
_TEXT	ENDS
;	COMDAT ?symtypes@CATextType@@QAEPADXZ
_TEXT	SEGMENT PARA USE32 PUBLIC 'CODE'
_TEXT	ENDS
;	COMDAT ?toSymType@CATextTypeAry@@QAEPADAAV?$CStringT@GV?$StrTraitMFC@GV?$ChTraitsCRT@G@ATL@@@@@ATL@@H@Z
_TEXT	SEGMENT PARA USE32 PUBLIC 'CODE'
_TEXT	ENDS
;	COMDAT ??_ECATextType@@QAEPAXI@Z
_TEXT	SEGMENT PARA USE32 PUBLIC 'CODE'
_TEXT	ENDS
;	COMDAT ??0CAspTextEdit@@QAE@PAVCWnd@@@Z
_TEXT	SEGMENT PARA USE32 PUBLIC 'CODE'
_TEXT	ENDS
;	COMDAT ??_GCAspTextEdit@@UAEPAXI@Z
_TEXT	SEGMENT PARA USE32 PUBLIC 'CODE'
_TEXT	ENDS
;	COMDAT ??0CWSpell@@QAE@XZ
_TEXT	SEGMENT PARA USE32 PUBLIC 'CODE'
_TEXT	ENDS
;	COMDAT ??1CWSpell@@UAE@XZ
_TEXT	SEGMENT PARA USE32 PUBLIC 'CODE'
_TEXT	ENDS
;	COMDAT ??1CDAspectText@@UAE@XZ
_TEXT	SEGMENT PARA USE32 PUBLIC 'CODE'
_TEXT	ENDS
;	COMDAT ??1CAspTextEdit@@UAE@XZ
_TEXT	SEGMENT PARA USE32 PUBLIC 'CODE'
_TEXT	ENDS
;	COMDAT ??_GCWSpell@@UAEPAXI@Z
_TEXT	SEGMENT PARA USE32 PUBLIC 'CODE'
_TEXT	ENDS
;	COMDAT ?DoDataExchange@CAspTextEdit@@MAEXPAVCDataExchange@@@Z
_TEXT	SEGMENT PARA USE32 PUBLIC 'CODE'
_TEXT	ENDS
;	COMDAT ?GetMessageMap@CAspTextEdit@@MBEPBUAFX_MSGMAP@@XZ
_TEXT	SEGMENT PARA USE32 PUBLIC 'CODE'
_TEXT	ENDS
;	COMDAT ?OnSelchangeAspect@CAspTextEdit@@IAEXXZ
_TEXT	SEGMENT PARA USE32 PUBLIC 'CODE'
_TEXT	ENDS
;	COMDAT ?OnSelchangePlan1@CAspTextEdit@@IAEXXZ
_TEXT	SEGMENT PARA USE32 PUBLIC 'CODE'
_TEXT	ENDS
;	COMDAT ?OnSelchangePlan2@CAspTextEdit@@IAEXXZ
_TEXT	SEGMENT PARA USE32 PUBLIC 'CODE'
_TEXT	ENDS
;	COMDAT ?OnClear@CAspTextEdit@@IAEXXZ
_TEXT	SEGMENT PARA USE32 PUBLIC 'CODE'
_TEXT	ENDS
;	COMDAT ?OnUpdateClear@CAspTextEdit@@IAEXPAVCCmdUI@@@Z
_TEXT	SEGMENT PARA USE32 PUBLIC 'CODE'
_TEXT	ENDS
;	COMDAT ?OnUpdateCopy@CAspTextEdit@@IAEXPAVCCmdUI@@@Z
_TEXT	SEGMENT PARA USE32 PUBLIC 'CODE'
_TEXT	ENDS
;	COMDAT ?OnCopy@CAspTextEdit@@IAEXXZ
_TEXT	SEGMENT PARA USE32 PUBLIC 'CODE'
_TEXT	ENDS
;	COMDAT ?OnCut@CAspTextEdit@@IAEXXZ
_TEXT	SEGMENT PARA USE32 PUBLIC 'CODE'
_TEXT	ENDS
;	COMDAT ?OnUpdateCut@CAspTextEdit@@IAEXPAVCCmdUI@@@Z
_TEXT	SEGMENT PARA USE32 PUBLIC 'CODE'
_TEXT	ENDS
;	COMDAT ?OnPaste@CAspTextEdit@@IAEXXZ
_TEXT	SEGMENT PARA USE32 PUBLIC 'CODE'
_TEXT	ENDS
;	COMDAT ?OnUpdatePaste@CAspTextEdit@@IAEXPAVCCmdUI@@@Z
_TEXT	SEGMENT PARA USE32 PUBLIC 'CODE'
_TEXT	ENDS
;	COMDAT ?OnInitDialog@CAspTextEdit@@MAEHXZ
_TEXT	SEGMENT PARA USE32 PUBLIC 'CODE'
_TEXT	ENDS
;	COMDAT ?OnOK@CAspTextEdit@@MAEXXZ
_TEXT	SEGMENT PARA USE32 PUBLIC 'CODE'
_TEXT	ENDS
;	COMDAT ?OnCancel@CAspTextEdit@@MAEXXZ
_TEXT	SEGMENT PARA USE32 PUBLIC 'CODE'
_TEXT	ENDS
;	COMDAT ?OnChangeText@CAspTextEdit@@IAEXXZ
_TEXT	SEGMENT PARA USE32 PUBLIC 'CODE'
_TEXT	ENDS
;	COMDAT ?OnUndo@CAspTextEdit@@IAEXXZ
_TEXT	SEGMENT PARA USE32 PUBLIC 'CODE'
_TEXT	ENDS
;	COMDAT ?OnUpdateUndo@CAspTextEdit@@IAEXPAVCCmdUI@@@Z
_TEXT	SEGMENT PARA USE32 PUBLIC 'CODE'
_TEXT	ENDS
;	COMDAT ?OnUpdateText@CAspTextEdit@@IAEXXZ
_TEXT	SEGMENT PARA USE32 PUBLIC 'CODE'
_TEXT	ENDS
;	COMDAT ?OnBold@CAspTextEdit@@IAEXXZ
_TEXT	SEGMENT PARA USE32 PUBLIC 'CODE'
_TEXT	ENDS
;	COMDAT ?OnUpdateBold@CAspTextEdit@@IAEXPAVCCmdUI@@@Z
_TEXT	SEGMENT PARA USE32 PUBLIC 'CODE'
_TEXT	ENDS
;	COMDAT ?OnHead@CAspTextEdit@@IAEXXZ
_TEXT	SEGMENT PARA USE32 PUBLIC 'CODE'
_TEXT	ENDS
;	COMDAT ?OnUpdateHead@CAspTextEdit@@IAEXPAVCCmdUI@@@Z
_TEXT	SEGMENT PARA USE32 PUBLIC 'CODE'
_TEXT	ENDS
;	COMDAT ?OnItal@CAspTextEdit@@IAEXXZ
_TEXT	SEGMENT PARA USE32 PUBLIC 'CODE'
_TEXT	ENDS
;	COMDAT ?OnUpdateItal@CAspTextEdit@@IAEXPAVCCmdUI@@@Z
_TEXT	SEGMENT PARA USE32 PUBLIC 'CODE'
_TEXT	ENDS
;	COMDAT ?OnUnbold@CAspTextEdit@@IAEXXZ
_TEXT	SEGMENT PARA USE32 PUBLIC 'CODE'
_TEXT	ENDS
;	COMDAT ?OnUpdateUnbold@CAspTextEdit@@IAEXPAVCCmdUI@@@Z
_TEXT	SEGMENT PARA USE32 PUBLIC 'CODE'
_TEXT	ENDS
;	COMDAT ?OnUnheading@CAspTextEdit@@IAEXXZ
_TEXT	SEGMENT PARA USE32 PUBLIC 'CODE'
_TEXT	ENDS
;	COMDAT ?OnUpdateUnheading@CAspTextEdit@@IAEXPAVCCmdUI@@@Z
_TEXT	SEGMENT PARA USE32 PUBLIC 'CODE'
_TEXT	ENDS
;	COMDAT ?OnUnitalic@CAspTextEdit@@IAEXXZ
_TEXT	SEGMENT PARA USE32 PUBLIC 'CODE'
_TEXT	ENDS
;	COMDAT ?OnUpdateUnitalic@CAspTextEdit@@IAEXPAVCCmdUI@@@Z
_TEXT	SEGMENT PARA USE32 PUBLIC 'CODE'
_TEXT	ENDS
;	COMDAT ?getKey@@YAXPADAAV?$CStringT@GV?$StrTraitMFC@GV?$ChTraitsCRT@G@ATL@@@@@ATL@@@Z
_TEXT	SEGMENT PARA USE32 PUBLIC 'CODE'
_TEXT	ENDS
;	COMDAT ?Find@CAspTextEdit@@IAEHXZ
_TEXT	SEGMENT PARA USE32 PUBLIC 'CODE'
_TEXT	ENDS
;	COMDAT ?Save@CAspTextEdit@@IAEHXZ
_TEXT	SEGMENT PARA USE32 PUBLIC 'CODE'
_TEXT	ENDS
;	COMDAT ?OnSpell@CAspTextEdit@@IAEXXZ
_TEXT	SEGMENT PARA USE32 PUBLIC 'CODE'
_TEXT	ENDS
;	COMDAT ?OnUpdateSpell@CAspTextEdit@@IAEXPAVCCmdUI@@@Z
_TEXT	SEGMENT PARA USE32 PUBLIC 'CODE'
_TEXT	ENDS
;	COMDAT ??4?$CStringT@GV?$StrTraitMFC@GV?$ChTraitsCRT@G@ATL@@@@@ATL@@QAEAAV01@ABV01@@Z
_TEXT	SEGMENT PARA USE32 PUBLIC 'CODE'
_TEXT	ENDS
;	COMDAT ??Y?$CStringT@GV?$StrTraitMFC@GV?$ChTraitsCRT@G@ATL@@@@@ATL@@QAEAAV01@ABV?$CSimpleStringT@G$0A@@1@@Z
_TEXT	SEGMENT PARA USE32 PUBLIC 'CODE'
_TEXT	ENDS
;	COMDAT ??4?$CSimpleStringT@G$0A@@ATL@@QAEAAV01@ABV01@@Z
_TEXT	SEGMENT PARA USE32 PUBLIC 'CODE'
_TEXT	ENDS
;	COMDAT ??Y?$CSimpleStringT@G$0A@@ATL@@QAEAAV01@ABV01@@Z
_TEXT	SEGMENT PARA USE32 PUBLIC 'CODE'
_TEXT	ENDS
;	COMDAT ?Append@?$CSimpleStringT@G$0A@@ATL@@QAEXABV12@@Z
_TEXT	SEGMENT PARA USE32 PUBLIC 'CODE'
_TEXT	ENDS
;	COMDAT ?Append@?$CSimpleStringT@G$0A@@ATL@@QAEXPBGH@Z
_TEXT	SEGMENT PARA USE32 PUBLIC 'CODE'
_TEXT	ENDS
;	COMDAT ?ReleaseBufferSetLength@?$CSimpleStringT@G$0A@@ATL@@QAEXH@Z
_TEXT	SEGMENT PARA USE32 PUBLIC 'CODE'
_TEXT	ENDS
;	COMDAT ??_C@_0BA@GNIEOBOF@nNewLength?5?$DO?$DN?50?$AA@
CONST	SEGMENT DWORD USE32 PUBLIC 'CONST'
CONST	ENDS
;	COMDAT ??_C@_0FD@JDCNPMMG@c?3?2program?5files?2microsoft?5visua@
CONST	SEGMENT DWORD USE32 PUBLIC 'CONST'
CONST	ENDS
;	COMDAT ?SetLength@?$CSimpleStringT@G$0A@@ATL@@AAEXH@Z
_TEXT	SEGMENT PARA USE32 PUBLIC 'CODE'
_TEXT	ENDS
;	COMDAT ??_C@_0N@ILOMLJGA@nLength?5?$DO?$DN?50?$AA@
CONST	SEGMENT DWORD USE32 PUBLIC 'CONST'
CONST	ENDS
;	COMDAT ??_C@_0CD@EEFFJEGJ@nLength?5?$DM?$DN?5GetData?$CI?$CJ?9?$DOnAllocLeng@
CONST	SEGMENT DWORD USE32 PUBLIC 'CONST'
CONST	ENDS
;	COMDAT ?AtlThrow@ATL@@YGXJ@Z
_TEXT	SEGMENT PARA USE32 PUBLIC 'CODE'
_TEXT	ENDS
;	COMDAT ??RCTraceFileAndLineInfo@ATL@@QBAXKIPBGZZ
_TEXT	SEGMENT PARA USE32 PUBLIC 'CODE'
_TEXT	ENDS
;	COMDAT ?TraceV@CTrace@ATL@@QBAXPBDHKIPBGPAD@Z
_TEXT	SEGMENT PARA USE32 PUBLIC 'CODE'
_TEXT	ENDS
;	COMDAT ??0CTraceFileAndLineInfo@ATL@@QAE@PBDH@Z
_TEXT	SEGMENT PARA USE32 PUBLIC 'CODE'
_TEXT	ENDS
;	COMDAT ?__LINE__Var@?1??AtlThrow@ATL@@YGXJ@Z@4JA
_DATA	SEGMENT DWORD USE32 PUBLIC 'DATA'
_DATA	ENDS
;	COMDAT ??_C@_0FC@IPKABFFL@c?3?2program?5files?2microsoft?5visua@
CONST	SEGMENT DWORD USE32 PUBLIC 'CONST'
CONST	ENDS
;	COMDAT ??_C@_1CK@DFMKPFAK@?$AAA?$AAt?$AAl?$AAT?$AAh?$AAr?$AAo?$AAw?$AA?3?$AA?5?$AAh?$AAr?$AA?5?$AA?$DN?$AA?5?$AA0?$AAx?$AA?$CF?$AAx?$AA?6@
CONST	SEGMENT DWORD USE32 PUBLIC 'CONST'
CONST	ENDS
;	COMDAT ??BCTraceCategory@ATL@@QBEKXZ
_TEXT	SEGMENT PARA USE32 PUBLIC 'CODE'
_TEXT	ENDS
;	COMDAT ?CopyChars@?$CSimpleStringT@G$0A@@ATL@@SAXPAGPBGH@Z
_TEXT	SEGMENT PARA USE32 PUBLIC 'CODE'
_TEXT	ENDS
;	COMDAT ?GetBuffer@?$CSimpleStringT@G$0A@@ATL@@QAEPAGH@Z
_TEXT	SEGMENT PARA USE32 PUBLIC 'CODE'
_TEXT	ENDS
;	COMDAT ?PrepareWrite@?$CSimpleStringT@G$0A@@ATL@@AAEPAGH@Z
_TEXT	SEGMENT PARA USE32 PUBLIC 'CODE'
_TEXT	ENDS
;	COMDAT ?PrepareWrite2@?$CSimpleStringT@G$0A@@ATL@@AAEXH@Z
_TEXT	SEGMENT PARA USE32 PUBLIC 'CODE'
_TEXT	ENDS
;	COMDAT ?IsShared@CStringData@ATL@@QBE_NXZ
_TEXT	SEGMENT PARA USE32 PUBLIC 'CODE'
_TEXT	ENDS
;	COMDAT ?Fork@?$CSimpleStringT@G$0A@@ATL@@AAEXH@Z
_TEXT	SEGMENT PARA USE32 PUBLIC 'CODE'
_TEXT	ENDS
;	COMDAT ?ThrowMemoryException@?$CSimpleStringT@G$0A@@ATL@@KAXXZ
_TEXT	SEGMENT PARA USE32 PUBLIC 'CODE'
_TEXT	ENDS
;	COMDAT ?data@CStringData@ATL@@QAEPAXXZ
_TEXT	SEGMENT PARA USE32 PUBLIC 'CODE'
_TEXT	ENDS
;	COMDAT ?Reallocate@?$CSimpleStringT@G$0A@@ATL@@AAEXH@Z
_TEXT	SEGMENT PARA USE32 PUBLIC 'CODE'
_TEXT	ENDS
;	COMDAT ??_C@_0CB@GFHAPKDK@pOldData?9?$DOnAllocLength?5?$DM?5nLength@
CONST	SEGMENT DWORD USE32 PUBLIC 'CONST'
CONST	ENDS
;	COMDAT ?Attach@?$CSimpleStringT@G$0A@@ATL@@AAEXPAUCStringData@2@@Z
_TEXT	SEGMENT PARA USE32 PUBLIC 'CODE'
_TEXT	ENDS
;	COMDAT ?Release@CStringData@ATL@@QAEXXZ
_TEXT	SEGMENT PARA USE32 PUBLIC 'CODE'
_TEXT	ENDS
;	COMDAT ??_C@_0L@OIIMFBNE@nRefs?5?$CB?$DN?50?$AA@
CONST	SEGMENT DWORD USE32 PUBLIC 'CONST'
CONST	ENDS
;	COMDAT ?CloneData@?$CSimpleStringT@G$0A@@ATL@@CAPAUCStringData@2@PAU32@@Z
_TEXT	SEGMENT PARA USE32 PUBLIC 'CODE'
_TEXT	ENDS
;	COMDAT ?AddRef@CStringData@ATL@@QAEXXZ
_TEXT	SEGMENT PARA USE32 PUBLIC 'CODE'
_TEXT	ENDS
;	COMDAT ??_C@_09EEBKLCFA@nRefs?5?$DO?50?$AA@
CONST	SEGMENT DWORD USE32 PUBLIC 'CONST'
CONST	ENDS
;	COMDAT ?GetString@?$CSimpleStringT@G$0A@@ATL@@QBEPBGXZ
_TEXT	SEGMENT PARA USE32 PUBLIC 'CODE'
_TEXT	ENDS
;	COMDAT ?SetString@?$CSimpleStringT@G$0A@@ATL@@QAEXPBGH@Z
_TEXT	SEGMENT PARA USE32 PUBLIC 'CODE'
_TEXT	ENDS
;	COMDAT ?Empty@?$CSimpleStringT@G$0A@@ATL@@QAEXXZ
_TEXT	SEGMENT PARA USE32 PUBLIC 'CODE'
_TEXT	ENDS
;	COMDAT ?CopyCharsOverlapped@?$CSimpleStringT@G$0A@@ATL@@SAXPAGPBGH@Z
_TEXT	SEGMENT PARA USE32 PUBLIC 'CODE'
_TEXT	ENDS
;	COMDAT ?IsLocked@CStringData@ATL@@QBE_NXZ
_TEXT	SEGMENT PARA USE32 PUBLIC 'CODE'
_TEXT	ENDS
;	COMDAT ?GetData@?$CSimpleStringT@G$0A@@ATL@@ABEPAUCStringData@2@XZ
_TEXT	SEGMENT PARA USE32 PUBLIC 'CODE'
_TEXT	ENDS
;	COMDAT ??4?$CStringT@GV?$StrTraitMFC@GV?$ChTraitsCRT@G@ATL@@@@@ATL@@QAEAAV01@PBD@Z
_TEXT	SEGMENT PARA USE32 PUBLIC 'CODE'
_TEXT	ENDS
;	COMDAT ?GetBaseTypeLength@?$ChTraitsCRT@G@ATL@@SAHPBD@Z
_TEXT	SEGMENT PARA USE32 PUBLIC 'CODE'
_TEXT	ENDS
;	COMDAT ?_AtlGetConversionACP@ATL@@YGIXZ
_TEXT	SEGMENT PARA USE32 PUBLIC 'CODE'
_TEXT	ENDS
;	COMDAT ?g_pfnGetThreadACP@ATL@@3P6GIXZA
_DATA	SEGMENT DWORD USE32 PUBLIC 'DATA'
_DATA	ENDS
;	COMDAT ?_AtlGetThreadACPThunk@ATL@@YGIXZ
_TEXT	SEGMENT PARA USE32 PUBLIC 'CODE'
_TEXT	ENDS
;	COMDAT ?_AtlGetThreadACPReal@ATL@@YGIXZ
_TEXT	SEGMENT PARA USE32 PUBLIC 'CODE'
_TEXT	ENDS
;	COMDAT ?_AtlGetThreadACPFake@ATL@@YGIXZ
_TEXT	SEGMENT PARA USE32 PUBLIC 'CODE'
_TEXT	ENDS
;	COMDAT ?InterlockedExchangePointer@@YGPAXPAPAXPAX@Z
_TEXT	SEGMENT PARA USE32 PUBLIC 'CODE'
_TEXT	ENDS
;	COMDAT ?ConvertToBaseType@?$ChTraitsCRT@G@ATL@@SAXPAGHPBDH@Z
_TEXT	SEGMENT PARA USE32 PUBLIC 'CODE'
_TEXT	ENDS
;	COMDAT ??_R0PAVCDaoException@@@8
_DATA	SEGMENT DWORD USE32 PUBLIC 'DATA'
_DATA	ENDS
;	COMDAT ??0?$CStringT@GV?$StrTraitMFC@GV?$ChTraitsCRT@G@ATL@@@@@ATL@@QAE@PBD@Z
_TEXT	SEGMENT PARA USE32 PUBLIC 'CODE'
_TEXT	ENDS
;	COMDAT ??0?$CSimpleStringT@G$0A@@ATL@@QAE@PAUIAtlStringMgr@1@@Z
_TEXT	SEGMENT PARA USE32 PUBLIC 'CODE'
_TEXT	ENDS
;	COMDAT ??_C@_0BA@GOIMFHNK@pStringMgr?5?$CB?$DN?50?$AA@
CONST	SEGMENT DWORD USE32 PUBLIC 'CONST'
CONST	ENDS
;	COMDAT ?GetDefaultManager@?$StrTraitMFC@GV?$ChTraitsCRT@G@ATL@@@@SAPAUIAtlStringMgr@ATL@@XZ
_TEXT	SEGMENT PARA USE32 PUBLIC 'CODE'
_TEXT	ENDS
;	COMDAT ??1?$CSimpleStringT@G$0A@@ATL@@QAE@XZ
_TEXT	SEGMENT PARA USE32 PUBLIC 'CODE'
_TEXT	ENDS
;	COMDAT ?CheckImplicitLoad@?$CStringT@GV?$StrTraitMFC@GV?$ChTraitsCRT@G@ATL@@@@@ATL@@AAE_NPBX@Z
_TEXT	SEGMENT PARA USE32 PUBLIC 'CODE'
_TEXT	ENDS
;	COMDAT ?LoadStringW@?$CStringT@GV?$StrTraitMFC@GV?$ChTraitsCRT@G@ATL@@@@@ATL@@QAEHI@Z
_TEXT	SEGMENT PARA USE32 PUBLIC 'CODE'
_TEXT	ENDS
;	COMDAT ?FindStringResourceInstance@?$StrTraitMFC@GV?$ChTraitsCRT@G@ATL@@@@SAPAUHINSTANCE__@@I@Z
_TEXT	SEGMENT PARA USE32 PUBLIC 'CODE'
_TEXT	ENDS
;	COMDAT ?LoadStringW@?$CStringT@GV?$StrTraitMFC@GV?$ChTraitsCRT@G@ATL@@@@@ATL@@QAEHPAUHINSTANCE__@@I@Z
_TEXT	SEGMENT PARA USE32 PUBLIC 'CODE'
_TEXT	ENDS
;	COMDAT ?AtlGetStringResourceImage@ATL@@YAPBUATLSTRINGRESOURCEIMAGE@1@PAUHINSTANCE__@@I@Z
_TEXT	SEGMENT PARA USE32 PUBLIC 'CODE'
_TEXT	ENDS
;	COMDAT ?_AtlGetStringResourceImage@ATL@@YAPBUATLSTRINGRESOURCEIMAGE@1@PAUHINSTANCE__@@PAUHRSRC__@@I@Z
_TEXT	SEGMENT PARA USE32 PUBLIC 'CODE'
_TEXT	ENDS
;	COMDAT ?GetBaseTypeLength@?$ChTraitsCRT@G@ATL@@SAHPBGH@Z
_TEXT	SEGMENT PARA USE32 PUBLIC 'CODE'
_TEXT	ENDS
;	COMDAT ?ConvertToBaseType@?$ChTraitsCRT@G@ATL@@SAXPAGHPBGH@Z
_TEXT	SEGMENT PARA USE32 PUBLIC 'CODE'
_TEXT	ENDS
;	COMDAT ??_C@_0FB@BCKJDECD@c?3?2program?5files?2microsoft?5visua@
CONST	SEGMENT DWORD USE32 PUBLIC 'CONST'
CONST	ENDS
;	COMDAT ??_C@_1FC@BMOLDHIO@?$AAW?$AAa?$AAr?$AAn?$AAi?$AAn?$AAg?$AA?3?$AA?5?$AAi?$AAm?$AAp?$AAl?$AAi?$AAc?$AAi?$AAt?$AA?5?$AAL?$AAo@
CONST	SEGMENT DWORD USE32 PUBLIC 'CONST'
CONST	ENDS
;	COMDAT ??0?$CStringT@GV?$StrTraitMFC@GV?$ChTraitsCRT@G@ATL@@@@@ATL@@QAE@ABV01@@Z
_TEXT	SEGMENT PARA USE32 PUBLIC 'CODE'
_TEXT	ENDS
;	COMDAT ??0?$CSimpleStringT@G$0A@@ATL@@QAE@ABV01@@Z
_TEXT	SEGMENT PARA USE32 PUBLIC 'CODE'
_TEXT	ENDS
;	COMDAT ??B?$CSimpleStringT@G$0A@@ATL@@QBEPBGXZ
_TEXT	SEGMENT PARA USE32 PUBLIC 'CODE'
_TEXT	ENDS
;	COMDAT ?GetLength@?$CSimpleStringT@G$0A@@ATL@@QBEHXZ
_TEXT	SEGMENT PARA USE32 PUBLIC 'CODE'
_TEXT	ENDS
;	COMDAT ?_messageEntries@CAspTextEdit@@0QBUAFX_MSGMAP_ENTRY@@B
CONST	SEGMENT DWORD USE32 PUBLIC 'CONST'
CONST	ENDS
;	COMDAT ?messageMap@CAspTextEdit@@1UAFX_MSGMAP@@B
CONST	SEGMENT DWORD USE32 PUBLIC 'CONST'
CONST	ENDS
;	COMDAT ??_7CWSpell@@6B@
CONST	SEGMENT DWORD USE32 PUBLIC 'CONST'
CONST	ENDS
;	COMDAT ?__LINE__Var@?1???0CAspTextEdit@@QAE@PAVCWnd@@@Z@4JA
_DATA	SEGMENT DWORD USE32 PUBLIC 'DATA'
_DATA	ENDS
;	COMDAT ??_C@_11LOCGONAA@?$AA?$AA@
CONST	SEGMENT DWORD USE32 PUBLIC 'CONST'
CONST	ENDS
;	COMDAT ??4?$CStringT@GV?$StrTraitMFC@GV?$ChTraitsCRT@G@ATL@@@@@ATL@@QAEAAV01@PBG@Z
_TEXT	SEGMENT PARA USE32 PUBLIC 'CODE'
_TEXT	ENDS
;	COMDAT ??4?$CSimpleStringT@G$0A@@ATL@@QAEAAV01@PBG@Z
_TEXT	SEGMENT PARA USE32 PUBLIC 'CODE'
_TEXT	ENDS
;	COMDAT ?SetString@?$CSimpleStringT@G$0A@@ATL@@QAEXPBG@Z
_TEXT	SEGMENT PARA USE32 PUBLIC 'CODE'
_TEXT	ENDS
;	COMDAT ?StringLength@?$CSimpleStringT@G$0A@@ATL@@SAHPBG@Z
_TEXT	SEGMENT PARA USE32 PUBLIC 'CODE'
_TEXT	ENDS
;	COMDAT ??_7CAspTextEdit@@6B@
CONST	SEGMENT DWORD USE32 PUBLIC 'CONST'
CONST	ENDS
;	COMDAT ??_7CRSymbol@@6B@
CONST	SEGMENT DWORD USE32 PUBLIC 'CONST'
CONST	ENDS
;	COMDAT ??_7CSymbol@@6B@
CONST	SEGMENT DWORD USE32 PUBLIC 'CONST'
CONST	ENDS
;	COMDAT ??1?$CStringT@GV?$StrTraitMFC@GV?$ChTraitsCRT@G@ATL@@@@@ATL@@QAE@XZ
_TEXT	SEGMENT PARA USE32 PUBLIC 'CODE'
_TEXT	ENDS
;	COMDAT ??0?$CStringT@GV?$StrTraitMFC@GV?$ChTraitsCRT@G@ATL@@@@@ATL@@QAE@XZ
_TEXT	SEGMENT PARA USE32 PUBLIC 'CODE'
_TEXT	ENDS
;	COMDAT ??_7RTFFuncs@@6B@
CONST	SEGMENT DWORD USE32 PUBLIC 'CONST'
CONST	ENDS
;	COMDAT ?clsid@?1??GetClsid@CWSpell@@QAEABU_GUID@@XZ@4U3@B
CONST	SEGMENT DWORD USE32 PUBLIC 'CONST'
CONST	ENDS
sxdata	SEGMENT DWORD USE32 'SXDATA'
sxdata	ENDS
FLAT	GROUP _DATA, CONST, _BSS
	ASSUME	CS: FLAT, DS: FLAT, SS: FLAT
endif

INCLUDELIB LIBCMTD
INCLUDELIB OLDNAMES

PUBLIC	?OnSelchangeAspect@CAspTextEdit@@IAEXXZ		; CAspTextEdit::OnSelchangeAspect
PUBLIC	?OnSelchangePlan1@CAspTextEdit@@IAEXXZ		; CAspTextEdit::OnSelchangePlan1
PUBLIC	?OnSelchangePlan2@CAspTextEdit@@IAEXXZ		; CAspTextEdit::OnSelchangePlan2
PUBLIC	?OnClear@CAspTextEdit@@IAEXXZ			; CAspTextEdit::OnClear
PUBLIC	?OnUpdateClear@CAspTextEdit@@IAEXPAVCCmdUI@@@Z	; CAspTextEdit::OnUpdateClear
PUBLIC	?OnUpdateCopy@CAspTextEdit@@IAEXPAVCCmdUI@@@Z	; CAspTextEdit::OnUpdateCopy
PUBLIC	?OnCopy@CAspTextEdit@@IAEXXZ			; CAspTextEdit::OnCopy
PUBLIC	?OnCut@CAspTextEdit@@IAEXXZ			; CAspTextEdit::OnCut
PUBLIC	?OnUpdateCut@CAspTextEdit@@IAEXPAVCCmdUI@@@Z	; CAspTextEdit::OnUpdateCut
PUBLIC	?OnPaste@CAspTextEdit@@IAEXXZ			; CAspTextEdit::OnPaste
PUBLIC	?OnUpdatePaste@CAspTextEdit@@IAEXPAVCCmdUI@@@Z	; CAspTextEdit::OnUpdatePaste
PUBLIC	?OnChangeText@CAspTextEdit@@IAEXXZ		; CAspTextEdit::OnChangeText
PUBLIC	?OnUndo@CAspTextEdit@@IAEXXZ			; CAspTextEdit::OnUndo
PUBLIC	?OnUpdateUndo@CAspTextEdit@@IAEXPAVCCmdUI@@@Z	; CAspTextEdit::OnUpdateUndo
PUBLIC	?OnUpdateText@CAspTextEdit@@IAEXXZ		; CAspTextEdit::OnUpdateText
PUBLIC	?OnBold@CAspTextEdit@@IAEXXZ			; CAspTextEdit::OnBold
PUBLIC	?OnUpdateBold@CAspTextEdit@@IAEXPAVCCmdUI@@@Z	; CAspTextEdit::OnUpdateBold
PUBLIC	?OnHead@CAspTextEdit@@IAEXXZ			; CAspTextEdit::OnHead
PUBLIC	?OnUpdateHead@CAspTextEdit@@IAEXPAVCCmdUI@@@Z	; CAspTextEdit::OnUpdateHead
PUBLIC	?OnItal@CAspTextEdit@@IAEXXZ			; CAspTextEdit::OnItal
PUBLIC	?OnUpdateItal@CAspTextEdit@@IAEXPAVCCmdUI@@@Z	; CAspTextEdit::OnUpdateItal
PUBLIC	?OnUnbold@CAspTextEdit@@IAEXXZ			; CAspTextEdit::OnUnbold
PUBLIC	?OnUpdateUnbold@CAspTextEdit@@IAEXPAVCCmdUI@@@Z	; CAspTextEdit::OnUpdateUnbold
PUBLIC	?OnUnheading@CAspTextEdit@@IAEXXZ		; CAspTextEdit::OnUnheading
PUBLIC	?OnUpdateUnheading@CAspTextEdit@@IAEXPAVCCmdUI@@@Z ; CAspTextEdit::OnUpdateUnheading
PUBLIC	?OnUnitalic@CAspTextEdit@@IAEXXZ		; CAspTextEdit::OnUnitalic
PUBLIC	?OnUpdateUnitalic@CAspTextEdit@@IAEXPAVCCmdUI@@@Z ; CAspTextEdit::OnUpdateUnitalic
PUBLIC	?OnSpell@CAspTextEdit@@IAEXXZ			; CAspTextEdit::OnSpell
PUBLIC	?OnUpdateSpell@CAspTextEdit@@IAEXPAVCCmdUI@@@Z	; CAspTextEdit::OnUpdateSpell
PUBLIC	?_messageEntries@CAspTextEdit@@0QBUAFX_MSGMAP_ENTRY@@B ; CAspTextEdit::_messageEntries
PUBLIC	?messageMap@CAspTextEdit@@1UAFX_MSGMAP@@B	; CAspTextEdit::messageMap
PUBLIC	?g_pfnGetThreadACP@ATL@@3P6GIXZA		; ATL::g_pfnGetThreadACP
PUBLIC	?_AtlGetThreadACPThunk@ATL@@YGIXZ		; ATL::_AtlGetThreadACPThunk
EXTRN	?messageMap@CDialog@@1UAFX_MSGMAP@@B:QWORD	; CDialog::messageMap
_DATA	SEGMENT
_THIS_FILE DB	'c:\astrow32dev\tbt32\asptextedit.cpp', 00H
_DATA	ENDS
;	COMDAT ?_messageEntries@CAspTextEdit@@0QBUAFX_MSGMAP_ENTRY@@B
CONST	SEGMENT
?_messageEntries@CAspTextEdit@@0QBUAFX_MSGMAP_ENTRY@@B DD 0111H ; CAspTextEdit::_messageEntries
	DD	01H
	DD	03edH
	DD	03edH
	DD	035H
	DD	FLAT:?OnSelchangeAspect@CAspTextEdit@@IAEXXZ
	DD	0111H
	DD	01H
	DD	03eeH
	DD	03eeH
	DD	035H
	DD	FLAT:?OnSelchangePlan1@CAspTextEdit@@IAEXXZ
	DD	0111H
	DD	01H
	DD	03efH
	DD	03efH
	DD	035H
	DD	FLAT:?OnSelchangePlan2@CAspTextEdit@@IAEXXZ
	DD	0111H
	DD	00H
	DD	0800dH
	DD	0800dH
	DD	035H
	DD	FLAT:?OnClear@CAspTextEdit@@IAEXXZ
	DD	0111H
	DD	0ffffffffH
	DD	0800dH
	DD	0800dH
	DD	03dH
	DD	FLAT:?OnUpdateClear@CAspTextEdit@@IAEXPAVCCmdUI@@@Z
	DD	0111H
	DD	0ffffffffH
	DD	0800aH
	DD	0800aH
	DD	03dH
	DD	FLAT:?OnUpdateCopy@CAspTextEdit@@IAEXPAVCCmdUI@@@Z
	DD	0111H
	DD	00H
	DD	0800aH
	DD	0800aH
	DD	035H
	DD	FLAT:?OnCopy@CAspTextEdit@@IAEXXZ
	DD	0111H
	DD	00H
	DD	0800cH
	DD	0800cH
	DD	035H
	DD	FLAT:?OnCut@CAspTextEdit@@IAEXXZ
	DD	0111H
	DD	0ffffffffH
	DD	0800cH
	DD	0800cH
	DD	03dH
	DD	FLAT:?OnUpdateCut@CAspTextEdit@@IAEXPAVCCmdUI@@@Z
	DD	0111H
	DD	00H
	DD	0800bH
	DD	0800bH
	DD	035H
	DD	FLAT:?OnPaste@CAspTextEdit@@IAEXXZ
	DD	0111H
	DD	0ffffffffH
	DD	0800bH
	DD	0800bH
	DD	03dH
	DD	FLAT:?OnUpdatePaste@CAspTextEdit@@IAEXPAVCCmdUI@@@Z
	DD	0111H
	DD	0300H
	DD	03ecH
	DD	03ecH
	DD	035H
	DD	FLAT:?OnChangeText@CAspTextEdit@@IAEXXZ
	DD	0111H
	DD	00H
	DD	08010H
	DD	08010H
	DD	035H
	DD	FLAT:?OnUndo@CAspTextEdit@@IAEXXZ
	DD	0111H
	DD	0ffffffffH
	DD	08010H
	DD	08010H
	DD	03dH
	DD	FLAT:?OnUpdateUndo@CAspTextEdit@@IAEXPAVCCmdUI@@@Z
	DD	0111H
	DD	0400H
	DD	03ecH
	DD	03ecH
	DD	035H
	DD	FLAT:?OnUpdateText@CAspTextEdit@@IAEXXZ
	DD	0111H
	DD	00H
	DD	08012H
	DD	08012H
	DD	035H
	DD	FLAT:?OnBold@CAspTextEdit@@IAEXXZ
	DD	0111H
	DD	0ffffffffH
	DD	08012H
	DD	08012H
	DD	03dH
	DD	FLAT:?OnUpdateBold@CAspTextEdit@@IAEXPAVCCmdUI@@@Z
	DD	0111H
	DD	00H
	DD	08014H
	DD	08014H
	DD	035H
	DD	FLAT:?OnHead@CAspTextEdit@@IAEXXZ
	DD	0111H
	DD	0ffffffffH
	DD	08014H
	DD	08014H
	DD	03dH
	DD	FLAT:?OnUpdateHead@CAspTextEdit@@IAEXPAVCCmdUI@@@Z
	DD	0111H
	DD	00H
	DD	08013H
	DD	08013H
	DD	035H
	DD	FLAT:?OnItal@CAspTextEdit@@IAEXXZ
	DD	0111H
	DD	0ffffffffH
	DD	08013H
	DD	08013H
	DD	03dH
	DD	FLAT:?OnUpdateItal@CAspTextEdit@@IAEXPAVCCmdUI@@@Z
	DD	0111H
	DD	00H
	DD	08016H
	DD	08016H
	DD	035H
	DD	FLAT:?OnUnbold@CAspTextEdit@@IAEXXZ
	DD	0111H
	DD	0ffffffffH
	DD	08016H
	DD	08016H
	DD	03dH
	DD	FLAT:?OnUpdateUnbold@CAspTextEdit@@IAEXPAVCCmdUI@@@Z
	DD	0111H
	DD	00H
	DD	08015H
	DD	08015H
	DD	035H
	DD	FLAT:?OnUnheading@CAspTextEdit@@IAEXXZ
	DD	0111H
	DD	0ffffffffH
	DD	08015H
	DD	08015H
	DD	03dH
	DD	FLAT:?OnUpdateUnheading@CAspTextEdit@@IAEXPAVCCmdUI@@@Z
	DD	0111H
	DD	00H
	DD	08017H
	DD	08017H
	DD	035H
	DD	FLAT:?OnUnitalic@CAspTextEdit@@IAEXXZ
	DD	0111H
	DD	0ffffffffH
	DD	08017H
	DD	08017H
	DD	03dH
	DD	FLAT:?OnUpdateUnitalic@CAspTextEdit@@IAEXPAVCCmdUI@@@Z
	DD	0111H
	DD	00H
	DD	08018H
	DD	08018H
	DD	035H
	DD	FLAT:?OnSpell@CAspTextEdit@@IAEXXZ
	DD	0111H
	DD	0ffffffffH
	DD	08018H
	DD	08018H
	DD	03dH
	DD	FLAT:?OnUpdateSpell@CAspTextEdit@@IAEXPAVCCmdUI@@@Z
	DD	00H
	DD	00H
	DD	00H
	DD	00H
	DD	00H
	DD	00H
CONST	ENDS
;	COMDAT ?messageMap@CAspTextEdit@@1UAFX_MSGMAP@@B
CONST	SEGMENT
?messageMap@CAspTextEdit@@1UAFX_MSGMAP@@B DD FLAT:?messageMap@CDialog@@1UAFX_MSGMAP@@B ; CAspTextEdit::messageMap
	DD	FLAT:?_messageEntries@CAspTextEdit@@0QBUAFX_MSGMAP_ENTRY@@B
CONST	ENDS
;	COMDAT ?g_pfnGetThreadACP@ATL@@3P6GIXZA
_DATA	SEGMENT
?g_pfnGetThreadACP@ATL@@3P6GIXZA DD FLAT:?_AtlGetThreadACPThunk@ATL@@YGIXZ ; ATL::g_pfnGetThreadACP
_DATA	ENDS
PUBLIC	??1CSymbol@@QAE@XZ				; CSymbol::~CSymbol
PUBLIC	??_ECSymbol@@QAEPAXI@Z				; CSymbol::`vector deleting destructor'
EXTRN	??_M@YGXPAXIHP6EX0@Z@Z:NEAR			; `eh vector destructor iterator'
EXTRN	??3@YAXPAX@Z:NEAR				; operator delete
EXTRN	__RTC_InitBase:NEAR
EXTRN	__RTC_Shutdown:NEAR
EXTRN	__RTC_CheckEsp:NEAR
EXTRN	??_V@YAXPAX@Z:NEAR				; operator delete[]
;	COMDAT rtc$IMZ
rtc$IMZ	SEGMENT
__RTC_InitBase.rtc$IMZ DD FLAT:__RTC_InitBase
rtc$IMZ	ENDS
;	COMDAT rtc$TMZ
rtc$TMZ	SEGMENT
__RTC_Shutdown.rtc$TMZ DD FLAT:__RTC_Shutdown
; Function compile flags: /Odt /RTCcsu /ZI
rtc$TMZ	ENDS
;	COMDAT ??_ECSymbol@@QAEPAXI@Z
_TEXT	SEGMENT
_this$ = -8						; size = 4
___flags$ = 8						; size = 4
??_ECSymbol@@QAEPAXI@Z PROC NEAR			; CSymbol::`vector deleting destructor', COMDAT
; _this$ = ecx
	push	ebp
	mov	ebp, esp
	sub	esp, 204				; 000000ccH
	push	ebx
	push	esi
	push	edi
	push	ecx
	lea	edi, DWORD PTR [ebp-204]
	mov	ecx, 51					; 00000033H
	mov	eax, -858993460				; ccccccccH
	rep stosd
	pop	ecx
	mov	DWORD PTR _this$[ebp], ecx
	mov	eax, DWORD PTR ___flags$[ebp]
	and	eax, 2
	je	SHORT $L93488
	push	OFFSET FLAT:??1CSymbol@@QAE@XZ		; CSymbol::~CSymbol
	mov	eax, DWORD PTR _this$[ebp]
	mov	ecx, DWORD PTR [eax-4]
	push	ecx
	push	164					; 000000a4H
	mov	edx, DWORD PTR _this$[ebp]
	push	edx
	call	??_M@YGXPAXIHP6EX0@Z@Z
	mov	eax, DWORD PTR ___flags$[ebp]
	and	eax, 1
	je	SHORT $L93489
	mov	eax, DWORD PTR _this$[ebp]
	sub	eax, 4
	push	eax
	call	??_V@YAXPAX@Z				; operator delete[]
	add	esp, 4
$L93489:
	mov	eax, DWORD PTR _this$[ebp]
	sub	eax, 4
	jmp	SHORT $L93487
$L93488:
	mov	ecx, DWORD PTR _this$[ebp]
	call	??1CSymbol@@QAE@XZ			; CSymbol::~CSymbol
	mov	eax, DWORD PTR ___flags$[ebp]
	and	eax, 1
	je	SHORT $L93491
	mov	eax, DWORD PTR _this$[ebp]
	push	eax
	call	??3@YAXPAX@Z				; operator delete
	add	esp, 4
$L93491:
	mov	eax, DWORD PTR _this$[ebp]
$L93487:
	pop	edi
	pop	esi
	pop	ebx
	add	esp, 204				; 000000ccH
	cmp	ebp, esp
	call	__RTC_CheckEsp
	mov	esp, ebp
	pop	ebp
	ret	4
??_ECSymbol@@QAEPAXI@Z ENDP				; CSymbol::`vector deleting destructor'
_TEXT	ENDS
PUBLIC	??_7CSymbol@@6B@				; CSymbol::`vftable'
EXTRN	?Read@CSymbol@@UAEHPAU_iobuf@@@Z:NEAR		; CSymbol::Read
;	COMDAT ??_7CSymbol@@6B@
; File c:\astrow32dev\tbt32\symbol.hpp
CONST	SEGMENT
??_7CSymbol@@6B@ DD FLAT:?Read@CSymbol@@UAEHPAU_iobuf@@@Z ; CSymbol::`vftable'
; Function compile flags: /Odt /RTCcsu /ZI
CONST	ENDS
;	COMDAT ??1CSymbol@@QAE@XZ
_TEXT	SEGMENT
_this$ = -8						; size = 4
??1CSymbol@@QAE@XZ PROC NEAR				; CSymbol::~CSymbol, COMDAT
; _this$ = ecx

; 14   : 	~CSymbol() {}

	push	ebp
	mov	ebp, esp
	sub	esp, 204				; 000000ccH
	push	ebx
	push	esi
	push	edi
	push	ecx
	lea	edi, DWORD PTR [ebp-204]
	mov	ecx, 51					; 00000033H
	mov	eax, -858993460				; ccccccccH
	rep stosd
	pop	ecx
	mov	DWORD PTR _this$[ebp], ecx
	mov	eax, DWORD PTR _this$[ebp]
	mov	DWORD PTR [eax], OFFSET FLAT:??_7CSymbol@@6B@
	pop	edi
	pop	esi
	pop	ebx
	mov	esp, ebp
	pop	ebp
	ret	0
??1CSymbol@@QAE@XZ ENDP					; CSymbol::~CSymbol
_TEXT	ENDS
PUBLIC	??1CRSymbol@@QAE@XZ				; CRSymbol::~CRSymbol
PUBLIC	??_ECRSymbol@@QAEPAXI@Z				; CRSymbol::`vector deleting destructor'
; Function compile flags: /Odt /RTCcsu /ZI
;	COMDAT ??_ECRSymbol@@QAEPAXI@Z
_TEXT	SEGMENT
_this$ = -8						; size = 4
___flags$ = 8						; size = 4
??_ECRSymbol@@QAEPAXI@Z PROC NEAR			; CRSymbol::`vector deleting destructor', COMDAT
; _this$ = ecx
	push	ebp
	mov	ebp, esp
	sub	esp, 204				; 000000ccH
	push	ebx
	push	esi
	push	edi
	push	ecx
	lea	edi, DWORD PTR [ebp-204]
	mov	ecx, 51					; 00000033H
	mov	eax, -858993460				; ccccccccH
	rep stosd
	pop	ecx
	mov	DWORD PTR _this$[ebp], ecx
	mov	eax, DWORD PTR ___flags$[ebp]
	and	eax, 2
	je	SHORT $L93539
	push	OFFSET FLAT:??1CRSymbol@@QAE@XZ		; CRSymbol::~CRSymbol
	mov	eax, DWORD PTR _this$[ebp]
	mov	ecx, DWORD PTR [eax-4]
	push	ecx
	push	164					; 000000a4H
	mov	edx, DWORD PTR _this$[ebp]
	push	edx
	call	??_M@YGXPAXIHP6EX0@Z@Z
	mov	eax, DWORD PTR ___flags$[ebp]
	and	eax, 1
	je	SHORT $L93540
	mov	eax, DWORD PTR _this$[ebp]
	sub	eax, 4
	push	eax
	call	??_V@YAXPAX@Z				; operator delete[]
	add	esp, 4
$L93540:
	mov	eax, DWORD PTR _this$[ebp]
	sub	eax, 4
	jmp	SHORT $L93538
$L93539:
	mov	ecx, DWORD PTR _this$[ebp]
	call	??1CRSymbol@@QAE@XZ			; CRSymbol::~CRSymbol
	mov	eax, DWORD PTR ___flags$[ebp]
	and	eax, 1
	je	SHORT $L93542
	mov	eax, DWORD PTR _this$[ebp]
	push	eax
	call	??3@YAXPAX@Z				; operator delete
	add	esp, 4
$L93542:
	mov	eax, DWORD PTR _this$[ebp]
$L93538:
	pop	edi
	pop	esi
	pop	ebx
	add	esp, 204				; 000000ccH
	cmp	ebp, esp
	call	__RTC_CheckEsp
	mov	esp, ebp
	pop	ebp
	ret	4
??_ECRSymbol@@QAEPAXI@Z ENDP				; CRSymbol::`vector deleting destructor'
_TEXT	ENDS
PUBLIC	??_7CRSymbol@@6B@				; CRSymbol::`vftable'
EXTRN	?Read@CRSymbol@@UAEHPAU_iobuf@@@Z:NEAR		; CRSymbol::Read
;	COMDAT ??_7CRSymbol@@6B@
CONST	SEGMENT
??_7CRSymbol@@6B@ DD FLAT:?Read@CRSymbol@@UAEHPAU_iobuf@@@Z ; CRSymbol::`vftable'
; Function compile flags: /Odt /RTCcsu /ZI
CONST	ENDS
;	COMDAT ??1CRSymbol@@QAE@XZ
_TEXT	SEGMENT
_this$ = -8						; size = 4
??1CRSymbol@@QAE@XZ PROC NEAR				; CRSymbol::~CRSymbol, COMDAT
; _this$ = ecx

; 28   : 	~CRSymbol() {}

	push	ebp
	mov	ebp, esp
	sub	esp, 204				; 000000ccH
	push	ebx
	push	esi
	push	edi
	push	ecx
	lea	edi, DWORD PTR [ebp-204]
	mov	ecx, 51					; 00000033H
	mov	eax, -858993460				; ccccccccH
	rep stosd
	pop	ecx
	mov	DWORD PTR _this$[ebp], ecx
	mov	eax, DWORD PTR _this$[ebp]
	mov	DWORD PTR [eax], OFFSET FLAT:??_7CRSymbol@@6B@
	mov	ecx, DWORD PTR _this$[ebp]
	call	??1CSymbol@@QAE@XZ			; CSymbol::~CSymbol
	pop	edi
	pop	esi
	pop	ebx
	add	esp, 204				; 000000ccH
	cmp	ebp, esp
	call	__RTC_CheckEsp
	mov	esp, ebp
	pop	ebp
	ret	0
??1CRSymbol@@QAE@XZ ENDP				; CRSymbol::~CRSymbol
_TEXT	ENDS
PUBLIC	??1CATextType@@QAE@XZ				; CATextType::~CATextType
PUBLIC	??_ECATextType@@QAEPAXI@Z			; CATextType::`vector deleting destructor'
; Function compile flags: /Odt /RTCcsu /ZI
;	COMDAT ??_ECATextType@@QAEPAXI@Z
_TEXT	SEGMENT
_this$ = -8						; size = 4
___flags$ = 8						; size = 4
??_ECATextType@@QAEPAXI@Z PROC NEAR			; CATextType::`vector deleting destructor', COMDAT
; _this$ = ecx
	push	ebp
	mov	ebp, esp
	sub	esp, 204				; 000000ccH
	push	ebx
	push	esi
	push	edi
	push	ecx
	lea	edi, DWORD PTR [ebp-204]
	mov	ecx, 51					; 00000033H
	mov	eax, -858993460				; ccccccccH
	rep stosd
	pop	ecx
	mov	DWORD PTR _this$[ebp], ecx
	mov	eax, DWORD PTR ___flags$[ebp]
	and	eax, 2
	je	SHORT $L93660
	push	OFFSET FLAT:??1CATextType@@QAE@XZ	; CATextType::~CATextType
	mov	eax, DWORD PTR _this$[ebp]
	mov	ecx, DWORD PTR [eax-4]
	push	ecx
	push	160					; 000000a0H
	mov	edx, DWORD PTR _this$[ebp]
	push	edx
	call	??_M@YGXPAXIHP6EX0@Z@Z
	mov	eax, DWORD PTR ___flags$[ebp]
	and	eax, 1
	je	SHORT $L93661
	mov	eax, DWORD PTR _this$[ebp]
	sub	eax, 4
	push	eax
	call	??_V@YAXPAX@Z				; operator delete[]
	add	esp, 4
$L93661:
	mov	eax, DWORD PTR _this$[ebp]
	sub	eax, 4
	jmp	SHORT $L93659
$L93660:
	mov	ecx, DWORD PTR _this$[ebp]
	call	??1CATextType@@QAE@XZ			; CATextType::~CATextType
	mov	eax, DWORD PTR ___flags$[ebp]
	and	eax, 1
	je	SHORT $L93663
	mov	eax, DWORD PTR _this$[ebp]
	push	eax
	call	??3@YAXPAX@Z				; operator delete
	add	esp, 4
$L93663:
	mov	eax, DWORD PTR _this$[ebp]
$L93659:
	pop	edi
	pop	esi
	pop	ebx
	add	esp, 204				; 000000ccH
	cmp	ebp, esp
	call	__RTC_CheckEsp
	mov	esp, ebp
	pop	ebp
	ret	4
??_ECATextType@@QAEPAXI@Z ENDP				; CATextType::`vector deleting destructor'
; Function compile flags: /Odt /RTCcsu /ZI
; File c:\astrow32dev\tbt32\texttypeary.hpp
_TEXT	ENDS
;	COMDAT ??1CATextType@@QAE@XZ
_TEXT	SEGMENT
_this$ = -8						; size = 4
??1CATextType@@QAE@XZ PROC NEAR				; CATextType::~CATextType, COMDAT
; _this$ = ecx

; 16   :     ~CATextType() {}

	push	ebp
	mov	ebp, esp
	sub	esp, 204				; 000000ccH
	push	ebx
	push	esi
	push	edi
	push	ecx
	lea	edi, DWORD PTR [ebp-204]
	mov	ecx, 51					; 00000033H
	mov	eax, -858993460				; ccccccccH
	rep stosd
	pop	ecx
	mov	DWORD PTR _this$[ebp], ecx
	pop	edi
	pop	esi
	pop	ebx
	mov	esp, ebp
	pop	ebp
	ret	0
??1CATextType@@QAE@XZ ENDP				; CATextType::~CATextType
_TEXT	ENDS
PUBLIC	??1CDAspectText@@UAE@XZ				; CDAspectText::~CDAspectText
PUBLIC	??0RTFFuncs@@QAE@PAVCDialog@@@Z			; RTFFuncs::RTFFuncs
PUBLIC	??0CAspTextEdit@@QAE@PAVCWnd@@@Z		; CAspTextEdit::CAspTextEdit
PUBLIC	?DoDataExchange@CAspTextEdit@@MAEXPAVCDataExchange@@@Z ; CAspTextEdit::DoDataExchange
PUBLIC	?OnInitDialog@CAspTextEdit@@MAEHXZ		; CAspTextEdit::OnInitDialog
PUBLIC	?OnOK@CAspTextEdit@@MAEXXZ			; CAspTextEdit::OnOK
PUBLIC	?OnCancel@CAspTextEdit@@MAEXXZ			; CAspTextEdit::OnCancel
PUBLIC	?GetMessageMap@CAspTextEdit@@MBEPBUAFX_MSGMAP@@XZ ; CAspTextEdit::GetMessageMap
PUBLIC	??_7CAspTextEdit@@6B@				; CAspTextEdit::`vftable'
PUBLIC	??_GCAspTextEdit@@UAEPAXI@Z			; CAspTextEdit::`scalar deleting destructor'
PUBLIC	??_C@_11LOCGONAA@?$AA?$AA@			; `string'
PUBLIC	?__LINE__Var@?1???0CAspTextEdit@@QAE@PAVCWnd@@@Z@4JA ; `CAspTextEdit::CAspTextEdit'::`2'::__LINE__Var
PUBLIC	??0?$CStringT@GV?$StrTraitMFC@GV?$ChTraitsCRT@G@ATL@@@@@ATL@@QAE@XZ ; ATL::CStringT<unsigned short,StrTraitMFC<unsigned short,ATL::ChTraitsCRT<unsigned short> > >::CStringT<unsigned short,StrTraitMFC<unsigned short,ATL::ChTraitsCRT<unsigned short> > >
PUBLIC	??1?$CStringT@GV?$StrTraitMFC@GV?$ChTraitsCRT@G@ATL@@@@@ATL@@QAE@XZ ; ATL::CStringT<unsigned short,StrTraitMFC<unsigned short,ATL::ChTraitsCRT<unsigned short> > >::~CStringT<unsigned short,StrTraitMFC<unsigned short,ATL::ChTraitsCRT<unsigned short> > >
PUBLIC	??4?$CStringT@GV?$StrTraitMFC@GV?$ChTraitsCRT@G@ATL@@@@@ATL@@QAEAAV01@PBG@Z ; ATL::CStringT<unsigned short,StrTraitMFC<unsigned short,ATL::ChTraitsCRT<unsigned short> > >::operator=
PUBLIC	??0CWSpell@@QAE@XZ				; CWSpell::CWSpell
PUBLIC	??1CWSpell@@UAE@XZ				; CWSpell::~CWSpell
EXTRN	?GetRuntimeClass@CDialog@@UBEPAUCRuntimeClass@@XZ:NEAR ; CDialog::GetRuntimeClass
EXTRN	?Create@CDialog@@UAEHPBGPAVCWnd@@@Z:NEAR	; CDialog::Create
EXTRN	?Create@CDialog@@UAEHIPAVCWnd@@@Z:NEAR		; CDialog::Create
EXTRN	?CreateIndirect@CDialog@@UAEHPBUDLGTEMPLATE@@PAVCWnd@@PAX@Z:NEAR ; CDialog::CreateIndirect
EXTRN	?CreateIndirect@CDialog@@UAEHPAXPAVCWnd@@@Z:NEAR ; CDialog::CreateIndirect
EXTRN	?OnToolHitTest@CWnd@@UBEHVCPoint@@PAUtagTOOLINFOW@@@Z:NEAR ; CWnd::OnToolHitTest
EXTRN	??0CDialog@@QAE@IPAVCWnd@@@Z:NEAR		; CDialog::CDialog
EXTRN	?DoModal@CDialog@@UAEHXZ:NEAR			; CDialog::DoModal
EXTRN	?OnSetFont@CDialog@@UAEXPAVCFont@@@Z:NEAR	; CDialog::OnSetFont
EXTRN	??1CDialog@@UAE@XZ:NEAR				; CDialog::~CDialog
EXTRN	?AssertValid@CDialog@@UBEXXZ:NEAR		; CDialog::AssertValid
EXTRN	?Dump@CDialog@@UBEXAAVCDumpContext@@@Z:NEAR	; CDialog::Dump
EXTRN	?PreTranslateMessage@CDialog@@UAEHPAUtagMSG@@@Z:NEAR ; CDialog::PreTranslateMessage
EXTRN	?OnCmdMsg@CDialog@@UAEHIHPAXPAUAFX_CMDHANDLERINFO@@@Z:NEAR ; CDialog::OnCmdMsg
EXTRN	?CheckAutoCenter@CDialog@@UAEHXZ:NEAR		; CDialog::CheckAutoCenter
EXTRN	??2@YAPAXIPBDH@Z:NEAR				; operator new
EXTRN	?SetOccDialogInfo@CDialog@@MAEHPAU_AFX_OCC_DIALOG_INFO@@@Z:NEAR ; CDialog::SetOccDialogInfo
EXTRN	?PreInitDialog@CDialog@@MAEXXZ:NEAR		; CDialog::PreInitDialog
EXTRN	??3@YAXPAXPBDH@Z:NEAR				; operator delete
EXTRN	?GetScrollBarCtrl@CWnd@@UBEPAVCScrollBar@@H@Z:NEAR ; CWnd::GetScrollBarCtrl
EXTRN	__except_list:DWORD
EXTRN	___CxxFrameHandler:NEAR
EXTRN	??_ECAspTextEdit@@UAEPAXI@Z:NEAR		; CAspTextEdit::`vector deleting destructor'
EXTRN	?WinHelpW@CWnd@@UAEXKI@Z:NEAR			; CWnd::WinHelpW
EXTRN	?HtmlHelpW@CWnd@@UAEXKI@Z:NEAR			; CWnd::HtmlHelpW
EXTRN	?WinHelpInternal@CWnd@@UAEXKI@Z:NEAR		; CWnd::WinHelpInternal
EXTRN	?ContinueModal@CWnd@@UAEHXZ:NEAR		; CWnd::ContinueModal
EXTRN	?EndModalLoop@CWnd@@UAEXH@Z:NEAR		; CWnd::EndModalLoop
EXTRN	?GetInterfaceMap@CWnd@@MBEPBUAFX_INTERFACEMAP@@XZ:NEAR ; CWnd::GetInterfaceMap
EXTRN	?EnsureStdObj@CWnd@@UAEJXZ:NEAR			; CWnd::EnsureStdObj
EXTRN	?get_accParent@CWnd@@UAEJPAPAUIDispatch@@@Z:NEAR ; CWnd::get_accParent
EXTRN	?get_accChildCount@CWnd@@UAEJPAJ@Z:NEAR		; CWnd::get_accChildCount
EXTRN	?get_accChild@CWnd@@UAEJUtagVARIANT@@PAPAUIDispatch@@@Z:NEAR ; CWnd::get_accChild
EXTRN	?get_accName@CWnd@@UAEJUtagVARIANT@@PAPAG@Z:NEAR ; CWnd::get_accName
EXTRN	?get_accValue@CWnd@@UAEJUtagVARIANT@@PAPAG@Z:NEAR ; CWnd::get_accValue
EXTRN	?get_accDescription@CWnd@@UAEJUtagVARIANT@@PAPAG@Z:NEAR ; CWnd::get_accDescription
EXTRN	?IsInvokeAllowed@CCmdTarget@@UAEHJ@Z:NEAR	; CCmdTarget::IsInvokeAllowed
EXTRN	?get_accRole@CWnd@@UAEJUtagVARIANT@@PAU2@@Z:NEAR ; CWnd::get_accRole
EXTRN	?get_accState@CWnd@@UAEJUtagVARIANT@@PAU2@@Z:NEAR ; CWnd::get_accState
EXTRN	?get_accHelp@CWnd@@UAEJUtagVARIANT@@PAPAG@Z:NEAR ; CWnd::get_accHelp
EXTRN	?GetDispatchIID@CCmdTarget@@UAEHPAU_GUID@@@Z:NEAR ; CCmdTarget::GetDispatchIID
EXTRN	?GetTypeInfoCount@CCmdTarget@@UAEIXZ:NEAR	; CCmdTarget::GetTypeInfoCount
EXTRN	?GetTypeLibCache@CCmdTarget@@UAEPAVCTypeLibCache@@XZ:NEAR ; CCmdTarget::GetTypeLibCache
EXTRN	?get_accHelpTopic@CWnd@@UAEJPAPAGUtagVARIANT@@PAJ@Z:NEAR ; CWnd::get_accHelpTopic
EXTRN	?GetTypeLib@CCmdTarget@@UAEJKPAPAUITypeLib@@@Z:NEAR ; CCmdTarget::GetTypeLib
EXTRN	?get_accKeyboardShortcut@CWnd@@UAEJUtagVARIANT@@PAPAG@Z:NEAR ; CWnd::get_accKeyboardShortcut
EXTRN	?get_accFocus@CWnd@@UAEJPAUtagVARIANT@@@Z:NEAR	; CWnd::get_accFocus
EXTRN	?get_accSelection@CWnd@@UAEJPAUtagVARIANT@@@Z:NEAR ; CWnd::get_accSelection
EXTRN	?get_accDefaultAction@CWnd@@UAEJUtagVARIANT@@PAPAG@Z:NEAR ; CWnd::get_accDefaultAction
EXTRN	?accSelect@CWnd@@UAEJJUtagVARIANT@@@Z:NEAR	; CWnd::accSelect
EXTRN	?accLocation@CWnd@@UAEJPAJ000UtagVARIANT@@@Z:NEAR ; CWnd::accLocation
EXTRN	?GetCommandMap@CCmdTarget@@MBEPBUAFX_OLECMDMAP@@XZ:NEAR ; CCmdTarget::GetCommandMap
EXTRN	?accNavigate@CWnd@@UAEJJUtagVARIANT@@PAU2@@Z:NEAR ; CWnd::accNavigate
EXTRN	?accHitTest@CWnd@@UAEJJJPAUtagVARIANT@@@Z:NEAR	; CWnd::accHitTest
EXTRN	?accDoDefaultAction@CWnd@@UAEJUtagVARIANT@@@Z:NEAR ; CWnd::accDoDefaultAction
EXTRN	?GetDispatchMap@CCmdTarget@@MBEPBUAFX_DISPMAP@@XZ:NEAR ; CCmdTarget::GetDispatchMap
EXTRN	?put_accName@CWnd@@UAEJUtagVARIANT@@PAG@Z:NEAR	; CWnd::put_accName
EXTRN	?put_accValue@CWnd@@UAEJUtagVARIANT@@PAG@Z:NEAR	; CWnd::put_accValue
EXTRN	?GetConnectionMap@CCmdTarget@@MBEPBUAFX_CONNECTIONMAP@@XZ:NEAR ; CCmdTarget::GetConnectionMap
EXTRN	?SetProxy@CWnd@@UAEJPAUIAccessibleProxy@@@Z:NEAR ; CWnd::SetProxy
EXTRN	?CreateAccessibleProxy@CWnd@@UAEJIJPAJ@Z:NEAR	; CWnd::CreateAccessibleProxy
EXTRN	?GetEventSinkMap@CCmdTarget@@MBEPBUAFX_EVENTSINKMAP@@XZ:NEAR ; CCmdTarget::GetEventSinkMap
EXTRN	?OnCommand@CWnd@@MAEHIJ@Z:NEAR			; CWnd::OnCommand
EXTRN	?Serialize@CObject@@UAEXAAVCArchive@@@Z:NEAR	; CObject::Serialize
EXTRN	?OnNotify@CWnd@@MAEHIJPAJ@Z:NEAR		; CWnd::OnNotify
EXTRN	?OnCreateAggregates@CCmdTarget@@UAEHXZ:NEAR	; CCmdTarget::OnCreateAggregates
EXTRN	?GetInterfaceHook@CCmdTarget@@UAEPAUIUnknown@@PBX@Z:NEAR ; CCmdTarget::GetInterfaceHook
EXTRN	?GetExtraConnectionPoints@CCmdTarget@@MAEHPAVCPtrArray@@@Z:NEAR ; CCmdTarget::GetExtraConnectionPoints
EXTRN	?GetConnectionHook@CCmdTarget@@MAEPAUIConnectionPoint@@ABU_GUID@@@Z:NEAR ; CCmdTarget::GetConnectionHook
EXTRN	?PreSubclassWindow@CWnd@@UAEXXZ:NEAR		; CWnd::PreSubclassWindow
EXTRN	?Create@CWnd@@UAEHPBG0KABUtagRECT@@PAV1@IPAUCCreateContext@@@Z:NEAR ; CWnd::Create
EXTRN	?CreateEx@CWnd@@UAEHKPBG0KHHHHPAUHWND__@@PAUHMENU__@@PAX@Z:NEAR ; CWnd::CreateEx
EXTRN	?CreateEx@CWnd@@UAEHKPBG0KABUtagRECT@@PAV1@IPAX@Z:NEAR ; CWnd::CreateEx
EXTRN	?DestroyWindow@CWnd@@UAEHXZ:NEAR		; CWnd::DestroyWindow
EXTRN	?PreCreateWindow@CWnd@@UAEHAAUtagCREATESTRUCTW@@@Z:NEAR ; CWnd::PreCreateWindow
EXTRN	?CalcWindowRect@CWnd@@UAEXPAUtagRECT@@I@Z:NEAR	; CWnd::CalcWindowRect
EXTRN	?GetSuperWndProcAddr@CWnd@@MAEPAP6GJPAUHWND__@@IIJ@ZXZ:NEAR ; CWnd::GetSuperWndProcAddr
EXTRN	?BeginModalState@CWnd@@UAEXXZ:NEAR		; CWnd::BeginModalState
EXTRN	?EndModalState@CWnd@@UAEXXZ:NEAR		; CWnd::EndModalState
EXTRN	?OnAmbientProperty@CWnd@@UAEHPAVCOleControlSite@@JPAUtagVARIANT@@@Z:NEAR ; CWnd::OnAmbientProperty
EXTRN	?WindowProc@CWnd@@MAEJIIJ@Z:NEAR		; CWnd::WindowProc
EXTRN	?OnWndMsg@CWnd@@MAEHIIJPAJ@Z:NEAR		; CWnd::OnWndMsg
EXTRN	?DefWindowProcW@CWnd@@MAEJIIJ@Z:NEAR		; CWnd::DefWindowProcW
EXTRN	?PostNcDestroy@CWnd@@MAEXXZ:NEAR		; CWnd::PostNcDestroy
EXTRN	?OnChildNotify@CWnd@@MAEHIIJPAJ@Z:NEAR		; CWnd::OnChildNotify
EXTRN	?IsFrameWnd@CWnd@@UBEHXZ:NEAR			; CWnd::IsFrameWnd
EXTRN	?OnFinalRelease@CWnd@@UAEXXZ:NEAR		; CWnd::OnFinalRelease
EXTRN	?CreateControlContainer@CWnd@@MAEHPAPAVCOleControlContainer@@@Z:NEAR ; CWnd::CreateControlContainer
EXTRN	?CreateControlSite@CWnd@@MAEHPAVCOleControlContainer@@PAPAVCOleControlSite@@IABU_GUID@@@Z:NEAR ; CWnd::CreateControlSite
EXTRN	??0CDAspectText@@QAE@PAVCDaoDatabase@@@Z:NEAR	; CDAspectText::CDAspectText
;	COMDAT xdata$x
; File c:\astrow32dev\tbt32\asptextedit.cpp
xdata$x	SEGMENT
__unwindtable$??0CAspTextEdit@@QAE@PAVCWnd@@@Z DD 0ffffffffH
	DD	FLAT:__unwindfunclet$??0CAspTextEdit@@QAE@PAVCWnd@@@Z$0
	DD	00H
	DD	FLAT:__unwindfunclet$??0CAspTextEdit@@QAE@PAVCWnd@@@Z$1
	DD	01H
	DD	FLAT:__unwindfunclet$??0CAspTextEdit@@QAE@PAVCWnd@@@Z$2
	DD	02H
	DD	FLAT:__unwindfunclet$??0CAspTextEdit@@QAE@PAVCWnd@@@Z$3
	DD	03H
	DD	FLAT:__unwindfunclet$??0CAspTextEdit@@QAE@PAVCWnd@@@Z$4
	DD	04H
	DD	FLAT:__unwindfunclet$??0CAspTextEdit@@QAE@PAVCWnd@@@Z$5
	DD	05H
	DD	FLAT:__unwindfunclet$??0CAspTextEdit@@QAE@PAVCWnd@@@Z$6
	DD	06H
	DD	FLAT:__unwindfunclet$??0CAspTextEdit@@QAE@PAVCWnd@@@Z$7
	DD	07H
	DD	FLAT:__unwindfunclet$??0CAspTextEdit@@QAE@PAVCWnd@@@Z$8
__ehfuncinfo$??0CAspTextEdit@@QAE@PAVCWnd@@@Z DD 019930520H
	DD	09H
	DD	FLAT:__unwindtable$??0CAspTextEdit@@QAE@PAVCWnd@@@Z
	DD	2 DUP(00H)
	DD	2 DUP(00H)
xdata$x	ENDS
;	COMDAT ??_7CAspTextEdit@@6B@
CONST	SEGMENT
??_7CAspTextEdit@@6B@ DD FLAT:?GetRuntimeClass@CDialog@@UBEPAUCRuntimeClass@@XZ ; CAspTextEdit::`vftable'
	DD	FLAT:??_ECAspTextEdit@@UAEPAXI@Z
	DD	FLAT:?Serialize@CObject@@UAEXAAVCArchive@@@Z
	DD	FLAT:?AssertValid@CDialog@@UBEXXZ
	DD	FLAT:?Dump@CDialog@@UBEXAAVCDumpContext@@@Z
	DD	FLAT:?OnCmdMsg@CDialog@@UAEHIHPAXPAUAFX_CMDHANDLERINFO@@@Z
	DD	FLAT:?OnFinalRelease@CWnd@@UAEXXZ
	DD	FLAT:?IsInvokeAllowed@CCmdTarget@@UAEHJ@Z
	DD	FLAT:?GetDispatchIID@CCmdTarget@@UAEHPAU_GUID@@@Z
	DD	FLAT:?GetTypeInfoCount@CCmdTarget@@UAEIXZ
	DD	FLAT:?GetTypeLibCache@CCmdTarget@@UAEPAVCTypeLibCache@@XZ
	DD	FLAT:?GetTypeLib@CCmdTarget@@UAEJKPAPAUITypeLib@@@Z
	DD	FLAT:?GetMessageMap@CAspTextEdit@@MBEPBUAFX_MSGMAP@@XZ
	DD	FLAT:?GetCommandMap@CCmdTarget@@MBEPBUAFX_OLECMDMAP@@XZ
	DD	FLAT:?GetDispatchMap@CCmdTarget@@MBEPBUAFX_DISPMAP@@XZ
	DD	FLAT:?GetConnectionMap@CCmdTarget@@MBEPBUAFX_CONNECTIONMAP@@XZ
	DD	FLAT:?GetInterfaceMap@CWnd@@MBEPBUAFX_INTERFACEMAP@@XZ
	DD	FLAT:?GetEventSinkMap@CCmdTarget@@MBEPBUAFX_EVENTSINKMAP@@XZ
	DD	FLAT:?OnCreateAggregates@CCmdTarget@@UAEHXZ
	DD	FLAT:?GetInterfaceHook@CCmdTarget@@UAEPAUIUnknown@@PBX@Z
	DD	FLAT:?GetExtraConnectionPoints@CCmdTarget@@MAEHPAVCPtrArray@@@Z
	DD	FLAT:?GetConnectionHook@CCmdTarget@@MAEPAUIConnectionPoint@@ABU_GUID@@@Z
	DD	FLAT:?PreSubclassWindow@CWnd@@UAEXXZ
	DD	FLAT:?Create@CWnd@@UAEHPBG0KABUtagRECT@@PAV1@IPAUCCreateContext@@@Z
	DD	FLAT:?CreateEx@CWnd@@UAEHKPBG0KABUtagRECT@@PAV1@IPAX@Z
	DD	FLAT:?CreateEx@CWnd@@UAEHKPBG0KHHHHPAUHWND__@@PAUHMENU__@@PAX@Z
	DD	FLAT:?DestroyWindow@CWnd@@UAEHXZ
	DD	FLAT:?PreCreateWindow@CWnd@@UAEHAAUtagCREATESTRUCTW@@@Z
	DD	FLAT:?CalcWindowRect@CWnd@@UAEXPAUtagRECT@@I@Z
	DD	FLAT:?OnToolHitTest@CWnd@@UBEHVCPoint@@PAUtagTOOLINFOW@@@Z
	DD	FLAT:?GetScrollBarCtrl@CWnd@@UBEPAVCScrollBar@@H@Z
	DD	FLAT:?WinHelpW@CWnd@@UAEXKI@Z
	DD	FLAT:?HtmlHelpW@CWnd@@UAEXKI@Z
	DD	FLAT:?WinHelpInternal@CWnd@@UAEXKI@Z
	DD	FLAT:?ContinueModal@CWnd@@UAEHXZ
	DD	FLAT:?EndModalLoop@CWnd@@UAEXH@Z
	DD	FLAT:?EnsureStdObj@CWnd@@UAEJXZ
	DD	FLAT:?get_accParent@CWnd@@UAEJPAPAUIDispatch@@@Z
	DD	FLAT:?get_accChildCount@CWnd@@UAEJPAJ@Z
	DD	FLAT:?get_accChild@CWnd@@UAEJUtagVARIANT@@PAPAUIDispatch@@@Z
	DD	FLAT:?get_accName@CWnd@@UAEJUtagVARIANT@@PAPAG@Z
	DD	FLAT:?get_accValue@CWnd@@UAEJUtagVARIANT@@PAPAG@Z
	DD	FLAT:?get_accDescription@CWnd@@UAEJUtagVARIANT@@PAPAG@Z
	DD	FLAT:?get_accRole@CWnd@@UAEJUtagVARIANT@@PAU2@@Z
	DD	FLAT:?get_accState@CWnd@@UAEJUtagVARIANT@@PAU2@@Z
	DD	FLAT:?get_accHelp@CWnd@@UAEJUtagVARIANT@@PAPAG@Z
	DD	FLAT:?get_accHelpTopic@CWnd@@UAEJPAPAGUtagVARIANT@@PAJ@Z
	DD	FLAT:?get_accKeyboardShortcut@CWnd@@UAEJUtagVARIANT@@PAPAG@Z
	DD	FLAT:?get_accFocus@CWnd@@UAEJPAUtagVARIANT@@@Z
	DD	FLAT:?get_accSelection@CWnd@@UAEJPAUtagVARIANT@@@Z
	DD	FLAT:?get_accDefaultAction@CWnd@@UAEJUtagVARIANT@@PAPAG@Z
	DD	FLAT:?accSelect@CWnd@@UAEJJUtagVARIANT@@@Z
	DD	FLAT:?accLocation@CWnd@@UAEJPAJ000UtagVARIANT@@@Z
	DD	FLAT:?accNavigate@CWnd@@UAEJJUtagVARIANT@@PAU2@@Z
	DD	FLAT:?accHitTest@CWnd@@UAEJJJPAUtagVARIANT@@@Z
	DD	FLAT:?accDoDefaultAction@CWnd@@UAEJUtagVARIANT@@@Z
	DD	FLAT:?put_accName@CWnd@@UAEJUtagVARIANT@@PAG@Z
	DD	FLAT:?put_accValue@CWnd@@UAEJUtagVARIANT@@PAG@Z
	DD	FLAT:?SetProxy@CWnd@@UAEJPAUIAccessibleProxy@@@Z
	DD	FLAT:?CreateAccessibleProxy@CWnd@@UAEJIJPAJ@Z
	DD	FLAT:?OnCommand@CWnd@@MAEHIJ@Z
	DD	FLAT:?OnNotify@CWnd@@MAEHIJPAJ@Z
	DD	FLAT:?GetSuperWndProcAddr@CWnd@@MAEPAP6GJPAUHWND__@@IIJ@ZXZ
	DD	FLAT:?DoDataExchange@CAspTextEdit@@MAEXPAVCDataExchange@@@Z
	DD	FLAT:?BeginModalState@CWnd@@UAEXXZ
	DD	FLAT:?EndModalState@CWnd@@UAEXXZ
	DD	FLAT:?PreTranslateMessage@CDialog@@UAEHPAUtagMSG@@@Z
	DD	FLAT:?OnAmbientProperty@CWnd@@UAEHPAVCOleControlSite@@JPAUtagVARIANT@@@Z
	DD	FLAT:?WindowProc@CWnd@@MAEJIIJ@Z
	DD	FLAT:?OnWndMsg@CWnd@@MAEHIIJPAJ@Z
	DD	FLAT:?DefWindowProcW@CWnd@@MAEJIIJ@Z
	DD	FLAT:?PostNcDestroy@CWnd@@MAEXXZ
	DD	FLAT:?OnChildNotify@CWnd@@MAEHIIJPAJ@Z
	DD	FLAT:?CheckAutoCenter@CDialog@@UAEHXZ
	DD	FLAT:?IsFrameWnd@CWnd@@UBEHXZ
	DD	FLAT:?CreateControlContainer@CWnd@@MAEHPAPAVCOleControlContainer@@@Z
	DD	FLAT:?CreateControlSite@CWnd@@MAEHPAVCOleControlContainer@@PAPAVCOleControlSite@@IABU_GUID@@@Z
	DD	FLAT:?SetOccDialogInfo@CDialog@@MAEHPAU_AFX_OCC_DIALOG_INFO@@@Z
	DD	FLAT:?Create@CDialog@@UAEHIPAVCWnd@@@Z
	DD	FLAT:?Create@CDialog@@UAEHPBGPAVCWnd@@@Z
	DD	FLAT:?CreateIndirect@CDialog@@UAEHPAXPAVCWnd@@@Z
	DD	FLAT:?CreateIndirect@CDialog@@UAEHPBUDLGTEMPLATE@@PAVCWnd@@PAX@Z
	DD	FLAT:?DoModal@CDialog@@UAEHXZ
	DD	FLAT:?OnInitDialog@CAspTextEdit@@MAEHXZ
	DD	FLAT:?OnSetFont@CDialog@@UAEXPAVCFont@@@Z
	DD	FLAT:?OnOK@CAspTextEdit@@MAEXXZ
	DD	FLAT:?OnCancel@CAspTextEdit@@MAEXXZ
	DD	FLAT:?PreInitDialog@CDialog@@MAEXXZ
CONST	ENDS
;	COMDAT ??_C@_11LOCGONAA@?$AA?$AA@
CONST	SEGMENT
??_C@_11LOCGONAA@?$AA?$AA@ DB 00H, 00H			; `string'
CONST	ENDS
;	COMDAT ?__LINE__Var@?1???0CAspTextEdit@@QAE@PAVCWnd@@@Z@4JA
_DATA	SEGMENT
?__LINE__Var@?1???0CAspTextEdit@@QAE@PAVCWnd@@@Z@4JA DD 017H ; `CAspTextEdit::CAspTextEdit'::`2'::__LINE__Var
; Function compile flags: /Odt /RTCcsu /ZI
_DATA	ENDS
;	COMDAT ??0CAspTextEdit@@QAE@PAVCWnd@@@Z
_TEXT	SEGMENT
tv172 = -244						; size = 4
$T94348 = -236						; size = 4
$T94349 = -224						; size = 4
_this$ = -20						; size = 4
__$EHRec$ = -12						; size = 12
_pParent$ = 8						; size = 4
??0CAspTextEdit@@QAE@PAVCWnd@@@Z PROC NEAR		; CAspTextEdit::CAspTextEdit, COMDAT
; _this$ = ecx

; 24   : {

	push	ebp
	mov	ebp, esp
	push	-1
	push	__ehhandler$??0CAspTextEdit@@QAE@PAVCWnd@@@Z
	mov	eax, DWORD PTR fs:__except_list
	push	eax
	mov	DWORD PTR fs:__except_list, esp
	sub	esp, 232				; 000000e8H
	push	ebx
	push	esi
	push	edi
	push	ecx
	lea	edi, DWORD PTR [ebp-244]
	mov	ecx, 58					; 0000003aH
	mov	eax, -858993460				; ccccccccH
	rep stosd
	pop	ecx
	mov	DWORD PTR _this$[ebp], ecx
	mov	eax, DWORD PTR _pParent$[ebp]
	push	eax
	push	135					; 00000087H
	mov	ecx, DWORD PTR _this$[ebp]
	call	??0CDialog@@QAE@IPAVCWnd@@@Z		; CDialog::CDialog
	mov	DWORD PTR __$EHRec$[ebp+8], 0
	mov	eax, DWORD PTR _this$[ebp]
	mov	DWORD PTR [eax], OFFSET FLAT:??_7CAspTextEdit@@6B@
	mov	ecx, DWORD PTR _this$[ebp]
	add	ecx, 112				; 00000070H
	call	??0?$CStringT@GV?$StrTraitMFC@GV?$ChTraitsCRT@G@ATL@@@@@ATL@@QAE@XZ ; ATL::CStringT<unsigned short,StrTraitMFC<unsigned short,ATL::ChTraitsCRT<unsigned short> > >::CStringT<unsigned short,StrTraitMFC<unsigned short,ATL::ChTraitsCRT<unsigned short> > >
	mov	BYTE PTR __$EHRec$[ebp+8], 1
	mov	ecx, DWORD PTR _this$[ebp]
	add	ecx, 128				; 00000080H
	call	??0CWSpell@@QAE@XZ
	mov	BYTE PTR __$EHRec$[ebp+8], 2
	mov	ecx, DWORD PTR _this$[ebp]
	add	ecx, 208				; 000000d0H
	call	??0?$CStringT@GV?$StrTraitMFC@GV?$ChTraitsCRT@G@ATL@@@@@ATL@@QAE@XZ ; ATL::CStringT<unsigned short,StrTraitMFC<unsigned short,ATL::ChTraitsCRT<unsigned short> > >::CStringT<unsigned short,StrTraitMFC<unsigned short,ATL::ChTraitsCRT<unsigned short> > >
	mov	BYTE PTR __$EHRec$[ebp+8], 3
	mov	ecx, DWORD PTR _this$[ebp]
	add	ecx, 212				; 000000d4H
	call	??0?$CStringT@GV?$StrTraitMFC@GV?$ChTraitsCRT@G@ATL@@@@@ATL@@QAE@XZ ; ATL::CStringT<unsigned short,StrTraitMFC<unsigned short,ATL::ChTraitsCRT<unsigned short> > >::CStringT<unsigned short,StrTraitMFC<unsigned short,ATL::ChTraitsCRT<unsigned short> > >
	mov	BYTE PTR __$EHRec$[ebp+8], 4
	mov	ecx, DWORD PTR _this$[ebp]
	add	ecx, 216				; 000000d8H
	call	??0?$CStringT@GV?$StrTraitMFC@GV?$ChTraitsCRT@G@ATL@@@@@ATL@@QAE@XZ ; ATL::CStringT<unsigned short,StrTraitMFC<unsigned short,ATL::ChTraitsCRT<unsigned short> > >::CStringT<unsigned short,StrTraitMFC<unsigned short,ATL::ChTraitsCRT<unsigned short> > >
	mov	BYTE PTR __$EHRec$[ebp+8], 5
	mov	ecx, DWORD PTR _this$[ebp]
	add	ecx, 220				; 000000dcH
	call	??0?$CStringT@GV?$StrTraitMFC@GV?$ChTraitsCRT@G@ATL@@@@@ATL@@QAE@XZ ; ATL::CStringT<unsigned short,StrTraitMFC<unsigned short,ATL::ChTraitsCRT<unsigned short> > >::CStringT<unsigned short,StrTraitMFC<unsigned short,ATL::ChTraitsCRT<unsigned short> > >
	mov	BYTE PTR __$EHRec$[ebp+8], 6
	push	0
	mov	ecx, DWORD PTR _this$[ebp]
	add	ecx, 228				; 000000e4H
	call	??0CDAspectText@@QAE@PAVCDaoDatabase@@@Z ; CDAspectText::CDAspectText
	mov	BYTE PTR __$EHRec$[ebp+8], 7

; 25   : 	//{{AFX_DATA_INIT(CAspTextEdit)
; 26   : 	m_Text = _T("");

	push	OFFSET FLAT:??_C@_11LOCGONAA@?$AA?$AA@
	mov	ecx, DWORD PTR _this$[ebp]
	add	ecx, 112				; 00000070H
	call	??4?$CStringT@GV?$StrTraitMFC@GV?$ChTraitsCRT@G@ATL@@@@@ATL@@QAEAAV01@PBG@Z ; ATL::CStringT<unsigned short,StrTraitMFC<unsigned short,ATL::ChTraitsCRT<unsigned short> > >::operator=

; 27   : 	m_Aspect = -1;

	mov	eax, DWORD PTR _this$[ebp]
	mov	DWORD PTR [eax+116], -1

; 28   : 	m_Plan1 = -1;

	mov	eax, DWORD PTR _this$[ebp]
	mov	DWORD PTR [eax+120], -1

; 29   : 	m_Plan2 = -1;

	mov	eax, DWORD PTR _this$[ebp]
	mov	DWORD PTR [eax+124], -1

; 30   : 	//}}AFX_DATA_INIT
; 31   :    pFuncs = new RTFFuncs(this);

	mov	eax, DWORD PTR ?__LINE__Var@?1???0CAspTextEdit@@QAE@PAVCWnd@@@Z@4JA
	add	eax, 8
	push	eax
	push	OFFSET FLAT:_THIS_FILE
	push	16					; 00000010H
	call	??2@YAPAXIPBDH@Z			; operator new
	add	esp, 12					; 0000000cH
	mov	DWORD PTR $T94349[ebp], eax
	mov	BYTE PTR __$EHRec$[ebp+8], 8
	cmp	DWORD PTR $T94349[ebp], 0
	je	SHORT $L94350
	mov	ecx, DWORD PTR _this$[ebp]
	push	ecx
	mov	ecx, DWORD PTR $T94349[ebp]
	call	??0RTFFuncs@@QAE@PAVCDialog@@@Z		; RTFFuncs::RTFFuncs
	mov	DWORD PTR tv172[ebp], eax
	jmp	SHORT $L94351
$L94350:
	mov	DWORD PTR tv172[ebp], 0
$L94351:
	mov	edx, DWORD PTR tv172[ebp]
	mov	DWORD PTR $T94348[ebp], edx
	mov	BYTE PTR __$EHRec$[ebp+8], 7
	mov	eax, DWORD PTR _this$[ebp]
	mov	ecx, DWORD PTR $T94348[ebp]
	mov	DWORD PTR [eax+412], ecx

; 32   : }

	mov	DWORD PTR __$EHRec$[ebp+8], -1
	mov	eax, DWORD PTR _this$[ebp]
	mov	ecx, DWORD PTR __$EHRec$[ebp]
	mov	DWORD PTR fs:__except_list, ecx
	pop	edi
	pop	esi
	pop	ebx
	add	esp, 244				; 000000f4H
	cmp	ebp, esp
	call	__RTC_CheckEsp
	mov	esp, ebp
	pop	ebp
	ret	4
_TEXT	ENDS
;	COMDAT text$x
text$x	SEGMENT
__unwindfunclet$??0CAspTextEdit@@QAE@PAVCWnd@@@Z$0:
	mov	ecx, DWORD PTR _this$[ebp]
	jmp	??1CDialog@@UAE@XZ			; CDialog::~CDialog
__unwindfunclet$??0CAspTextEdit@@QAE@PAVCWnd@@@Z$1:
	mov	ecx, DWORD PTR _this$[ebp]
	add	ecx, 112				; 00000070H
	jmp	??1?$CStringT@GV?$StrTraitMFC@GV?$ChTraitsCRT@G@ATL@@@@@ATL@@QAE@XZ ; ATL::CStringT<unsigned short,StrTraitMFC<unsigned short,ATL::ChTraitsCRT<unsigned short> > >::~CStringT<unsigned short,StrTraitMFC<unsigned short,ATL::ChTraitsCRT<unsigned short> > >
__unwindfunclet$??0CAspTextEdit@@QAE@PAVCWnd@@@Z$2:
	mov	ecx, DWORD PTR _this$[ebp]
	add	ecx, 128				; 00000080H
	jmp	??1CWSpell@@UAE@XZ
__unwindfunclet$??0CAspTextEdit@@QAE@PAVCWnd@@@Z$3:
	mov	ecx, DWORD PTR _this$[ebp]
	add	ecx, 208				; 000000d0H
	jmp	??1?$CStringT@GV?$StrTraitMFC@GV?$ChTraitsCRT@G@ATL@@@@@ATL@@QAE@XZ ; ATL::CStringT<unsigned short,StrTraitMFC<unsigned short,ATL::ChTraitsCRT<unsigned short> > >::~CStringT<unsigned short,StrTraitMFC<unsigned short,ATL::ChTraitsCRT<unsigned short> > >
__unwindfunclet$??0CAspTextEdit@@QAE@PAVCWnd@@@Z$4:
	mov	ecx, DWORD PTR _this$[ebp]
	add	ecx, 212				; 000000d4H
	jmp	??1?$CStringT@GV?$StrTraitMFC@GV?$ChTraitsCRT@G@ATL@@@@@ATL@@QAE@XZ ; ATL::CStringT<unsigned short,StrTraitMFC<unsigned short,ATL::ChTraitsCRT<unsigned short> > >::~CStringT<unsigned short,StrTraitMFC<unsigned short,ATL::ChTraitsCRT<unsigned short> > >
__unwindfunclet$??0CAspTextEdit@@QAE@PAVCWnd@@@Z$5:
	mov	ecx, DWORD PTR _this$[ebp]
	add	ecx, 216				; 000000d8H
	jmp	??1?$CStringT@GV?$StrTraitMFC@GV?$ChTraitsCRT@G@ATL@@@@@ATL@@QAE@XZ ; ATL::CStringT<unsigned short,StrTraitMFC<unsigned short,ATL::ChTraitsCRT<unsigned short> > >::~CStringT<unsigned short,StrTraitMFC<unsigned short,ATL::ChTraitsCRT<unsigned short> > >
__unwindfunclet$??0CAspTextEdit@@QAE@PAVCWnd@@@Z$6:
	mov	ecx, DWORD PTR _this$[ebp]
	add	ecx, 220				; 000000dcH
	jmp	??1?$CStringT@GV?$StrTraitMFC@GV?$ChTraitsCRT@G@ATL@@@@@ATL@@QAE@XZ ; ATL::CStringT<unsigned short,StrTraitMFC<unsigned short,ATL::ChTraitsCRT<unsigned short> > >::~CStringT<unsigned short,StrTraitMFC<unsigned short,ATL::ChTraitsCRT<unsigned short> > >
__unwindfunclet$??0CAspTextEdit@@QAE@PAVCWnd@@@Z$7:
	mov	ecx, DWORD PTR _this$[ebp]
	add	ecx, 228				; 000000e4H
	jmp	??1CDAspectText@@UAE@XZ
__unwindfunclet$??0CAspTextEdit@@QAE@PAVCWnd@@@Z$8:
	mov	eax, DWORD PTR ?__LINE__Var@?1???0CAspTextEdit@@QAE@PAVCWnd@@@Z@4JA
	add	eax, 8
	push	eax
	push	OFFSET FLAT:_THIS_FILE
	mov	ecx, DWORD PTR $T94349[ebp]
	push	ecx
	call	??3@YAXPAXPBDH@Z			; operator delete
	add	esp, 12					; 0000000cH
	ret	0
__ehhandler$??0CAspTextEdit@@QAE@PAVCWnd@@@Z:
	mov	eax, OFFSET FLAT:__ehfuncinfo$??0CAspTextEdit@@QAE@PAVCWnd@@@Z
	jmp	___CxxFrameHandler
text$x	ENDS
??0CAspTextEdit@@QAE@PAVCWnd@@@Z ENDP			; CAspTextEdit::CAspTextEdit
PUBLIC	??_7RTFFuncs@@6B@				; RTFFuncs::`vftable'
PUBLIC	??_GRTFFuncs@@UAEPAXI@Z				; RTFFuncs::`scalar deleting destructor'
EXTRN	??_ERTFFuncs@@UAEPAXI@Z:NEAR			; RTFFuncs::`vector deleting destructor'
;	COMDAT ??_7RTFFuncs@@6B@
; File c:\astrow32dev\tbt32\rtffuncs.h
CONST	SEGMENT
??_7RTFFuncs@@6B@ DD FLAT:??_ERTFFuncs@@UAEPAXI@Z	; RTFFuncs::`vftable'
; Function compile flags: /Odt /RTCcsu /ZI
CONST	ENDS
;	COMDAT ??0RTFFuncs@@QAE@PAVCDialog@@@Z
_TEXT	SEGMENT
_this$ = -8						; size = 4
_pDlg$ = 8						; size = 4
??0RTFFuncs@@QAE@PAVCDialog@@@Z PROC NEAR		; RTFFuncs::RTFFuncs, COMDAT
; _this$ = ecx

; 21   :    RTFFuncs(CDialog *pDlg) { pDialog=pDlg; }

	push	ebp
	mov	ebp, esp
	sub	esp, 204				; 000000ccH
	push	ebx
	push	esi
	push	edi
	push	ecx
	lea	edi, DWORD PTR [ebp-204]
	mov	ecx, 51					; 00000033H
	mov	eax, -858993460				; ccccccccH
	rep stosd
	pop	ecx
	mov	DWORD PTR _this$[ebp], ecx
	mov	eax, DWORD PTR _this$[ebp]
	mov	DWORD PTR [eax], OFFSET FLAT:??_7RTFFuncs@@6B@
	mov	ecx, DWORD PTR _this$[ebp]
	add	ecx, 4
	call	??0?$CStringT@GV?$StrTraitMFC@GV?$ChTraitsCRT@G@ATL@@@@@ATL@@QAE@XZ ; ATL::CStringT<unsigned short,StrTraitMFC<unsigned short,ATL::ChTraitsCRT<unsigned short> > >::CStringT<unsigned short,StrTraitMFC<unsigned short,ATL::ChTraitsCRT<unsigned short> > >
	mov	ecx, DWORD PTR _this$[ebp]
	add	ecx, 8
	call	??0?$CStringT@GV?$StrTraitMFC@GV?$ChTraitsCRT@G@ATL@@@@@ATL@@QAE@XZ ; ATL::CStringT<unsigned short,StrTraitMFC<unsigned short,ATL::ChTraitsCRT<unsigned short> > >::CStringT<unsigned short,StrTraitMFC<unsigned short,ATL::ChTraitsCRT<unsigned short> > >
	mov	eax, DWORD PTR _this$[ebp]
	mov	ecx, DWORD PTR _pDlg$[ebp]
	mov	DWORD PTR [eax+12], ecx
	mov	eax, DWORD PTR _this$[ebp]
	pop	edi
	pop	esi
	pop	ebx
	add	esp, 204				; 000000ccH
	cmp	ebp, esp
	call	__RTC_CheckEsp
	mov	esp, ebp
	pop	ebp
	ret	4
??0RTFFuncs@@QAE@PAVCDialog@@@Z ENDP			; RTFFuncs::RTFFuncs
_TEXT	ENDS
PUBLIC	??1RTFFuncs@@UAE@XZ				; RTFFuncs::~RTFFuncs
; Function compile flags: /Odt /RTCcsu /ZI
;	COMDAT ??_GRTFFuncs@@UAEPAXI@Z
_TEXT	SEGMENT
_this$ = -8						; size = 4
___flags$ = 8						; size = 4
??_GRTFFuncs@@UAEPAXI@Z PROC NEAR			; RTFFuncs::`scalar deleting destructor', COMDAT
; _this$ = ecx
	push	ebp
	mov	ebp, esp
	sub	esp, 204				; 000000ccH
	push	ebx
	push	esi
	push	edi
	push	ecx
	lea	edi, DWORD PTR [ebp-204]
	mov	ecx, 51					; 00000033H
	mov	eax, -858993460				; ccccccccH
	rep stosd
	pop	ecx
	mov	DWORD PTR _this$[ebp], ecx
	mov	ecx, DWORD PTR _this$[ebp]
	call	??1RTFFuncs@@UAE@XZ			; RTFFuncs::~RTFFuncs
	mov	eax, DWORD PTR ___flags$[ebp]
	and	eax, 1
	je	SHORT $L93286
	mov	eax, DWORD PTR _this$[ebp]
	push	eax
	call	??3@YAXPAX@Z				; operator delete
	add	esp, 4
$L93286:
	mov	eax, DWORD PTR _this$[ebp]
	pop	edi
	pop	esi
	pop	ebx
	add	esp, 204				; 000000ccH
	cmp	ebp, esp
	call	__RTC_CheckEsp
	mov	esp, ebp
	pop	ebp
	ret	4
??_GRTFFuncs@@UAEPAXI@Z ENDP				; RTFFuncs::`scalar deleting destructor'
; Function compile flags: /Odt /RTCcsu /ZI
_TEXT	ENDS
;	COMDAT ??1RTFFuncs@@UAE@XZ
_TEXT	SEGMENT
_this$ = -8						; size = 4
??1RTFFuncs@@UAE@XZ PROC NEAR				; RTFFuncs::~RTFFuncs, COMDAT
; _this$ = ecx

; 39   :    virtual ~RTFFuncs() {}

	push	ebp
	mov	ebp, esp
	sub	esp, 204				; 000000ccH
	push	ebx
	push	esi
	push	edi
	push	ecx
	lea	edi, DWORD PTR [ebp-204]
	mov	ecx, 51					; 00000033H
	mov	eax, -858993460				; ccccccccH
	rep stosd
	pop	ecx
	mov	DWORD PTR _this$[ebp], ecx
	mov	eax, DWORD PTR _this$[ebp]
	mov	DWORD PTR [eax], OFFSET FLAT:??_7RTFFuncs@@6B@
	mov	ecx, DWORD PTR _this$[ebp]
	add	ecx, 8
	call	??1?$CStringT@GV?$StrTraitMFC@GV?$ChTraitsCRT@G@ATL@@@@@ATL@@QAE@XZ ; ATL::CStringT<unsigned short,StrTraitMFC<unsigned short,ATL::ChTraitsCRT<unsigned short> > >::~CStringT<unsigned short,StrTraitMFC<unsigned short,ATL::ChTraitsCRT<unsigned short> > >
	mov	ecx, DWORD PTR _this$[ebp]
	add	ecx, 4
	call	??1?$CStringT@GV?$StrTraitMFC@GV?$ChTraitsCRT@G@ATL@@@@@ATL@@QAE@XZ ; ATL::CStringT<unsigned short,StrTraitMFC<unsigned short,ATL::ChTraitsCRT<unsigned short> > >::~CStringT<unsigned short,StrTraitMFC<unsigned short,ATL::ChTraitsCRT<unsigned short> > >
	pop	edi
	pop	esi
	pop	ebx
	add	esp, 204				; 000000ccH
	cmp	ebp, esp
	call	__RTC_CheckEsp
	mov	esp, ebp
	pop	ebp
	ret	0
??1RTFFuncs@@UAE@XZ ENDP				; RTFFuncs::~RTFFuncs
_TEXT	ENDS
PUBLIC	??1CAspTextEdit@@UAE@XZ				; CAspTextEdit::~CAspTextEdit
EXTRN	??3CObject@@SGXPAX@Z:NEAR			; CObject::operator delete
; Function compile flags: /Odt /RTCcsu /ZI
;	COMDAT ??_GCAspTextEdit@@UAEPAXI@Z
_TEXT	SEGMENT
_this$ = -8						; size = 4
___flags$ = 8						; size = 4
??_GCAspTextEdit@@UAEPAXI@Z PROC NEAR			; CAspTextEdit::`scalar deleting destructor', COMDAT
; _this$ = ecx
	push	ebp
	mov	ebp, esp
	sub	esp, 204				; 000000ccH
	push	ebx
	push	esi
	push	edi
	push	ecx
	lea	edi, DWORD PTR [ebp-204]
	mov	ecx, 51					; 00000033H
	mov	eax, -858993460				; ccccccccH
	rep stosd
	pop	ecx
	mov	DWORD PTR _this$[ebp], ecx
	mov	ecx, DWORD PTR _this$[ebp]
	call	??1CAspTextEdit@@UAE@XZ
	mov	eax, DWORD PTR ___flags$[ebp]
	and	eax, 1
	je	SHORT $L93751
	mov	eax, DWORD PTR _this$[ebp]
	push	eax
	call	??3CObject@@SGXPAX@Z			; CObject::operator delete
$L93751:
	mov	eax, DWORD PTR _this$[ebp]
	pop	edi
	pop	esi
	pop	ebx
	add	esp, 204				; 000000ccH
	cmp	ebp, esp
	call	__RTC_CheckEsp
	mov	esp, ebp
	pop	ebp
	ret	4
??_GCAspTextEdit@@UAEPAXI@Z ENDP			; CAspTextEdit::`scalar deleting destructor'
_TEXT	ENDS
PUBLIC	?InterlockedExchangePointer@@YGPAXPAPAXPAX@Z	; InterlockedExchangePointer
PUBLIC	?_AtlGetThreadACPFake@ATL@@YGIXZ		; ATL::_AtlGetThreadACPFake
PUBLIC	?_AtlGetThreadACPReal@ATL@@YGIXZ		; ATL::_AtlGetThreadACPReal
EXTRN	___security_cookie:DWORD
EXTRN	@_RTC_CheckStackVars@8:NEAR
EXTRN	@__security_check_cookie@4:NEAR
EXTRN	__imp__GetVersionExW@4:NEAR
; Function compile flags: /Odt /RTCcsu /ZI
; File c:\program files\microsoft visual studio .net 2003\vc7\atlmfc\include\atlconv.h
;	COMDAT ?_AtlGetThreadACPThunk@ATL@@YGIXZ
_TEXT	SEGMENT
_pfnGetThreadACP$ = -296				; size = 4
_ver$ = -284						; size = 276
__$ArrayPad$ = -4					; size = 4
__$ReturnAddr$ = 4					; size = 4
?_AtlGetThreadACPThunk@ATL@@YGIXZ PROC NEAR		; ATL::_AtlGetThreadACPThunk, COMDAT

; 134  : {

	push	ebp
	mov	ebp, esp
	sub	esp, 492				; 000001ecH
	push	ebx
	push	esi
	push	edi
	lea	edi, DWORD PTR [ebp-492]
	mov	ecx, 123				; 0000007bH
	mov	eax, -858993460				; ccccccccH
	rep stosd
	mov	eax, DWORD PTR ___security_cookie
	mov	DWORD PTR __$ArrayPad$[ebp], eax

; 135  : 	OSVERSIONINFO ver;
; 136  : 	ATLGETTHREADACP pfnGetThreadACP;
; 137  : 
; 138  : 	ver.dwOSVersionInfoSize = sizeof( ver );

	mov	DWORD PTR _ver$[ebp], 276		; 00000114H

; 139  : 	::GetVersionEx( &ver );

	mov	esi, esp
	lea	eax, DWORD PTR _ver$[ebp]
	push	eax
	call	DWORD PTR __imp__GetVersionExW@4
	cmp	esi, esp
	call	__RTC_CheckEsp

; 140  : 	if( (ver.dwPlatformId == VER_PLATFORM_WIN32_NT) && (ver.dwMajorVersion >= 5) )

	cmp	DWORD PTR _ver$[ebp+16], 2
	jne	SHORT $L24087
	cmp	DWORD PTR _ver$[ebp+4], 5
	jb	SHORT $L24087

; 141  : 	{
; 142  : 		// On Win2K, CP_THREAD_ACP is supported
; 143  : 		pfnGetThreadACP = _AtlGetThreadACPReal;

	mov	DWORD PTR _pfnGetThreadACP$[ebp], OFFSET FLAT:?_AtlGetThreadACPReal@ATL@@YGIXZ ; ATL::_AtlGetThreadACPReal

; 144  : 	}
; 145  : 	else

	jmp	SHORT $L24088
$L24087:

; 146  : 	{
; 147  : 		pfnGetThreadACP = _AtlGetThreadACPFake;

	mov	DWORD PTR _pfnGetThreadACP$[ebp], OFFSET FLAT:?_AtlGetThreadACPFake@ATL@@YGIXZ ; ATL::_AtlGetThreadACPFake
$L24088:

; 148  : 	}
; 149  : 	InterlockedExchangePointer( reinterpret_cast< void** >(&g_pfnGetThreadACP), pfnGetThreadACP );

	mov	eax, DWORD PTR _pfnGetThreadACP$[ebp]
	push	eax
	push	OFFSET FLAT:?g_pfnGetThreadACP@ATL@@3P6GIXZA ; ATL::g_pfnGetThreadACP
	call	?InterlockedExchangePointer@@YGPAXPAPAXPAX@Z ; InterlockedExchangePointer

; 150  : 
; 151  : 	return( g_pfnGetThreadACP() );

	mov	esi, esp
	call	DWORD PTR ?g_pfnGetThreadACP@ATL@@3P6GIXZA ; ATL::g_pfnGetThreadACP
	cmp	esi, esp
	call	__RTC_CheckEsp

; 152  : }

	push	edx
	mov	ecx, ebp
	push	eax
	lea	edx, DWORD PTR $L94390
	call	@_RTC_CheckStackVars@8
	pop	eax
	pop	edx
	mov	ecx, DWORD PTR __$ArrayPad$[ebp]
	call	@__security_check_cookie@4
	pop	edi
	pop	esi
	pop	ebx
	add	esp, 492				; 000001ecH
	cmp	ebp, esp
	call	__RTC_CheckEsp
	mov	esp, ebp
	pop	ebp
	ret	0
$L94390:
	DD	1
	DD	$L94389
$L94389:
	DD	-284					; fffffee4H
	DD	276					; 00000114H
	DD	$L94386
$L94386:
	DB	118					; 00000076H
	DB	101					; 00000065H
	DB	114					; 00000072H
	DB	0
?_AtlGetThreadACPThunk@ATL@@YGIXZ ENDP			; ATL::_AtlGetThreadACPThunk
_TEXT	ENDS
EXTRN	__imp__InterlockedExchange@8:NEAR
; Function compile flags: /Odt /RTCcsu /ZI
;	COMDAT ?InterlockedExchangePointer@@YGPAXPAPAXPAX@Z
_TEXT	SEGMENT
_pp$ = 8						; size = 4
_pNew$ = 12						; size = 4
?InterlockedExchangePointer@@YGPAXPAPAXPAX@Z PROC NEAR	; InterlockedExchangePointer, COMDAT

; 91   : {

	push	ebp
	mov	ebp, esp
	sub	esp, 192				; 000000c0H
	push	ebx
	push	esi
	push	edi
	lea	edi, DWORD PTR [ebp-192]
	mov	ecx, 48					; 00000030H
	mov	eax, -858993460				; ccccccccH
	rep stosd

; 92   : 	return( reinterpret_cast<void*>(static_cast<LONG_PTR>(::InterlockedExchange(reinterpret_cast<LONG*>(pp), static_cast<LONG>(reinterpret_cast<LONG_PTR>(pNew))))) );

	mov	esi, esp
	mov	eax, DWORD PTR _pNew$[ebp]
	push	eax
	mov	ecx, DWORD PTR _pp$[ebp]
	push	ecx
	call	DWORD PTR __imp__InterlockedExchange@8
	cmp	esi, esp
	call	__RTC_CheckEsp

; 93   : }

	pop	edi
	pop	esi
	pop	ebx
	add	esp, 192				; 000000c0H
	cmp	ebp, esp
	call	__RTC_CheckEsp
	mov	esp, ebp
	pop	ebp
	ret	8
?InterlockedExchangePointer@@YGPAXPAPAXPAX@Z ENDP	; InterlockedExchangePointer
_TEXT	ENDS
EXTRN	__imp__GetACP@0:NEAR
EXTRN	__imp__GetLocaleInfoA@16:NEAR
EXTRN	__imp__GetThreadLocale@0:NEAR
; Function compile flags: /Odt /RTCcsu /ZI
;	COMDAT ?_AtlGetThreadACPFake@ATL@@YGIXZ
_TEXT	SEGMENT
_pch$24075 = -52					; size = 4
_szACP$ = -40						; size = 7
_lcidThread$ = -24					; size = 4
_nACP$ = -12						; size = 4
__$ArrayPad$ = -4					; size = 4
__$ReturnAddr$ = 4					; size = 4
?_AtlGetThreadACPFake@ATL@@YGIXZ PROC NEAR		; ATL::_AtlGetThreadACPFake, COMDAT

; 101  : {

	push	ebp
	mov	ebp, esp
	sub	esp, 248				; 000000f8H
	push	ebx
	push	esi
	push	edi
	lea	edi, DWORD PTR [ebp-248]
	mov	ecx, 62					; 0000003eH
	mov	eax, -858993460				; ccccccccH
	rep stosd
	mov	eax, DWORD PTR ___security_cookie
	mov	DWORD PTR __$ArrayPad$[ebp], eax

; 102  : 	UINT nACP = 0;

	mov	DWORD PTR _nACP$[ebp], 0

; 103  : 
; 104  : 	LCID lcidThread = ::GetThreadLocale();

	mov	esi, esp
	call	DWORD PTR __imp__GetThreadLocale@0
	cmp	esi, esp
	call	__RTC_CheckEsp
	mov	DWORD PTR _lcidThread$[ebp], eax

; 105  : 
; 106  : 	char szACP[7];
; 107  : 	// GetLocaleInfoA will fail for a Unicode-only LCID, but those are only supported on 
; 108  : 	// Windows 2000.  Since Windows 2000 supports CP_THREAD_ACP, this code path is never
; 109  : 	// executed on Windows 2000.
; 110  : 	if (::GetLocaleInfoA(lcidThread, LOCALE_IDEFAULTANSICODEPAGE, szACP, 7) != 0)

	mov	esi, esp
	push	7
	lea	eax, DWORD PTR _szACP$[ebp]
	push	eax
	push	4100					; 00001004H
	mov	ecx, DWORD PTR _lcidThread$[ebp]
	push	ecx
	call	DWORD PTR __imp__GetLocaleInfoA@16
	cmp	esi, esp
	call	__RTC_CheckEsp
	test	eax, eax
	je	SHORT $L24074

; 111  : 	{
; 112  : 		char* pch = szACP;

	lea	eax, DWORD PTR _szACP$[ebp]
	mov	DWORD PTR _pch$24075[ebp], eax
$L24077:

; 113  : 		while (*pch != '\0')

	mov	eax, DWORD PTR _pch$24075[ebp]
	movsx	ecx, BYTE PTR [eax]
	test	ecx, ecx
	je	SHORT $L24074

; 114  : 		{
; 115  : 			nACP *= 10;

	mov	eax, DWORD PTR _nACP$[ebp]
	imul	eax, 10					; 0000000aH
	mov	DWORD PTR _nACP$[ebp], eax

; 116  : 			nACP += *pch++ - '0';

	mov	eax, DWORD PTR _pch$24075[ebp]
	movsx	ecx, BYTE PTR [eax]
	mov	edx, DWORD PTR _nACP$[ebp]
	lea	eax, DWORD PTR [edx+ecx-48]
	mov	DWORD PTR _nACP$[ebp], eax
	mov	ecx, DWORD PTR _pch$24075[ebp]
	add	ecx, 1
	mov	DWORD PTR _pch$24075[ebp], ecx

; 117  : 		}

	jmp	SHORT $L24077
$L24074:

; 118  : 	}
; 119  : 	// Use the Default ANSI Code Page if we were unable to get the thread ACP or if one does not exist.
; 120  : 	if (nACP == 0)

	cmp	DWORD PTR _nACP$[ebp], 0
	jne	SHORT $L24079

; 121  : 		nACP = ::GetACP();

	mov	esi, esp
	call	DWORD PTR __imp__GetACP@0
	cmp	esi, esp
	call	__RTC_CheckEsp
	mov	DWORD PTR _nACP$[ebp], eax
$L24079:

; 122  : 
; 123  : 	return nACP;

	mov	eax, DWORD PTR _nACP$[ebp]

; 124  : }

	push	edx
	mov	ecx, ebp
	push	eax
	lea	edx, DWORD PTR $L94401
	call	@_RTC_CheckStackVars@8
	pop	eax
	pop	edx
	mov	ecx, DWORD PTR __$ArrayPad$[ebp]
	call	@__security_check_cookie@4
	pop	edi
	pop	esi
	pop	ebx
	add	esp, 248				; 000000f8H
	cmp	ebp, esp
	call	__RTC_CheckEsp
	mov	esp, ebp
	pop	ebp
	ret	0
$L94401:
	DD	1
	DD	$L94400
$L94400:
	DD	-40					; ffffffd8H
	DD	7
	DD	$L94398
$L94398:
	DB	115					; 00000073H
	DB	122					; 0000007aH
	DB	65					; 00000041H
	DB	67					; 00000043H
	DB	80					; 00000050H
	DB	0
?_AtlGetThreadACPFake@ATL@@YGIXZ ENDP			; ATL::_AtlGetThreadACPFake
; Function compile flags: /Odt /RTCcsu /ZI
_TEXT	ENDS
;	COMDAT ?_AtlGetThreadACPReal@ATL@@YGIXZ
_TEXT	SEGMENT
?_AtlGetThreadACPReal@ATL@@YGIXZ PROC NEAR		; ATL::_AtlGetThreadACPReal, COMDAT

; 127  : {

	push	ebp
	mov	ebp, esp
	sub	esp, 192				; 000000c0H
	push	ebx
	push	esi
	push	edi
	lea	edi, DWORD PTR [ebp-192]
	mov	ecx, 48					; 00000030H
	mov	eax, -858993460				; ccccccccH
	rep stosd

; 128  : 	return( CP_THREAD_ACP );

	mov	eax, 3

; 129  : }

	pop	edi
	pop	esi
	pop	ebx
	mov	esp, ebp
	pop	ebp
	ret	0
?_AtlGetThreadACPReal@ATL@@YGIXZ ENDP			; ATL::_AtlGetThreadACPReal
_TEXT	ENDS
PUBLIC	?Create@CWSpell@@UAEHPBG0KABUtagRECT@@PAVCWnd@@IPAUCCreateContext@@@Z ; CWSpell::Create
PUBLIC	??_7CWSpell@@6B@				; CWSpell::`vftable'
PUBLIC	??_GCWSpell@@UAEPAXI@Z				; CWSpell::`scalar deleting destructor'
EXTRN	?OnCmdMsg@CCmdTarget@@UAEHIHPAXPAUAFX_CMDHANDLERINFO@@@Z:NEAR ; CCmdTarget::OnCmdMsg
EXTRN	??0CWnd@@QAE@XZ:NEAR				; CWnd::CWnd
EXTRN	?GetRuntimeClass@CWSpell@@UBEPAUCRuntimeClass@@XZ:NEAR ; CWSpell::GetRuntimeClass
EXTRN	?DoDataExchange@CWnd@@MAEXPAVCDataExchange@@@Z:NEAR ; CWnd::DoDataExchange
EXTRN	?PreTranslateMessage@CWnd@@UAEHPAUtagMSG@@@Z:NEAR ; CWnd::PreTranslateMessage
EXTRN	?CheckAutoCenter@CWnd@@UAEHXZ:NEAR		; CWnd::CheckAutoCenter
EXTRN	?AssertValid@CWnd@@UBEXXZ:NEAR			; CWnd::AssertValid
EXTRN	?Dump@CWnd@@UBEXAAVCDumpContext@@@Z:NEAR	; CWnd::Dump
EXTRN	?SetOccDialogInfo@CWnd@@MAEHPAU_AFX_OCC_DIALOG_INFO@@@Z:NEAR ; CWnd::SetOccDialogInfo
EXTRN	?GetMessageMap@CWnd@@MBEPBUAFX_MSGMAP@@XZ:NEAR	; CWnd::GetMessageMap
EXTRN	??_ECWSpell@@UAEPAXI@Z:NEAR			; CWSpell::`vector deleting destructor'
;	COMDAT ??_7CWSpell@@6B@
CONST	SEGMENT
??_7CWSpell@@6B@ DD FLAT:?GetRuntimeClass@CWSpell@@UBEPAUCRuntimeClass@@XZ ; CWSpell::`vftable'
	DD	FLAT:??_ECWSpell@@UAEPAXI@Z
	DD	FLAT:?Serialize@CObject@@UAEXAAVCArchive@@@Z
	DD	FLAT:?AssertValid@CWnd@@UBEXXZ
	DD	FLAT:?Dump@CWnd@@UBEXAAVCDumpContext@@@Z
	DD	FLAT:?OnCmdMsg@CCmdTarget@@UAEHIHPAXPAUAFX_CMDHANDLERINFO@@@Z
	DD	FLAT:?OnFinalRelease@CWnd@@UAEXXZ
	DD	FLAT:?IsInvokeAllowed@CCmdTarget@@UAEHJ@Z
	DD	FLAT:?GetDispatchIID@CCmdTarget@@UAEHPAU_GUID@@@Z
	DD	FLAT:?GetTypeInfoCount@CCmdTarget@@UAEIXZ
	DD	FLAT:?GetTypeLibCache@CCmdTarget@@UAEPAVCTypeLibCache@@XZ
	DD	FLAT:?GetTypeLib@CCmdTarget@@UAEJKPAPAUITypeLib@@@Z
	DD	FLAT:?GetMessageMap@CWnd@@MBEPBUAFX_MSGMAP@@XZ
	DD	FLAT:?GetCommandMap@CCmdTarget@@MBEPBUAFX_OLECMDMAP@@XZ
	DD	FLAT:?GetDispatchMap@CCmdTarget@@MBEPBUAFX_DISPMAP@@XZ
	DD	FLAT:?GetConnectionMap@CCmdTarget@@MBEPBUAFX_CONNECTIONMAP@@XZ
	DD	FLAT:?GetInterfaceMap@CWnd@@MBEPBUAFX_INTERFACEMAP@@XZ
	DD	FLAT:?GetEventSinkMap@CCmdTarget@@MBEPBUAFX_EVENTSINKMAP@@XZ
	DD	FLAT:?OnCreateAggregates@CCmdTarget@@UAEHXZ
	DD	FLAT:?GetInterfaceHook@CCmdTarget@@UAEPAUIUnknown@@PBX@Z
	DD	FLAT:?GetExtraConnectionPoints@CCmdTarget@@MAEHPAVCPtrArray@@@Z
	DD	FLAT:?GetConnectionHook@CCmdTarget@@MAEPAUIConnectionPoint@@ABU_GUID@@@Z
	DD	FLAT:?PreSubclassWindow@CWnd@@UAEXXZ
	DD	FLAT:?Create@CWSpell@@UAEHPBG0KABUtagRECT@@PAVCWnd@@IPAUCCreateContext@@@Z
	DD	FLAT:?CreateEx@CWnd@@UAEHKPBG0KABUtagRECT@@PAV1@IPAX@Z
	DD	FLAT:?CreateEx@CWnd@@UAEHKPBG0KHHHHPAUHWND__@@PAUHMENU__@@PAX@Z
	DD	FLAT:?DestroyWindow@CWnd@@UAEHXZ
	DD	FLAT:?PreCreateWindow@CWnd@@UAEHAAUtagCREATESTRUCTW@@@Z
	DD	FLAT:?CalcWindowRect@CWnd@@UAEXPAUtagRECT@@I@Z
	DD	FLAT:?OnToolHitTest@CWnd@@UBEHVCPoint@@PAUtagTOOLINFOW@@@Z
	DD	FLAT:?GetScrollBarCtrl@CWnd@@UBEPAVCScrollBar@@H@Z
	DD	FLAT:?WinHelpW@CWnd@@UAEXKI@Z
	DD	FLAT:?HtmlHelpW@CWnd@@UAEXKI@Z
	DD	FLAT:?WinHelpInternal@CWnd@@UAEXKI@Z
	DD	FLAT:?ContinueModal@CWnd@@UAEHXZ
	DD	FLAT:?EndModalLoop@CWnd@@UAEXH@Z
	DD	FLAT:?EnsureStdObj@CWnd@@UAEJXZ
	DD	FLAT:?get_accParent@CWnd@@UAEJPAPAUIDispatch@@@Z
	DD	FLAT:?get_accChildCount@CWnd@@UAEJPAJ@Z
	DD	FLAT:?get_accChild@CWnd@@UAEJUtagVARIANT@@PAPAUIDispatch@@@Z
	DD	FLAT:?get_accName@CWnd@@UAEJUtagVARIANT@@PAPAG@Z
	DD	FLAT:?get_accValue@CWnd@@UAEJUtagVARIANT@@PAPAG@Z
	DD	FLAT:?get_accDescription@CWnd@@UAEJUtagVARIANT@@PAPAG@Z
	DD	FLAT:?get_accRole@CWnd@@UAEJUtagVARIANT@@PAU2@@Z
	DD	FLAT:?get_accState@CWnd@@UAEJUtagVARIANT@@PAU2@@Z
	DD	FLAT:?get_accHelp@CWnd@@UAEJUtagVARIANT@@PAPAG@Z
	DD	FLAT:?get_accHelpTopic@CWnd@@UAEJPAPAGUtagVARIANT@@PAJ@Z
	DD	FLAT:?get_accKeyboardShortcut@CWnd@@UAEJUtagVARIANT@@PAPAG@Z
	DD	FLAT:?get_accFocus@CWnd@@UAEJPAUtagVARIANT@@@Z
	DD	FLAT:?get_accSelection@CWnd@@UAEJPAUtagVARIANT@@@Z
	DD	FLAT:?get_accDefaultAction@CWnd@@UAEJUtagVARIANT@@PAPAG@Z
	DD	FLAT:?accSelect@CWnd@@UAEJJUtagVARIANT@@@Z
	DD	FLAT:?accLocation@CWnd@@UAEJPAJ000UtagVARIANT@@@Z
	DD	FLAT:?accNavigate@CWnd@@UAEJJUtagVARIANT@@PAU2@@Z
	DD	FLAT:?accHitTest@CWnd@@UAEJJJPAUtagVARIANT@@@Z
	DD	FLAT:?accDoDefaultAction@CWnd@@UAEJUtagVARIANT@@@Z
	DD	FLAT:?put_accName@CWnd@@UAEJUtagVARIANT@@PAG@Z
	DD	FLAT:?put_accValue@CWnd@@UAEJUtagVARIANT@@PAG@Z
	DD	FLAT:?SetProxy@CWnd@@UAEJPAUIAccessibleProxy@@@Z
	DD	FLAT:?CreateAccessibleProxy@CWnd@@UAEJIJPAJ@Z
	DD	FLAT:?OnCommand@CWnd@@MAEHIJ@Z
	DD	FLAT:?OnNotify@CWnd@@MAEHIJPAJ@Z
	DD	FLAT:?GetSuperWndProcAddr@CWnd@@MAEPAP6GJPAUHWND__@@IIJ@ZXZ
	DD	FLAT:?DoDataExchange@CWnd@@MAEXPAVCDataExchange@@@Z
	DD	FLAT:?BeginModalState@CWnd@@UAEXXZ
	DD	FLAT:?EndModalState@CWnd@@UAEXXZ
	DD	FLAT:?PreTranslateMessage@CWnd@@UAEHPAUtagMSG@@@Z
	DD	FLAT:?OnAmbientProperty@CWnd@@UAEHPAVCOleControlSite@@JPAUtagVARIANT@@@Z
	DD	FLAT:?WindowProc@CWnd@@MAEJIIJ@Z
	DD	FLAT:?OnWndMsg@CWnd@@MAEHIIJPAJ@Z
	DD	FLAT:?DefWindowProcW@CWnd@@MAEJIIJ@Z
	DD	FLAT:?PostNcDestroy@CWnd@@MAEXXZ
	DD	FLAT:?OnChildNotify@CWnd@@MAEHIIJPAJ@Z
	DD	FLAT:?CheckAutoCenter@CWnd@@UAEHXZ
	DD	FLAT:?IsFrameWnd@CWnd@@UBEHXZ
	DD	FLAT:?CreateControlContainer@CWnd@@MAEHPAPAVCOleControlContainer@@@Z
	DD	FLAT:?CreateControlSite@CWnd@@MAEHPAVCOleControlContainer@@PAPAVCOleControlSite@@IABU_GUID@@@Z
	DD	FLAT:?SetOccDialogInfo@CWnd@@MAEHPAU_AFX_OCC_DIALOG_INFO@@@Z
; Function compile flags: /Odt /RTCcsu /ZI
CONST	ENDS
;	COMDAT ??0CWSpell@@QAE@XZ
_TEXT	SEGMENT
_this$ = -8						; size = 4
??0CWSpell@@QAE@XZ PROC NEAR				; CWSpell::CWSpell, COMDAT
; _this$ = ecx
	push	ebp
	mov	ebp, esp
	sub	esp, 204				; 000000ccH
	push	ebx
	push	esi
	push	edi
	push	ecx
	lea	edi, DWORD PTR [ebp-204]
	mov	ecx, 51					; 00000033H
	mov	eax, -858993460				; ccccccccH
	rep stosd
	pop	ecx
	mov	DWORD PTR _this$[ebp], ecx
	mov	ecx, DWORD PTR _this$[ebp]
	call	??0CWnd@@QAE@XZ				; CWnd::CWnd
	mov	eax, DWORD PTR _this$[ebp]
	mov	DWORD PTR [eax], OFFSET FLAT:??_7CWSpell@@6B@
	mov	eax, DWORD PTR _this$[ebp]
	pop	edi
	pop	esi
	pop	ebx
	add	esp, 204				; 000000ccH
	cmp	ebp, esp
	call	__RTC_CheckEsp
	mov	esp, ebp
	pop	ebp
	ret	0
??0CWSpell@@QAE@XZ ENDP					; CWSpell::CWSpell
_TEXT	ENDS
PUBLIC	?GetClsid@CWSpell@@QAEABU_GUID@@XZ		; CWSpell::GetClsid
EXTRN	?CreateControl@CWnd@@QAEHABU_GUID@@PBGKABUtagRECT@@PAV1@IPAVCFile@@HPAG@Z:NEAR ; CWnd::CreateControl
; Function compile flags: /Odt /RTCcsu /ZI
; File c:\astrow32dev\tbt32\wspell.h
;	COMDAT ?Create@CWSpell@@UAEHPBG0KABUtagRECT@@PAVCWnd@@IPAUCCreateContext@@@Z
_TEXT	SEGMENT
_this$ = -8						; size = 4
_lpszClassName$ = 8					; size = 4
_lpszWindowName$ = 12					; size = 4
_dwStyle$ = 16						; size = 4
_rect$ = 20						; size = 4
_pParentWnd$ = 24					; size = 4
_nID$ = 28						; size = 4
_pContext$ = 32						; size = 4
?Create@CWSpell@@UAEHPBG0KABUtagRECT@@PAVCWnd@@IPAUCCreateContext@@@Z PROC NEAR ; CWSpell::Create, COMDAT
; _this$ = ecx

; 31   : 	{ return CreateControl(GetClsid(), lpszWindowName, dwStyle, rect, pParentWnd, nID); }

	push	ebp
	mov	ebp, esp
	sub	esp, 204				; 000000ccH
	push	ebx
	push	esi
	push	edi
	push	ecx
	lea	edi, DWORD PTR [ebp-204]
	mov	ecx, 51					; 00000033H
	mov	eax, -858993460				; ccccccccH
	rep stosd
	pop	ecx
	mov	DWORD PTR _this$[ebp], ecx
	push	0
	push	0
	push	0
	mov	eax, DWORD PTR _nID$[ebp]
	push	eax
	mov	ecx, DWORD PTR _pParentWnd$[ebp]
	push	ecx
	mov	edx, DWORD PTR _rect$[ebp]
	push	edx
	mov	eax, DWORD PTR _dwStyle$[ebp]
	push	eax
	mov	ecx, DWORD PTR _lpszWindowName$[ebp]
	push	ecx
	mov	ecx, DWORD PTR _this$[ebp]
	call	?GetClsid@CWSpell@@QAEABU_GUID@@XZ	; CWSpell::GetClsid
	push	eax
	mov	ecx, DWORD PTR _this$[ebp]
	call	?CreateControl@CWnd@@QAEHABU_GUID@@PBGKABUtagRECT@@PAV1@IPAVCFile@@HPAG@Z ; CWnd::CreateControl
	pop	edi
	pop	esi
	pop	ebx
	add	esp, 204				; 000000ccH
	cmp	ebp, esp
	call	__RTC_CheckEsp
	mov	esp, ebp
	pop	ebp
	ret	28					; 0000001cH
?Create@CWSpell@@UAEHPBG0KABUtagRECT@@PAVCWnd@@IPAUCCreateContext@@@Z ENDP ; CWSpell::Create
_TEXT	ENDS
PUBLIC	?clsid@?1??GetClsid@CWSpell@@QAEABU_GUID@@XZ@4U3@B ; `CWSpell::GetClsid'::`2'::clsid
;	COMDAT ?clsid@?1??GetClsid@CWSpell@@QAEABU_GUID@@XZ@4U3@B
CONST	SEGMENT
?clsid@?1??GetClsid@CWSpell@@QAEABU_GUID@@XZ@4U3@B DD 0245338c3H ; `CWSpell::GetClsid'::`2'::clsid
	DW	0bca3H
	DW	04a2cH
	DB	0a7H
	DB	0b7H
	DB	053H
	DB	034H
	DB	059H
	DB	099H
	DB	0a8H
	DB	0e8H
; Function compile flags: /Odt /RTCcsu /ZI
CONST	ENDS
;	COMDAT ?GetClsid@CWSpell@@QAEABU_GUID@@XZ
_TEXT	SEGMENT
_this$ = -8						; size = 4
?GetClsid@CWSpell@@QAEABU_GUID@@XZ PROC NEAR		; CWSpell::GetClsid, COMDAT
; _this$ = ecx

; 21   : 	{

	push	ebp
	mov	ebp, esp
	sub	esp, 204				; 000000ccH
	push	ebx
	push	esi
	push	edi
	push	ecx
	lea	edi, DWORD PTR [ebp-204]
	mov	ecx, 51					; 00000033H
	mov	eax, -858993460				; ccccccccH
	rep stosd
	pop	ecx
	mov	DWORD PTR _this$[ebp], ecx

; 22   : 		static CLSID const clsid
; 23   : 			= { 0x245338c3, 0xbca3, 0x4a2c, { 0xa7, 0xb7, 0x53, 0x34, 0x59, 0x99, 0xa8, 0xe8 } };
; 24   : 		return clsid;

	mov	eax, OFFSET FLAT:?clsid@?1??GetClsid@CWSpell@@QAEABU_GUID@@XZ@4U3@B ; `CWSpell::GetClsid'::`2'::clsid

; 25   : 	}

	pop	edi
	pop	esi
	pop	ebx
	mov	esp, ebp
	pop	ebp
	ret	0
?GetClsid@CWSpell@@QAEABU_GUID@@XZ ENDP			; CWSpell::GetClsid
_TEXT	ENDS
EXTRN	??1CWnd@@UAE@XZ:NEAR				; CWnd::~CWnd
; Function compile flags: /Odt /RTCcsu /ZI
;	COMDAT ??1CWSpell@@UAE@XZ
_TEXT	SEGMENT
_this$ = -8						; size = 4
??1CWSpell@@UAE@XZ PROC NEAR				; CWSpell::~CWSpell, COMDAT
; _this$ = ecx
	push	ebp
	mov	ebp, esp
	sub	esp, 204				; 000000ccH
	push	ebx
	push	esi
	push	edi
	push	ecx
	lea	edi, DWORD PTR [ebp-204]
	mov	ecx, 51					; 00000033H
	mov	eax, -858993460				; ccccccccH
	rep stosd
	pop	ecx
	mov	DWORD PTR _this$[ebp], ecx
	mov	ecx, DWORD PTR _this$[ebp]
	call	??1CWnd@@UAE@XZ				; CWnd::~CWnd
	pop	edi
	pop	esi
	pop	ebx
	add	esp, 204				; 000000ccH
	cmp	ebp, esp
	call	__RTC_CheckEsp
	mov	esp, ebp
	pop	ebp
	ret	0
??1CWSpell@@UAE@XZ ENDP					; CWSpell::~CWSpell
_TEXT	ENDS
EXTRN	??1CDaoRecordset@@UAE@XZ:NEAR			; CDaoRecordset::~CDaoRecordset
; Function compile flags: /Odt /RTCcsu /ZI
;	COMDAT ??1CDAspectText@@UAE@XZ
_TEXT	SEGMENT
_this$ = -8						; size = 4
??1CDAspectText@@UAE@XZ PROC NEAR			; CDAspectText::~CDAspectText, COMDAT
; _this$ = ecx
	push	ebp
	mov	ebp, esp
	sub	esp, 204				; 000000ccH
	push	ebx
	push	esi
	push	edi
	push	ecx
	lea	edi, DWORD PTR [ebp-204]
	mov	ecx, 51					; 00000033H
	mov	eax, -858993460				; ccccccccH
	rep stosd
	pop	ecx
	mov	DWORD PTR _this$[ebp], ecx
	mov	ecx, DWORD PTR _this$[ebp]
	add	ecx, 180				; 000000b4H
	call	??1?$CStringT@GV?$StrTraitMFC@GV?$ChTraitsCRT@G@ATL@@@@@ATL@@QAE@XZ ; ATL::CStringT<unsigned short,StrTraitMFC<unsigned short,ATL::ChTraitsCRT<unsigned short> > >::~CStringT<unsigned short,StrTraitMFC<unsigned short,ATL::ChTraitsCRT<unsigned short> > >
	mov	ecx, DWORD PTR _this$[ebp]
	add	ecx, 176				; 000000b0H
	call	??1?$CStringT@GV?$StrTraitMFC@GV?$ChTraitsCRT@G@ATL@@@@@ATL@@QAE@XZ ; ATL::CStringT<unsigned short,StrTraitMFC<unsigned short,ATL::ChTraitsCRT<unsigned short> > >::~CStringT<unsigned short,StrTraitMFC<unsigned short,ATL::ChTraitsCRT<unsigned short> > >
	mov	ecx, DWORD PTR _this$[ebp]
	add	ecx, 168				; 000000a8H
	call	??1?$CStringT@GV?$StrTraitMFC@GV?$ChTraitsCRT@G@ATL@@@@@ATL@@QAE@XZ ; ATL::CStringT<unsigned short,StrTraitMFC<unsigned short,ATL::ChTraitsCRT<unsigned short> > >::~CStringT<unsigned short,StrTraitMFC<unsigned short,ATL::ChTraitsCRT<unsigned short> > >
	mov	ecx, DWORD PTR _this$[ebp]
	add	ecx, 160				; 000000a0H
	call	??1?$CStringT@GV?$StrTraitMFC@GV?$ChTraitsCRT@G@ATL@@@@@ATL@@QAE@XZ ; ATL::CStringT<unsigned short,StrTraitMFC<unsigned short,ATL::ChTraitsCRT<unsigned short> > >::~CStringT<unsigned short,StrTraitMFC<unsigned short,ATL::ChTraitsCRT<unsigned short> > >
	mov	ecx, DWORD PTR _this$[ebp]
	add	ecx, 156				; 0000009cH
	call	??1?$CStringT@GV?$StrTraitMFC@GV?$ChTraitsCRT@G@ATL@@@@@ATL@@QAE@XZ ; ATL::CStringT<unsigned short,StrTraitMFC<unsigned short,ATL::ChTraitsCRT<unsigned short> > >::~CStringT<unsigned short,StrTraitMFC<unsigned short,ATL::ChTraitsCRT<unsigned short> > >
	mov	ecx, DWORD PTR _this$[ebp]
	add	ecx, 152				; 00000098H
	call	??1?$CStringT@GV?$StrTraitMFC@GV?$ChTraitsCRT@G@ATL@@@@@ATL@@QAE@XZ ; ATL::CStringT<unsigned short,StrTraitMFC<unsigned short,ATL::ChTraitsCRT<unsigned short> > >::~CStringT<unsigned short,StrTraitMFC<unsigned short,ATL::ChTraitsCRT<unsigned short> > >
	mov	ecx, DWORD PTR _this$[ebp]
	call	??1CDaoRecordset@@UAE@XZ		; CDaoRecordset::~CDaoRecordset
	pop	edi
	pop	esi
	pop	ebx
	add	esp, 204				; 000000ccH
	cmp	ebp, esp
	call	__RTC_CheckEsp
	mov	esp, ebp
	pop	ebp
	ret	0
??1CDAspectText@@UAE@XZ ENDP				; CDAspectText::~CDAspectText
_TEXT	ENDS
;	COMDAT xdata$x
xdata$x	SEGMENT
__unwindtable$??1CAspTextEdit@@UAE@XZ DD 0ffffffffH
	DD	FLAT:__unwindfunclet$??1CAspTextEdit@@UAE@XZ$0
	DD	00H
	DD	FLAT:__unwindfunclet$??1CAspTextEdit@@UAE@XZ$1
	DD	01H
	DD	FLAT:__unwindfunclet$??1CAspTextEdit@@UAE@XZ$2
	DD	02H
	DD	FLAT:__unwindfunclet$??1CAspTextEdit@@UAE@XZ$3
	DD	03H
	DD	FLAT:__unwindfunclet$??1CAspTextEdit@@UAE@XZ$4
	DD	04H
	DD	FLAT:__unwindfunclet$??1CAspTextEdit@@UAE@XZ$5
	DD	05H
	DD	FLAT:__unwindfunclet$??1CAspTextEdit@@UAE@XZ$6
__ehfuncinfo$??1CAspTextEdit@@UAE@XZ DD 019930520H
	DD	07H
	DD	FLAT:__unwindtable$??1CAspTextEdit@@UAE@XZ
	DD	2 DUP(00H)
	DD	2 DUP(00H)
; Function compile flags: /Odt /RTCcsu /ZI
xdata$x	ENDS
;	COMDAT ??1CAspTextEdit@@UAE@XZ
_TEXT	SEGMENT
_this$ = -20						; size = 4
__$EHRec$ = -12						; size = 12
??1CAspTextEdit@@UAE@XZ PROC NEAR			; CAspTextEdit::~CAspTextEdit, COMDAT
; _this$ = ecx
	push	ebp
	mov	ebp, esp
	push	-1
	push	__ehhandler$??1CAspTextEdit@@UAE@XZ
	mov	eax, DWORD PTR fs:__except_list
	push	eax
	mov	DWORD PTR fs:__except_list, esp
	sub	esp, 204				; 000000ccH
	push	ebx
	push	esi
	push	edi
	push	ecx
	lea	edi, DWORD PTR [ebp-216]
	mov	ecx, 51					; 00000033H
	mov	eax, -858993460				; ccccccccH
	rep stosd
	pop	ecx
	mov	DWORD PTR _this$[ebp], ecx
	mov	DWORD PTR __$EHRec$[ebp+8], 6
	mov	ecx, DWORD PTR _this$[ebp]
	add	ecx, 228				; 000000e4H
	call	??1CDAspectText@@UAE@XZ
	mov	BYTE PTR __$EHRec$[ebp+8], 5
	mov	ecx, DWORD PTR _this$[ebp]
	add	ecx, 220				; 000000dcH
	call	??1?$CStringT@GV?$StrTraitMFC@GV?$ChTraitsCRT@G@ATL@@@@@ATL@@QAE@XZ ; ATL::CStringT<unsigned short,StrTraitMFC<unsigned short,ATL::ChTraitsCRT<unsigned short> > >::~CStringT<unsigned short,StrTraitMFC<unsigned short,ATL::ChTraitsCRT<unsigned short> > >
	mov	BYTE PTR __$EHRec$[ebp+8], 4
	mov	ecx, DWORD PTR _this$[ebp]
	add	ecx, 216				; 000000d8H
	call	??1?$CStringT@GV?$StrTraitMFC@GV?$ChTraitsCRT@G@ATL@@@@@ATL@@QAE@XZ ; ATL::CStringT<unsigned short,StrTraitMFC<unsigned short,ATL::ChTraitsCRT<unsigned short> > >::~CStringT<unsigned short,StrTraitMFC<unsigned short,ATL::ChTraitsCRT<unsigned short> > >
	mov	BYTE PTR __$EHRec$[ebp+8], 3
	mov	ecx, DWORD PTR _this$[ebp]
	add	ecx, 212				; 000000d4H
	call	??1?$CStringT@GV?$StrTraitMFC@GV?$ChTraitsCRT@G@ATL@@@@@ATL@@QAE@XZ ; ATL::CStringT<unsigned short,StrTraitMFC<unsigned short,ATL::ChTraitsCRT<unsigned short> > >::~CStringT<unsigned short,StrTraitMFC<unsigned short,ATL::ChTraitsCRT<unsigned short> > >
	mov	BYTE PTR __$EHRec$[ebp+8], 2
	mov	ecx, DWORD PTR _this$[ebp]
	add	ecx, 208				; 000000d0H
	call	??1?$CStringT@GV?$StrTraitMFC@GV?$ChTraitsCRT@G@ATL@@@@@ATL@@QAE@XZ ; ATL::CStringT<unsigned short,StrTraitMFC<unsigned short,ATL::ChTraitsCRT<unsigned short> > >::~CStringT<unsigned short,StrTraitMFC<unsigned short,ATL::ChTraitsCRT<unsigned short> > >
	mov	BYTE PTR __$EHRec$[ebp+8], 1
	mov	ecx, DWORD PTR _this$[ebp]
	add	ecx, 128				; 00000080H
	call	??1CWSpell@@UAE@XZ
	mov	BYTE PTR __$EHRec$[ebp+8], 0
	mov	ecx, DWORD PTR _this$[ebp]
	add	ecx, 112				; 00000070H
	call	??1?$CStringT@GV?$StrTraitMFC@GV?$ChTraitsCRT@G@ATL@@@@@ATL@@QAE@XZ ; ATL::CStringT<unsigned short,StrTraitMFC<unsigned short,ATL::ChTraitsCRT<unsigned short> > >::~CStringT<unsigned short,StrTraitMFC<unsigned short,ATL::ChTraitsCRT<unsigned short> > >
	mov	DWORD PTR __$EHRec$[ebp+8], -1
	mov	ecx, DWORD PTR _this$[ebp]
	call	??1CDialog@@UAE@XZ			; CDialog::~CDialog
	mov	ecx, DWORD PTR __$EHRec$[ebp]
	mov	DWORD PTR fs:__except_list, ecx
	pop	edi
	pop	esi
	pop	ebx
	add	esp, 216				; 000000d8H
	cmp	ebp, esp
	call	__RTC_CheckEsp
	mov	esp, ebp
	pop	ebp
	ret	0
_TEXT	ENDS
;	COMDAT text$x
text$x	SEGMENT
__unwindfunclet$??1CAspTextEdit@@UAE@XZ$0:
	mov	ecx, DWORD PTR _this$[ebp]
	jmp	??1CDialog@@UAE@XZ			; CDialog::~CDialog
__unwindfunclet$??1CAspTextEdit@@UAE@XZ$1:
	mov	ecx, DWORD PTR _this$[ebp]
	add	ecx, 112				; 00000070H
	jmp	??1?$CStringT@GV?$StrTraitMFC@GV?$ChTraitsCRT@G@ATL@@@@@ATL@@QAE@XZ ; ATL::CStringT<unsigned short,StrTraitMFC<unsigned short,ATL::ChTraitsCRT<unsigned short> > >::~CStringT<unsigned short,StrTraitMFC<unsigned short,ATL::ChTraitsCRT<unsigned short> > >
__unwindfunclet$??1CAspTextEdit@@UAE@XZ$2:
	mov	ecx, DWORD PTR _this$[ebp]
	add	ecx, 128				; 00000080H
	jmp	??1CWSpell@@UAE@XZ
__unwindfunclet$??1CAspTextEdit@@UAE@XZ$3:
	mov	ecx, DWORD PTR _this$[ebp]
	add	ecx, 208				; 000000d0H
	jmp	??1?$CStringT@GV?$StrTraitMFC@GV?$ChTraitsCRT@G@ATL@@@@@ATL@@QAE@XZ ; ATL::CStringT<unsigned short,StrTraitMFC<unsigned short,ATL::ChTraitsCRT<unsigned short> > >::~CStringT<unsigned short,StrTraitMFC<unsigned short,ATL::ChTraitsCRT<unsigned short> > >
__unwindfunclet$??1CAspTextEdit@@UAE@XZ$4:
	mov	ecx, DWORD PTR _this$[ebp]
	add	ecx, 212				; 000000d4H
	jmp	??1?$CStringT@GV?$StrTraitMFC@GV?$ChTraitsCRT@G@ATL@@@@@ATL@@QAE@XZ ; ATL::CStringT<unsigned short,StrTraitMFC<unsigned short,ATL::ChTraitsCRT<unsigned short> > >::~CStringT<unsigned short,StrTraitMFC<unsigned short,ATL::ChTraitsCRT<unsigned short> > >
__unwindfunclet$??1CAspTextEdit@@UAE@XZ$5:
	mov	ecx, DWORD PTR _this$[ebp]
	add	ecx, 216				; 000000d8H
	jmp	??1?$CStringT@GV?$StrTraitMFC@GV?$ChTraitsCRT@G@ATL@@@@@ATL@@QAE@XZ ; ATL::CStringT<unsigned short,StrTraitMFC<unsigned short,ATL::ChTraitsCRT<unsigned short> > >::~CStringT<unsigned short,StrTraitMFC<unsigned short,ATL::ChTraitsCRT<unsigned short> > >
__unwindfunclet$??1CAspTextEdit@@UAE@XZ$6:
	mov	ecx, DWORD PTR _this$[ebp]
	add	ecx, 220				; 000000dcH
	jmp	??1?$CStringT@GV?$StrTraitMFC@GV?$ChTraitsCRT@G@ATL@@@@@ATL@@QAE@XZ ; ATL::CStringT<unsigned short,StrTraitMFC<unsigned short,ATL::ChTraitsCRT<unsigned short> > >::~CStringT<unsigned short,StrTraitMFC<unsigned short,ATL::ChTraitsCRT<unsigned short> > >
__ehhandler$??1CAspTextEdit@@UAE@XZ:
	mov	eax, OFFSET FLAT:__ehfuncinfo$??1CAspTextEdit@@UAE@XZ
	jmp	___CxxFrameHandler
text$x	ENDS
??1CAspTextEdit@@UAE@XZ ENDP				; CAspTextEdit::~CAspTextEdit
; Function compile flags: /Odt /RTCcsu /ZI
;	COMDAT ??_GCWSpell@@UAEPAXI@Z
_TEXT	SEGMENT
_this$ = -8						; size = 4
___flags$ = 8						; size = 4
??_GCWSpell@@UAEPAXI@Z PROC NEAR			; CWSpell::`scalar deleting destructor', COMDAT
; _this$ = ecx
	push	ebp
	mov	ebp, esp
	sub	esp, 204				; 000000ccH
	push	ebx
	push	esi
	push	edi
	push	ecx
	lea	edi, DWORD PTR [ebp-204]
	mov	ecx, 51					; 00000033H
	mov	eax, -858993460				; ccccccccH
	rep stosd
	pop	ecx
	mov	DWORD PTR _this$[ebp], ecx
	mov	ecx, DWORD PTR _this$[ebp]
	call	??1CWSpell@@UAE@XZ
	mov	eax, DWORD PTR ___flags$[ebp]
	and	eax, 1
	je	SHORT $L93763
	mov	eax, DWORD PTR _this$[ebp]
	push	eax
	call	??3CObject@@SGXPAX@Z			; CObject::operator delete
$L93763:
	mov	eax, DWORD PTR _this$[ebp]
	pop	edi
	pop	esi
	pop	ebx
	add	esp, 204				; 000000ccH
	cmp	ebp, esp
	call	__RTC_CheckEsp
	mov	esp, ebp
	pop	ebp
	ret	4
??_GCWSpell@@UAEPAXI@Z ENDP				; CWSpell::`scalar deleting destructor'
_TEXT	ENDS
EXTRN	?DDX_Text@@YGXPAVCDataExchange@@HAAV?$CStringT@GV?$StrTraitMFC@GV?$ChTraitsCRT@G@ATL@@@@@ATL@@@Z:NEAR ; DDX_Text
EXTRN	?DDX_CBIndex@@YGXPAVCDataExchange@@HAAH@Z:NEAR	; DDX_CBIndex
EXTRN	?DDX_Control@@YGXPAVCDataExchange@@HAAVCWnd@@@Z:NEAR ; DDX_Control
; Function compile flags: /Odt /RTCcsu /ZI
; File c:\astrow32dev\tbt32\asptextedit.cpp
;	COMDAT ?DoDataExchange@CAspTextEdit@@MAEXPAVCDataExchange@@@Z
_TEXT	SEGMENT
_this$ = -8						; size = 4
_pDX$ = 8						; size = 4
?DoDataExchange@CAspTextEdit@@MAEXPAVCDataExchange@@@Z PROC NEAR ; CAspTextEdit::DoDataExchange, COMDAT
; _this$ = ecx

; 36   : {

	push	ebp
	mov	ebp, esp
	sub	esp, 204				; 000000ccH
	push	ebx
	push	esi
	push	edi
	push	ecx
	lea	edi, DWORD PTR [ebp-204]
	mov	ecx, 51					; 00000033H
	mov	eax, -858993460				; ccccccccH
	rep stosd
	pop	ecx
	mov	DWORD PTR _this$[ebp], ecx

; 37   : 	CDialog::DoDataExchange(pDX);

	mov	eax, DWORD PTR _pDX$[ebp]
	push	eax
	mov	ecx, DWORD PTR _this$[ebp]
	call	?DoDataExchange@CWnd@@MAEXPAVCDataExchange@@@Z ; CWnd::DoDataExchange

; 38   : 	//{{AFX_DATA_MAP(CAspTextEdit)
; 39   : 	DDX_Text(pDX, IDC_TEXT, m_Text);

	mov	eax, DWORD PTR _this$[ebp]
	add	eax, 112				; 00000070H
	push	eax
	push	1004					; 000003ecH
	mov	ecx, DWORD PTR _pDX$[ebp]
	push	ecx
	call	?DDX_Text@@YGXPAVCDataExchange@@HAAV?$CStringT@GV?$StrTraitMFC@GV?$ChTraitsCRT@G@ATL@@@@@ATL@@@Z ; DDX_Text

; 40   : 	DDX_CBIndex(pDX, IDC_ASPECT, m_Aspect);

	mov	eax, DWORD PTR _this$[ebp]
	add	eax, 116				; 00000074H
	push	eax
	push	1005					; 000003edH
	mov	ecx, DWORD PTR _pDX$[ebp]
	push	ecx
	call	?DDX_CBIndex@@YGXPAVCDataExchange@@HAAH@Z ; DDX_CBIndex

; 41   : 	DDX_CBIndex(pDX, IDC_PLAN1, m_Plan1);

	mov	eax, DWORD PTR _this$[ebp]
	add	eax, 120				; 00000078H
	push	eax
	push	1006					; 000003eeH
	mov	ecx, DWORD PTR _pDX$[ebp]
	push	ecx
	call	?DDX_CBIndex@@YGXPAVCDataExchange@@HAAH@Z ; DDX_CBIndex

; 42   : 	DDX_CBIndex(pDX, IDC_PLAN2, m_Plan2);

	mov	eax, DWORD PTR _this$[ebp]
	add	eax, 124				; 0000007cH
	push	eax
	push	1007					; 000003efH
	mov	ecx, DWORD PTR _pDX$[ebp]
	push	ecx
	call	?DDX_CBIndex@@YGXPAVCDataExchange@@HAAH@Z ; DDX_CBIndex

; 43   : 	DDX_Control(pDX, IDC_WSPELLCTRL1, m_ctrl);

	mov	eax, DWORD PTR _this$[ebp]
	add	eax, 128				; 00000080H
	push	eax
	push	1023					; 000003ffH
	mov	ecx, DWORD PTR _pDX$[ebp]
	push	ecx
	call	?DDX_Control@@YGXPAVCDataExchange@@HAAVCWnd@@@Z ; DDX_Control

; 44   : 	//}}AFX_DATA_MAP
; 45   : }

	pop	edi
	pop	esi
	pop	ebx
	add	esp, 204				; 000000ccH
	cmp	ebp, esp
	call	__RTC_CheckEsp
	mov	esp, ebp
	pop	ebp
	ret	4
?DoDataExchange@CAspTextEdit@@MAEXPAVCDataExchange@@@Z ENDP ; CAspTextEdit::DoDataExchange
; Function compile flags: /Odt /RTCcsu /ZI
_TEXT	ENDS
;	COMDAT ?GetMessageMap@CAspTextEdit@@MBEPBUAFX_MSGMAP@@XZ
_TEXT	SEGMENT
_this$ = -8						; size = 4
?GetMessageMap@CAspTextEdit@@MBEPBUAFX_MSGMAP@@XZ PROC NEAR ; CAspTextEdit::GetMessageMap, COMDAT
; _this$ = ecx

; 48   : BEGIN_MESSAGE_MAP(CAspTextEdit, CDialog)

	push	ebp
	mov	ebp, esp
	sub	esp, 204				; 000000ccH
	push	ebx
	push	esi
	push	edi
	push	ecx
	lea	edi, DWORD PTR [ebp-204]
	mov	ecx, 51					; 00000033H
	mov	eax, -858993460				; ccccccccH
	rep stosd
	pop	ecx
	mov	DWORD PTR _this$[ebp], ecx
	mov	eax, OFFSET FLAT:?messageMap@CAspTextEdit@@1UAFX_MSGMAP@@B ; CAspTextEdit::messageMap
	pop	edi
	pop	esi
	pop	ebx
	mov	esp, ebp
	pop	ebp
	ret	0
?GetMessageMap@CAspTextEdit@@MBEPBUAFX_MSGMAP@@XZ ENDP	; CAspTextEdit::GetMessageMap
_TEXT	ENDS
PUBLIC	?Modified@RTFFuncs@@QAEHH@Z			; RTFFuncs::Modified
PUBLIC	?Find@CAspTextEdit@@IAEHXZ			; CAspTextEdit::Find
PUBLIC	?Save@CAspTextEdit@@IAEHXZ			; CAspTextEdit::Save
PUBLIC	??_C@_1CG@MLINDNFI@?$AAR?$AAe?$AAc?$AAo?$AAr?$AAd?$AA?5?$AAi?$AAs?$AA?5?$AAM?$AAo?$AAd?$AAi?$AAf?$AAi?$AAe?$AAd?$AA?$AA@ ; `string'
PUBLIC	??_C@_1EA@ECMOPAHL@?$AAD?$AAo?$AA?5?$AAY?$AAo?$AAu?$AA?5?$AAW?$AAa?$AAn?$AAt?$AA?5?$AAt?$AAo?$AA?5?$AAS?$AAa?$AAv?$AAe?$AA?5@ ; `string'
PUBLIC	?GetLength@?$CSimpleStringT@G$0A@@ATL@@QBEHXZ	; ATL::CSimpleStringT<unsigned short,0>::GetLength
EXTRN	?MessageBoxW@CWnd@@QAEHPBG0I@Z:NEAR		; CWnd::MessageBoxW
EXTRN	?GetCurSel@CComboBox@@QBEHXZ:NEAR		; CComboBox::GetCurSel
EXTRN	?GetLBText@CComboBox@@QBEXHAAV?$CStringT@GV?$StrTraitMFC@GV?$ChTraitsCRT@G@ATL@@@@@ATL@@@Z:NEAR ; CComboBox::GetLBText
EXTRN	?GetDlgItem@CWnd@@QBEPAV1@H@Z:NEAR		; CWnd::GetDlgItem
EXTRN	?GetWindowTextW@CWnd@@QBEXAAV?$CStringT@GV?$StrTraitMFC@GV?$ChTraitsCRT@G@ATL@@@@@ATL@@@Z:NEAR ; CWnd::GetWindowTextW
;	COMDAT ??_C@_1CG@MLINDNFI@?$AAR?$AAe?$AAc?$AAo?$AAr?$AAd?$AA?5?$AAi?$AAs?$AA?5?$AAM?$AAo?$AAd?$AAi?$AAf?$AAi?$AAe?$AAd?$AA?$AA@
CONST	SEGMENT
??_C@_1CG@MLINDNFI@?$AAR?$AAe?$AAc?$AAo?$AAr?$AAd?$AA?5?$AAi?$AAs?$AA?5?$AAM?$AAo?$AAd?$AAi?$AAf?$AAi?$AAe?$AAd?$AA?$AA@ DB 'R'
	DB	00H, 'e', 00H, 'c', 00H, 'o', 00H, 'r', 00H, 'd', 00H, ' ', 00H
	DB	'i', 00H, 's', 00H, ' ', 00H, 'M', 00H, 'o', 00H, 'd', 00H, 'i'
	DB	00H, 'f', 00H, 'i', 00H, 'e', 00H, 'd', 00H, 00H, 00H ; `string'
CONST	ENDS
;	COMDAT ??_C@_1EA@ECMOPAHL@?$AAD?$AAo?$AA?5?$AAY?$AAo?$AAu?$AA?5?$AAW?$AAa?$AAn?$AAt?$AA?5?$AAt?$AAo?$AA?5?$AAS?$AAa?$AAv?$AAe?$AA?5@
CONST	SEGMENT
??_C@_1EA@ECMOPAHL@?$AAD?$AAo?$AA?5?$AAY?$AAo?$AAu?$AA?5?$AAW?$AAa?$AAn?$AAt?$AA?5?$AAt?$AAo?$AA?5?$AAS?$AAa?$AAv?$AAe?$AA?5@ DB 'D'
	DB	00H, 'o', 00H, ' ', 00H, 'Y', 00H, 'o', 00H, 'u', 00H, ' ', 00H
	DB	'W', 00H, 'a', 00H, 'n', 00H, 't', 00H, ' ', 00H, 't', 00H, 'o'
	DB	00H, ' ', 00H, 'S', 00H, 'a', 00H, 'v', 00H, 'e', 00H, ' ', 00H
	DB	'T', 00H, 'h', 00H, 'i', 00H, 's', 00H, ' ', 00H, 'E', 00H, 'n'
	DB	00H, 't', 00H, 'r', 00H, 'y', 00H, '?', 00H, 00H, 00H ; `string'
; Function compile flags: /Odt /RTCcsu /ZI
CONST	ENDS
;	COMDAT ?OnSelchangeAspect@CAspTextEdit@@IAEXXZ
_TEXT	SEGMENT
_sel$ = -32						; size = 4
_pbox$ = -20						; size = 4
_this$ = -8						; size = 4
?OnSelchangeAspect@CAspTextEdit@@IAEXXZ PROC NEAR	; CAspTextEdit::OnSelchangeAspect, COMDAT
; _this$ = ecx

; 86   : {

	push	ebp
	mov	ebp, esp
	sub	esp, 228				; 000000e4H
	push	ebx
	push	esi
	push	edi
	push	ecx
	lea	edi, DWORD PTR [ebp-228]
	mov	ecx, 57					; 00000039H
	mov	eax, -858993460				; ccccccccH
	rep stosd
	pop	ecx
	mov	DWORD PTR _this$[ebp], ecx

; 87   : 	// TODO: Add your control notification handler code here
; 88   : 	if ( m_Plan1Str.GetLength() > 0 && m_Plan2Str.GetLength() &&
; 89   : 		    m_AspectStr.GetLength() > 0 ) {

	mov	ecx, DWORD PTR _this$[ebp]
	add	ecx, 212				; 000000d4H
	call	?GetLength@?$CSimpleStringT@G$0A@@ATL@@QBEHXZ ; ATL::CSimpleStringT<unsigned short,0>::GetLength
	test	eax, eax
	jle	SHORT $L93903
	mov	ecx, DWORD PTR _this$[ebp]
	add	ecx, 216				; 000000d8H
	call	?GetLength@?$CSimpleStringT@G$0A@@ATL@@QBEHXZ ; ATL::CSimpleStringT<unsigned short,0>::GetLength
	test	eax, eax
	je	SHORT $L93903
	mov	ecx, DWORD PTR _this$[ebp]
	add	ecx, 208				; 000000d0H
	call	?GetLength@?$CSimpleStringT@G$0A@@ATL@@QBEHXZ ; ATL::CSimpleStringT<unsigned short,0>::GetLength
	test	eax, eax
	jle	SHORT $L93903

; 90   : 		if ( pFuncs->Modified(IDC_TEXT) ) {

	push	1004					; 000003ecH
	mov	eax, DWORD PTR _this$[ebp]
	mov	ecx, DWORD PTR [eax+412]
	call	?Modified@RTFFuncs@@QAEHH@Z		; RTFFuncs::Modified
	test	eax, eax
	je	SHORT $L93903

; 91   : 		   if ( MessageBox(_T("Do You Want to Save This Entry?"), _T("Record is Modified"), MB_ICONQUESTION|MB_YESNO ) == IDYES )

	push	36					; 00000024H
	push	OFFSET FLAT:??_C@_1CG@MLINDNFI@?$AAR?$AAe?$AAc?$AAo?$AAr?$AAd?$AA?5?$AAi?$AAs?$AA?5?$AAM?$AAo?$AAd?$AAi?$AAf?$AAi?$AAe?$AAd?$AA?$AA@
	push	OFFSET FLAT:??_C@_1EA@ECMOPAHL@?$AAD?$AAo?$AA?5?$AAY?$AAo?$AAu?$AA?5?$AAW?$AAa?$AAn?$AAt?$AA?5?$AAt?$AAo?$AA?5?$AAS?$AAa?$AAv?$AAe?$AA?5@
	mov	ecx, DWORD PTR _this$[ebp]
	call	?MessageBoxW@CWnd@@QAEHPBG0I@Z		; CWnd::MessageBoxW
	cmp	eax, 6
	jne	SHORT $L93903

; 92   : 			   Save();

	mov	ecx, DWORD PTR _this$[ebp]
	call	?Save@CAspTextEdit@@IAEHXZ		; CAspTextEdit::Save
$L93903:

; 93   : 			}
; 94   : 	}
; 95   : 	CComboBox *pbox = (CComboBox *)GetDlgItem(IDC_ASPECT);

	push	1005					; 000003edH
	mov	ecx, DWORD PTR _this$[ebp]
	call	?GetDlgItem@CWnd@@QBEPAV1@H@Z		; CWnd::GetDlgItem
	mov	DWORD PTR _pbox$[ebp], eax

; 96   : 	int sel = pbox->GetCurSel();

	mov	ecx, DWORD PTR _pbox$[ebp]
	call	?GetCurSel@CComboBox@@QBEHXZ		; CComboBox::GetCurSel
	mov	DWORD PTR _sel$[ebp], eax

; 97   :     if ( sel != CB_ERR )

	cmp	DWORD PTR _sel$[ebp], -1
	je	SHORT $L93911

; 98   : 		pbox->GetLBText(sel,m_AspectStr);

	mov	eax, DWORD PTR _this$[ebp]
	add	eax, 208				; 000000d0H
	push	eax
	mov	ecx, DWORD PTR _sel$[ebp]
	push	ecx
	mov	ecx, DWORD PTR _pbox$[ebp]
	call	?GetLBText@CComboBox@@QBEXHAAV?$CStringT@GV?$StrTraitMFC@GV?$ChTraitsCRT@G@ATL@@@@@ATL@@@Z ; CComboBox::GetLBText

; 99   : 	else

	jmp	SHORT $L93912
$L93911:

; 100  : 	    pbox->GetWindowText(m_AspectStr);

	mov	eax, DWORD PTR _this$[ebp]
	add	eax, 208				; 000000d0H
	push	eax
	mov	ecx, DWORD PTR _pbox$[ebp]
	call	?GetWindowTextW@CWnd@@QBEXAAV?$CStringT@GV?$StrTraitMFC@GV?$ChTraitsCRT@G@ATL@@@@@ATL@@@Z ; CWnd::GetWindowTextW
$L93912:

; 101  :     if ( m_Plan1Str.GetLength() > 0 && m_Plan2Str.GetLength() > 0 && 
; 102  : 		   m_AspectStr.GetLength() > 0 )

	mov	ecx, DWORD PTR _this$[ebp]
	add	ecx, 212				; 000000d4H
	call	?GetLength@?$CSimpleStringT@G$0A@@ATL@@QBEHXZ ; ATL::CSimpleStringT<unsigned short,0>::GetLength
	test	eax, eax
	jle	SHORT $L93902
	mov	ecx, DWORD PTR _this$[ebp]
	add	ecx, 216				; 000000d8H
	call	?GetLength@?$CSimpleStringT@G$0A@@ATL@@QBEHXZ ; ATL::CSimpleStringT<unsigned short,0>::GetLength
	test	eax, eax
	jle	SHORT $L93902
	mov	ecx, DWORD PTR _this$[ebp]
	add	ecx, 208				; 000000d0H
	call	?GetLength@?$CSimpleStringT@G$0A@@ATL@@QBEHXZ ; ATL::CSimpleStringT<unsigned short,0>::GetLength
	test	eax, eax
	jle	SHORT $L93902

; 103  : 	   Find();

	mov	ecx, DWORD PTR _this$[ebp]
	call	?Find@CAspTextEdit@@IAEHXZ		; CAspTextEdit::Find
$L93902:

; 104  : }

	pop	edi
	pop	esi
	pop	ebx
	add	esp, 228				; 000000e4H
	cmp	ebp, esp
	call	__RTC_CheckEsp
	mov	esp, ebp
	pop	ebp
	ret	0
?OnSelchangeAspect@CAspTextEdit@@IAEXXZ ENDP		; CAspTextEdit::OnSelchangeAspect
_TEXT	ENDS
PUBLIC	?GetCtrl@RTFFuncs@@AAEPAVCRichEditCtrl@@H@Z	; RTFFuncs::GetCtrl
EXTRN	?GetModify@CRichEditCtrl@@QBEHXZ:NEAR		; CRichEditCtrl::GetModify
; Function compile flags: /Odt /RTCcsu /ZI
; File c:\astrow32dev\tbt32\rtffuncs.h
;	COMDAT ?Modified@RTFFuncs@@QAEHH@Z
_TEXT	SEGMENT
_this$ = -8						; size = 4
_id$ = 8						; size = 4
?Modified@RTFFuncs@@QAEHH@Z PROC NEAR			; RTFFuncs::Modified, COMDAT
; _this$ = ecx

; 36   :    BOOL Modified(int id) { return (GetCtrl(id)->GetModify() ); }

	push	ebp
	mov	ebp, esp
	sub	esp, 204				; 000000ccH
	push	ebx
	push	esi
	push	edi
	push	ecx
	lea	edi, DWORD PTR [ebp-204]
	mov	ecx, 51					; 00000033H
	mov	eax, -858993460				; ccccccccH
	rep stosd
	pop	ecx
	mov	DWORD PTR _this$[ebp], ecx
	mov	eax, DWORD PTR _id$[ebp]
	push	eax
	mov	ecx, DWORD PTR _this$[ebp]
	call	?GetCtrl@RTFFuncs@@AAEPAVCRichEditCtrl@@H@Z ; RTFFuncs::GetCtrl
	mov	ecx, eax
	call	?GetModify@CRichEditCtrl@@QBEHXZ	; CRichEditCtrl::GetModify
	pop	edi
	pop	esi
	pop	ebx
	add	esp, 204				; 000000ccH
	cmp	ebp, esp
	call	__RTC_CheckEsp
	mov	esp, ebp
	pop	ebp
	ret	4
?Modified@RTFFuncs@@QAEHH@Z ENDP			; RTFFuncs::Modified
; Function compile flags: /Odt /RTCcsu /ZI
_TEXT	ENDS
;	COMDAT ?GetCtrl@RTFFuncs@@AAEPAVCRichEditCtrl@@H@Z
_TEXT	SEGMENT
_this$ = -8						; size = 4
_id$ = 8						; size = 4
?GetCtrl@RTFFuncs@@AAEPAVCRichEditCtrl@@H@Z PROC NEAR	; RTFFuncs::GetCtrl, COMDAT
; _this$ = ecx

; 16   :    CRichEditCtrl *GetCtrl(int id) { return ((CRichEditCtrl *)pDialog->GetDlgItem(id));}

	push	ebp
	mov	ebp, esp
	sub	esp, 204				; 000000ccH
	push	ebx
	push	esi
	push	edi
	push	ecx
	lea	edi, DWORD PTR [ebp-204]
	mov	ecx, 51					; 00000033H
	mov	eax, -858993460				; ccccccccH
	rep stosd
	pop	ecx
	mov	DWORD PTR _this$[ebp], ecx
	mov	eax, DWORD PTR _id$[ebp]
	push	eax
	mov	ecx, DWORD PTR _this$[ebp]
	mov	ecx, DWORD PTR [ecx+12]
	call	?GetDlgItem@CWnd@@QBEPAV1@H@Z		; CWnd::GetDlgItem
	pop	edi
	pop	esi
	pop	ebx
	add	esp, 204				; 000000ccH
	cmp	ebp, esp
	call	__RTC_CheckEsp
	mov	esp, ebp
	pop	ebp
	ret	4
?GetCtrl@RTFFuncs@@AAEPAVCRichEditCtrl@@H@Z ENDP	; RTFFuncs::GetCtrl
; Function compile flags: /Odt /RTCcsu /ZI
; File c:\astrow32dev\tbt32\asptextedit.cpp
_TEXT	ENDS
;	COMDAT ?OnSelchangePlan1@CAspTextEdit@@IAEXXZ
_TEXT	SEGMENT
_sel$ = -32						; size = 4
_pbox$ = -20						; size = 4
_this$ = -8						; size = 4
?OnSelchangePlan1@CAspTextEdit@@IAEXXZ PROC NEAR	; CAspTextEdit::OnSelchangePlan1, COMDAT
; _this$ = ecx

; 107  : {

	push	ebp
	mov	ebp, esp
	sub	esp, 228				; 000000e4H
	push	ebx
	push	esi
	push	edi
	push	ecx
	lea	edi, DWORD PTR [ebp-228]
	mov	ecx, 57					; 00000039H
	mov	eax, -858993460				; ccccccccH
	rep stosd
	pop	ecx
	mov	DWORD PTR _this$[ebp], ecx

; 108  : 	// TODO: Add your control notification handler code here
; 109  : 	if ( m_Plan1Str.GetLength() > 0 && m_Plan2Str.GetLength() &&
; 110  : 		    m_AspectStr.GetLength() > 0 ) {

	mov	ecx, DWORD PTR _this$[ebp]
	add	ecx, 212				; 000000d4H
	call	?GetLength@?$CSimpleStringT@G$0A@@ATL@@QBEHXZ ; ATL::CSimpleStringT<unsigned short,0>::GetLength
	test	eax, eax
	jle	SHORT $L93917
	mov	ecx, DWORD PTR _this$[ebp]
	add	ecx, 216				; 000000d8H
	call	?GetLength@?$CSimpleStringT@G$0A@@ATL@@QBEHXZ ; ATL::CSimpleStringT<unsigned short,0>::GetLength
	test	eax, eax
	je	SHORT $L93917
	mov	ecx, DWORD PTR _this$[ebp]
	add	ecx, 208				; 000000d0H
	call	?GetLength@?$CSimpleStringT@G$0A@@ATL@@QBEHXZ ; ATL::CSimpleStringT<unsigned short,0>::GetLength
	test	eax, eax
	jle	SHORT $L93917

; 111  : 		if ( pFuncs->Modified(IDC_TEXT) ) {

	push	1004					; 000003ecH
	mov	eax, DWORD PTR _this$[ebp]
	mov	ecx, DWORD PTR [eax+412]
	call	?Modified@RTFFuncs@@QAEHH@Z		; RTFFuncs::Modified
	test	eax, eax
	je	SHORT $L93917

; 112  : 		   if ( MessageBox(_T("Do You Want to Save This Entry?"), _T("Record is Modified"), MB_ICONQUESTION|MB_YESNO ) == IDYES )

	push	36					; 00000024H
	push	OFFSET FLAT:??_C@_1CG@MLINDNFI@?$AAR?$AAe?$AAc?$AAo?$AAr?$AAd?$AA?5?$AAi?$AAs?$AA?5?$AAM?$AAo?$AAd?$AAi?$AAf?$AAi?$AAe?$AAd?$AA?$AA@
	push	OFFSET FLAT:??_C@_1EA@ECMOPAHL@?$AAD?$AAo?$AA?5?$AAY?$AAo?$AAu?$AA?5?$AAW?$AAa?$AAn?$AAt?$AA?5?$AAt?$AAo?$AA?5?$AAS?$AAa?$AAv?$AAe?$AA?5@
	mov	ecx, DWORD PTR _this$[ebp]
	call	?MessageBoxW@CWnd@@QAEHPBG0I@Z		; CWnd::MessageBoxW
	cmp	eax, 6
	jne	SHORT $L93917

; 113  : 			   Save();

	mov	ecx, DWORD PTR _this$[ebp]
	call	?Save@CAspTextEdit@@IAEHXZ		; CAspTextEdit::Save
$L93917:

; 114  : 			}
; 115  : 	}
; 116  : 	CComboBox *pbox = (CComboBox *)GetDlgItem(IDC_PLAN1);

	push	1006					; 000003eeH
	mov	ecx, DWORD PTR _this$[ebp]
	call	?GetDlgItem@CWnd@@QBEPAV1@H@Z		; CWnd::GetDlgItem
	mov	DWORD PTR _pbox$[ebp], eax

; 117  : 	int sel = pbox->GetCurSel();

	mov	ecx, DWORD PTR _pbox$[ebp]
	call	?GetCurSel@CComboBox@@QBEHXZ		; CComboBox::GetCurSel
	mov	DWORD PTR _sel$[ebp], eax

; 118  :     if ( sel != CB_ERR )

	cmp	DWORD PTR _sel$[ebp], -1
	je	SHORT $L93923

; 119  : 		pbox->GetLBText(sel,m_Plan1Str);

	mov	eax, DWORD PTR _this$[ebp]
	add	eax, 212				; 000000d4H
	push	eax
	mov	ecx, DWORD PTR _sel$[ebp]
	push	ecx
	mov	ecx, DWORD PTR _pbox$[ebp]
	call	?GetLBText@CComboBox@@QBEXHAAV?$CStringT@GV?$StrTraitMFC@GV?$ChTraitsCRT@G@ATL@@@@@ATL@@@Z ; CComboBox::GetLBText

; 120  : 	else

	jmp	SHORT $L93924
$L93923:

; 121  : 	    pbox->GetWindowText(m_Plan1Str);

	mov	eax, DWORD PTR _this$[ebp]
	add	eax, 212				; 000000d4H
	push	eax
	mov	ecx, DWORD PTR _pbox$[ebp]
	call	?GetWindowTextW@CWnd@@QBEXAAV?$CStringT@GV?$StrTraitMFC@GV?$ChTraitsCRT@G@ATL@@@@@ATL@@@Z ; CWnd::GetWindowTextW
$L93924:

; 122  :     if ( m_Plan1Str.GetLength() > 0 && m_Plan2Str.GetLength() > 0 && 
; 123  : 		   m_AspectStr.GetLength() > 0 )

	mov	ecx, DWORD PTR _this$[ebp]
	add	ecx, 212				; 000000d4H
	call	?GetLength@?$CSimpleStringT@G$0A@@ATL@@QBEHXZ ; ATL::CSimpleStringT<unsigned short,0>::GetLength
	test	eax, eax
	jle	SHORT $L93916
	mov	ecx, DWORD PTR _this$[ebp]
	add	ecx, 216				; 000000d8H
	call	?GetLength@?$CSimpleStringT@G$0A@@ATL@@QBEHXZ ; ATL::CSimpleStringT<unsigned short,0>::GetLength
	test	eax, eax
	jle	SHORT $L93916
	mov	ecx, DWORD PTR _this$[ebp]
	add	ecx, 208				; 000000d0H
	call	?GetLength@?$CSimpleStringT@G$0A@@ATL@@QBEHXZ ; ATL::CSimpleStringT<unsigned short,0>::GetLength
	test	eax, eax
	jle	SHORT $L93916

; 124  : 	   Find();

	mov	ecx, DWORD PTR _this$[ebp]
	call	?Find@CAspTextEdit@@IAEHXZ		; CAspTextEdit::Find
$L93916:

; 125  : }

	pop	edi
	pop	esi
	pop	ebx
	add	esp, 228				; 000000e4H
	cmp	ebp, esp
	call	__RTC_CheckEsp
	mov	esp, ebp
	pop	ebp
	ret	0
?OnSelchangePlan1@CAspTextEdit@@IAEXXZ ENDP		; CAspTextEdit::OnSelchangePlan1
; Function compile flags: /Odt /RTCcsu /ZI
_TEXT	ENDS
;	COMDAT ?OnSelchangePlan2@CAspTextEdit@@IAEXXZ
_TEXT	SEGMENT
_sel$ = -32						; size = 4
_pbox$ = -20						; size = 4
_this$ = -8						; size = 4
?OnSelchangePlan2@CAspTextEdit@@IAEXXZ PROC NEAR	; CAspTextEdit::OnSelchangePlan2, COMDAT
; _this$ = ecx

; 128  : {

	push	ebp
	mov	ebp, esp
	sub	esp, 228				; 000000e4H
	push	ebx
	push	esi
	push	edi
	push	ecx
	lea	edi, DWORD PTR [ebp-228]
	mov	ecx, 57					; 00000039H
	mov	eax, -858993460				; ccccccccH
	rep stosd
	pop	ecx
	mov	DWORD PTR _this$[ebp], ecx

; 129  : 	// TODO: Add your control notification handler code here
; 130  : 	if ( m_Plan1Str.GetLength() > 0 && m_Plan2Str.GetLength() &&
; 131  : 		    m_AspectStr.GetLength() > 0 ) {

	mov	ecx, DWORD PTR _this$[ebp]
	add	ecx, 212				; 000000d4H
	call	?GetLength@?$CSimpleStringT@G$0A@@ATL@@QBEHXZ ; ATL::CSimpleStringT<unsigned short,0>::GetLength
	test	eax, eax
	jle	SHORT $L93929
	mov	ecx, DWORD PTR _this$[ebp]
	add	ecx, 216				; 000000d8H
	call	?GetLength@?$CSimpleStringT@G$0A@@ATL@@QBEHXZ ; ATL::CSimpleStringT<unsigned short,0>::GetLength
	test	eax, eax
	je	SHORT $L93929
	mov	ecx, DWORD PTR _this$[ebp]
	add	ecx, 208				; 000000d0H
	call	?GetLength@?$CSimpleStringT@G$0A@@ATL@@QBEHXZ ; ATL::CSimpleStringT<unsigned short,0>::GetLength
	test	eax, eax
	jle	SHORT $L93929

; 132  : 		if ( pFuncs->Modified(IDC_TEXT) ) {

	push	1004					; 000003ecH
	mov	eax, DWORD PTR _this$[ebp]
	mov	ecx, DWORD PTR [eax+412]
	call	?Modified@RTFFuncs@@QAEHH@Z		; RTFFuncs::Modified
	test	eax, eax
	je	SHORT $L93929

; 133  : 		   if ( MessageBox(_T("Do You Want to Save This Entry?"), _T("Record is Modified"), MB_ICONQUESTION|MB_YESNO ) == IDYES )

	push	36					; 00000024H
	push	OFFSET FLAT:??_C@_1CG@MLINDNFI@?$AAR?$AAe?$AAc?$AAo?$AAr?$AAd?$AA?5?$AAi?$AAs?$AA?5?$AAM?$AAo?$AAd?$AAi?$AAf?$AAi?$AAe?$AAd?$AA?$AA@
	push	OFFSET FLAT:??_C@_1EA@ECMOPAHL@?$AAD?$AAo?$AA?5?$AAY?$AAo?$AAu?$AA?5?$AAW?$AAa?$AAn?$AAt?$AA?5?$AAt?$AAo?$AA?5?$AAS?$AAa?$AAv?$AAe?$AA?5@
	mov	ecx, DWORD PTR _this$[ebp]
	call	?MessageBoxW@CWnd@@QAEHPBG0I@Z		; CWnd::MessageBoxW
	cmp	eax, 6
	jne	SHORT $L93929

; 134  : 			   Save();

	mov	ecx, DWORD PTR _this$[ebp]
	call	?Save@CAspTextEdit@@IAEHXZ		; CAspTextEdit::Save
$L93929:

; 135  : 			}
; 136  : 	}
; 137  : 	CComboBox *pbox = (CComboBox *)GetDlgItem(IDC_PLAN2);

	push	1007					; 000003efH
	mov	ecx, DWORD PTR _this$[ebp]
	call	?GetDlgItem@CWnd@@QBEPAV1@H@Z		; CWnd::GetDlgItem
	mov	DWORD PTR _pbox$[ebp], eax

; 138  : 	int sel = pbox->GetCurSel();

	mov	ecx, DWORD PTR _pbox$[ebp]
	call	?GetCurSel@CComboBox@@QBEHXZ		; CComboBox::GetCurSel
	mov	DWORD PTR _sel$[ebp], eax

; 139  :     if ( sel != CB_ERR )

	cmp	DWORD PTR _sel$[ebp], -1
	je	SHORT $L93935

; 140  : 		pbox->GetLBText(sel,m_Plan2Str);

	mov	eax, DWORD PTR _this$[ebp]
	add	eax, 216				; 000000d8H
	push	eax
	mov	ecx, DWORD PTR _sel$[ebp]
	push	ecx
	mov	ecx, DWORD PTR _pbox$[ebp]
	call	?GetLBText@CComboBox@@QBEXHAAV?$CStringT@GV?$StrTraitMFC@GV?$ChTraitsCRT@G@ATL@@@@@ATL@@@Z ; CComboBox::GetLBText

; 141  : 	else

	jmp	SHORT $L93936
$L93935:

; 142  : 	    pbox->GetWindowText(m_Plan2Str);

	mov	eax, DWORD PTR _this$[ebp]
	add	eax, 216				; 000000d8H
	push	eax
	mov	ecx, DWORD PTR _pbox$[ebp]
	call	?GetWindowTextW@CWnd@@QBEXAAV?$CStringT@GV?$StrTraitMFC@GV?$ChTraitsCRT@G@ATL@@@@@ATL@@@Z ; CWnd::GetWindowTextW
$L93936:

; 143  :     if ( m_Plan1Str.GetLength() > 0 && m_Plan2Str.GetLength() > 0 && 
; 144  : 		   m_AspectStr.GetLength() > 0 )

	mov	ecx, DWORD PTR _this$[ebp]
	add	ecx, 212				; 000000d4H
	call	?GetLength@?$CSimpleStringT@G$0A@@ATL@@QBEHXZ ; ATL::CSimpleStringT<unsigned short,0>::GetLength
	test	eax, eax
	jle	SHORT $L93928
	mov	ecx, DWORD PTR _this$[ebp]
	add	ecx, 216				; 000000d8H
	call	?GetLength@?$CSimpleStringT@G$0A@@ATL@@QBEHXZ ; ATL::CSimpleStringT<unsigned short,0>::GetLength
	test	eax, eax
	jle	SHORT $L93928
	mov	ecx, DWORD PTR _this$[ebp]
	add	ecx, 208				; 000000d0H
	call	?GetLength@?$CSimpleStringT@G$0A@@ATL@@QBEHXZ ; ATL::CSimpleStringT<unsigned short,0>::GetLength
	test	eax, eax
	jle	SHORT $L93928

; 145  : 	   Find();

	mov	ecx, DWORD PTR _this$[ebp]
	call	?Find@CAspTextEdit@@IAEHXZ		; CAspTextEdit::Find
$L93928:

; 146  : 	
; 147  : }

	pop	edi
	pop	esi
	pop	ebx
	add	esp, 228				; 000000e4H
	cmp	ebp, esp
	call	__RTC_CheckEsp
	mov	esp, ebp
	pop	ebp
	ret	0
?OnSelchangePlan2@CAspTextEdit@@IAEXXZ ENDP		; CAspTextEdit::OnSelchangePlan2
_TEXT	ENDS
PUBLIC	?Clear@RTFFuncs@@QAEXH@Z			; RTFFuncs::Clear
; Function compile flags: /Odt /RTCcsu /ZI
;	COMDAT ?OnClear@CAspTextEdit@@IAEXXZ
_TEXT	SEGMENT
_this$ = -8						; size = 4
?OnClear@CAspTextEdit@@IAEXXZ PROC NEAR			; CAspTextEdit::OnClear, COMDAT
; _this$ = ecx

; 151  : {

	push	ebp
	mov	ebp, esp
	sub	esp, 204				; 000000ccH
	push	ebx
	push	esi
	push	edi
	push	ecx
	lea	edi, DWORD PTR [ebp-204]
	mov	ecx, 51					; 00000033H
	mov	eax, -858993460				; ccccccccH
	rep stosd
	pop	ecx
	mov	DWORD PTR _this$[ebp], ecx

; 152  : 	// TODO: Add your command handler code here
; 153  :    pFuncs->Clear(IDC_TEXT);	

	push	1004					; 000003ecH
	mov	eax, DWORD PTR _this$[ebp]
	mov	ecx, DWORD PTR [eax+412]
	call	?Clear@RTFFuncs@@QAEXH@Z		; RTFFuncs::Clear

; 154  : }

	pop	edi
	pop	esi
	pop	ebx
	add	esp, 204				; 000000ccH
	cmp	ebp, esp
	call	__RTC_CheckEsp
	mov	esp, ebp
	pop	ebp
	ret	0
?OnClear@CAspTextEdit@@IAEXXZ ENDP			; CAspTextEdit::OnClear
_TEXT	ENDS
EXTRN	?Clear@CRichEditCtrl@@QAEXXZ:NEAR		; CRichEditCtrl::Clear
; Function compile flags: /Odt /RTCcsu /ZI
; File c:\astrow32dev\tbt32\rtffuncs.h
;	COMDAT ?Clear@RTFFuncs@@QAEXH@Z
_TEXT	SEGMENT
_this$ = -8						; size = 4
_id$ = 8						; size = 4
?Clear@RTFFuncs@@QAEXH@Z PROC NEAR			; RTFFuncs::Clear, COMDAT
; _this$ = ecx

; 35   :    void Clear( int id ) { GetCtrl(id)->Clear(); }

	push	ebp
	mov	ebp, esp
	sub	esp, 204				; 000000ccH
	push	ebx
	push	esi
	push	edi
	push	ecx
	lea	edi, DWORD PTR [ebp-204]
	mov	ecx, 51					; 00000033H
	mov	eax, -858993460				; ccccccccH
	rep stosd
	pop	ecx
	mov	DWORD PTR _this$[ebp], ecx
	mov	eax, DWORD PTR _id$[ebp]
	push	eax
	mov	ecx, DWORD PTR _this$[ebp]
	call	?GetCtrl@RTFFuncs@@AAEPAVCRichEditCtrl@@H@Z ; RTFFuncs::GetCtrl
	mov	ecx, eax
	call	?Clear@CRichEditCtrl@@QAEXXZ		; CRichEditCtrl::Clear
	pop	edi
	pop	esi
	pop	ebx
	add	esp, 204				; 000000ccH
	cmp	ebp, esp
	call	__RTC_CheckEsp
	mov	esp, ebp
	pop	ebp
	ret	4
?Clear@RTFFuncs@@QAEXH@Z ENDP				; RTFFuncs::Clear
; Function compile flags: /Odt /RTCcsu /ZI
; File c:\astrow32dev\tbt32\asptextedit.cpp
_TEXT	ENDS
;	COMDAT ?OnUpdateClear@CAspTextEdit@@IAEXPAVCCmdUI@@@Z
_TEXT	SEGMENT
_this$ = -8						; size = 4
_pCmdUI$ = 8						; size = 4
?OnUpdateClear@CAspTextEdit@@IAEXPAVCCmdUI@@@Z PROC NEAR ; CAspTextEdit::OnUpdateClear, COMDAT
; _this$ = ecx

; 157  : {

	push	ebp
	mov	ebp, esp
	sub	esp, 204				; 000000ccH
	push	ebx
	push	esi
	push	edi
	push	ecx
	lea	edi, DWORD PTR [ebp-204]
	mov	ecx, 51					; 00000033H
	mov	eax, -858993460				; ccccccccH
	rep stosd
	pop	ecx
	mov	DWORD PTR _this$[ebp], ecx

; 158  : 	// TODO: Add your command update UI handler code here
; 159  :    pCmdUI->Enable();	

	mov	esi, esp
	push	1
	mov	eax, DWORD PTR _pCmdUI$[ebp]
	mov	edx, DWORD PTR [eax]
	mov	ecx, DWORD PTR _pCmdUI$[ebp]
	call	DWORD PTR [edx]
	cmp	esi, esp
	call	__RTC_CheckEsp

; 160  : }

	pop	edi
	pop	esi
	pop	ebx
	add	esp, 204				; 000000ccH
	cmp	ebp, esp
	call	__RTC_CheckEsp
	mov	esp, ebp
	pop	ebp
	ret	4
?OnUpdateClear@CAspTextEdit@@IAEXPAVCCmdUI@@@Z ENDP	; CAspTextEdit::OnUpdateClear
; Function compile flags: /Odt /RTCcsu /ZI
_TEXT	ENDS
;	COMDAT ?OnUpdateCopy@CAspTextEdit@@IAEXPAVCCmdUI@@@Z
_TEXT	SEGMENT
_this$ = -8						; size = 4
_pCmdUI$ = 8						; size = 4
?OnUpdateCopy@CAspTextEdit@@IAEXPAVCCmdUI@@@Z PROC NEAR	; CAspTextEdit::OnUpdateCopy, COMDAT
; _this$ = ecx

; 163  : {

	push	ebp
	mov	ebp, esp
	sub	esp, 204				; 000000ccH
	push	ebx
	push	esi
	push	edi
	push	ecx
	lea	edi, DWORD PTR [ebp-204]
	mov	ecx, 51					; 00000033H
	mov	eax, -858993460				; ccccccccH
	rep stosd
	pop	ecx
	mov	DWORD PTR _this$[ebp], ecx

; 164  : 	// TODO: Add your command update UI handler code here
; 165  : 	pCmdUI->Enable();

	mov	esi, esp
	push	1
	mov	eax, DWORD PTR _pCmdUI$[ebp]
	mov	edx, DWORD PTR [eax]
	mov	ecx, DWORD PTR _pCmdUI$[ebp]
	call	DWORD PTR [edx]
	cmp	esi, esp
	call	__RTC_CheckEsp

; 166  : }

	pop	edi
	pop	esi
	pop	ebx
	add	esp, 204				; 000000ccH
	cmp	ebp, esp
	call	__RTC_CheckEsp
	mov	esp, ebp
	pop	ebp
	ret	4
?OnUpdateCopy@CAspTextEdit@@IAEXPAVCCmdUI@@@Z ENDP	; CAspTextEdit::OnUpdateCopy
_TEXT	ENDS
PUBLIC	?Copy@RTFFuncs@@QAEXH@Z				; RTFFuncs::Copy
; Function compile flags: /Odt /RTCcsu /ZI
;	COMDAT ?OnCopy@CAspTextEdit@@IAEXXZ
_TEXT	SEGMENT
_this$ = -8						; size = 4
?OnCopy@CAspTextEdit@@IAEXXZ PROC NEAR			; CAspTextEdit::OnCopy, COMDAT
; _this$ = ecx

; 169  : {

	push	ebp
	mov	ebp, esp
	sub	esp, 204				; 000000ccH
	push	ebx
	push	esi
	push	edi
	push	ecx
	lea	edi, DWORD PTR [ebp-204]
	mov	ecx, 51					; 00000033H
	mov	eax, -858993460				; ccccccccH
	rep stosd
	pop	ecx
	mov	DWORD PTR _this$[ebp], ecx

; 170  : 	// TODO: Add your command handler code here
; 171  :    pFuncs->Copy(IDC_TEXT);	

	push	1004					; 000003ecH
	mov	eax, DWORD PTR _this$[ebp]
	mov	ecx, DWORD PTR [eax+412]
	call	?Copy@RTFFuncs@@QAEXH@Z			; RTFFuncs::Copy

; 172  : }

	pop	edi
	pop	esi
	pop	ebx
	add	esp, 204				; 000000ccH
	cmp	ebp, esp
	call	__RTC_CheckEsp
	mov	esp, ebp
	pop	ebp
	ret	0
?OnCopy@CAspTextEdit@@IAEXXZ ENDP			; CAspTextEdit::OnCopy
_TEXT	ENDS
EXTRN	?Copy@CRichEditCtrl@@QAEXXZ:NEAR		; CRichEditCtrl::Copy
; Function compile flags: /Odt /RTCcsu /ZI
; File c:\astrow32dev\tbt32\rtffuncs.h
;	COMDAT ?Copy@RTFFuncs@@QAEXH@Z
_TEXT	SEGMENT
_this$ = -8						; size = 4
_id$ = 8						; size = 4
?Copy@RTFFuncs@@QAEXH@Z PROC NEAR			; RTFFuncs::Copy, COMDAT
; _this$ = ecx

; 33   :    void Copy( int id ) { GetCtrl(id)->Copy(); }

	push	ebp
	mov	ebp, esp
	sub	esp, 204				; 000000ccH
	push	ebx
	push	esi
	push	edi
	push	ecx
	lea	edi, DWORD PTR [ebp-204]
	mov	ecx, 51					; 00000033H
	mov	eax, -858993460				; ccccccccH
	rep stosd
	pop	ecx
	mov	DWORD PTR _this$[ebp], ecx
	mov	eax, DWORD PTR _id$[ebp]
	push	eax
	mov	ecx, DWORD PTR _this$[ebp]
	call	?GetCtrl@RTFFuncs@@AAEPAVCRichEditCtrl@@H@Z ; RTFFuncs::GetCtrl
	mov	ecx, eax
	call	?Copy@CRichEditCtrl@@QAEXXZ		; CRichEditCtrl::Copy
	pop	edi
	pop	esi
	pop	ebx
	add	esp, 204				; 000000ccH
	cmp	ebp, esp
	call	__RTC_CheckEsp
	mov	esp, ebp
	pop	ebp
	ret	4
?Copy@RTFFuncs@@QAEXH@Z ENDP				; RTFFuncs::Copy
_TEXT	ENDS
PUBLIC	?Cut@RTFFuncs@@QAEXH@Z				; RTFFuncs::Cut
; Function compile flags: /Odt /RTCcsu /ZI
; File c:\astrow32dev\tbt32\asptextedit.cpp
;	COMDAT ?OnCut@CAspTextEdit@@IAEXXZ
_TEXT	SEGMENT
_this$ = -8						; size = 4
?OnCut@CAspTextEdit@@IAEXXZ PROC NEAR			; CAspTextEdit::OnCut, COMDAT
; _this$ = ecx

; 175  : {

	push	ebp
	mov	ebp, esp
	sub	esp, 204				; 000000ccH
	push	ebx
	push	esi
	push	edi
	push	ecx
	lea	edi, DWORD PTR [ebp-204]
	mov	ecx, 51					; 00000033H
	mov	eax, -858993460				; ccccccccH
	rep stosd
	pop	ecx
	mov	DWORD PTR _this$[ebp], ecx

; 176  : 	// TODO: Add your command handler code here
; 177  :    pFuncs->Cut(IDC_TEXT);	

	push	1004					; 000003ecH
	mov	eax, DWORD PTR _this$[ebp]
	mov	ecx, DWORD PTR [eax+412]
	call	?Cut@RTFFuncs@@QAEXH@Z			; RTFFuncs::Cut

; 178  : }

	pop	edi
	pop	esi
	pop	ebx
	add	esp, 204				; 000000ccH
	cmp	ebp, esp
	call	__RTC_CheckEsp
	mov	esp, ebp
	pop	ebp
	ret	0
?OnCut@CAspTextEdit@@IAEXXZ ENDP			; CAspTextEdit::OnCut
_TEXT	ENDS
EXTRN	?Cut@CRichEditCtrl@@QAEXXZ:NEAR			; CRichEditCtrl::Cut
; Function compile flags: /Odt /RTCcsu /ZI
; File c:\astrow32dev\tbt32\rtffuncs.h
;	COMDAT ?Cut@RTFFuncs@@QAEXH@Z
_TEXT	SEGMENT
_this$ = -8						; size = 4
_id$ = 8						; size = 4
?Cut@RTFFuncs@@QAEXH@Z PROC NEAR			; RTFFuncs::Cut, COMDAT
; _this$ = ecx

; 31   :    void Cut( int id ) { GetCtrl(id)->Cut(); }

	push	ebp
	mov	ebp, esp
	sub	esp, 204				; 000000ccH
	push	ebx
	push	esi
	push	edi
	push	ecx
	lea	edi, DWORD PTR [ebp-204]
	mov	ecx, 51					; 00000033H
	mov	eax, -858993460				; ccccccccH
	rep stosd
	pop	ecx
	mov	DWORD PTR _this$[ebp], ecx
	mov	eax, DWORD PTR _id$[ebp]
	push	eax
	mov	ecx, DWORD PTR _this$[ebp]
	call	?GetCtrl@RTFFuncs@@AAEPAVCRichEditCtrl@@H@Z ; RTFFuncs::GetCtrl
	mov	ecx, eax
	call	?Cut@CRichEditCtrl@@QAEXXZ		; CRichEditCtrl::Cut
	pop	edi
	pop	esi
	pop	ebx
	add	esp, 204				; 000000ccH
	cmp	ebp, esp
	call	__RTC_CheckEsp
	mov	esp, ebp
	pop	ebp
	ret	4
?Cut@RTFFuncs@@QAEXH@Z ENDP				; RTFFuncs::Cut
; Function compile flags: /Odt /RTCcsu /ZI
; File c:\astrow32dev\tbt32\asptextedit.cpp
_TEXT	ENDS
;	COMDAT ?OnUpdateCut@CAspTextEdit@@IAEXPAVCCmdUI@@@Z
_TEXT	SEGMENT
_this$ = -8						; size = 4
_pCmdUI$ = 8						; size = 4
?OnUpdateCut@CAspTextEdit@@IAEXPAVCCmdUI@@@Z PROC NEAR	; CAspTextEdit::OnUpdateCut, COMDAT
; _this$ = ecx

; 181  : {

	push	ebp
	mov	ebp, esp
	sub	esp, 204				; 000000ccH
	push	ebx
	push	esi
	push	edi
	push	ecx
	lea	edi, DWORD PTR [ebp-204]
	mov	ecx, 51					; 00000033H
	mov	eax, -858993460				; ccccccccH
	rep stosd
	pop	ecx
	mov	DWORD PTR _this$[ebp], ecx

; 182  : 	// TODO: Add your command update UI handler code here
; 183  : 	pCmdUI->Enable();	

	mov	esi, esp
	push	1
	mov	eax, DWORD PTR _pCmdUI$[ebp]
	mov	edx, DWORD PTR [eax]
	mov	ecx, DWORD PTR _pCmdUI$[ebp]
	call	DWORD PTR [edx]
	cmp	esi, esp
	call	__RTC_CheckEsp

; 184  : }

	pop	edi
	pop	esi
	pop	ebx
	add	esp, 204				; 000000ccH
	cmp	ebp, esp
	call	__RTC_CheckEsp
	mov	esp, ebp
	pop	ebp
	ret	4
?OnUpdateCut@CAspTextEdit@@IAEXPAVCCmdUI@@@Z ENDP	; CAspTextEdit::OnUpdateCut
_TEXT	ENDS
PUBLIC	?Paste@RTFFuncs@@QAEXH@Z			; RTFFuncs::Paste
; Function compile flags: /Odt /RTCcsu /ZI
;	COMDAT ?OnPaste@CAspTextEdit@@IAEXXZ
_TEXT	SEGMENT
_this$ = -8						; size = 4
?OnPaste@CAspTextEdit@@IAEXXZ PROC NEAR			; CAspTextEdit::OnPaste, COMDAT
; _this$ = ecx

; 187  : {

	push	ebp
	mov	ebp, esp
	sub	esp, 204				; 000000ccH
	push	ebx
	push	esi
	push	edi
	push	ecx
	lea	edi, DWORD PTR [ebp-204]
	mov	ecx, 51					; 00000033H
	mov	eax, -858993460				; ccccccccH
	rep stosd
	pop	ecx
	mov	DWORD PTR _this$[ebp], ecx

; 188  : 	// TODO: Add your command handler code here
; 189  :    pFuncs->Paste(IDC_TEXT);	

	push	1004					; 000003ecH
	mov	eax, DWORD PTR _this$[ebp]
	mov	ecx, DWORD PTR [eax+412]
	call	?Paste@RTFFuncs@@QAEXH@Z		; RTFFuncs::Paste

; 190  : }

	pop	edi
	pop	esi
	pop	ebx
	add	esp, 204				; 000000ccH
	cmp	ebp, esp
	call	__RTC_CheckEsp
	mov	esp, ebp
	pop	ebp
	ret	0
?OnPaste@CAspTextEdit@@IAEXXZ ENDP			; CAspTextEdit::OnPaste
_TEXT	ENDS
EXTRN	?Paste@CRichEditCtrl@@QAEXXZ:NEAR		; CRichEditCtrl::Paste
; Function compile flags: /Odt /RTCcsu /ZI
; File c:\astrow32dev\tbt32\rtffuncs.h
;	COMDAT ?Paste@RTFFuncs@@QAEXH@Z
_TEXT	SEGMENT
_this$ = -8						; size = 4
_id$ = 8						; size = 4
?Paste@RTFFuncs@@QAEXH@Z PROC NEAR			; RTFFuncs::Paste, COMDAT
; _this$ = ecx

; 32   :    void Paste( int id ) { GetCtrl(id)->Paste(); }

	push	ebp
	mov	ebp, esp
	sub	esp, 204				; 000000ccH
	push	ebx
	push	esi
	push	edi
	push	ecx
	lea	edi, DWORD PTR [ebp-204]
	mov	ecx, 51					; 00000033H
	mov	eax, -858993460				; ccccccccH
	rep stosd
	pop	ecx
	mov	DWORD PTR _this$[ebp], ecx
	mov	eax, DWORD PTR _id$[ebp]
	push	eax
	mov	ecx, DWORD PTR _this$[ebp]
	call	?GetCtrl@RTFFuncs@@AAEPAVCRichEditCtrl@@H@Z ; RTFFuncs::GetCtrl
	mov	ecx, eax
	call	?Paste@CRichEditCtrl@@QAEXXZ		; CRichEditCtrl::Paste
	pop	edi
	pop	esi
	pop	ebx
	add	esp, 204				; 000000ccH
	cmp	ebp, esp
	call	__RTC_CheckEsp
	mov	esp, ebp
	pop	ebp
	ret	4
?Paste@RTFFuncs@@QAEXH@Z ENDP				; RTFFuncs::Paste
; Function compile flags: /Odt /RTCcsu /ZI
; File c:\astrow32dev\tbt32\asptextedit.cpp
_TEXT	ENDS
;	COMDAT ?OnUpdatePaste@CAspTextEdit@@IAEXPAVCCmdUI@@@Z
_TEXT	SEGMENT
_this$ = -8						; size = 4
_pCmdUI$ = 8						; size = 4
?OnUpdatePaste@CAspTextEdit@@IAEXPAVCCmdUI@@@Z PROC NEAR ; CAspTextEdit::OnUpdatePaste, COMDAT
; _this$ = ecx

; 193  : {

	push	ebp
	mov	ebp, esp
	sub	esp, 204				; 000000ccH
	push	ebx
	push	esi
	push	edi
	push	ecx
	lea	edi, DWORD PTR [ebp-204]
	mov	ecx, 51					; 00000033H
	mov	eax, -858993460				; ccccccccH
	rep stosd
	pop	ecx
	mov	DWORD PTR _this$[ebp], ecx

; 194  : 	// TODO: Add your command update UI handler code here
; 195  : 	pCmdUI->Enable();

	mov	esi, esp
	push	1
	mov	eax, DWORD PTR _pCmdUI$[ebp]
	mov	edx, DWORD PTR [eax]
	mov	ecx, DWORD PTR _pCmdUI$[ebp]
	call	DWORD PTR [edx]
	cmp	esi, esp
	call	__RTC_CheckEsp

; 196  : }

	pop	edi
	pop	esi
	pop	ebx
	add	esp, 204				; 000000ccH
	cmp	ebp, esp
	call	__RTC_CheckEsp
	mov	esp, ebp
	pop	ebp
	ret	4
?OnUpdatePaste@CAspTextEdit@@IAEXPAVCCmdUI@@@Z ENDP	; CAspTextEdit::OnUpdatePaste
_TEXT	ENDS
PUBLIC	?toSymType@CATextTypeAry@@QAEPADAAV?$CStringT@GV?$StrTraitMFC@GV?$ChTraitsCRT@G@ATL@@@@@ATL@@H@Z ; CATextTypeAry::toSymType
PUBLIC	??_C@_0BB@ECMMOHAG@?$CF?$FL?$FO?$HM?$FN?$CFc?$CF?$FL?$FO?$HM?$FN?$CFc?$CFs?$AA@ ; `string'
EXTRN	?OnInitDialog@CDialog@@UAEHXZ:NEAR		; CDialog::OnInitDialog
EXTRN	?toCombo@CSymbolAry@@QAEHPAVCComboBox@@HPADH@Z:NEAR ; CSymbolAry::toCombo
EXTRN	?pRegSymbols@@3PAVCSymbolAry@@A:DWORD		; pRegSymbols
EXTRN	?pATextTypes@@3PAVCATextTypeAry@@A:DWORD	; pATextTypes
EXTRN	_sscanf:NEAR
;	COMDAT ??_C@_0BB@ECMMOHAG@?$CF?$FL?$FO?$HM?$FN?$CFc?$CF?$FL?$FO?$HM?$FN?$CFc?$CFs?$AA@
CONST	SEGMENT
??_C@_0BB@ECMMOHAG@?$CF?$FL?$FO?$HM?$FN?$CFc?$CF?$FL?$FO?$HM?$FN?$CFc?$CFs?$AA@ DB '%'
	DB	'[^|]%c%[^|]%c%s', 00H			; `string'
; Function compile flags: /Odt /RTCcsu /ZI
CONST	ENDS
;	COMDAT ?OnInitDialog@CAspTextEdit@@MAEHXZ
_TEXT	SEGMENT
_pt$ = -152						; size = 4
_pbox$ = -140						; size = 4
_ch$ = -125						; size = 1
_sm3$ = -116						; size = 15
_sm2$ = -92						; size = 30
_sm1$ = -52						; size = 30
_this$ = -12						; size = 4
__$ArrayPad$ = -4					; size = 4
__$ReturnAddr$ = 4					; size = 4
?OnInitDialog@CAspTextEdit@@MAEHXZ PROC NEAR		; CAspTextEdit::OnInitDialog, COMDAT
; _this$ = ecx

; 199  : {

	push	ebp
	mov	ebp, esp
	sub	esp, 348				; 0000015cH
	push	ebx
	push	esi
	push	edi
	push	ecx
	lea	edi, DWORD PTR [ebp-348]
	mov	ecx, 87					; 00000057H
	mov	eax, -858993460				; ccccccccH
	rep stosd
	pop	ecx
	mov	eax, DWORD PTR ___security_cookie
	mov	DWORD PTR __$ArrayPad$[ebp], eax
	mov	DWORD PTR _this$[ebp], ecx

; 200  : 	CDialog::OnInitDialog();

	mov	ecx, DWORD PTR _this$[ebp]
	call	?OnInitDialog@CDialog@@UAEHXZ		; CDialog::OnInitDialog

; 201  : 	
; 202  : 	// TODO: Add extra initialization here
; 203  : 	char sm1[30], sm2[30], sm3[15], ch;
; 204  : 	CDialog::OnInitDialog();

	mov	ecx, DWORD PTR _this$[ebp]
	call	?OnInitDialog@CDialog@@UAEHXZ		; CDialog::OnInitDialog

; 205  : 	CComboBox *pbox = (CComboBox *)GetDlgItem(IDC_PLAN1);

	push	1006					; 000003eeH
	mov	ecx, DWORD PTR _this$[ebp]
	call	?GetDlgItem@CWnd@@QBEPAV1@H@Z		; CWnd::GetDlgItem
	mov	DWORD PTR _pbox$[ebp], eax

; 206  : 	char *pt = pATextTypes->toSymType(m_TextType,3);

	push	3
	mov	eax, DWORD PTR _this$[ebp]
	add	eax, 220				; 000000dcH
	push	eax
	mov	ecx, DWORD PTR ?pATextTypes@@3PAVCATextTypeAry@@A ; pATextTypes
	call	?toSymType@CATextTypeAry@@QAEPADAAV?$CStringT@GV?$StrTraitMFC@GV?$ChTraitsCRT@G@ATL@@@@@ATL@@H@Z ; CATextTypeAry::toSymType
	mov	DWORD PTR _pt$[ebp], eax

; 207  : 	sscanf(pt, "%[^|]%c%[^|]%c%s", sm1, &ch, sm2, &ch, sm3  );

	lea	eax, DWORD PTR _sm3$[ebp]
	push	eax
	lea	ecx, DWORD PTR _ch$[ebp]
	push	ecx
	lea	edx, DWORD PTR _sm2$[ebp]
	push	edx
	lea	eax, DWORD PTR _ch$[ebp]
	push	eax
	lea	ecx, DWORD PTR _sm1$[ebp]
	push	ecx
	push	OFFSET FLAT:??_C@_0BB@ECMMOHAG@?$CF?$FL?$FO?$HM?$FN?$CFc?$CF?$FL?$FO?$HM?$FN?$CFc?$CFs?$AA@
	mov	edx, DWORD PTR _pt$[ebp]
	push	edx
	call	_sscanf
	add	esp, 28					; 0000001cH

; 208  : 	pRegSymbols->toCombo(pbox,1, sm1);

	push	-1
	lea	eax, DWORD PTR _sm1$[ebp]
	push	eax
	push	1
	mov	ecx, DWORD PTR _pbox$[ebp]
	push	ecx
	mov	ecx, DWORD PTR ?pRegSymbols@@3PAVCSymbolAry@@A ; pRegSymbols
	call	?toCombo@CSymbolAry@@QAEHPAVCComboBox@@HPADH@Z ; CSymbolAry::toCombo

; 209  : 	pbox = (CComboBox *)GetDlgItem(IDC_PLAN2);

	push	1007					; 000003efH
	mov	ecx, DWORD PTR _this$[ebp]
	call	?GetDlgItem@CWnd@@QBEPAV1@H@Z		; CWnd::GetDlgItem
	mov	DWORD PTR _pbox$[ebp], eax

; 210  :     pRegSymbols->toCombo(pbox,2, sm2, 4);

	push	4
	lea	eax, DWORD PTR _sm2$[ebp]
	push	eax
	push	2
	mov	ecx, DWORD PTR _pbox$[ebp]
	push	ecx
	mov	ecx, DWORD PTR ?pRegSymbols@@3PAVCSymbolAry@@A ; pRegSymbols
	call	?toCombo@CSymbolAry@@QAEHPAVCComboBox@@HPADH@Z ; CSymbolAry::toCombo

; 211  :     pbox = (CComboBox *)GetDlgItem(IDC_ASPECT);

	push	1005					; 000003edH
	mov	ecx, DWORD PTR _this$[ebp]
	call	?GetDlgItem@CWnd@@QBEPAV1@H@Z		; CWnd::GetDlgItem
	mov	DWORD PTR _pbox$[ebp], eax

; 212  :     pRegSymbols->toCombo(pbox,3, sm3);

	push	-1
	lea	eax, DWORD PTR _sm3$[ebp]
	push	eax
	push	3
	mov	ecx, DWORD PTR _pbox$[ebp]
	push	ecx
	mov	ecx, DWORD PTR ?pRegSymbols@@3PAVCSymbolAry@@A ; pRegSymbols
	call	?toCombo@CSymbolAry@@QAEHPAVCComboBox@@HPADH@Z ; CSymbolAry::toCombo

; 213  : 
; 214  : 	return TRUE;  // return TRUE unless you set the focus to a control

	mov	eax, 1

; 215  : 	              // EXCEPTION: OCX Property Pages should return FALSE
; 216  : }

	push	edx
	mov	ecx, ebp
	push	eax
	lea	edx, DWORD PTR $L94488
	call	@_RTC_CheckStackVars@8
	pop	eax
	pop	edx
	mov	ecx, DWORD PTR __$ArrayPad$[ebp]
	call	@__security_check_cookie@4
	pop	edi
	pop	esi
	pop	ebx
	add	esp, 348				; 0000015cH
	cmp	ebp, esp
	call	__RTC_CheckEsp
	mov	esp, ebp
	pop	ebp
	ret	0
$L94488:
	DD	4
	DD	$L94487
$L94487:
	DD	-52					; ffffffccH
	DD	30					; 0000001eH
	DD	$L94482
	DD	-92					; ffffffa4H
	DD	30					; 0000001eH
	DD	$L94483
	DD	-116					; ffffff8cH
	DD	15					; 0000000fH
	DD	$L94484
	DD	-125					; ffffff83H
	DD	1
	DD	$L94485
$L94485:
	DB	99					; 00000063H
	DB	104					; 00000068H
	DB	0
$L94484:
	DB	115					; 00000073H
	DB	109					; 0000006dH
	DB	51					; 00000033H
	DB	0
$L94483:
	DB	115					; 00000073H
	DB	109					; 0000006dH
	DB	50					; 00000032H
	DB	0
$L94482:
	DB	115					; 00000073H
	DB	109					; 0000006dH
	DB	49					; 00000031H
	DB	0
?OnInitDialog@CAspTextEdit@@MAEHXZ ENDP			; CAspTextEdit::OnInitDialog
_TEXT	ENDS
PUBLIC	?symtypes@CATextType@@QAEPADXZ			; CATextType::symtypes
EXTRN	?Find@CATextTypeAry@@QAEPAVCATextType@@AAV?$CStringT@GV?$StrTraitMFC@GV?$ChTraitsCRT@G@ATL@@@@@ATL@@HH@Z:NEAR ; CATextTypeAry::Find
; Function compile flags: /Odt /RTCcsu /ZI
; File c:\astrow32dev\tbt32\texttypeary.hpp
;	COMDAT ?toSymType@CATextTypeAry@@QAEPADAAV?$CStringT@GV?$StrTraitMFC@GV?$ChTraitsCRT@G@ATL@@@@@ATL@@H@Z
_TEXT	SEGMENT
_pf$ = -20						; size = 4
_this$ = -8						; size = 4
_name$ = 8						; size = 4
_tp$ = 12						; size = 4
?toSymType@CATextTypeAry@@QAEPADAAV?$CStringT@GV?$StrTraitMFC@GV?$ChTraitsCRT@G@ATL@@@@@ATL@@H@Z PROC NEAR ; CATextTypeAry::toSymType, COMDAT
; _this$ = ecx

; 40   :     char *toSymType( CString &name, int tp ) { CATextType *pf=Find(name, tp); if ( pf==NULL) return NULL; else return( pf->symtypes() ); }

	push	ebp
	mov	ebp, esp
	sub	esp, 216				; 000000d8H
	push	ebx
	push	esi
	push	edi
	push	ecx
	lea	edi, DWORD PTR [ebp-216]
	mov	ecx, 54					; 00000036H
	mov	eax, -858993460				; ccccccccH
	rep stosd
	pop	ecx
	mov	DWORD PTR _this$[ebp], ecx
	push	0
	mov	eax, DWORD PTR _tp$[ebp]
	push	eax
	mov	ecx, DWORD PTR _name$[ebp]
	push	ecx
	mov	ecx, DWORD PTR _this$[ebp]
	call	?Find@CATextTypeAry@@QAEPAVCATextType@@AAV?$CStringT@GV?$StrTraitMFC@GV?$ChTraitsCRT@G@ATL@@@@@ATL@@HH@Z ; CATextTypeAry::Find
	mov	DWORD PTR _pf$[ebp], eax
	cmp	DWORD PTR _pf$[ebp], 0
	jne	SHORT $L93650
	xor	eax, eax
	jmp	SHORT $L93648
$L93650:
	mov	ecx, DWORD PTR _pf$[ebp]
	call	?symtypes@CATextType@@QAEPADXZ		; CATextType::symtypes
$L93648:
	pop	edi
	pop	esi
	pop	ebx
	add	esp, 216				; 000000d8H
	cmp	ebp, esp
	call	__RTC_CheckEsp
	mov	esp, ebp
	pop	ebp
	ret	8
?toSymType@CATextTypeAry@@QAEPADAAV?$CStringT@GV?$StrTraitMFC@GV?$ChTraitsCRT@G@ATL@@@@@ATL@@H@Z ENDP ; CATextTypeAry::toSymType
; Function compile flags: /Odt /RTCcsu /ZI
_TEXT	ENDS
;	COMDAT ?symtypes@CATextType@@QAEPADXZ
_TEXT	SEGMENT
_this$ = -8						; size = 4
?symtypes@CATextType@@QAEPADXZ PROC NEAR		; CATextType::symtypes, COMDAT
; _this$ = ecx

; 20   :     char *symtypes() { return _symtypes; }

	push	ebp
	mov	ebp, esp
	sub	esp, 204				; 000000ccH
	push	ebx
	push	esi
	push	edi
	push	ecx
	lea	edi, DWORD PTR [ebp-204]
	mov	ecx, 51					; 00000033H
	mov	eax, -858993460				; ccccccccH
	rep stosd
	pop	ecx
	mov	DWORD PTR _this$[ebp], ecx
	mov	eax, DWORD PTR _this$[ebp]
	add	eax, 79					; 0000004fH
	pop	edi
	pop	esi
	pop	ebx
	mov	esp, ebp
	pop	ebp
	ret	0
?symtypes@CATextType@@QAEPADXZ ENDP			; CATextType::symtypes
_TEXT	ENDS
EXTRN	?OnOK@CDialog@@MAEXXZ:NEAR			; CDialog::OnOK
; Function compile flags: /Odt /RTCcsu /ZI
; File c:\astrow32dev\tbt32\asptextedit.cpp
;	COMDAT ?OnOK@CAspTextEdit@@MAEXXZ
_TEXT	SEGMENT
_this$ = -8						; size = 4
?OnOK@CAspTextEdit@@MAEXXZ PROC NEAR			; CAspTextEdit::OnOK, COMDAT
; _this$ = ecx

; 219  : {

	push	ebp
	mov	ebp, esp
	sub	esp, 204				; 000000ccH
	push	ebx
	push	esi
	push	edi
	push	ecx
	lea	edi, DWORD PTR [ebp-204]
	mov	ecx, 51					; 00000033H
	mov	eax, -858993460				; ccccccccH
	rep stosd
	pop	ecx
	mov	DWORD PTR _this$[ebp], ecx

; 220  : 	// TODO: Add extra validation here
; 221  : 	if ( m_Plan1Str.GetLength() > 0 && m_Plan2Str.GetLength() &&
; 222  : 		    m_AspectStr.GetLength() > 0 ) {

	mov	ecx, DWORD PTR _this$[ebp]
	add	ecx, 212				; 000000d4H
	call	?GetLength@?$CSimpleStringT@G$0A@@ATL@@QBEHXZ ; ATL::CSimpleStringT<unsigned short,0>::GetLength
	test	eax, eax
	jle	SHORT $L93982
	mov	ecx, DWORD PTR _this$[ebp]
	add	ecx, 216				; 000000d8H
	call	?GetLength@?$CSimpleStringT@G$0A@@ATL@@QBEHXZ ; ATL::CSimpleStringT<unsigned short,0>::GetLength
	test	eax, eax
	je	SHORT $L93982
	mov	ecx, DWORD PTR _this$[ebp]
	add	ecx, 208				; 000000d0H
	call	?GetLength@?$CSimpleStringT@G$0A@@ATL@@QBEHXZ ; ATL::CSimpleStringT<unsigned short,0>::GetLength
	test	eax, eax
	jle	SHORT $L93982

; 223  : 		if ( pFuncs->Modified(IDC_TEXT) ) {

	push	1004					; 000003ecH
	mov	eax, DWORD PTR _this$[ebp]
	mov	ecx, DWORD PTR [eax+412]
	call	?Modified@RTFFuncs@@QAEHH@Z		; RTFFuncs::Modified
	test	eax, eax
	je	SHORT $L93982

; 224  : 		   if ( MessageBox(_T("Do You Want to Save This Entry?"), _T("Record is Modified"), MB_ICONQUESTION|MB_YESNO ) == IDYES )

	push	36					; 00000024H
	push	OFFSET FLAT:??_C@_1CG@MLINDNFI@?$AAR?$AAe?$AAc?$AAo?$AAr?$AAd?$AA?5?$AAi?$AAs?$AA?5?$AAM?$AAo?$AAd?$AAi?$AAf?$AAi?$AAe?$AAd?$AA?$AA@
	push	OFFSET FLAT:??_C@_1EA@ECMOPAHL@?$AAD?$AAo?$AA?5?$AAY?$AAo?$AAu?$AA?5?$AAW?$AAa?$AAn?$AAt?$AA?5?$AAt?$AAo?$AA?5?$AAS?$AAa?$AAv?$AAe?$AA?5@
	mov	ecx, DWORD PTR _this$[ebp]
	call	?MessageBoxW@CWnd@@QAEHPBG0I@Z		; CWnd::MessageBoxW
	cmp	eax, 6
	jne	SHORT $L93982

; 225  : 			   Save();

	mov	ecx, DWORD PTR _this$[ebp]
	call	?Save@CAspTextEdit@@IAEHXZ		; CAspTextEdit::Save
$L93982:

; 226  : 			}
; 227  : 	}
; 228  : 	CDialog::OnOK();

	mov	ecx, DWORD PTR _this$[ebp]
	call	?OnOK@CDialog@@MAEXXZ			; CDialog::OnOK

; 229  : }

	pop	edi
	pop	esi
	pop	ebx
	add	esp, 204				; 000000ccH
	cmp	ebp, esp
	call	__RTC_CheckEsp
	mov	esp, ebp
	pop	ebp
	ret	0
?OnOK@CAspTextEdit@@MAEXXZ ENDP				; CAspTextEdit::OnOK
_TEXT	ENDS
EXTRN	?OnCancel@CDialog@@MAEXXZ:NEAR			; CDialog::OnCancel
; Function compile flags: /Odt /RTCcsu /ZI
;	COMDAT ?OnCancel@CAspTextEdit@@MAEXXZ
_TEXT	SEGMENT
_this$ = -8						; size = 4
?OnCancel@CAspTextEdit@@MAEXXZ PROC NEAR		; CAspTextEdit::OnCancel, COMDAT
; _this$ = ecx

; 232  : {

	push	ebp
	mov	ebp, esp
	sub	esp, 204				; 000000ccH
	push	ebx
	push	esi
	push	edi
	push	ecx
	lea	edi, DWORD PTR [ebp-204]
	mov	ecx, 51					; 00000033H
	mov	eax, -858993460				; ccccccccH
	rep stosd
	pop	ecx
	mov	DWORD PTR _this$[ebp], ecx

; 233  : 	// TODO: Add extra cleanup here
; 234  : 	
; 235  : 	CDialog::OnCancel();

	mov	ecx, DWORD PTR _this$[ebp]
	call	?OnCancel@CDialog@@MAEXXZ		; CDialog::OnCancel

; 236  : }

	pop	edi
	pop	esi
	pop	ebx
	add	esp, 204				; 000000ccH
	cmp	ebp, esp
	call	__RTC_CheckEsp
	mov	esp, ebp
	pop	ebp
	ret	0
?OnCancel@CAspTextEdit@@MAEXXZ ENDP			; CAspTextEdit::OnCancel
; Function compile flags: /Odt /RTCcsu /ZI
_TEXT	ENDS
;	COMDAT ?OnChangeText@CAspTextEdit@@IAEXXZ
_TEXT	SEGMENT
_this$ = -8						; size = 4
?OnChangeText@CAspTextEdit@@IAEXXZ PROC NEAR		; CAspTextEdit::OnChangeText, COMDAT
; _this$ = ecx

; 239  : {

	push	ebp
	mov	ebp, esp
	sub	esp, 204				; 000000ccH
	push	ebx
	push	esi
	push	edi
	push	ecx
	lea	edi, DWORD PTR [ebp-204]
	mov	ecx, 51					; 00000033H
	mov	eax, -858993460				; ccccccccH
	rep stosd
	pop	ecx
	mov	DWORD PTR _this$[ebp], ecx

; 240  : 	// TODO: If this is a RICHEDIT control, the control will not
; 241  : 	// send this notification unless you override the CDialog::OnInitDialog()
; 242  : 	// function and call CRichEditCtrl().SetEventMask()
; 243  : 	// with the ENM_CHANGE flag ORed into the mask.
; 244  : 	
; 245  : 	// TODO: Add your control notification handler code here
; 246  : 	m_bModified=TRUE;

	mov	eax, DWORD PTR _this$[ebp]
	mov	DWORD PTR [eax+224], 1

; 247  : }

	pop	edi
	pop	esi
	pop	ebx
	mov	esp, ebp
	pop	ebp
	ret	0
?OnChangeText@CAspTextEdit@@IAEXXZ ENDP			; CAspTextEdit::OnChangeText
_TEXT	ENDS
PUBLIC	?Undo@RTFFuncs@@QAEXH@Z				; RTFFuncs::Undo
; Function compile flags: /Odt /RTCcsu /ZI
;	COMDAT ?OnUndo@CAspTextEdit@@IAEXXZ
_TEXT	SEGMENT
_this$ = -8						; size = 4
?OnUndo@CAspTextEdit@@IAEXXZ PROC NEAR			; CAspTextEdit::OnUndo, COMDAT
; _this$ = ecx

; 250  : {

	push	ebp
	mov	ebp, esp
	sub	esp, 204				; 000000ccH
	push	ebx
	push	esi
	push	edi
	push	ecx
	lea	edi, DWORD PTR [ebp-204]
	mov	ecx, 51					; 00000033H
	mov	eax, -858993460				; ccccccccH
	rep stosd
	pop	ecx
	mov	DWORD PTR _this$[ebp], ecx

; 251  : 	// TODO: Add your command handler code here
; 252  : 	pFuncs->Undo(IDC_TEXT);

	push	1004					; 000003ecH
	mov	eax, DWORD PTR _this$[ebp]
	mov	ecx, DWORD PTR [eax+412]
	call	?Undo@RTFFuncs@@QAEXH@Z			; RTFFuncs::Undo

; 253  : }

	pop	edi
	pop	esi
	pop	ebx
	add	esp, 204				; 000000ccH
	cmp	ebp, esp
	call	__RTC_CheckEsp
	mov	esp, ebp
	pop	ebp
	ret	0
?OnUndo@CAspTextEdit@@IAEXXZ ENDP			; CAspTextEdit::OnUndo
_TEXT	ENDS
EXTRN	?Undo@CRichEditCtrl@@QAEHXZ:NEAR		; CRichEditCtrl::Undo
; Function compile flags: /Odt /RTCcsu /ZI
; File c:\astrow32dev\tbt32\rtffuncs.h
;	COMDAT ?Undo@RTFFuncs@@QAEXH@Z
_TEXT	SEGMENT
_this$ = -8						; size = 4
_id$ = 8						; size = 4
?Undo@RTFFuncs@@QAEXH@Z PROC NEAR			; RTFFuncs::Undo, COMDAT
; _this$ = ecx

; 34   :    void Undo( int id ) { GetCtrl(id)->Undo(); }

	push	ebp
	mov	ebp, esp
	sub	esp, 204				; 000000ccH
	push	ebx
	push	esi
	push	edi
	push	ecx
	lea	edi, DWORD PTR [ebp-204]
	mov	ecx, 51					; 00000033H
	mov	eax, -858993460				; ccccccccH
	rep stosd
	pop	ecx
	mov	DWORD PTR _this$[ebp], ecx
	mov	eax, DWORD PTR _id$[ebp]
	push	eax
	mov	ecx, DWORD PTR _this$[ebp]
	call	?GetCtrl@RTFFuncs@@AAEPAVCRichEditCtrl@@H@Z ; RTFFuncs::GetCtrl
	mov	ecx, eax
	call	?Undo@CRichEditCtrl@@QAEHXZ		; CRichEditCtrl::Undo
	pop	edi
	pop	esi
	pop	ebx
	add	esp, 204				; 000000ccH
	cmp	ebp, esp
	call	__RTC_CheckEsp
	mov	esp, ebp
	pop	ebp
	ret	4
?Undo@RTFFuncs@@QAEXH@Z ENDP				; RTFFuncs::Undo
; Function compile flags: /Odt /RTCcsu /ZI
; File c:\astrow32dev\tbt32\asptextedit.cpp
_TEXT	ENDS
;	COMDAT ?OnUpdateUndo@CAspTextEdit@@IAEXPAVCCmdUI@@@Z
_TEXT	SEGMENT
_this$ = -8						; size = 4
_pCmdUI$ = 8						; size = 4
?OnUpdateUndo@CAspTextEdit@@IAEXPAVCCmdUI@@@Z PROC NEAR	; CAspTextEdit::OnUpdateUndo, COMDAT
; _this$ = ecx

; 256  : {

	push	ebp
	mov	ebp, esp
	sub	esp, 204				; 000000ccH
	push	ebx
	push	esi
	push	edi
	push	ecx
	lea	edi, DWORD PTR [ebp-204]
	mov	ecx, 51					; 00000033H
	mov	eax, -858993460				; ccccccccH
	rep stosd
	pop	ecx
	mov	DWORD PTR _this$[ebp], ecx

; 257  : 	// TODO: Add your command update UI handler code here
; 258  : 	pCmdUI->Enable();

	mov	esi, esp
	push	1
	mov	eax, DWORD PTR _pCmdUI$[ebp]
	mov	edx, DWORD PTR [eax]
	mov	ecx, DWORD PTR _pCmdUI$[ebp]
	call	DWORD PTR [edx]
	cmp	esi, esp
	call	__RTC_CheckEsp

; 259  : }

	pop	edi
	pop	esi
	pop	ebx
	add	esp, 204				; 000000ccH
	cmp	ebp, esp
	call	__RTC_CheckEsp
	mov	esp, ebp
	pop	ebp
	ret	4
?OnUpdateUndo@CAspTextEdit@@IAEXPAVCCmdUI@@@Z ENDP	; CAspTextEdit::OnUpdateUndo
; Function compile flags: /Odt /RTCcsu /ZI
_TEXT	ENDS
;	COMDAT ?OnUpdateText@CAspTextEdit@@IAEXXZ
_TEXT	SEGMENT
_this$ = -8						; size = 4
?OnUpdateText@CAspTextEdit@@IAEXXZ PROC NEAR		; CAspTextEdit::OnUpdateText, COMDAT
; _this$ = ecx

; 262  : {

	push	ebp
	mov	ebp, esp
	sub	esp, 204				; 000000ccH
	push	ebx
	push	esi
	push	edi
	push	ecx
	lea	edi, DWORD PTR [ebp-204]
	mov	ecx, 51					; 00000033H
	mov	eax, -858993460				; ccccccccH
	rep stosd
	pop	ecx
	mov	DWORD PTR _this$[ebp], ecx

; 263  : 	// TODO: If this is a RICHEDIT control, the control will not
; 264  : 	// send this notification unless you override the CDialog::OnInitDialog()
; 265  : 	// function to send the EM_SETEVENTMASK message to the control
; 266  : 	// with the ENM_UPDATE flag ORed into the lParam mask.
; 267  : 	
; 268  : 	// TODO: Add your control notification handler code here
; 269  : 	
; 270  : }

	pop	edi
	pop	esi
	pop	ebx
	mov	esp, ebp
	pop	ebp
	ret	0
?OnUpdateText@CAspTextEdit@@IAEXXZ ENDP			; CAspTextEdit::OnUpdateText
_TEXT	ENDS
EXTRN	?DoBold@RTFFuncs@@QAEXH@Z:NEAR			; RTFFuncs::DoBold
; Function compile flags: /Odt /RTCcsu /ZI
;	COMDAT ?OnBold@CAspTextEdit@@IAEXXZ
_TEXT	SEGMENT
_this$ = -8						; size = 4
?OnBold@CAspTextEdit@@IAEXXZ PROC NEAR			; CAspTextEdit::OnBold, COMDAT
; _this$ = ecx

; 273  : {

	push	ebp
	mov	ebp, esp
	sub	esp, 204				; 000000ccH
	push	ebx
	push	esi
	push	edi
	push	ecx
	lea	edi, DWORD PTR [ebp-204]
	mov	ecx, 51					; 00000033H
	mov	eax, -858993460				; ccccccccH
	rep stosd
	pop	ecx
	mov	DWORD PTR _this$[ebp], ecx

; 274  : 	// TODO: Add your command handler code here
; 275  : 	pFuncs->DoBold(IDC_TEXT);

	push	1004					; 000003ecH
	mov	eax, DWORD PTR _this$[ebp]
	mov	ecx, DWORD PTR [eax+412]
	call	?DoBold@RTFFuncs@@QAEXH@Z		; RTFFuncs::DoBold

; 276  : }

	pop	edi
	pop	esi
	pop	ebx
	add	esp, 204				; 000000ccH
	cmp	ebp, esp
	call	__RTC_CheckEsp
	mov	esp, ebp
	pop	ebp
	ret	0
?OnBold@CAspTextEdit@@IAEXXZ ENDP			; CAspTextEdit::OnBold
; Function compile flags: /Odt /RTCcsu /ZI
_TEXT	ENDS
;	COMDAT ?OnUpdateBold@CAspTextEdit@@IAEXPAVCCmdUI@@@Z
_TEXT	SEGMENT
_this$ = -8						; size = 4
_pCmdUI$ = 8						; size = 4
?OnUpdateBold@CAspTextEdit@@IAEXPAVCCmdUI@@@Z PROC NEAR	; CAspTextEdit::OnUpdateBold, COMDAT
; _this$ = ecx

; 279  : {

	push	ebp
	mov	ebp, esp
	sub	esp, 204				; 000000ccH
	push	ebx
	push	esi
	push	edi
	push	ecx
	lea	edi, DWORD PTR [ebp-204]
	mov	ecx, 51					; 00000033H
	mov	eax, -858993460				; ccccccccH
	rep stosd
	pop	ecx
	mov	DWORD PTR _this$[ebp], ecx

; 280  : 	// TODO: Add your command update UI handler code here
; 281  : 	pCmdUI->Enable();

	mov	esi, esp
	push	1
	mov	eax, DWORD PTR _pCmdUI$[ebp]
	mov	edx, DWORD PTR [eax]
	mov	ecx, DWORD PTR _pCmdUI$[ebp]
	call	DWORD PTR [edx]
	cmp	esi, esp
	call	__RTC_CheckEsp

; 282  : }

	pop	edi
	pop	esi
	pop	ebx
	add	esp, 204				; 000000ccH
	cmp	ebp, esp
	call	__RTC_CheckEsp
	mov	esp, ebp
	pop	ebp
	ret	4
?OnUpdateBold@CAspTextEdit@@IAEXPAVCCmdUI@@@Z ENDP	; CAspTextEdit::OnUpdateBold
_TEXT	ENDS
EXTRN	?DoHeading@RTFFuncs@@QAEXH@Z:NEAR		; RTFFuncs::DoHeading
; Function compile flags: /Odt /RTCcsu /ZI
;	COMDAT ?OnHead@CAspTextEdit@@IAEXXZ
_TEXT	SEGMENT
_this$ = -8						; size = 4
?OnHead@CAspTextEdit@@IAEXXZ PROC NEAR			; CAspTextEdit::OnHead, COMDAT
; _this$ = ecx

; 285  : {

	push	ebp
	mov	ebp, esp
	sub	esp, 204				; 000000ccH
	push	ebx
	push	esi
	push	edi
	push	ecx
	lea	edi, DWORD PTR [ebp-204]
	mov	ecx, 51					; 00000033H
	mov	eax, -858993460				; ccccccccH
	rep stosd
	pop	ecx
	mov	DWORD PTR _this$[ebp], ecx

; 286  : 	// TODO: Add your command handler code here
; 287  : 	pFuncs->DoHeading(IDC_TEXT);

	push	1004					; 000003ecH
	mov	eax, DWORD PTR _this$[ebp]
	mov	ecx, DWORD PTR [eax+412]
	call	?DoHeading@RTFFuncs@@QAEXH@Z		; RTFFuncs::DoHeading

; 288  : }

	pop	edi
	pop	esi
	pop	ebx
	add	esp, 204				; 000000ccH
	cmp	ebp, esp
	call	__RTC_CheckEsp
	mov	esp, ebp
	pop	ebp
	ret	0
?OnHead@CAspTextEdit@@IAEXXZ ENDP			; CAspTextEdit::OnHead
; Function compile flags: /Odt /RTCcsu /ZI
_TEXT	ENDS
;	COMDAT ?OnUpdateHead@CAspTextEdit@@IAEXPAVCCmdUI@@@Z
_TEXT	SEGMENT
_this$ = -8						; size = 4
_pCmdUI$ = 8						; size = 4
?OnUpdateHead@CAspTextEdit@@IAEXPAVCCmdUI@@@Z PROC NEAR	; CAspTextEdit::OnUpdateHead, COMDAT
; _this$ = ecx

; 291  : {

	push	ebp
	mov	ebp, esp
	sub	esp, 204				; 000000ccH
	push	ebx
	push	esi
	push	edi
	push	ecx
	lea	edi, DWORD PTR [ebp-204]
	mov	ecx, 51					; 00000033H
	mov	eax, -858993460				; ccccccccH
	rep stosd
	pop	ecx
	mov	DWORD PTR _this$[ebp], ecx

; 292  : 	// TODO: Add your command update UI handler code here
; 293  : 	pCmdUI->Enable();

	mov	esi, esp
	push	1
	mov	eax, DWORD PTR _pCmdUI$[ebp]
	mov	edx, DWORD PTR [eax]
	mov	ecx, DWORD PTR _pCmdUI$[ebp]
	call	DWORD PTR [edx]
	cmp	esi, esp
	call	__RTC_CheckEsp

; 294  : }

	pop	edi
	pop	esi
	pop	ebx
	add	esp, 204				; 000000ccH
	cmp	ebp, esp
	call	__RTC_CheckEsp
	mov	esp, ebp
	pop	ebp
	ret	4
?OnUpdateHead@CAspTextEdit@@IAEXPAVCCmdUI@@@Z ENDP	; CAspTextEdit::OnUpdateHead
_TEXT	ENDS
EXTRN	?DoItalic@RTFFuncs@@QAEXH@Z:NEAR		; RTFFuncs::DoItalic
; Function compile flags: /Odt /RTCcsu /ZI
;	COMDAT ?OnItal@CAspTextEdit@@IAEXXZ
_TEXT	SEGMENT
_this$ = -8						; size = 4
?OnItal@CAspTextEdit@@IAEXXZ PROC NEAR			; CAspTextEdit::OnItal, COMDAT
; _this$ = ecx

; 297  : {

	push	ebp
	mov	ebp, esp
	sub	esp, 204				; 000000ccH
	push	ebx
	push	esi
	push	edi
	push	ecx
	lea	edi, DWORD PTR [ebp-204]
	mov	ecx, 51					; 00000033H
	mov	eax, -858993460				; ccccccccH
	rep stosd
	pop	ecx
	mov	DWORD PTR _this$[ebp], ecx

; 298  : 	// TODO: Add your command handler code here
; 299  : 	pFuncs->DoItalic(IDC_TEXT);

	push	1004					; 000003ecH
	mov	eax, DWORD PTR _this$[ebp]
	mov	ecx, DWORD PTR [eax+412]
	call	?DoItalic@RTFFuncs@@QAEXH@Z		; RTFFuncs::DoItalic

; 300  : }

	pop	edi
	pop	esi
	pop	ebx
	add	esp, 204				; 000000ccH
	cmp	ebp, esp
	call	__RTC_CheckEsp
	mov	esp, ebp
	pop	ebp
	ret	0
?OnItal@CAspTextEdit@@IAEXXZ ENDP			; CAspTextEdit::OnItal
; Function compile flags: /Odt /RTCcsu /ZI
_TEXT	ENDS
;	COMDAT ?OnUpdateItal@CAspTextEdit@@IAEXPAVCCmdUI@@@Z
_TEXT	SEGMENT
_this$ = -8						; size = 4
_pCmdUI$ = 8						; size = 4
?OnUpdateItal@CAspTextEdit@@IAEXPAVCCmdUI@@@Z PROC NEAR	; CAspTextEdit::OnUpdateItal, COMDAT
; _this$ = ecx

; 303  : {

	push	ebp
	mov	ebp, esp
	sub	esp, 204				; 000000ccH
	push	ebx
	push	esi
	push	edi
	push	ecx
	lea	edi, DWORD PTR [ebp-204]
	mov	ecx, 51					; 00000033H
	mov	eax, -858993460				; ccccccccH
	rep stosd
	pop	ecx
	mov	DWORD PTR _this$[ebp], ecx

; 304  : 	// TODO: Add your command update UI handler code here
; 305  : 	pCmdUI->Enable();

	mov	esi, esp
	push	1
	mov	eax, DWORD PTR _pCmdUI$[ebp]
	mov	edx, DWORD PTR [eax]
	mov	ecx, DWORD PTR _pCmdUI$[ebp]
	call	DWORD PTR [edx]
	cmp	esi, esp
	call	__RTC_CheckEsp

; 306  : }

	pop	edi
	pop	esi
	pop	ebx
	add	esp, 204				; 000000ccH
	cmp	ebp, esp
	call	__RTC_CheckEsp
	mov	esp, ebp
	pop	ebp
	ret	4
?OnUpdateItal@CAspTextEdit@@IAEXPAVCCmdUI@@@Z ENDP	; CAspTextEdit::OnUpdateItal
_TEXT	ENDS
EXTRN	?DoUnBold@RTFFuncs@@QAEXH@Z:NEAR		; RTFFuncs::DoUnBold
; Function compile flags: /Odt /RTCcsu /ZI
;	COMDAT ?OnUnbold@CAspTextEdit@@IAEXXZ
_TEXT	SEGMENT
_this$ = -8						; size = 4
?OnUnbold@CAspTextEdit@@IAEXXZ PROC NEAR		; CAspTextEdit::OnUnbold, COMDAT
; _this$ = ecx

; 316  : {

	push	ebp
	mov	ebp, esp
	sub	esp, 204				; 000000ccH
	push	ebx
	push	esi
	push	edi
	push	ecx
	lea	edi, DWORD PTR [ebp-204]
	mov	ecx, 51					; 00000033H
	mov	eax, -858993460				; ccccccccH
	rep stosd
	pop	ecx
	mov	DWORD PTR _this$[ebp], ecx

; 317  : 	// TODO: Add your command handler code here
; 318  : 	pFuncs->DoUnBold(IDC_TEXT);

	push	1004					; 000003ecH
	mov	eax, DWORD PTR _this$[ebp]
	mov	ecx, DWORD PTR [eax+412]
	call	?DoUnBold@RTFFuncs@@QAEXH@Z		; RTFFuncs::DoUnBold

; 319  : }

	pop	edi
	pop	esi
	pop	ebx
	add	esp, 204				; 000000ccH
	cmp	ebp, esp
	call	__RTC_CheckEsp
	mov	esp, ebp
	pop	ebp
	ret	0
?OnUnbold@CAspTextEdit@@IAEXXZ ENDP			; CAspTextEdit::OnUnbold
; Function compile flags: /Odt /RTCcsu /ZI
_TEXT	ENDS
;	COMDAT ?OnUpdateUnbold@CAspTextEdit@@IAEXPAVCCmdUI@@@Z
_TEXT	SEGMENT
_this$ = -8						; size = 4
_pCmdUI$ = 8						; size = 4
?OnUpdateUnbold@CAspTextEdit@@IAEXPAVCCmdUI@@@Z PROC NEAR ; CAspTextEdit::OnUpdateUnbold, COMDAT
; _this$ = ecx

; 322  : {

	push	ebp
	mov	ebp, esp
	sub	esp, 204				; 000000ccH
	push	ebx
	push	esi
	push	edi
	push	ecx
	lea	edi, DWORD PTR [ebp-204]
	mov	ecx, 51					; 00000033H
	mov	eax, -858993460				; ccccccccH
	rep stosd
	pop	ecx
	mov	DWORD PTR _this$[ebp], ecx

; 323  : 	// TODO: Add your command update UI handler code here
; 324  : 	pCmdUI->Enable();

	mov	esi, esp
	push	1
	mov	eax, DWORD PTR _pCmdUI$[ebp]
	mov	edx, DWORD PTR [eax]
	mov	ecx, DWORD PTR _pCmdUI$[ebp]
	call	DWORD PTR [edx]
	cmp	esi, esp
	call	__RTC_CheckEsp

; 325  : }

	pop	edi
	pop	esi
	pop	ebx
	add	esp, 204				; 000000ccH
	cmp	ebp, esp
	call	__RTC_CheckEsp
	mov	esp, ebp
	pop	ebp
	ret	4
?OnUpdateUnbold@CAspTextEdit@@IAEXPAVCCmdUI@@@Z ENDP	; CAspTextEdit::OnUpdateUnbold
_TEXT	ENDS
EXTRN	?DoUnHeading@RTFFuncs@@QAEXH@Z:NEAR		; RTFFuncs::DoUnHeading
; Function compile flags: /Odt /RTCcsu /ZI
;	COMDAT ?OnUnheading@CAspTextEdit@@IAEXXZ
_TEXT	SEGMENT
_this$ = -8						; size = 4
?OnUnheading@CAspTextEdit@@IAEXXZ PROC NEAR		; CAspTextEdit::OnUnheading, COMDAT
; _this$ = ecx

; 328  : {

	push	ebp
	mov	ebp, esp
	sub	esp, 204				; 000000ccH
	push	ebx
	push	esi
	push	edi
	push	ecx
	lea	edi, DWORD PTR [ebp-204]
	mov	ecx, 51					; 00000033H
	mov	eax, -858993460				; ccccccccH
	rep stosd
	pop	ecx
	mov	DWORD PTR _this$[ebp], ecx

; 329  : 	// TODO: Add your command handler code here
; 330  : 	pFuncs->DoUnHeading(IDC_TEXT);

	push	1004					; 000003ecH
	mov	eax, DWORD PTR _this$[ebp]
	mov	ecx, DWORD PTR [eax+412]
	call	?DoUnHeading@RTFFuncs@@QAEXH@Z		; RTFFuncs::DoUnHeading

; 331  : }

	pop	edi
	pop	esi
	pop	ebx
	add	esp, 204				; 000000ccH
	cmp	ebp, esp
	call	__RTC_CheckEsp
	mov	esp, ebp
	pop	ebp
	ret	0
?OnUnheading@CAspTextEdit@@IAEXXZ ENDP			; CAspTextEdit::OnUnheading
; Function compile flags: /Odt /RTCcsu /ZI
_TEXT	ENDS
;	COMDAT ?OnUpdateUnheading@CAspTextEdit@@IAEXPAVCCmdUI@@@Z
_TEXT	SEGMENT
_this$ = -8						; size = 4
_pCmdUI$ = 8						; size = 4
?OnUpdateUnheading@CAspTextEdit@@IAEXPAVCCmdUI@@@Z PROC NEAR ; CAspTextEdit::OnUpdateUnheading, COMDAT
; _this$ = ecx

; 334  : {

	push	ebp
	mov	ebp, esp
	sub	esp, 204				; 000000ccH
	push	ebx
	push	esi
	push	edi
	push	ecx
	lea	edi, DWORD PTR [ebp-204]
	mov	ecx, 51					; 00000033H
	mov	eax, -858993460				; ccccccccH
	rep stosd
	pop	ecx
	mov	DWORD PTR _this$[ebp], ecx

; 335  : 	// TODO: Add your command update UI handler code here
; 336  :   pCmdUI->Enable();	

	mov	esi, esp
	push	1
	mov	eax, DWORD PTR _pCmdUI$[ebp]
	mov	edx, DWORD PTR [eax]
	mov	ecx, DWORD PTR _pCmdUI$[ebp]
	call	DWORD PTR [edx]
	cmp	esi, esp
	call	__RTC_CheckEsp

; 337  : }

	pop	edi
	pop	esi
	pop	ebx
	add	esp, 204				; 000000ccH
	cmp	ebp, esp
	call	__RTC_CheckEsp
	mov	esp, ebp
	pop	ebp
	ret	4
?OnUpdateUnheading@CAspTextEdit@@IAEXPAVCCmdUI@@@Z ENDP	; CAspTextEdit::OnUpdateUnheading
_TEXT	ENDS
EXTRN	?DoUnItalic@RTFFuncs@@QAEXH@Z:NEAR		; RTFFuncs::DoUnItalic
; Function compile flags: /Odt /RTCcsu /ZI
;	COMDAT ?OnUnitalic@CAspTextEdit@@IAEXXZ
_TEXT	SEGMENT
_this$ = -8						; size = 4
?OnUnitalic@CAspTextEdit@@IAEXXZ PROC NEAR		; CAspTextEdit::OnUnitalic, COMDAT
; _this$ = ecx

; 340  : {

	push	ebp
	mov	ebp, esp
	sub	esp, 204				; 000000ccH
	push	ebx
	push	esi
	push	edi
	push	ecx
	lea	edi, DWORD PTR [ebp-204]
	mov	ecx, 51					; 00000033H
	mov	eax, -858993460				; ccccccccH
	rep stosd
	pop	ecx
	mov	DWORD PTR _this$[ebp], ecx

; 341  : 	// TODO: Add your command handler code here
; 342  : 	pFuncs->DoUnItalic(IDC_TEXT);

	push	1004					; 000003ecH
	mov	eax, DWORD PTR _this$[ebp]
	mov	ecx, DWORD PTR [eax+412]
	call	?DoUnItalic@RTFFuncs@@QAEXH@Z		; RTFFuncs::DoUnItalic

; 343  : }

	pop	edi
	pop	esi
	pop	ebx
	add	esp, 204				; 000000ccH
	cmp	ebp, esp
	call	__RTC_CheckEsp
	mov	esp, ebp
	pop	ebp
	ret	0
?OnUnitalic@CAspTextEdit@@IAEXXZ ENDP			; CAspTextEdit::OnUnitalic
; Function compile flags: /Odt /RTCcsu /ZI
_TEXT	ENDS
;	COMDAT ?OnUpdateUnitalic@CAspTextEdit@@IAEXPAVCCmdUI@@@Z
_TEXT	SEGMENT
_this$ = -8						; size = 4
_pCmdUI$ = 8						; size = 4
?OnUpdateUnitalic@CAspTextEdit@@IAEXPAVCCmdUI@@@Z PROC NEAR ; CAspTextEdit::OnUpdateUnitalic, COMDAT
; _this$ = ecx

; 346  : {

	push	ebp
	mov	ebp, esp
	sub	esp, 204				; 000000ccH
	push	ebx
	push	esi
	push	edi
	push	ecx
	lea	edi, DWORD PTR [ebp-204]
	mov	ecx, 51					; 00000033H
	mov	eax, -858993460				; ccccccccH
	rep stosd
	pop	ecx
	mov	DWORD PTR _this$[ebp], ecx

; 347  : 	// TODO: Add your command update UI handler code here
; 348  : 	pCmdUI->Enable();

	mov	esi, esp
	push	1
	mov	eax, DWORD PTR _pCmdUI$[ebp]
	mov	edx, DWORD PTR [eax]
	mov	ecx, DWORD PTR _pCmdUI$[ebp]
	call	DWORD PTR [edx]
	cmp	esi, esp
	call	__RTC_CheckEsp

; 349  : }

	pop	edi
	pop	esi
	pop	ebx
	add	esp, 204				; 000000ccH
	cmp	ebp, esp
	call	__RTC_CheckEsp
	mov	esp, ebp
	pop	ebp
	ret	4
?OnUpdateUnitalic@CAspTextEdit@@IAEXPAVCCmdUI@@@Z ENDP	; CAspTextEdit::OnUpdateUnitalic
_TEXT	ENDS
PUBLIC	??B?$CSimpleStringT@G$0A@@ATL@@QBEPBGXZ		; ATL::CSimpleStringT<unsigned short,0>::operator unsigned short const *
PUBLIC	?getKey@@YAXPADAAV?$CStringT@GV?$StrTraitMFC@GV?$ChTraitsCRT@G@ATL@@@@@ATL@@@Z ; getKey
PUBLIC	??_C@_05ECMNLKDI@?$CF?$FL?$FO?9?$FN?$AA@	; `string'
EXTRN	_wcstombs:NEAR
;	COMDAT ??_C@_05ECMNLKDI@?$CF?$FL?$FO?9?$FN?$AA@
CONST	SEGMENT
??_C@_05ECMNLKDI@?$CF?$FL?$FO?9?$FN?$AA@ DB '%[^-]', 00H ; `string'
; Function compile flags: /Odt /RTCcsu /ZI
CONST	ENDS
;	COMDAT ?getKey@@YAXPADAAV?$CStringT@GV?$StrTraitMFC@GV?$ChTraitsCRT@G@ATL@@@@@ATL@@@Z
_TEXT	SEGMENT
_str$ = -208						; size = 200
__$ArrayPad$ = -4					; size = 4
__$ReturnAddr$ = 4					; size = 4
_buf$ = 8						; size = 4
_ks$ = 12						; size = 4
?getKey@@YAXPADAAV?$CStringT@GV?$StrTraitMFC@GV?$ChTraitsCRT@G@ATL@@@@@ATL@@@Z PROC NEAR ; getKey, COMDAT

; 352  : {

	push	ebp
	mov	ebp, esp
	sub	esp, 404				; 00000194H
	push	ebx
	push	esi
	push	edi
	lea	edi, DWORD PTR [ebp-404]
	mov	ecx, 101				; 00000065H
	mov	eax, -858993460				; ccccccccH
	rep stosd
	mov	eax, DWORD PTR ___security_cookie
	mov	DWORD PTR __$ArrayPad$[ebp], eax

; 353  :  char str[200];
; 354  : 
; 355  : #ifdef _UNICODE
; 356  :  wcstombs(str,ks,ks.GetLength());

	mov	ecx, DWORD PTR _ks$[ebp]
	call	?GetLength@?$CSimpleStringT@G$0A@@ATL@@QBEHXZ ; ATL::CSimpleStringT<unsigned short,0>::GetLength
	push	eax
	mov	ecx, DWORD PTR _ks$[ebp]
	call	??B?$CSimpleStringT@G$0A@@ATL@@QBEPBGXZ	; ATL::CSimpleStringT<unsigned short,0>::operator unsigned short const *
	push	eax
	lea	eax, DWORD PTR _str$[ebp]
	push	eax
	call	_wcstombs
	add	esp, 12					; 0000000cH

; 357  :  str[ks.GetLength()] = '\0';

	mov	ecx, DWORD PTR _ks$[ebp]
	call	?GetLength@?$CSimpleStringT@G$0A@@ATL@@QBEHXZ ; ATL::CSimpleStringT<unsigned short,0>::GetLength
	mov	BYTE PTR _str$[ebp+eax], 0

; 358  : #else
; 359  :  strcpy(str,ks);
; 360  : #endif
; 361  :  sscanf(str,"%[^-]", buf );

	mov	eax, DWORD PTR _buf$[ebp]
	push	eax
	push	OFFSET FLAT:??_C@_05ECMNLKDI@?$CF?$FL?$FO?9?$FN?$AA@
	lea	ecx, DWORD PTR _str$[ebp]
	push	ecx
	call	_sscanf
	add	esp, 12					; 0000000cH

; 362  : }

	push	edx
	mov	ecx, ebp
	push	eax
	lea	edx, DWORD PTR $L94537
	call	@_RTC_CheckStackVars@8
	pop	eax
	pop	edx
	mov	ecx, DWORD PTR __$ArrayPad$[ebp]
	call	@__security_check_cookie@4
	pop	edi
	pop	esi
	pop	ebx
	add	esp, 404				; 00000194H
	cmp	ebp, esp
	call	__RTC_CheckEsp
	mov	esp, ebp
	pop	ebp
	ret	0
$L94537:
	DD	1
	DD	$L94536
$L94536:
	DD	-208					; ffffff30H
	DD	200					; 000000c8H
	DD	$L94534
$L94534:
	DB	115					; 00000073H
	DB	116					; 00000074H
	DB	114					; 00000072H
	DB	0
?getKey@@YAXPADAAV?$CStringT@GV?$StrTraitMFC@GV?$ChTraitsCRT@G@ATL@@@@@ATL@@@Z ENDP ; getKey
_TEXT	ENDS
PUBLIC	??0?$CStringT@GV?$StrTraitMFC@GV?$ChTraitsCRT@G@ATL@@@@@ATL@@QAE@ABV01@@Z ; ATL::CStringT<unsigned short,StrTraitMFC<unsigned short,ATL::ChTraitsCRT<unsigned short> > >::CStringT<unsigned short,StrTraitMFC<unsigned short,ATL::ChTraitsCRT<unsigned short> > >
PUBLIC	??_C@_0GP@IEEFODCO@select?5?$CK?5from?5AspectText?5where?5P@ ; `string'
PUBLIC	??0?$CStringT@GV?$StrTraitMFC@GV?$ChTraitsCRT@G@ATL@@@@@ATL@@QAE@PBD@Z ; ATL::CStringT<unsigned short,StrTraitMFC<unsigned short,ATL::ChTraitsCRT<unsigned short> > >::CStringT<unsigned short,StrTraitMFC<unsigned short,ATL::ChTraitsCRT<unsigned short> > >
PUBLIC	??_R0PAVCDaoException@@@8			; CDaoException * `RTTI Type Descriptor'
PUBLIC	??_C@_1CE@OOAKNAGM@?$AAE?$AAr?$AAr?$AAo?$AAr?$AA?5?$AAo?$AAn?$AA?5?$AAD?$AAa?$AAt?$AAa?$AAb?$AAa?$AAs?$AAe?$AA?$AA@ ; `string'
EXTRN	?SetRTF@RTFFuncs@@QAEXHAAV?$CStringT@GV?$StrTraitMFC@GV?$ChTraitsCRT@G@ATL@@@@@ATL@@@Z:NEAR ; RTFFuncs::SetRTF
EXTRN	?NewRTF@RTFFuncs@@QAEXH@Z:NEAR			; RTFFuncs::NewRTF
EXTRN	??_7type_info@@6B@:DWORD			; type_info::`vftable'
EXTRN	?alert_box@@YAHPAGPBGZZ:NEAR			; alert_box
EXTRN	?GetCurLanguage@@YAAAV?$CStringT@GV?$StrTraitMFC@GV?$ChTraitsCRT@G@ATL@@@@@ATL@@XZ:NEAR ; GetCurLanguage
EXTRN	?IsOpen@CDaoRecordset@@QBEHXZ:NEAR		; CDaoRecordset::IsOpen
EXTRN	?IsEOF@CDaoRecordset@@QBEHXZ:NEAR		; CDaoRecordset::IsEOF
EXTRN	_sprintf:NEAR
EXTRN	?Invalidate@CWnd@@QAEXH@Z:NEAR			; CWnd::Invalidate
;	COMDAT xdata$x
xdata$x	SEGMENT
__unwindtable$?Find@CAspTextEdit@@IAEHXZ DD 0ffffffffH
	DD	00H
	DD	00H
	DD	FLAT:__unwindfunclet$?Find@CAspTextEdit@@IAEHXZ$2
	DD	01H
	DD	FLAT:__unwindfunclet$?Find@CAspTextEdit@@IAEHXZ$3
	DD	0ffffffffH
	DD	00H
__catchsym$?Find@CAspTextEdit@@IAEHXZ$4 DD 00H
	DD	FLAT:??_R0PAVCDaoException@@@8
	DD	0fffffabcH
	DD	FLAT:__catch$?Find@CAspTextEdit@@IAEHXZ$0
__tryblocktable$?Find@CAspTextEdit@@IAEHXZ DD 00H
	DD	02H
	DD	03H
	DD	01H
	DD	FLAT:__catchsym$?Find@CAspTextEdit@@IAEHXZ$4
__ehfuncinfo$?Find@CAspTextEdit@@IAEHXZ DD 019930520H
	DD	04H
	DD	FLAT:__unwindtable$?Find@CAspTextEdit@@IAEHXZ
	DD	01H
	DD	FLAT:__tryblocktable$?Find@CAspTextEdit@@IAEHXZ
	DD	2 DUP(00H)
xdata$x	ENDS
;	COMDAT ??_C@_0GP@IEEFODCO@select?5?$CK?5from?5AspectText?5where?5P@
CONST	SEGMENT
??_C@_0GP@IEEFODCO@select?5?$CK?5from?5AspectText?5where?5P@ DB 'select *'
	DB	' from AspectText where Planet1=''%s'' and Planet2=''%s'' and '
	DB	'Aspect=''%s'' and TextType=''%ls'' and Lang=''%ls''', 00H ; `string'
CONST	ENDS
;	COMDAT ??_C@_1CE@OOAKNAGM@?$AAE?$AAr?$AAr?$AAo?$AAr?$AA?5?$AAo?$AAn?$AA?5?$AAD?$AAa?$AAt?$AAa?$AAb?$AAa?$AAs?$AAe?$AA?$AA@
CONST	SEGMENT
??_C@_1CE@OOAKNAGM@?$AAE?$AAr?$AAr?$AAo?$AAr?$AA?5?$AAo?$AAn?$AA?5?$AAD?$AAa?$AAt?$AAa?$AAb?$AAa?$AAs?$AAe?$AA?$AA@ DB 'E'
	DB	00H, 'r', 00H, 'r', 00H, 'o', 00H, 'r', 00H, ' ', 00H, 'o', 00H
	DB	'n', 00H, ' ', 00H, 'D', 00H, 'a', 00H, 't', 00H, 'a', 00H, 'b'
	DB	00H, 'a', 00H, 's', 00H, 'e', 00H, 00H, 00H	; `string'
CONST	ENDS
;	COMDAT ??_R0PAVCDaoException@@@8
_DATA	SEGMENT
??_R0PAVCDaoException@@@8 DD FLAT:??_7type_info@@6B@	; CDaoException * `RTTI Type Descriptor'
	DD	00H
	DB	'.PAVCDaoException@@', 00H
; Function compile flags: /Odt /RTCcsu /ZI
_DATA	ENDS
;	COMDAT ?Find@CAspTextEdit@@IAEHXZ
_TEXT	SEGMENT
tv180 = -1576						; size = 4
tv177 = -1576						; size = 4
tv183 = -1572						; size = 4
tv182 = -1572						; size = 4
tv181 = -1572						; size = 4
tv179 = -1572						; size = 4
$T94541 = -1564						; size = 4
$T94542 = -1552						; size = 4
_e$94067 = -1348					; size = 4
_Lang$94059 = -1336					; size = 4
_key3$ = -1304						; size = 25
_key2$ = -1268						; size = 25
_key1$ = -1232						; size = 25
_sqlbuf$ = -1196					; size = 150
_errbuf$ = -1036					; size = 1000
_this$ = -28						; size = 4
__$ArrayPad$ = -20					; size = 4
__$EHRec$ = -16						; size = 16
__$ReturnAddr$ = 4					; size = 4
?Find@CAspTextEdit@@IAEHXZ PROC NEAR			; CAspTextEdit::Find, COMDAT
; _this$ = ecx

; 365  : {

	push	ebp
	mov	ebp, esp
	push	-1
	push	__ehhandler$?Find@CAspTextEdit@@IAEHXZ
	mov	eax, DWORD PTR fs:__except_list
	push	eax
	mov	DWORD PTR fs:__except_list, esp
	push	ecx
	sub	esp, 1560				; 00000618H
	push	ebx
	push	esi
	push	edi
	push	ecx
	lea	edi, DWORD PTR [ebp-1576]
	mov	ecx, 390				; 00000186H
	mov	eax, -858993460				; ccccccccH
	rep stosd
	pop	ecx
	mov	eax, DWORD PTR ___security_cookie
	mov	DWORD PTR __$ArrayPad$[ebp], eax
	mov	DWORD PTR __$EHRec$[ebp], esp
	mov	DWORD PTR _this$[ebp], ecx

; 366  :   TCHAR errbuf[500]; 
; 367  :   char sqlbuf[150], key1[25], key2[25], key3[25], alang[11];
; 368  :   try {

	mov	DWORD PTR __$EHRec$[ebp+12], 0

; 369  :    getKey(key1,m_Plan1Str);

	mov	eax, DWORD PTR _this$[ebp]
	add	eax, 212				; 000000d4H
	push	eax
	lea	ecx, DWORD PTR _key1$[ebp]
	push	ecx
	call	?getKey@@YAXPADAAV?$CStringT@GV?$StrTraitMFC@GV?$ChTraitsCRT@G@ATL@@@@@ATL@@@Z ; getKey
	add	esp, 8

; 370  :    getKey(key2,m_Plan2Str);

	mov	eax, DWORD PTR _this$[ebp]
	add	eax, 216				; 000000d8H
	push	eax
	lea	ecx, DWORD PTR _key2$[ebp]
	push	ecx
	call	?getKey@@YAXPADAAV?$CStringT@GV?$StrTraitMFC@GV?$ChTraitsCRT@G@ATL@@@@@ATL@@@Z ; getKey
	add	esp, 8

; 371  :    getKey(key3,m_AspectStr);

	mov	eax, DWORD PTR _this$[ebp]
	add	eax, 208				; 000000d0H
	push	eax
	lea	ecx, DWORD PTR _key3$[ebp]
	push	ecx
	call	?getKey@@YAXPADAAV?$CStringT@GV?$StrTraitMFC@GV?$ChTraitsCRT@G@ATL@@@@@ATL@@@Z ; getKey
	add	esp, 8

; 372  :    CString Lang = GetCurLanguage();

	call	?GetCurLanguage@@YAAAV?$CStringT@GV?$StrTraitMFC@GV?$ChTraitsCRT@G@ATL@@@@@ATL@@XZ ; GetCurLanguage
	mov	DWORD PTR tv179[ebp], eax
	mov	eax, DWORD PTR tv179[ebp]
	push	eax
	lea	ecx, DWORD PTR _Lang$94059[ebp]
	call	??0?$CStringT@GV?$StrTraitMFC@GV?$ChTraitsCRT@G@ATL@@@@@ATL@@QAE@ABV01@@Z ; ATL::CStringT<unsigned short,StrTraitMFC<unsigned short,ATL::ChTraitsCRT<unsigned short> > >::CStringT<unsigned short,StrTraitMFC<unsigned short,ATL::ChTraitsCRT<unsigned short> > >
	mov	DWORD PTR tv180[ebp], eax
	mov	BYTE PTR __$EHRec$[ebp+12], 1

; 373  : #ifdef _UNICODE
; 374  :    sprintf( sqlbuf, "select * from AspectText where Planet1='%s' and Planet2='%s' and Aspect='%s' and TextType='%ls' and Lang='%ls'",
; 375  :       key1, key2, key3, (LPCTSTR)m_TextType, (LPCTSTR)Lang );

	lea	ecx, DWORD PTR _Lang$94059[ebp]
	call	??B?$CSimpleStringT@G$0A@@ATL@@QBEPBGXZ	; ATL::CSimpleStringT<unsigned short,0>::operator unsigned short const *
	push	eax
	mov	ecx, DWORD PTR _this$[ebp]
	add	ecx, 220				; 000000dcH
	call	??B?$CSimpleStringT@G$0A@@ATL@@QBEPBGXZ	; ATL::CSimpleStringT<unsigned short,0>::operator unsigned short const *
	push	eax
	lea	eax, DWORD PTR _key3$[ebp]
	push	eax
	lea	ecx, DWORD PTR _key2$[ebp]
	push	ecx
	lea	edx, DWORD PTR _key1$[ebp]
	push	edx
	push	OFFSET FLAT:??_C@_0GP@IEEFODCO@select?5?$CK?5from?5AspectText?5where?5P@
	lea	eax, DWORD PTR _sqlbuf$[ebp]
	push	eax
	call	_sprintf
	add	esp, 28					; 0000001cH

; 376  : #else
; 377  :    sprintf( sqlbuf, "select * from AspectText where Planet1='%s' and Planet2='%s' and Aspect='%s' and TextType='%ls'",
; 378  :       key1, key2, key3, (const char *)m_TextType );
; 379  : #endif
; 380  :    if ( theSet.IsOpen() )

	mov	ecx, DWORD PTR _this$[ebp]
	add	ecx, 228				; 000000e4H
	call	?IsOpen@CDaoRecordset@@QBEHXZ		; CDaoRecordset::IsOpen
	mov	DWORD PTR tv181[ebp], eax
	cmp	DWORD PTR tv181[ebp], 0
	je	SHORT $L94063

; 381  : 	   theSet.Close();

	mov	ecx, DWORD PTR _this$[ebp]
	add	ecx, 228				; 000000e4H
	mov	esi, esp
	mov	eax, DWORD PTR _this$[ebp]
	mov	edx, DWORD PTR [eax+228]
	call	DWORD PTR [edx+32]
	cmp	esi, esp
	call	__RTC_CheckEsp
$L94063:

; 382  :    theSet.Open(dbOpenDynaset, CString(sqlbuf));

	lea	eax, DWORD PTR _sqlbuf$[ebp]
	push	eax
	lea	ecx, DWORD PTR $T94541[ebp]
	call	??0?$CStringT@GV?$StrTraitMFC@GV?$ChTraitsCRT@G@ATL@@@@@ATL@@QAE@PBD@Z ; ATL::CStringT<unsigned short,StrTraitMFC<unsigned short,ATL::ChTraitsCRT<unsigned short> > >::CStringT<unsigned short,StrTraitMFC<unsigned short,ATL::ChTraitsCRT<unsigned short> > >
	mov	DWORD PTR tv182[ebp], eax
	mov	ecx, DWORD PTR tv182[ebp]
	mov	DWORD PTR tv177[ebp], ecx
	mov	BYTE PTR __$EHRec$[ebp+12], 2
	mov	esi, esp
	push	0
	mov	ecx, DWORD PTR tv177[ebp]
	call	??B?$CSimpleStringT@G$0A@@ATL@@QBEPBGXZ	; ATL::CSimpleStringT<unsigned short,0>::operator unsigned short const *
	push	eax
	push	2
	mov	ecx, DWORD PTR _this$[ebp]
	add	ecx, 228				; 000000e4H
	mov	edx, DWORD PTR _this$[ebp]
	mov	eax, DWORD PTR [edx+228]
	call	DWORD PTR [eax+28]
	cmp	esi, esp
	call	__RTC_CheckEsp
	mov	BYTE PTR __$EHRec$[ebp+12], 1
	lea	ecx, DWORD PTR $T94541[ebp]
	call	??1?$CStringT@GV?$StrTraitMFC@GV?$ChTraitsCRT@G@ATL@@@@@ATL@@QAE@XZ ; ATL::CStringT<unsigned short,StrTraitMFC<unsigned short,ATL::ChTraitsCRT<unsigned short> > >::~CStringT<unsigned short,StrTraitMFC<unsigned short,ATL::ChTraitsCRT<unsigned short> > >

; 383  :    if ( theSet.IsEOF() )

	mov	ecx, DWORD PTR _this$[ebp]
	add	ecx, 228				; 000000e4H
	call	?IsEOF@CDaoRecordset@@QBEHXZ		; CDaoRecordset::IsEOF
	mov	DWORD PTR tv183[ebp], eax
	cmp	DWORD PTR tv183[ebp], 0
	je	SHORT $L94065

; 384  : 	   pFuncs->NewRTF(IDC_TEXT);

	push	1004					; 000003ecH
	mov	eax, DWORD PTR _this$[ebp]
	mov	ecx, DWORD PTR [eax+412]
	call	?NewRTF@RTFFuncs@@QAEXH@Z		; RTFFuncs::NewRTF

; 385  :    else

	jmp	SHORT $L94066
$L94065:

; 386  :       pFuncs->SetRTF(IDC_TEXT,theSet.m_Text);

	mov	eax, DWORD PTR _this$[ebp]
	add	eax, 404				; 00000194H
	push	eax
	push	1004					; 000003ecH
	mov	ecx, DWORD PTR _this$[ebp]
	mov	ecx, DWORD PTR [ecx+412]
	call	?SetRTF@RTFFuncs@@QAEXHAAV?$CStringT@GV?$StrTraitMFC@GV?$ChTraitsCRT@G@ATL@@@@@ATL@@@Z ; RTFFuncs::SetRTF
$L94066:

; 387  :    Invalidate();

	push	1
	mov	ecx, DWORD PTR _this$[ebp]
	call	?Invalidate@CWnd@@QAEXH@Z		; CWnd::Invalidate

; 388  :  }

	mov	BYTE PTR __$EHRec$[ebp+12], 0
	lea	ecx, DWORD PTR _Lang$94059[ebp]
	call	??1?$CStringT@GV?$StrTraitMFC@GV?$ChTraitsCRT@G@ATL@@@@@ATL@@QAE@XZ ; ATL::CStringT<unsigned short,StrTraitMFC<unsigned short,ATL::ChTraitsCRT<unsigned short> > >::~CStringT<unsigned short,StrTraitMFC<unsigned short,ATL::ChTraitsCRT<unsigned short> > >
	jmp	SHORT $L94543
__catch$?Find@CAspTextEdit@@IAEHXZ$0:

; 389  :  catch ( CDaoException *e ) {
; 390  :    e->GetErrorMessage(errbuf,499);

	mov	esi, esp
	push	0
	push	499					; 000001f3H
	lea	eax, DWORD PTR _errbuf$[ebp]
	push	eax
	mov	ecx, DWORD PTR _e$94067[ebp]
	mov	edx, DWORD PTR [ecx]
	mov	ecx, DWORD PTR _e$94067[ebp]
	call	DWORD PTR [edx+20]
	cmp	esi, esp
	call	__RTC_CheckEsp

; 391  :    alert_box(_T("Error on Database"), errbuf );

	lea	eax, DWORD PTR _errbuf$[ebp]
	push	eax
	push	OFFSET FLAT:??_C@_1CE@OOAKNAGM@?$AAE?$AAr?$AAr?$AAo?$AAr?$AA?5?$AAo?$AAn?$AA?5?$AAD?$AAa?$AAt?$AAa?$AAb?$AAa?$AAs?$AAe?$AA?$AA@
	call	?alert_box@@YAHPAGPBGZZ			; alert_box
	add	esp, 8

; 392  :    return ( 0 );

	mov	DWORD PTR $T94542[ebp], 0
	mov	eax, $L94548
	ret	0
$L94543:

; 393  :   }

	mov	DWORD PTR __$EHRec$[ebp+12], -1

; 392  :    return ( 0 );

	jmp	SHORT __tryend$?Find@CAspTextEdit@@IAEHXZ$1
$L94548:
	mov	eax, DWORD PTR $T94542[ebp]
	jmp	SHORT $L94051
__tryend$?Find@CAspTextEdit@@IAEHXZ$1:

; 394  :  return ( 1 );

	mov	eax, 1
$L94051:

; 395  : 
; 396  : }

	push	edx
	mov	ecx, ebp
	push	eax
	lea	edx, DWORD PTR $L94562
	call	@_RTC_CheckStackVars@8
	pop	eax
	pop	edx
	mov	ecx, DWORD PTR __$EHRec$[ebp+4]
	mov	DWORD PTR fs:__except_list, ecx
	mov	ecx, DWORD PTR __$ArrayPad$[ebp]
	call	@__security_check_cookie@4
	pop	edi
	pop	esi
	pop	ebx
	add	esp, 1576				; 00000628H
	cmp	ebp, esp
	call	__RTC_CheckEsp
	mov	esp, ebp
	pop	ebp
	ret	0
$L94562:
	DD	8
	DD	$L94561
$L94561:
	DD	-1036					; fffffbf4H
	DD	1000					; 000003e8H
	DD	$L94551
	DD	-1196					; fffffb54H
	DD	150					; 00000096H
	DD	$L94552
	DD	-1232					; fffffb30H
	DD	25					; 00000019H
	DD	$L94553
	DD	-1268					; fffffb0cH
	DD	25					; 00000019H
	DD	$L94554
	DD	-1304					; fffffae8H
	DD	25					; 00000019H
	DD	$L94555
	DD	-1324					; fffffad4H
	DD	11					; 0000000bH
	DD	$L94556
	DD	-1336					; fffffac8H
	DD	4
	DD	$L94557
	DD	-1348					; fffffabcH
	DD	4
	DD	$L94558
$L94558:
	DB	101					; 00000065H
	DB	0
$L94557:
	DB	76					; 0000004cH
	DB	97					; 00000061H
	DB	110					; 0000006eH
	DB	103					; 00000067H
	DB	0
$L94556:
	DB	97					; 00000061H
	DB	108					; 0000006cH
	DB	97					; 00000061H
	DB	110					; 0000006eH
	DB	103					; 00000067H
	DB	0
$L94555:
	DB	107					; 0000006bH
	DB	101					; 00000065H
	DB	121					; 00000079H
	DB	51					; 00000033H
	DB	0
$L94554:
	DB	107					; 0000006bH
	DB	101					; 00000065H
	DB	121					; 00000079H
	DB	50					; 00000032H
	DB	0
$L94553:
	DB	107					; 0000006bH
	DB	101					; 00000065H
	DB	121					; 00000079H
	DB	49					; 00000031H
	DB	0
$L94552:
	DB	115					; 00000073H
	DB	113					; 00000071H
	DB	108					; 0000006cH
	DB	98					; 00000062H
	DB	117					; 00000075H
	DB	102					; 00000066H
	DB	0
$L94551:
	DB	101					; 00000065H
	DB	114					; 00000072H
	DB	114					; 00000072H
	DB	98					; 00000062H
	DB	117					; 00000075H
	DB	102					; 00000066H
	DB	0
_TEXT	ENDS
;	COMDAT text$x
text$x	SEGMENT
__unwindfunclet$?Find@CAspTextEdit@@IAEHXZ$2:
	lea	ecx, DWORD PTR _Lang$94059[ebp]
	jmp	??1?$CStringT@GV?$StrTraitMFC@GV?$ChTraitsCRT@G@ATL@@@@@ATL@@QAE@XZ ; ATL::CStringT<unsigned short,StrTraitMFC<unsigned short,ATL::ChTraitsCRT<unsigned short> > >::~CStringT<unsigned short,StrTraitMFC<unsigned short,ATL::ChTraitsCRT<unsigned short> > >
__unwindfunclet$?Find@CAspTextEdit@@IAEHXZ$3:
	lea	ecx, DWORD PTR $T94541[ebp]
	jmp	??1?$CStringT@GV?$StrTraitMFC@GV?$ChTraitsCRT@G@ATL@@@@@ATL@@QAE@XZ ; ATL::CStringT<unsigned short,StrTraitMFC<unsigned short,ATL::ChTraitsCRT<unsigned short> > >::~CStringT<unsigned short,StrTraitMFC<unsigned short,ATL::ChTraitsCRT<unsigned short> > >
__ehhandler$?Find@CAspTextEdit@@IAEHXZ:
	mov	eax, OFFSET FLAT:__ehfuncinfo$?Find@CAspTextEdit@@IAEHXZ
	jmp	___CxxFrameHandler
text$x	ENDS
?Find@CAspTextEdit@@IAEHXZ ENDP				; CAspTextEdit::Find
PUBLIC	?value@CSymbol@@QAEAAHXZ			; CSymbol::value
PUBLIC	??_C@_1CK@CLAGECII@?$AAC?$AAa?$AAn?$AA?8?$AAt?$AA?5?$AAF?$AAi?$AAn?$AAd?$AA?5?$AAS?$AAy?$AAm?$AAb?$AAo?$AAl?$AA?5?$AA?$CF?$AAs@ ; `string'
PUBLIC	??_C@_1BG@NOPLIDDJ@?$AAB?$AAa?$AAd?$AA?5?$AAS?$AAy?$AAm?$AAb?$AAo?$AAl?$AA?$AA@ ; `string'
PUBLIC	??4?$CStringT@GV?$StrTraitMFC@GV?$ChTraitsCRT@G@ATL@@@@@ATL@@QAEAAV01@ABV01@@Z ; ATL::CStringT<unsigned short,StrTraitMFC<unsigned short,ATL::ChTraitsCRT<unsigned short> > >::operator=
PUBLIC	??4?$CStringT@GV?$StrTraitMFC@GV?$ChTraitsCRT@G@ATL@@@@@ATL@@QAEAAV01@PBD@Z ; ATL::CStringT<unsigned short,StrTraitMFC<unsigned short,ATL::ChTraitsCRT<unsigned short> > >::operator=
EXTRN	?GetRTF@RTFFuncs@@QAE?AV?$CStringT@GV?$StrTraitMFC@GV?$ChTraitsCRT@G@ATL@@@@@ATL@@H@Z:NEAR ; RTFFuncs::GetRTF
EXTRN	?Find@CSymbolAry@@QAEPAVCSymbol@@PBDHH@Z:NEAR	; CSymbolAry::Find
EXTRN	@_RTC_Check_4_to_2@4:NEAR
;	COMDAT xdata$x
xdata$x	SEGMENT
__unwindtable$?Save@CAspTextEdit@@IAEHXZ DD 0ffffffffH
	DD	00H
	DD	00H
	DD	FLAT:__unwindfunclet$?Save@CAspTextEdit@@IAEHXZ$2
	DD	0ffffffffH
	DD	00H
__catchsym$?Save@CAspTextEdit@@IAEHXZ$3 DD 00H
	DD	FLAT:??_R0PAVCDaoException@@@8
	DD	0fffffb64H
	DD	FLAT:__catch$?Save@CAspTextEdit@@IAEHXZ$0
__tryblocktable$?Save@CAspTextEdit@@IAEHXZ DD 00H
	DD	01H
	DD	02H
	DD	01H
	DD	FLAT:__catchsym$?Save@CAspTextEdit@@IAEHXZ$3
__ehfuncinfo$?Save@CAspTextEdit@@IAEHXZ DD 019930520H
	DD	03H
	DD	FLAT:__unwindtable$?Save@CAspTextEdit@@IAEHXZ
	DD	01H
	DD	FLAT:__tryblocktable$?Save@CAspTextEdit@@IAEHXZ
	DD	2 DUP(00H)
xdata$x	ENDS
;	COMDAT ??_C@_1CK@CLAGECII@?$AAC?$AAa?$AAn?$AA?8?$AAt?$AA?5?$AAF?$AAi?$AAn?$AAd?$AA?5?$AAS?$AAy?$AAm?$AAb?$AAo?$AAl?$AA?5?$AA?$CF?$AAs@
CONST	SEGMENT
??_C@_1CK@CLAGECII@?$AAC?$AAa?$AAn?$AA?8?$AAt?$AA?5?$AAF?$AAi?$AAn?$AAd?$AA?5?$AAS?$AAy?$AAm?$AAb?$AAo?$AAl?$AA?5?$AA?$CF?$AAs@ DB 'C'
	DB	00H, 'a', 00H, 'n', 00H, '''', 00H, 't', 00H, ' ', 00H, 'F', 00H
	DB	'i', 00H, 'n', 00H, 'd', 00H, ' ', 00H, 'S', 00H, 'y', 00H, 'm'
	DB	00H, 'b', 00H, 'o', 00H, 'l', 00H, ' ', 00H, '%', 00H, 's', 00H
	DB	00H, 00H					; `string'
CONST	ENDS
;	COMDAT ??_C@_1BG@NOPLIDDJ@?$AAB?$AAa?$AAd?$AA?5?$AAS?$AAy?$AAm?$AAb?$AAo?$AAl?$AA?$AA@
CONST	SEGMENT
??_C@_1BG@NOPLIDDJ@?$AAB?$AAa?$AAd?$AA?5?$AAS?$AAy?$AAm?$AAb?$AAo?$AAl?$AA?$AA@ DB 'B'
	DB	00H, 'a', 00H, 'd', 00H, ' ', 00H, 'S', 00H, 'y', 00H, 'm', 00H
	DB	'b', 00H, 'o', 00H, 'l', 00H, 00H, 00H	; `string'
; Function compile flags: /Odt /RTCcsu /ZI
CONST	ENDS
;	COMDAT ?Save@CAspTextEdit@@IAEHXZ
_TEXT	SEGMENT
tv243 = -1408						; size = 4
tv254 = -1404						; size = 4
tv253 = -1404						; size = 4
tv252 = -1404						; size = 4
tv251 = -1404						; size = 4
tv250 = -1404						; size = 4
tv249 = -1404						; size = 4
tv248 = -1404						; size = 4
tv247 = -1404						; size = 4
tv246 = -1404						; size = 4
tv245 = -1404						; size = 4
$T94571 = -1396						; size = 4
$T94572 = -1384						; size = 4
_e$94094 = -1180					; size = 4
_pSym$94089 = -1168					; size = 4
_pSym$94083 = -1156					; size = 4
_key3$ = -1144						; size = 25
_key2$ = -1108						; size = 25
_key1$ = -1072						; size = 25
_errbuf$ = -1036					; size = 1000
_this$ = -28						; size = 4
__$ArrayPad$ = -20					; size = 4
__$EHRec$ = -16						; size = 16
__$ReturnAddr$ = 4					; size = 4
?Save@CAspTextEdit@@IAEHXZ PROC NEAR			; CAspTextEdit::Save, COMDAT
; _this$ = ecx

; 399  : {

	push	ebp
	mov	ebp, esp
	push	-1
	push	__ehhandler$?Save@CAspTextEdit@@IAEHXZ
	mov	eax, DWORD PTR fs:__except_list
	push	eax
	mov	DWORD PTR fs:__except_list, esp
	push	ecx
	sub	esp, 1392				; 00000570H
	push	ebx
	push	esi
	push	edi
	push	ecx
	lea	edi, DWORD PTR [ebp-1408]
	mov	ecx, 348				; 0000015cH
	mov	eax, -858993460				; ccccccccH
	rep stosd
	pop	ecx
	mov	eax, DWORD PTR ___security_cookie
	mov	DWORD PTR __$ArrayPad$[ebp], eax
	mov	DWORD PTR __$EHRec$[ebp], esp
	mov	DWORD PTR _this$[ebp], ecx

; 400  :  TCHAR errbuf[500]; 
; 401  :  char key1[25], key2[25], key3[25];
; 402  :  try {

	mov	DWORD PTR __$EHRec$[ebp+12], 0

; 403  :    if ( !theSet.IsOpen() )

	mov	ecx, DWORD PTR _this$[ebp]
	add	ecx, 228				; 000000e4H
	call	?IsOpen@CDaoRecordset@@QBEHXZ		; CDaoRecordset::IsOpen
	mov	DWORD PTR tv245[ebp], eax
	cmp	DWORD PTR tv245[ebp], 0
	jne	SHORT $L94079

; 404  : 	   theSet.Open();

	mov	esi, esp
	push	0
	push	0
	push	-1
	mov	ecx, DWORD PTR _this$[ebp]
	add	ecx, 228				; 000000e4H
	mov	eax, DWORD PTR _this$[ebp]
	mov	edx, DWORD PTR [eax+228]
	call	DWORD PTR [edx+28]
	cmp	esi, esp
	call	__RTC_CheckEsp
$L94079:

; 405  :    if ( theSet.IsEOF() )

	mov	ecx, DWORD PTR _this$[ebp]
	add	ecx, 228				; 000000e4H
	call	?IsEOF@CDaoRecordset@@QBEHXZ		; CDaoRecordset::IsEOF
	mov	DWORD PTR tv246[ebp], eax
	cmp	DWORD PTR tv246[ebp], 0
	je	SHORT $L94080

; 406  : 	   theSet.AddNew();

	mov	ecx, DWORD PTR _this$[ebp]
	add	ecx, 228				; 000000e4H
	mov	esi, esp
	mov	eax, DWORD PTR _this$[ebp]
	mov	edx, DWORD PTR [eax+228]
	call	DWORD PTR [edx+44]
	cmp	esi, esp
	call	__RTC_CheckEsp

; 407  :    else

	jmp	SHORT $L94081
$L94080:

; 408  : 	   theSet.Edit();

	mov	ecx, DWORD PTR _this$[ebp]
	add	ecx, 228				; 000000e4H
	mov	esi, esp
	mov	eax, DWORD PTR _this$[ebp]
	mov	edx, DWORD PTR [eax+228]
	call	DWORD PTR [edx+48]
	cmp	esi, esp
	call	__RTC_CheckEsp
$L94081:

; 409  :    getKey(key1,m_Plan1Str);

	mov	eax, DWORD PTR _this$[ebp]
	add	eax, 212				; 000000d4H
	push	eax
	lea	ecx, DWORD PTR _key1$[ebp]
	push	ecx
	call	?getKey@@YAXPADAAV?$CStringT@GV?$StrTraitMFC@GV?$ChTraitsCRT@G@ATL@@@@@ATL@@@Z ; getKey
	add	esp, 8

; 410  :    getKey(key2,m_Plan2Str);

	mov	eax, DWORD PTR _this$[ebp]
	add	eax, 216				; 000000d8H
	push	eax
	lea	ecx, DWORD PTR _key2$[ebp]
	push	ecx
	call	?getKey@@YAXPADAAV?$CStringT@GV?$StrTraitMFC@GV?$ChTraitsCRT@G@ATL@@@@@ATL@@@Z ; getKey
	add	esp, 8

; 411  :    getKey(key3,m_AspectStr);

	mov	eax, DWORD PTR _this$[ebp]
	add	eax, 208				; 000000d0H
	push	eax
	lea	ecx, DWORD PTR _key3$[ebp]
	push	ecx
	call	?getKey@@YAXPADAAV?$CStringT@GV?$StrTraitMFC@GV?$ChTraitsCRT@G@ATL@@@@@ATL@@@Z ; getKey
	add	esp, 8

; 412  :    theSet.m_Planet1 = key1;

	lea	eax, DWORD PTR _key1$[ebp]
	push	eax
	mov	ecx, DWORD PTR _this$[ebp]
	add	ecx, 384				; 00000180H
	call	??4?$CStringT@GV?$StrTraitMFC@GV?$ChTraitsCRT@G@ATL@@@@@ATL@@QAEAAV01@PBD@Z ; ATL::CStringT<unsigned short,StrTraitMFC<unsigned short,ATL::ChTraitsCRT<unsigned short> > >::operator=

; 413  :    theSet.m_Planet2 = key2;

	lea	eax, DWORD PTR _key2$[ebp]
	push	eax
	mov	ecx, DWORD PTR _this$[ebp]
	add	ecx, 388				; 00000184H
	call	??4?$CStringT@GV?$StrTraitMFC@GV?$ChTraitsCRT@G@ATL@@@@@ATL@@QAEAAV01@PBD@Z ; ATL::CStringT<unsigned short,StrTraitMFC<unsigned short,ATL::ChTraitsCRT<unsigned short> > >::operator=

; 414  :    theSet.m_Aspect = key3;

	lea	eax, DWORD PTR _key3$[ebp]
	push	eax
	mov	ecx, DWORD PTR _this$[ebp]
	add	ecx, 396				; 0000018cH
	call	??4?$CStringT@GV?$StrTraitMFC@GV?$ChTraitsCRT@G@ATL@@@@@ATL@@QAEAAV01@PBD@Z ; ATL::CStringT<unsigned short,StrTraitMFC<unsigned short,ATL::ChTraitsCRT<unsigned short> > >::operator=

; 415  :    theSet.m_TextType = m_TextType;

	mov	eax, DWORD PTR _this$[ebp]
	add	eax, 220				; 000000dcH
	push	eax
	mov	ecx, DWORD PTR _this$[ebp]
	add	ecx, 380				; 0000017cH
	call	??4?$CStringT@GV?$StrTraitMFC@GV?$ChTraitsCRT@G@ATL@@@@@ATL@@QAEAAV01@ABV01@@Z ; ATL::CStringT<unsigned short,StrTraitMFC<unsigned short,ATL::ChTraitsCRT<unsigned short> > >::operator=

; 416  :    theSet.m_Text = pFuncs->GetRTF(IDC_TEXT);

	push	1004					; 000003ecH
	lea	eax, DWORD PTR $T94571[ebp]
	push	eax
	mov	ecx, DWORD PTR _this$[ebp]
	mov	ecx, DWORD PTR [ecx+412]
	call	?GetRTF@RTFFuncs@@QAE?AV?$CStringT@GV?$StrTraitMFC@GV?$ChTraitsCRT@G@ATL@@@@@ATL@@H@Z ; RTFFuncs::GetRTF
	mov	DWORD PTR tv247[ebp], eax
	mov	edx, DWORD PTR tv247[ebp]
	mov	DWORD PTR tv243[ebp], edx
	mov	BYTE PTR __$EHRec$[ebp+12], 1
	mov	eax, DWORD PTR tv243[ebp]
	push	eax
	mov	ecx, DWORD PTR _this$[ebp]
	add	ecx, 404				; 00000194H
	call	??4?$CStringT@GV?$StrTraitMFC@GV?$ChTraitsCRT@G@ATL@@@@@ATL@@QAEAAV01@ABV01@@Z ; ATL::CStringT<unsigned short,StrTraitMFC<unsigned short,ATL::ChTraitsCRT<unsigned short> > >::operator=
	mov	BYTE PTR __$EHRec$[ebp+12], 0
	lea	ecx, DWORD PTR $T94571[ebp]
	call	??1?$CStringT@GV?$StrTraitMFC@GV?$ChTraitsCRT@G@ATL@@@@@ATL@@QAE@XZ ; ATL::CStringT<unsigned short,StrTraitMFC<unsigned short,ATL::ChTraitsCRT<unsigned short> > >::~CStringT<unsigned short,StrTraitMFC<unsigned short,ATL::ChTraitsCRT<unsigned short> > >

; 417  :    CSymbol *pSym=pRegSymbols->Find(key1,1,0);

	push	0
	push	1
	lea	eax, DWORD PTR _key1$[ebp]
	push	eax
	mov	ecx, DWORD PTR ?pRegSymbols@@3PAVCSymbolAry@@A ; pRegSymbols
	call	?Find@CSymbolAry@@QAEPAVCSymbol@@PBDHH@Z ; CSymbolAry::Find
	mov	DWORD PTR tv248[ebp], eax
	mov	ecx, DWORD PTR tv248[ebp]
	mov	DWORD PTR _pSym$94083[ebp], ecx

; 418  :    if ( pSym == NULL ) {

	cmp	DWORD PTR _pSym$94083[ebp], 0
	jne	SHORT $L94084

; 419  : 	   alert_box(_T("Bad Symbol"), _T("Can't Find Symbol %s"), (LPCTSTR)m_Plan1Str );

	mov	ecx, DWORD PTR _this$[ebp]
	add	ecx, 212				; 000000d4H
	call	??B?$CSimpleStringT@G$0A@@ATL@@QBEPBGXZ	; ATL::CSimpleStringT<unsigned short,0>::operator unsigned short const *
	push	eax
	push	OFFSET FLAT:??_C@_1CK@CLAGECII@?$AAC?$AAa?$AAn?$AA?8?$AAt?$AA?5?$AAF?$AAi?$AAn?$AAd?$AA?5?$AAS?$AAy?$AAm?$AAb?$AAo?$AAl?$AA?5?$AA?$CF?$AAs@
	push	OFFSET FLAT:??_C@_1BG@NOPLIDDJ@?$AAB?$AAa?$AAd?$AA?5?$AAS?$AAy?$AAm?$AAb?$AAo?$AAl?$AA?$AA@
	call	?alert_box@@YAHPAGPBGZZ			; alert_box
	add	esp, 12					; 0000000cH

; 420  :        return( 0 );

	xor	eax, eax
	jmp	$L94073
$L94084:

; 421  : 		}
; 422  :    theSet.m_Planet1num=pSym->value();

	mov	ecx, DWORD PTR _pSym$94083[ebp]
	call	?value@CSymbol@@QAEAAHXZ		; CSymbol::value
	mov	DWORD PTR tv249[ebp], eax
	mov	eax, DWORD PTR tv249[ebp]
	mov	ecx, DWORD PTR [eax]
	call	@_RTC_Check_4_to_2@4
	mov	ecx, DWORD PTR _this$[ebp]
	mov	WORD PTR [ecx+392], ax

; 423  :    pSym=pRegSymbols->Find(key2,2,0);

	push	0
	push	2
	lea	eax, DWORD PTR _key2$[ebp]
	push	eax
	mov	ecx, DWORD PTR ?pRegSymbols@@3PAVCSymbolAry@@A ; pRegSymbols
	call	?Find@CSymbolAry@@QAEPAVCSymbol@@PBDHH@Z ; CSymbolAry::Find
	mov	DWORD PTR tv250[ebp], eax
	mov	ecx, DWORD PTR tv250[ebp]
	mov	DWORD PTR _pSym$94083[ebp], ecx

; 424  :    if ( pSym == NULL ) {

	cmp	DWORD PTR _pSym$94083[ebp], 0
	jne	SHORT $L94088

; 425  : 	   CSymbol *pSym=pRegSymbols->Find(key2,4,0);

	push	0
	push	4
	lea	eax, DWORD PTR _key2$[ebp]
	push	eax
	mov	ecx, DWORD PTR ?pRegSymbols@@3PAVCSymbolAry@@A ; pRegSymbols
	call	?Find@CSymbolAry@@QAEPAVCSymbol@@PBDHH@Z ; CSymbolAry::Find
	mov	DWORD PTR tv251[ebp], eax
	mov	ecx, DWORD PTR tv251[ebp]
	mov	DWORD PTR _pSym$94089[ebp], ecx

; 426  : 	   if ( pSym == NULL ) {

	cmp	DWORD PTR _pSym$94089[ebp], 0
	jne	SHORT $L94088

; 427  : 		  alert_box(_T("Bad Symbol"), _T("Can't Find Symbol %s"), (LPCTSTR)m_Plan2Str );

	mov	ecx, DWORD PTR _this$[ebp]
	add	ecx, 216				; 000000d8H
	call	??B?$CSimpleStringT@G$0A@@ATL@@QBEPBGXZ	; ATL::CSimpleStringT<unsigned short,0>::operator unsigned short const *
	push	eax
	push	OFFSET FLAT:??_C@_1CK@CLAGECII@?$AAC?$AAa?$AAn?$AA?8?$AAt?$AA?5?$AAF?$AAi?$AAn?$AAd?$AA?5?$AAS?$AAy?$AAm?$AAb?$AAo?$AAl?$AA?5?$AA?$CF?$AAs@
	push	OFFSET FLAT:??_C@_1BG@NOPLIDDJ@?$AAB?$AAa?$AAd?$AA?5?$AAS?$AAy?$AAm?$AAb?$AAo?$AAl?$AA?$AA@
	call	?alert_box@@YAHPAGPBGZZ			; alert_box
	add	esp, 12					; 0000000cH

; 428  : 		  return( 0 );

	xor	eax, eax
	jmp	$L94073
$L94088:

; 429  : 		  }
; 430  : 	}
; 431  :    theSet.m_Planet2num=pSym->value();

	mov	ecx, DWORD PTR _pSym$94083[ebp]
	call	?value@CSymbol@@QAEAAHXZ		; CSymbol::value
	mov	DWORD PTR tv252[ebp], eax
	mov	eax, DWORD PTR tv252[ebp]
	mov	ecx, DWORD PTR [eax]
	call	@_RTC_Check_4_to_2@4
	mov	ecx, DWORD PTR _this$[ebp]
	mov	WORD PTR [ecx+394], ax

; 432  :    pSym=pRegSymbols->Find(key3,3,0);

	push	0
	push	3
	lea	eax, DWORD PTR _key3$[ebp]
	push	eax
	mov	ecx, DWORD PTR ?pRegSymbols@@3PAVCSymbolAry@@A ; pRegSymbols
	call	?Find@CSymbolAry@@QAEPAVCSymbol@@PBDHH@Z ; CSymbolAry::Find
	mov	DWORD PTR tv253[ebp], eax
	mov	ecx, DWORD PTR tv253[ebp]
	mov	DWORD PTR _pSym$94083[ebp], ecx

; 433  :    if ( pSym == NULL ) {

	cmp	DWORD PTR _pSym$94083[ebp], 0
	jne	SHORT $L94092

; 434  : 	   alert_box(_T("Bad Symbol"), _T("Can't Find Symbol %s"), (LPCTSTR)m_AspectStr );

	mov	ecx, DWORD PTR _this$[ebp]
	add	ecx, 208				; 000000d0H
	call	??B?$CSimpleStringT@G$0A@@ATL@@QBEPBGXZ	; ATL::CSimpleStringT<unsigned short,0>::operator unsigned short const *
	push	eax
	push	OFFSET FLAT:??_C@_1CK@CLAGECII@?$AAC?$AAa?$AAn?$AA?8?$AAt?$AA?5?$AAF?$AAi?$AAn?$AAd?$AA?5?$AAS?$AAy?$AAm?$AAb?$AAo?$AAl?$AA?5?$AA?$CF?$AAs@
	push	OFFSET FLAT:??_C@_1BG@NOPLIDDJ@?$AAB?$AAa?$AAd?$AA?5?$AAS?$AAy?$AAm?$AAb?$AAo?$AAl?$AA?$AA@
	call	?alert_box@@YAHPAGPBGZZ			; alert_box
	add	esp, 12					; 0000000cH

; 435  :        return( 0 );

	xor	eax, eax
	jmp	$L94073
$L94092:

; 436  : 		}
; 437  :    theSet.m_Aspectnum=pSym->value();

	mov	ecx, DWORD PTR _pSym$94083[ebp]
	call	?value@CSymbol@@QAEAAHXZ		; CSymbol::value
	mov	DWORD PTR tv254[ebp], eax
	mov	eax, DWORD PTR tv254[ebp]
	mov	ecx, DWORD PTR [eax]
	call	@_RTC_Check_4_to_2@4
	mov	ecx, DWORD PTR _this$[ebp]
	mov	WORD PTR [ecx+400], ax

; 438  :    theSet.Update();

	mov	ecx, DWORD PTR _this$[ebp]
	add	ecx, 228				; 000000e4H
	mov	esi, esp
	mov	eax, DWORD PTR _this$[ebp]
	mov	edx, DWORD PTR [eax+228]
	call	DWORD PTR [edx+52]
	cmp	esi, esp
	call	__RTC_CheckEsp

; 439  :    theSet.Close();

	mov	ecx, DWORD PTR _this$[ebp]
	add	ecx, 228				; 000000e4H
	mov	esi, esp
	mov	eax, DWORD PTR _this$[ebp]
	mov	edx, DWORD PTR [eax+228]
	call	DWORD PTR [edx+32]
	cmp	esi, esp
	call	__RTC_CheckEsp
	jmp	SHORT $L94573
__catch$?Save@CAspTextEdit@@IAEHXZ$0:

; 440  :  }
; 441  :  catch ( CDaoException *e ) {
; 442  :    e->GetErrorMessage(errbuf,499);

	mov	esi, esp
	push	0
	push	499					; 000001f3H
	lea	eax, DWORD PTR _errbuf$[ebp]
	push	eax
	mov	ecx, DWORD PTR _e$94094[ebp]
	mov	edx, DWORD PTR [ecx]
	mov	ecx, DWORD PTR _e$94094[ebp]
	call	DWORD PTR [edx+20]
	cmp	esi, esp
	call	__RTC_CheckEsp

; 443  :    alert_box(_T("Error on Database"), errbuf );

	lea	eax, DWORD PTR _errbuf$[ebp]
	push	eax
	push	OFFSET FLAT:??_C@_1CE@OOAKNAGM@?$AAE?$AAr?$AAr?$AAo?$AAr?$AA?5?$AAo?$AAn?$AA?5?$AAD?$AAa?$AAt?$AAa?$AAb?$AAa?$AAs?$AAe?$AA?$AA@
	call	?alert_box@@YAHPAGPBGZZ			; alert_box
	add	esp, 8

; 444  :    return ( 0 );

	mov	DWORD PTR $T94572[ebp], 0
	mov	eax, $L94577
	ret	0
$L94573:

; 445  :   }

	mov	DWORD PTR __$EHRec$[ebp+12], -1

; 444  :    return ( 0 );

	jmp	SHORT __tryend$?Save@CAspTextEdit@@IAEHXZ$1
$L94577:
	mov	eax, DWORD PTR $T94572[ebp]
	jmp	SHORT $L94073
__tryend$?Save@CAspTextEdit@@IAEHXZ$1:

; 446  :  return ( 1 );

	mov	eax, 1
$L94073:

; 447  : 
; 448  : }

	push	edx
	mov	ecx, ebp
	push	eax
	lea	edx, DWORD PTR $L94589
	call	@_RTC_CheckStackVars@8
	pop	eax
	pop	edx
	mov	ecx, DWORD PTR __$EHRec$[ebp+4]
	mov	DWORD PTR fs:__except_list, ecx
	mov	ecx, DWORD PTR __$ArrayPad$[ebp]
	call	@__security_check_cookie@4
	pop	edi
	pop	esi
	pop	ebx
	add	esp, 1408				; 00000580H
	cmp	ebp, esp
	call	__RTC_CheckEsp
	mov	esp, ebp
	pop	ebp
	ret	0
$L94589:
	DD	5
	DD	$L94588
$L94588:
	DD	-1036					; fffffbf4H
	DD	1000					; 000003e8H
	DD	$L94581
	DD	-1072					; fffffbd0H
	DD	25					; 00000019H
	DD	$L94582
	DD	-1108					; fffffbacH
	DD	25					; 00000019H
	DD	$L94583
	DD	-1144					; fffffb88H
	DD	25					; 00000019H
	DD	$L94584
	DD	-1180					; fffffb64H
	DD	4
	DD	$L94585
$L94585:
	DB	101					; 00000065H
	DB	0
$L94584:
	DB	107					; 0000006bH
	DB	101					; 00000065H
	DB	121					; 00000079H
	DB	51					; 00000033H
	DB	0
$L94583:
	DB	107					; 0000006bH
	DB	101					; 00000065H
	DB	121					; 00000079H
	DB	50					; 00000032H
	DB	0
$L94582:
	DB	107					; 0000006bH
	DB	101					; 00000065H
	DB	121					; 00000079H
	DB	49					; 00000031H
	DB	0
$L94581:
	DB	101					; 00000065H
	DB	114					; 00000072H
	DB	114					; 00000072H
	DB	98					; 00000062H
	DB	117					; 00000075H
	DB	102					; 00000066H
	DB	0
_TEXT	ENDS
;	COMDAT text$x
text$x	SEGMENT
__unwindfunclet$?Save@CAspTextEdit@@IAEHXZ$2:
	lea	ecx, DWORD PTR $T94571[ebp]
	jmp	??1?$CStringT@GV?$StrTraitMFC@GV?$ChTraitsCRT@G@ATL@@@@@ATL@@QAE@XZ ; ATL::CStringT<unsigned short,StrTraitMFC<unsigned short,ATL::ChTraitsCRT<unsigned short> > >::~CStringT<unsigned short,StrTraitMFC<unsigned short,ATL::ChTraitsCRT<unsigned short> > >
__ehhandler$?Save@CAspTextEdit@@IAEHXZ:
	mov	eax, OFFSET FLAT:__ehfuncinfo$?Save@CAspTextEdit@@IAEHXZ
	jmp	___CxxFrameHandler
text$x	ENDS
?Save@CAspTextEdit@@IAEHXZ ENDP				; CAspTextEdit::Save
; Function compile flags: /Odt /RTCcsu /ZI
; File c:\astrow32dev\tbt32\symbol.hpp
;	COMDAT ?value@CSymbol@@QAEAAHXZ
_TEXT	SEGMENT
_this$ = -8						; size = 4
?value@CSymbol@@QAEAAHXZ PROC NEAR			; CSymbol::value, COMDAT
; _this$ = ecx

; 17   : 	int &value() { return _value; }

	push	ebp
	mov	ebp, esp
	sub	esp, 204				; 000000ccH
	push	ebx
	push	esi
	push	edi
	push	ecx
	lea	edi, DWORD PTR [ebp-204]
	mov	ecx, 51					; 00000033H
	mov	eax, -858993460				; ccccccccH
	rep stosd
	pop	ecx
	mov	DWORD PTR _this$[ebp], ecx
	mov	eax, DWORD PTR _this$[ebp]
	add	eax, 120				; 00000078H
	pop	edi
	pop	esi
	pop	ebx
	mov	esp, ebp
	pop	ebp
	ret	0
?value@CSymbol@@QAEAAHXZ ENDP				; CSymbol::value
_TEXT	ENDS
PUBLIC	?GetTabString@RTFFuncs@@QAEAAV?$CStringT@GV?$StrTraitMFC@GV?$ChTraitsCRT@G@ATL@@@@@ATL@@XZ ; RTFFuncs::GetTabString
PUBLIC	?getBasicString@RTFFuncs@@QAEAAV?$CStringT@GV?$StrTraitMFC@GV?$ChTraitsCRT@G@ATL@@@@@ATL@@XZ ; RTFFuncs::getBasicString
PUBLIC	??Y?$CStringT@GV?$StrTraitMFC@GV?$ChTraitsCRT@G@ATL@@@@@ATL@@QAEAAV01@ABV?$CSimpleStringT@G$0A@@1@@Z ; ATL::CStringT<unsigned short,StrTraitMFC<unsigned short,ATL::ChTraitsCRT<unsigned short> > >::operator+=
EXTRN	?GetText@CWSpell@@QAE?AV?$CStringT@GV?$StrTraitMFC@GV?$ChTraitsCRT@G@ATL@@@@@ATL@@XZ:NEAR ; CWSpell::GetText
EXTRN	?SetText@CWSpell@@QAEXPBG@Z:NEAR		; CWSpell::SetText
EXTRN	?SetShowContext@CWSpell@@QAEXH@Z:NEAR		; CWSpell::SetShowContext
EXTRN	?SetShowDialog@CWSpell@@QAEXH@Z:NEAR		; CWSpell::SetShowDialog
EXTRN	?Start@CWSpell@@QAEFXZ:NEAR			; CWSpell::Start
;	COMDAT xdata$x
; File c:\astrow32dev\tbt32\asptextedit.cpp
xdata$x	SEGMENT
__unwindtable$?OnSpell@CAspTextEdit@@IAEXXZ DD 0ffffffffH
	DD	FLAT:__unwindfunclet$?OnSpell@CAspTextEdit@@IAEXXZ$0
	DD	00H
	DD	FLAT:__unwindfunclet$?OnSpell@CAspTextEdit@@IAEXXZ$1
	DD	01H
	DD	FLAT:__unwindfunclet$?OnSpell@CAspTextEdit@@IAEXXZ$2
	DD	01H
	DD	FLAT:__unwindfunclet$?OnSpell@CAspTextEdit@@IAEXXZ$3
__ehfuncinfo$?OnSpell@CAspTextEdit@@IAEXXZ DD 019930520H
	DD	04H
	DD	FLAT:__unwindtable$?OnSpell@CAspTextEdit@@IAEXXZ
	DD	2 DUP(00H)
	DD	2 DUP(00H)
; Function compile flags: /Odt /RTCcsu /ZI
xdata$x	ENDS
;	COMDAT ?OnSpell@CAspTextEdit@@IAEXXZ
_TEXT	SEGMENT
tv157 = -272						; size = 4
tv155 = -272						; size = 4
tv92 = -268						; size = 4
tv67 = -268						; size = 4
$T94599 = -260						; size = 4
$T94600 = -248						; size = 4
_checked$94102 = -44					; size = 4
_str$ = -32						; size = 4
_this$ = -20						; size = 4
__$EHRec$ = -12						; size = 12
?OnSpell@CAspTextEdit@@IAEXXZ PROC NEAR			; CAspTextEdit::OnSpell, COMDAT
; _this$ = ecx

; 451  : {

	push	ebp
	mov	ebp, esp
	push	-1
	push	__ehhandler$?OnSpell@CAspTextEdit@@IAEXXZ
	mov	eax, DWORD PTR fs:__except_list
	push	eax
	mov	DWORD PTR fs:__except_list, esp
	sub	esp, 260				; 00000104H
	push	ebx
	push	esi
	push	edi
	push	ecx
	lea	edi, DWORD PTR [ebp-272]
	mov	ecx, 65					; 00000041H
	mov	eax, -858993460				; ccccccccH
	rep stosd
	pop	ecx
	mov	DWORD PTR _this$[ebp], ecx

; 452  : 	// TODO: Add your command handler code here
; 453  : 	CString str = pFuncs->GetRTF(IDC_TEXT);

	push	1004					; 000003ecH
	lea	eax, DWORD PTR _str$[ebp]
	push	eax
	mov	ecx, DWORD PTR _this$[ebp]
	mov	ecx, DWORD PTR [ecx+412]
	call	?GetRTF@RTFFuncs@@QAE?AV?$CStringT@GV?$StrTraitMFC@GV?$ChTraitsCRT@G@ATL@@@@@ATL@@H@Z ; RTFFuncs::GetRTF
	mov	DWORD PTR __$EHRec$[ebp+8], 0

; 454  : 
; 455  : 	// Interactively check the spelling of the CString.
; 456  : 	// The CString's contents will be displayed so the user can see
; 457  : 	// errors in context. Any corrections made by the user will update
; 458  : 	// the CString.
; 459  : 	// Note that WSpell's ShowContext property has been set to True.
; 460  : 	m_ctrl.SetText(pFuncs->getBasicString());

	mov	eax, DWORD PTR _this$[ebp]
	mov	ecx, DWORD PTR [eax+412]
	call	?getBasicString@RTFFuncs@@QAEAAV?$CStringT@GV?$StrTraitMFC@GV?$ChTraitsCRT@G@ATL@@@@@ATL@@XZ ; RTFFuncs::getBasicString
	mov	ecx, eax
	call	??B?$CSimpleStringT@G$0A@@ATL@@QBEPBGXZ	; ATL::CSimpleStringT<unsigned short,0>::operator unsigned short const *
	push	eax
	mov	ecx, DWORD PTR _this$[ebp]
	add	ecx, 128				; 00000080H
	call	?SetText@CWSpell@@QAEXPBG@Z		; CWSpell::SetText

; 461  : 	m_ctrl.SetShowDialog(TRUE);

	push	1
	mov	ecx, DWORD PTR _this$[ebp]
	add	ecx, 128				; 00000080H
	call	?SetShowDialog@CWSpell@@QAEXH@Z		; CWSpell::SetShowDialog

; 462  : 	m_ctrl.SetShowContext(TRUE);

	push	1
	mov	ecx, DWORD PTR _this$[ebp]
	add	ecx, 128				; 00000080H
	call	?SetShowContext@CWSpell@@QAEXH@Z	; CWSpell::SetShowContext

; 463  : 	if (m_ctrl.Start() >= 0) {

	mov	ecx, DWORD PTR _this$[ebp]
	add	ecx, 128				; 00000080H
	call	?Start@CWSpell@@QAEFXZ			; CWSpell::Start
	movsx	eax, ax
	test	eax, eax
	jl	$L94101

; 464  : 		CString checked = pFuncs->GetTabString();

	mov	eax, DWORD PTR _this$[ebp]
	mov	ecx, DWORD PTR [eax+412]
	call	?GetTabString@RTFFuncs@@QAEAAV?$CStringT@GV?$StrTraitMFC@GV?$ChTraitsCRT@G@ATL@@@@@ATL@@XZ ; RTFFuncs::GetTabString
	push	eax
	lea	ecx, DWORD PTR _checked$94102[ebp]
	call	??0?$CStringT@GV?$StrTraitMFC@GV?$ChTraitsCRT@G@ATL@@@@@ATL@@QAE@ABV01@@Z ; ATL::CStringT<unsigned short,StrTraitMFC<unsigned short,ATL::ChTraitsCRT<unsigned short> > >::CStringT<unsigned short,StrTraitMFC<unsigned short,ATL::ChTraitsCRT<unsigned short> > >
	mov	BYTE PTR __$EHRec$[ebp+8], 1

; 465  : 		checked += m_ctrl.GetText();

	lea	eax, DWORD PTR $T94599[ebp]
	push	eax
	mov	ecx, DWORD PTR _this$[ebp]
	add	ecx, 128				; 00000080H
	call	?GetText@CWSpell@@QAE?AV?$CStringT@GV?$StrTraitMFC@GV?$ChTraitsCRT@G@ATL@@@@@ATL@@XZ ; CWSpell::GetText
	mov	DWORD PTR tv92[ebp], eax
	mov	ecx, DWORD PTR tv92[ebp]
	mov	DWORD PTR tv155[ebp], ecx
	mov	BYTE PTR __$EHRec$[ebp+8], 2
	mov	edx, DWORD PTR tv155[ebp]
	push	edx
	lea	ecx, DWORD PTR _checked$94102[ebp]
	call	??Y?$CStringT@GV?$StrTraitMFC@GV?$ChTraitsCRT@G@ATL@@@@@ATL@@QAEAAV01@ABV?$CSimpleStringT@G$0A@@1@@Z ; ATL::CStringT<unsigned short,StrTraitMFC<unsigned short,ATL::ChTraitsCRT<unsigned short> > >::operator+=
	mov	BYTE PTR __$EHRec$[ebp+8], 1
	lea	ecx, DWORD PTR $T94599[ebp]
	call	??1?$CStringT@GV?$StrTraitMFC@GV?$ChTraitsCRT@G@ATL@@@@@ATL@@QAE@XZ ; ATL::CStringT<unsigned short,StrTraitMFC<unsigned short,ATL::ChTraitsCRT<unsigned short> > >::~CStringT<unsigned short,StrTraitMFC<unsigned short,ATL::ChTraitsCRT<unsigned short> > >

; 466  : 		pFuncs->SetRTF(IDC_TEXT,m_ctrl.GetText());

	lea	eax, DWORD PTR $T94600[ebp]
	push	eax
	mov	ecx, DWORD PTR _this$[ebp]
	add	ecx, 128				; 00000080H
	call	?GetText@CWSpell@@QAE?AV?$CStringT@GV?$StrTraitMFC@GV?$ChTraitsCRT@G@ATL@@@@@ATL@@XZ ; CWSpell::GetText
	mov	DWORD PTR tv67[ebp], eax
	mov	ecx, DWORD PTR tv67[ebp]
	mov	DWORD PTR tv157[ebp], ecx
	mov	BYTE PTR __$EHRec$[ebp+8], 3
	mov	edx, DWORD PTR tv157[ebp]
	push	edx
	push	1004					; 000003ecH
	mov	eax, DWORD PTR _this$[ebp]
	mov	ecx, DWORD PTR [eax+412]
	call	?SetRTF@RTFFuncs@@QAEXHAAV?$CStringT@GV?$StrTraitMFC@GV?$ChTraitsCRT@G@ATL@@@@@ATL@@@Z ; RTFFuncs::SetRTF
	mov	BYTE PTR __$EHRec$[ebp+8], 1
	lea	ecx, DWORD PTR $T94600[ebp]
	call	??1?$CStringT@GV?$StrTraitMFC@GV?$ChTraitsCRT@G@ATL@@@@@ATL@@QAE@XZ ; ATL::CStringT<unsigned short,StrTraitMFC<unsigned short,ATL::ChTraitsCRT<unsigned short> > >::~CStringT<unsigned short,StrTraitMFC<unsigned short,ATL::ChTraitsCRT<unsigned short> > >

; 467  : 	}

	mov	BYTE PTR __$EHRec$[ebp+8], 0
	lea	ecx, DWORD PTR _checked$94102[ebp]
	call	??1?$CStringT@GV?$StrTraitMFC@GV?$ChTraitsCRT@G@ATL@@@@@ATL@@QAE@XZ ; ATL::CStringT<unsigned short,StrTraitMFC<unsigned short,ATL::ChTraitsCRT<unsigned short> > >::~CStringT<unsigned short,StrTraitMFC<unsigned short,ATL::ChTraitsCRT<unsigned short> > >
$L94101:

; 468  :   Invalidate(FALSE);

	push	0
	mov	ecx, DWORD PTR _this$[ebp]
	call	?Invalidate@CWnd@@QAEXH@Z		; CWnd::Invalidate

; 469  : }

	mov	DWORD PTR __$EHRec$[ebp+8], -1
	lea	ecx, DWORD PTR _str$[ebp]
	call	??1?$CStringT@GV?$StrTraitMFC@GV?$ChTraitsCRT@G@ATL@@@@@ATL@@QAE@XZ ; ATL::CStringT<unsigned short,StrTraitMFC<unsigned short,ATL::ChTraitsCRT<unsigned short> > >::~CStringT<unsigned short,StrTraitMFC<unsigned short,ATL::ChTraitsCRT<unsigned short> > >
	push	edx
	mov	ecx, ebp
	push	eax
	lea	edx, DWORD PTR $L94611
	call	@_RTC_CheckStackVars@8
	pop	eax
	pop	edx
	mov	ecx, DWORD PTR __$EHRec$[ebp]
	mov	DWORD PTR fs:__except_list, ecx
	pop	edi
	pop	esi
	pop	ebx
	add	esp, 272				; 00000110H
	cmp	ebp, esp
	call	__RTC_CheckEsp
	mov	esp, ebp
	pop	ebp
	ret	0
$L94611:
	DD	2
	DD	$L94610
$L94610:
	DD	-32					; ffffffe0H
	DD	4
	DD	$L94607
	DD	-44					; ffffffd4H
	DD	4
	DD	$L94608
$L94608:
	DB	99					; 00000063H
	DB	104					; 00000068H
	DB	101					; 00000065H
	DB	99					; 00000063H
	DB	107					; 0000006bH
	DB	101					; 00000065H
	DB	100					; 00000064H
	DB	0
$L94607:
	DB	115					; 00000073H
	DB	116					; 00000074H
	DB	114					; 00000072H
	DB	0
_TEXT	ENDS
;	COMDAT text$x
text$x	SEGMENT
__unwindfunclet$?OnSpell@CAspTextEdit@@IAEXXZ$0:
	lea	ecx, DWORD PTR _str$[ebp]
	jmp	??1?$CStringT@GV?$StrTraitMFC@GV?$ChTraitsCRT@G@ATL@@@@@ATL@@QAE@XZ ; ATL::CStringT<unsigned short,StrTraitMFC<unsigned short,ATL::ChTraitsCRT<unsigned short> > >::~CStringT<unsigned short,StrTraitMFC<unsigned short,ATL::ChTraitsCRT<unsigned short> > >
__unwindfunclet$?OnSpell@CAspTextEdit@@IAEXXZ$1:
	lea	ecx, DWORD PTR _checked$94102[ebp]
	jmp	??1?$CStringT@GV?$StrTraitMFC@GV?$ChTraitsCRT@G@ATL@@@@@ATL@@QAE@XZ ; ATL::CStringT<unsigned short,StrTraitMFC<unsigned short,ATL::ChTraitsCRT<unsigned short> > >::~CStringT<unsigned short,StrTraitMFC<unsigned short,ATL::ChTraitsCRT<unsigned short> > >
__unwindfunclet$?OnSpell@CAspTextEdit@@IAEXXZ$2:
	lea	ecx, DWORD PTR $T94599[ebp]
	jmp	??1?$CStringT@GV?$StrTraitMFC@GV?$ChTraitsCRT@G@ATL@@@@@ATL@@QAE@XZ ; ATL::CStringT<unsigned short,StrTraitMFC<unsigned short,ATL::ChTraitsCRT<unsigned short> > >::~CStringT<unsigned short,StrTraitMFC<unsigned short,ATL::ChTraitsCRT<unsigned short> > >
__unwindfunclet$?OnSpell@CAspTextEdit@@IAEXXZ$3:
	lea	ecx, DWORD PTR $T94600[ebp]
	jmp	??1?$CStringT@GV?$StrTraitMFC@GV?$ChTraitsCRT@G@ATL@@@@@ATL@@QAE@XZ ; ATL::CStringT<unsigned short,StrTraitMFC<unsigned short,ATL::ChTraitsCRT<unsigned short> > >::~CStringT<unsigned short,StrTraitMFC<unsigned short,ATL::ChTraitsCRT<unsigned short> > >
__ehhandler$?OnSpell@CAspTextEdit@@IAEXXZ:
	mov	eax, OFFSET FLAT:__ehfuncinfo$?OnSpell@CAspTextEdit@@IAEXXZ
	jmp	___CxxFrameHandler
text$x	ENDS
?OnSpell@CAspTextEdit@@IAEXXZ ENDP			; CAspTextEdit::OnSpell
; Function compile flags: /Odt /RTCcsu /ZI
; File c:\astrow32dev\tbt32\rtffuncs.h
;	COMDAT ?GetTabString@RTFFuncs@@QAEAAV?$CStringT@GV?$StrTraitMFC@GV?$ChTraitsCRT@G@ATL@@@@@ATL@@XZ
_TEXT	SEGMENT
_this$ = -8						; size = 4
?GetTabString@RTFFuncs@@QAEAAV?$CStringT@GV?$StrTraitMFC@GV?$ChTraitsCRT@G@ATL@@@@@ATL@@XZ PROC NEAR ; RTFFuncs::GetTabString, COMDAT
; _this$ = ecx

; 38   :    CString &GetTabString() { return tabstring; }

	push	ebp
	mov	ebp, esp
	sub	esp, 204				; 000000ccH
	push	ebx
	push	esi
	push	edi
	push	ecx
	lea	edi, DWORD PTR [ebp-204]
	mov	ecx, 51					; 00000033H
	mov	eax, -858993460				; ccccccccH
	rep stosd
	pop	ecx
	mov	DWORD PTR _this$[ebp], ecx
	mov	eax, DWORD PTR _this$[ebp]
	add	eax, 4
	pop	edi
	pop	esi
	pop	ebx
	mov	esp, ebp
	pop	ebp
	ret	0
?GetTabString@RTFFuncs@@QAEAAV?$CStringT@GV?$StrTraitMFC@GV?$ChTraitsCRT@G@ATL@@@@@ATL@@XZ ENDP ; RTFFuncs::GetTabString
; Function compile flags: /Odt /RTCcsu /ZI
_TEXT	ENDS
;	COMDAT ?getBasicString@RTFFuncs@@QAEAAV?$CStringT@GV?$StrTraitMFC@GV?$ChTraitsCRT@G@ATL@@@@@ATL@@XZ
_TEXT	SEGMENT
_this$ = -8						; size = 4
?getBasicString@RTFFuncs@@QAEAAV?$CStringT@GV?$StrTraitMFC@GV?$ChTraitsCRT@G@ATL@@@@@ATL@@XZ PROC NEAR ; RTFFuncs::getBasicString, COMDAT
; _this$ = ecx

; 41   :    CString &getBasicString() { return BasicString; }

	push	ebp
	mov	ebp, esp
	sub	esp, 204				; 000000ccH
	push	ebx
	push	esi
	push	edi
	push	ecx
	lea	edi, DWORD PTR [ebp-204]
	mov	ecx, 51					; 00000033H
	mov	eax, -858993460				; ccccccccH
	rep stosd
	pop	ecx
	mov	DWORD PTR _this$[ebp], ecx
	mov	eax, DWORD PTR _this$[ebp]
	add	eax, 8
	pop	edi
	pop	esi
	pop	ebx
	mov	esp, ebp
	pop	ebp
	ret	0
?getBasicString@RTFFuncs@@QAEAAV?$CStringT@GV?$StrTraitMFC@GV?$ChTraitsCRT@G@ATL@@@@@ATL@@XZ ENDP ; RTFFuncs::getBasicString
; Function compile flags: /Odt /RTCcsu /ZI
; File c:\astrow32dev\tbt32\asptextedit.cpp
_TEXT	ENDS
;	COMDAT ?OnUpdateSpell@CAspTextEdit@@IAEXPAVCCmdUI@@@Z
_TEXT	SEGMENT
_this$ = -8						; size = 4
_pCmdUI$ = 8						; size = 4
?OnUpdateSpell@CAspTextEdit@@IAEXPAVCCmdUI@@@Z PROC NEAR ; CAspTextEdit::OnUpdateSpell, COMDAT
; _this$ = ecx

; 472  : {

	push	ebp
	mov	ebp, esp
	sub	esp, 204				; 000000ccH
	push	ebx
	push	esi
	push	edi
	push	ecx
	lea	edi, DWORD PTR [ebp-204]
	mov	ecx, 51					; 00000033H
	mov	eax, -858993460				; ccccccccH
	rep stosd
	pop	ecx
	mov	DWORD PTR _this$[ebp], ecx

; 473  : 	// TODO: Add your command update UI handler code here
; 474  : 	pCmdUI->Enable();

	mov	esi, esp
	push	1
	mov	eax, DWORD PTR _pCmdUI$[ebp]
	mov	edx, DWORD PTR [eax]
	mov	ecx, DWORD PTR _pCmdUI$[ebp]
	call	DWORD PTR [edx]
	cmp	esi, esp
	call	__RTC_CheckEsp

; 475  : }

	pop	edi
	pop	esi
	pop	ebx
	add	esp, 204				; 000000ccH
	cmp	ebp, esp
	call	__RTC_CheckEsp
	mov	esp, ebp
	pop	ebp
	ret	4
?OnUpdateSpell@CAspTextEdit@@IAEXPAVCCmdUI@@@Z ENDP	; CAspTextEdit::OnUpdateSpell
_TEXT	ENDS
PUBLIC	??4?$CSimpleStringT@G$0A@@ATL@@QAEAAV01@ABV01@@Z ; ATL::CSimpleStringT<unsigned short,0>::operator=
; Function compile flags: /Odt /RTCcsu /ZI
; File c:\program files\microsoft visual studio .net 2003\vc7\atlmfc\include\cstringt.h
;	COMDAT ??4?$CStringT@GV?$StrTraitMFC@GV?$ChTraitsCRT@G@ATL@@@@@ATL@@QAEAAV01@ABV01@@Z
_TEXT	SEGMENT
_this$ = -8						; size = 4
_strSrc$ = 8						; size = 4
??4?$CStringT@GV?$StrTraitMFC@GV?$ChTraitsCRT@G@ATL@@@@@ATL@@QAEAAV01@ABV01@@Z PROC NEAR ; ATL::CStringT<unsigned short,StrTraitMFC<unsigned short,ATL::ChTraitsCRT<unsigned short> > >::operator=, COMDAT
; _this$ = ecx

; 967  : 	{

	push	ebp
	mov	ebp, esp
	sub	esp, 204				; 000000ccH
	push	ebx
	push	esi
	push	edi
	push	ecx
	lea	edi, DWORD PTR [ebp-204]
	mov	ecx, 51					; 00000033H
	mov	eax, -858993460				; ccccccccH
	rep stosd
	pop	ecx
	mov	DWORD PTR _this$[ebp], ecx

; 968  : 		CThisSimpleString::operator=( strSrc );

	mov	eax, DWORD PTR _strSrc$[ebp]
	push	eax
	mov	ecx, DWORD PTR _this$[ebp]
	call	??4?$CSimpleStringT@G$0A@@ATL@@QAEAAV01@ABV01@@Z ; ATL::CSimpleStringT<unsigned short,0>::operator=

; 969  : 
; 970  : 		return( *this );

	mov	eax, DWORD PTR _this$[ebp]

; 971  : 	}

	pop	edi
	pop	esi
	pop	ebx
	add	esp, 204				; 000000ccH
	cmp	ebp, esp
	call	__RTC_CheckEsp
	mov	esp, ebp
	pop	ebp
	ret	4
??4?$CStringT@GV?$StrTraitMFC@GV?$ChTraitsCRT@G@ATL@@@@@ATL@@QAEAAV01@ABV01@@Z ENDP ; ATL::CStringT<unsigned short,StrTraitMFC<unsigned short,ATL::ChTraitsCRT<unsigned short> > >::operator=
_TEXT	ENDS
PUBLIC	??Y?$CSimpleStringT@G$0A@@ATL@@QAEAAV01@ABV01@@Z ; ATL::CSimpleStringT<unsigned short,0>::operator+=
; Function compile flags: /Odt /RTCcsu /ZI
;	COMDAT ??Y?$CStringT@GV?$StrTraitMFC@GV?$ChTraitsCRT@G@ATL@@@@@ATL@@QAEAAV01@ABV?$CSimpleStringT@G$0A@@1@@Z
_TEXT	SEGMENT
_this$ = -8						; size = 4
_str$ = 8						; size = 4
??Y?$CStringT@GV?$StrTraitMFC@GV?$ChTraitsCRT@G@ATL@@@@@ATL@@QAEAAV01@ABV?$CSimpleStringT@G$0A@@1@@Z PROC NEAR ; ATL::CStringT<unsigned short,StrTraitMFC<unsigned short,ATL::ChTraitsCRT<unsigned short> > >::operator+=, COMDAT
; _this$ = ecx

; 1028 : 	{

	push	ebp
	mov	ebp, esp
	sub	esp, 204				; 000000ccH
	push	ebx
	push	esi
	push	edi
	push	ecx
	lea	edi, DWORD PTR [ebp-204]
	mov	ecx, 51					; 00000033H
	mov	eax, -858993460				; ccccccccH
	rep stosd
	pop	ecx
	mov	DWORD PTR _this$[ebp], ecx

; 1029 : 		CThisSimpleString::operator+=( str );

	mov	eax, DWORD PTR _str$[ebp]
	push	eax
	mov	ecx, DWORD PTR _this$[ebp]
	call	??Y?$CSimpleStringT@G$0A@@ATL@@QAEAAV01@ABV01@@Z ; ATL::CSimpleStringT<unsigned short,0>::operator+=

; 1030 : 
; 1031 : 		return( *this );

	mov	eax, DWORD PTR _this$[ebp]

; 1032 : 	}

	pop	edi
	pop	esi
	pop	ebx
	add	esp, 204				; 000000ccH
	cmp	ebp, esp
	call	__RTC_CheckEsp
	mov	esp, ebp
	pop	ebp
	ret	4
??Y?$CStringT@GV?$StrTraitMFC@GV?$ChTraitsCRT@G@ATL@@@@@ATL@@QAEAAV01@ABV?$CSimpleStringT@G$0A@@1@@Z ENDP ; ATL::CStringT<unsigned short,StrTraitMFC<unsigned short,ATL::ChTraitsCRT<unsigned short> > >::operator+=
_TEXT	ENDS
PUBLIC	?IsLocked@CStringData@ATL@@QBE_NXZ		; ATL::CStringData::IsLocked
PUBLIC	?Release@CStringData@ATL@@QAEXXZ		; ATL::CStringData::Release
PUBLIC	?GetString@?$CSimpleStringT@G$0A@@ATL@@QBEPBGXZ	; ATL::CSimpleStringT<unsigned short,0>::GetString
PUBLIC	?SetString@?$CSimpleStringT@G$0A@@ATL@@QAEXPBGH@Z ; ATL::CSimpleStringT<unsigned short,0>::SetString
PUBLIC	?Attach@?$CSimpleStringT@G$0A@@ATL@@AAEXPAUCStringData@2@@Z ; ATL::CSimpleStringT<unsigned short,0>::Attach
PUBLIC	?GetData@?$CSimpleStringT@G$0A@@ATL@@ABEPAUCStringData@2@XZ ; ATL::CSimpleStringT<unsigned short,0>::GetData
PUBLIC	?CloneData@?$CSimpleStringT@G$0A@@ATL@@CAPAUCStringData@2@PAU32@@Z ; ATL::CSimpleStringT<unsigned short,0>::CloneData
; Function compile flags: /Odt /RTCcsu /ZI
; File c:\program files\microsoft visual studio .net 2003\vc7\atlmfc\include\atlsimpstr.h
;	COMDAT ??4?$CSimpleStringT@G$0A@@ATL@@QAEAAV01@ABV01@@Z
_TEXT	SEGMENT
_pNewData$94127 = -44					; size = 4
_pOldData$ = -32					; size = 4
_pSrcData$ = -20					; size = 4
_this$ = -8						; size = 4
_strSrc$ = 8						; size = 4
??4?$CSimpleStringT@G$0A@@ATL@@QAEAAV01@ABV01@@Z PROC NEAR ; ATL::CSimpleStringT<unsigned short,0>::operator=, COMDAT
; _this$ = ecx

; 273  : 	{

	push	ebp
	mov	ebp, esp
	sub	esp, 240				; 000000f0H
	push	ebx
	push	esi
	push	edi
	push	ecx
	lea	edi, DWORD PTR [ebp-240]
	mov	ecx, 60					; 0000003cH
	mov	eax, -858993460				; ccccccccH
	rep stosd
	pop	ecx
	mov	DWORD PTR _this$[ebp], ecx

; 274  : 		CStringData* pSrcData = strSrc.GetData();

	mov	ecx, DWORD PTR _strSrc$[ebp]
	call	?GetData@?$CSimpleStringT@G$0A@@ATL@@ABEPAUCStringData@2@XZ ; ATL::CSimpleStringT<unsigned short,0>::GetData
	mov	DWORD PTR _pSrcData$[ebp], eax

; 275  : 		CStringData* pOldData = GetData();

	mov	ecx, DWORD PTR _this$[ebp]
	call	?GetData@?$CSimpleStringT@G$0A@@ATL@@ABEPAUCStringData@2@XZ ; ATL::CSimpleStringT<unsigned short,0>::GetData
	mov	DWORD PTR _pOldData$[ebp], eax

; 276  : 		if( pSrcData != pOldData)

	mov	eax, DWORD PTR _pSrcData$[ebp]
	cmp	eax, DWORD PTR _pOldData$[ebp]
	je	SHORT $L94123

; 277  : 		{
; 278  : 			if( pOldData->IsLocked() || pSrcData->pStringMgr != pOldData->pStringMgr )

	mov	ecx, DWORD PTR _pOldData$[ebp]
	call	?IsLocked@CStringData@ATL@@QBE_NXZ	; ATL::CStringData::IsLocked
	movzx	eax, al
	test	eax, eax
	jne	SHORT $L94125
	mov	eax, DWORD PTR _pSrcData$[ebp]
	mov	ecx, DWORD PTR _pOldData$[ebp]
	mov	edx, DWORD PTR [eax]
	cmp	edx, DWORD PTR [ecx]
	je	SHORT $L94124
$L94125:

; 279  : 			{
; 280  : 				SetString( strSrc.GetString(), strSrc.GetLength() );

	mov	ecx, DWORD PTR _strSrc$[ebp]
	call	?GetLength@?$CSimpleStringT@G$0A@@ATL@@QBEHXZ ; ATL::CSimpleStringT<unsigned short,0>::GetLength
	push	eax
	mov	ecx, DWORD PTR _strSrc$[ebp]
	call	?GetString@?$CSimpleStringT@G$0A@@ATL@@QBEPBGXZ ; ATL::CSimpleStringT<unsigned short,0>::GetString
	push	eax
	mov	ecx, DWORD PTR _this$[ebp]
	call	?SetString@?$CSimpleStringT@G$0A@@ATL@@QAEXPBGH@Z ; ATL::CSimpleStringT<unsigned short,0>::SetString

; 281  : 			}
; 282  : 			else

	jmp	SHORT $L94123
$L94124:

; 283  : 			{
; 284  : 				CStringData* pNewData = CloneData( pSrcData );

	mov	eax, DWORD PTR _pSrcData$[ebp]
	push	eax
	call	?CloneData@?$CSimpleStringT@G$0A@@ATL@@CAPAUCStringData@2@PAU32@@Z ; ATL::CSimpleStringT<unsigned short,0>::CloneData
	add	esp, 4
	mov	DWORD PTR _pNewData$94127[ebp], eax

; 285  : 				pOldData->Release();

	mov	ecx, DWORD PTR _pOldData$[ebp]
	call	?Release@CStringData@ATL@@QAEXXZ	; ATL::CStringData::Release

; 286  : 				Attach( pNewData );

	mov	eax, DWORD PTR _pNewData$94127[ebp]
	push	eax
	mov	ecx, DWORD PTR _this$[ebp]
	call	?Attach@?$CSimpleStringT@G$0A@@ATL@@AAEXPAUCStringData@2@@Z ; ATL::CSimpleStringT<unsigned short,0>::Attach
$L94123:

; 287  : 			}
; 288  : 		}
; 289  : 
; 290  : 		return( *this );

	mov	eax, DWORD PTR _this$[ebp]

; 291  : 	}

	pop	edi
	pop	esi
	pop	ebx
	add	esp, 240				; 000000f0H
	cmp	ebp, esp
	call	__RTC_CheckEsp
	mov	esp, ebp
	pop	ebp
	ret	4
??4?$CSimpleStringT@G$0A@@ATL@@QAEAAV01@ABV01@@Z ENDP	; ATL::CSimpleStringT<unsigned short,0>::operator=
_TEXT	ENDS
PUBLIC	?Append@?$CSimpleStringT@G$0A@@ATL@@QAEXABV12@@Z ; ATL::CSimpleStringT<unsigned short,0>::Append
; Function compile flags: /Odt /RTCcsu /ZI
;	COMDAT ??Y?$CSimpleStringT@G$0A@@ATL@@QAEAAV01@ABV01@@Z
_TEXT	SEGMENT
_this$ = -8						; size = 4
_strSrc$ = 8						; size = 4
??Y?$CSimpleStringT@G$0A@@ATL@@QAEAAV01@ABV01@@Z PROC NEAR ; ATL::CSimpleStringT<unsigned short,0>::operator+=, COMDAT
; _this$ = ecx

; 322  : 	{

	push	ebp
	mov	ebp, esp
	sub	esp, 204				; 000000ccH
	push	ebx
	push	esi
	push	edi
	push	ecx
	lea	edi, DWORD PTR [ebp-204]
	mov	ecx, 51					; 00000033H
	mov	eax, -858993460				; ccccccccH
	rep stosd
	pop	ecx
	mov	DWORD PTR _this$[ebp], ecx

; 323  : 		Append( strSrc );

	mov	eax, DWORD PTR _strSrc$[ebp]
	push	eax
	mov	ecx, DWORD PTR _this$[ebp]
	call	?Append@?$CSimpleStringT@G$0A@@ATL@@QAEXABV12@@Z ; ATL::CSimpleStringT<unsigned short,0>::Append

; 324  : 
; 325  : 		return( *this );

	mov	eax, DWORD PTR _this$[ebp]

; 326  : 	}

	pop	edi
	pop	esi
	pop	ebx
	add	esp, 204				; 000000ccH
	cmp	ebp, esp
	call	__RTC_CheckEsp
	mov	esp, ebp
	pop	ebp
	ret	4
??Y?$CSimpleStringT@G$0A@@ATL@@QAEAAV01@ABV01@@Z ENDP	; ATL::CSimpleStringT<unsigned short,0>::operator+=
_TEXT	ENDS
PUBLIC	?Append@?$CSimpleStringT@G$0A@@ATL@@QAEXPBGH@Z	; ATL::CSimpleStringT<unsigned short,0>::Append
; Function compile flags: /Odt /RTCcsu /ZI
;	COMDAT ?Append@?$CSimpleStringT@G$0A@@ATL@@QAEXABV12@@Z
_TEXT	SEGMENT
_this$ = -8						; size = 4
_strSrc$ = 8						; size = 4
?Append@?$CSimpleStringT@G$0A@@ATL@@QAEXABV12@@Z PROC NEAR ; ATL::CSimpleStringT<unsigned short,0>::Append, COMDAT
; _this$ = ecx

; 412  : 	{

	push	ebp
	mov	ebp, esp
	sub	esp, 204				; 000000ccH
	push	ebx
	push	esi
	push	edi
	push	ecx
	lea	edi, DWORD PTR [ebp-204]
	mov	ecx, 51					; 00000033H
	mov	eax, -858993460				; ccccccccH
	rep stosd
	pop	ecx
	mov	DWORD PTR _this$[ebp], ecx

; 413  : 		Append( strSrc.GetString(), strSrc.GetLength() );

	mov	ecx, DWORD PTR _strSrc$[ebp]
	call	?GetLength@?$CSimpleStringT@G$0A@@ATL@@QBEHXZ ; ATL::CSimpleStringT<unsigned short,0>::GetLength
	push	eax
	mov	ecx, DWORD PTR _strSrc$[ebp]
	call	?GetString@?$CSimpleStringT@G$0A@@ATL@@QBEPBGXZ ; ATL::CSimpleStringT<unsigned short,0>::GetString
	push	eax
	mov	ecx, DWORD PTR _this$[ebp]
	call	?Append@?$CSimpleStringT@G$0A@@ATL@@QAEXPBGH@Z ; ATL::CSimpleStringT<unsigned short,0>::Append

; 414  : 	}

	pop	edi
	pop	esi
	pop	ebx
	add	esp, 204				; 000000ccH
	cmp	ebp, esp
	call	__RTC_CheckEsp
	mov	esp, ebp
	pop	ebp
	ret	4
?Append@?$CSimpleStringT@G$0A@@ATL@@QAEXABV12@@Z ENDP	; ATL::CSimpleStringT<unsigned short,0>::Append
_TEXT	ENDS
PUBLIC	?GetBuffer@?$CSimpleStringT@G$0A@@ATL@@QAEPAGH@Z ; ATL::CSimpleStringT<unsigned short,0>::GetBuffer
PUBLIC	?ReleaseBufferSetLength@?$CSimpleStringT@G$0A@@ATL@@QAEXH@Z ; ATL::CSimpleStringT<unsigned short,0>::ReleaseBufferSetLength
PUBLIC	?CopyChars@?$CSimpleStringT@G$0A@@ATL@@SAXPAGPBGH@Z ; ATL::CSimpleStringT<unsigned short,0>::CopyChars
; Function compile flags: /Odt /RTCcsu /ZI
;	COMDAT ?Append@?$CSimpleStringT@G$0A@@ATL@@QAEXPBGH@Z
_TEXT	SEGMENT
_pszBuffer$ = -56					; size = 4
_nNewLength$ = -44					; size = 4
_nOldLength$ = -32					; size = 4
_nOffset$ = -20						; size = 4
_this$ = -8						; size = 4
_pszSrc$ = 8						; size = 4
_nLength$ = 12						; size = 4
?Append@?$CSimpleStringT@G$0A@@ATL@@QAEXPBGH@Z PROC NEAR ; ATL::CSimpleStringT<unsigned short,0>::Append, COMDAT
; _this$ = ecx

; 387  : 	{

	push	ebp
	mov	ebp, esp
	sub	esp, 252				; 000000fcH
	push	ebx
	push	esi
	push	edi
	push	ecx
	lea	edi, DWORD PTR [ebp-252]
	mov	ecx, 63					; 0000003fH
	mov	eax, -858993460				; ccccccccH
	rep stosd
	pop	ecx
	mov	DWORD PTR _this$[ebp], ecx

; 388  : 		// See comment in SetString() about why we do this
; 389  : 		UINT_PTR nOffset = pszSrc-GetString();

	mov	ecx, DWORD PTR _this$[ebp]
	call	?GetString@?$CSimpleStringT@G$0A@@ATL@@QBEPBGXZ ; ATL::CSimpleStringT<unsigned short,0>::GetString
	mov	ecx, DWORD PTR _pszSrc$[ebp]
	sub	ecx, eax
	sar	ecx, 1
	mov	DWORD PTR _nOffset$[ebp], ecx

; 390  : 
; 391  : 		UINT nOldLength = GetLength();

	mov	ecx, DWORD PTR _this$[ebp]
	call	?GetLength@?$CSimpleStringT@G$0A@@ATL@@QBEHXZ ; ATL::CSimpleStringT<unsigned short,0>::GetLength
	mov	DWORD PTR _nOldLength$[ebp], eax

; 392  : 		int nNewLength = nOldLength+nLength;

	mov	eax, DWORD PTR _nOldLength$[ebp]
	add	eax, DWORD PTR _nLength$[ebp]
	mov	DWORD PTR _nNewLength$[ebp], eax

; 393  : 		PXSTR pszBuffer = GetBuffer( nNewLength );

	mov	eax, DWORD PTR _nNewLength$[ebp]
	push	eax
	mov	ecx, DWORD PTR _this$[ebp]
	call	?GetBuffer@?$CSimpleStringT@G$0A@@ATL@@QAEPAGH@Z ; ATL::CSimpleStringT<unsigned short,0>::GetBuffer
	mov	DWORD PTR _pszBuffer$[ebp], eax

; 394  : 		if( nOffset <= nOldLength )

	mov	eax, DWORD PTR _nOffset$[ebp]
	cmp	eax, DWORD PTR _nOldLength$[ebp]
	ja	SHORT $L94141

; 395  : 		{
; 396  : 			pszSrc = pszBuffer+nOffset;

	mov	eax, DWORD PTR _nOffset$[ebp]
	mov	ecx, DWORD PTR _pszBuffer$[ebp]
	lea	edx, DWORD PTR [ecx+eax*2]
	mov	DWORD PTR _pszSrc$[ebp], edx
$L94141:

; 397  : 			// No need to call CopyCharsOverlapped, since the destination is
; 398  : 			// beyond the end of the original buffer
; 399  : 		}
; 400  : 		CopyChars( pszBuffer+nOldLength, pszSrc, nLength );

	mov	eax, DWORD PTR _nLength$[ebp]
	push	eax
	mov	ecx, DWORD PTR _pszSrc$[ebp]
	push	ecx
	mov	edx, DWORD PTR _nOldLength$[ebp]
	mov	eax, DWORD PTR _pszBuffer$[ebp]
	lea	ecx, DWORD PTR [eax+edx*2]
	push	ecx
	call	?CopyChars@?$CSimpleStringT@G$0A@@ATL@@SAXPAGPBGH@Z ; ATL::CSimpleStringT<unsigned short,0>::CopyChars
	add	esp, 12					; 0000000cH

; 401  : 		ReleaseBufferSetLength( nNewLength );

	mov	eax, DWORD PTR _nNewLength$[ebp]
	push	eax
	mov	ecx, DWORD PTR _this$[ebp]
	call	?ReleaseBufferSetLength@?$CSimpleStringT@G$0A@@ATL@@QAEXH@Z ; ATL::CSimpleStringT<unsigned short,0>::ReleaseBufferSetLength

; 402  : 	}

	pop	edi
	pop	esi
	pop	ebx
	add	esp, 252				; 000000fcH
	cmp	ebp, esp
	call	__RTC_CheckEsp
	mov	esp, ebp
	pop	ebp
	ret	8
?Append@?$CSimpleStringT@G$0A@@ATL@@QAEXPBGH@Z ENDP	; ATL::CSimpleStringT<unsigned short,0>::Append
_TEXT	ENDS
EXTRN	@_RTC_Check_4_to_1@4:NEAR
; Function compile flags: /Odt /RTCcsu /ZI
;	COMDAT ?IsLocked@CStringData@ATL@@QBE_NXZ
_TEXT	SEGMENT
_this$ = -8						; size = 4
?IsLocked@CStringData@ATL@@QBE_NXZ PROC NEAR		; ATL::CStringData::IsLocked, COMDAT
; _this$ = ecx

; 75   : 	{

	push	ebp
	mov	ebp, esp
	sub	esp, 204				; 000000ccH
	push	ebx
	push	esi
	push	edi
	push	ecx
	lea	edi, DWORD PTR [ebp-204]
	mov	ecx, 51					; 00000033H
	mov	eax, -858993460				; ccccccccH
	rep stosd
	pop	ecx
	mov	DWORD PTR _this$[ebp], ecx

; 76   : 		return nRefs < 0;

	mov	eax, DWORD PTR _this$[ebp]
	xor	ecx, ecx
	cmp	DWORD PTR [eax+12], 0
	setl	cl
	call	@_RTC_Check_4_to_1@4

; 77   : 	}

	pop	edi
	pop	esi
	pop	ebx
	add	esp, 204				; 000000ccH
	cmp	ebp, esp
	call	__RTC_CheckEsp
	mov	esp, ebp
	pop	ebp
	ret	0
?IsLocked@CStringData@ATL@@QBE_NXZ ENDP			; ATL::CStringData::IsLocked
_TEXT	ENDS
PUBLIC	??_C@_0FD@JDCNPMMG@c?3?2program?5files?2microsoft?5visua@ ; `string'
PUBLIC	??_C@_0L@OIIMFBNE@nRefs?5?$CB?$DN?50?$AA@	; `string'
EXTRN	__CrtDbgReport:NEAR
;	COMDAT ??_C@_0L@OIIMFBNE@nRefs?5?$CB?$DN?50?$AA@
CONST	SEGMENT
??_C@_0L@OIIMFBNE@nRefs?5?$CB?$DN?50?$AA@ DB 'nRefs != 0', 00H ; `string'
CONST	ENDS
;	COMDAT ??_C@_0FD@JDCNPMMG@c?3?2program?5files?2microsoft?5visua@
CONST	SEGMENT
??_C@_0FD@JDCNPMMG@c?3?2program?5files?2microsoft?5visua@ DB 'c:\program '
	DB	'files\microsoft visual studio .net 2003\vc7\atlmfc\include\at'
	DB	'lsimpstr.h', 00H				; `string'
; Function compile flags: /Odt /RTCcsu /ZI
CONST	ENDS
;	COMDAT ?Release@CStringData@ATL@@QAEXXZ
_TEXT	SEGMENT
_this$ = -8						; size = 4
?Release@CStringData@ATL@@QAEXXZ PROC NEAR		; ATL::CStringData::Release, COMDAT
; _this$ = ecx

; 92   : 	{

	push	ebp
	mov	ebp, esp
	sub	esp, 204				; 000000ccH
	push	ebx
	push	esi
	push	edi
	push	ecx
	lea	edi, DWORD PTR [ebp-204]
	mov	ecx, 51					; 00000033H
	mov	eax, -858993460				; ccccccccH
	rep stosd
	pop	ecx
	mov	DWORD PTR _this$[ebp], ecx

; 93   : 		ATLASSERT( nRefs != 0 );

	mov	eax, DWORD PTR _this$[ebp]
	cmp	DWORD PTR [eax+12], 0
	jne	SHORT $L94638
	push	OFFSET FLAT:??_C@_0L@OIIMFBNE@nRefs?5?$CB?$DN?50?$AA@
	push	0
	push	93					; 0000005dH
	push	OFFSET FLAT:??_C@_0FD@JDCNPMMG@c?3?2program?5files?2microsoft?5visua@
	push	2
	call	__CrtDbgReport
	add	esp, 20					; 00000014H
	cmp	eax, 1
	jne	SHORT $L94638
	int	3
$L94638:

; 94   : 
; 95   : 		if( _InterlockedDecrement( &nRefs ) <= 0 )

	mov	eax, DWORD PTR _this$[ebp]
	add	eax, 12					; 0000000cH
	or	ecx, -1
	lock	 xadd	 DWORD PTR [eax], ecx
	dec	ecx
	test	ecx, ecx
	jg	SHORT $L26116

; 96   : 		{
; 97   : 			pStringMgr->Free( this );

	mov	esi, esp
	mov	eax, DWORD PTR _this$[ebp]
	push	eax
	mov	ecx, DWORD PTR _this$[ebp]
	mov	edx, DWORD PTR [ecx]
	mov	eax, DWORD PTR _this$[ebp]
	mov	ecx, DWORD PTR [eax]
	mov	edx, DWORD PTR [edx]
	call	DWORD PTR [edx+4]
	cmp	esi, esp
	call	__RTC_CheckEsp
$L26116:

; 98   : 		}
; 99   : 	}

	pop	edi
	pop	esi
	pop	ebx
	add	esp, 204				; 000000ccH
	cmp	ebp, esp
	call	__RTC_CheckEsp
	mov	esp, ebp
	pop	ebp
	ret	0
?Release@CStringData@ATL@@QAEXXZ ENDP			; ATL::CStringData::Release
_TEXT	ENDS
PUBLIC	??0?$CSimpleStringT@G$0A@@ATL@@QAE@PAUIAtlStringMgr@1@@Z ; ATL::CSimpleStringT<unsigned short,0>::CSimpleStringT<unsigned short,0>
PUBLIC	?GetDefaultManager@?$StrTraitMFC@GV?$ChTraitsCRT@G@ATL@@@@SAPAUIAtlStringMgr@ATL@@XZ ; StrTraitMFC<unsigned short,ATL::ChTraitsCRT<unsigned short> >::GetDefaultManager
; Function compile flags: /Odt /RTCcsu /ZI
; File c:\program files\microsoft visual studio .net 2003\vc7\atlmfc\include\cstringt.h
;	COMDAT ??0?$CStringT@GV?$StrTraitMFC@GV?$ChTraitsCRT@G@ATL@@@@@ATL@@QAE@XZ
_TEXT	SEGMENT
_this$ = -8						; size = 4
??0?$CStringT@GV?$StrTraitMFC@GV?$ChTraitsCRT@G@ATL@@@@@ATL@@QAE@XZ PROC NEAR ; ATL::CStringT<unsigned short,StrTraitMFC<unsigned short,ATL::ChTraitsCRT<unsigned short> > >::CStringT<unsigned short,StrTraitMFC<unsigned short,ATL::ChTraitsCRT<unsigned short> > >, COMDAT
; _this$ = ecx

; 796  : 	{

	push	ebp
	mov	ebp, esp
	sub	esp, 204				; 000000ccH
	push	ebx
	push	esi
	push	edi
	push	ecx
	lea	edi, DWORD PTR [ebp-204]
	mov	ecx, 51					; 00000033H
	mov	eax, -858993460				; ccccccccH
	rep stosd
	pop	ecx
	mov	DWORD PTR _this$[ebp], ecx
	call	?GetDefaultManager@?$StrTraitMFC@GV?$ChTraitsCRT@G@ATL@@@@SAPAUIAtlStringMgr@ATL@@XZ ; StrTraitMFC<unsigned short,ATL::ChTraitsCRT<unsigned short> >::GetDefaultManager
	push	eax
	mov	ecx, DWORD PTR _this$[ebp]
	call	??0?$CSimpleStringT@G$0A@@ATL@@QAE@PAUIAtlStringMgr@1@@Z ; ATL::CSimpleStringT<unsigned short,0>::CSimpleStringT<unsigned short,0>

; 797  : 	}

	mov	eax, DWORD PTR _this$[ebp]
	pop	edi
	pop	esi
	pop	ebx
	add	esp, 204				; 000000ccH
	cmp	ebp, esp
	call	__RTC_CheckEsp
	mov	esp, ebp
	pop	ebp
	ret	0
??0?$CStringT@GV?$StrTraitMFC@GV?$ChTraitsCRT@G@ATL@@@@@ATL@@QAE@XZ ENDP ; ATL::CStringT<unsigned short,StrTraitMFC<unsigned short,ATL::ChTraitsCRT<unsigned short> > >::CStringT<unsigned short,StrTraitMFC<unsigned short,ATL::ChTraitsCRT<unsigned short> > >
_TEXT	ENDS
PUBLIC	??0?$CSimpleStringT@G$0A@@ATL@@QAE@ABV01@@Z	; ATL::CSimpleStringT<unsigned short,0>::CSimpleStringT<unsigned short,0>
; Function compile flags: /Odt /RTCcsu /ZI
;	COMDAT ??0?$CStringT@GV?$StrTraitMFC@GV?$ChTraitsCRT@G@ATL@@@@@ATL@@QAE@ABV01@@Z
_TEXT	SEGMENT
_this$ = -8						; size = 4
_strSrc$ = 8						; size = 4
??0?$CStringT@GV?$StrTraitMFC@GV?$ChTraitsCRT@G@ATL@@@@@ATL@@QAE@ABV01@@Z PROC NEAR ; ATL::CStringT<unsigned short,StrTraitMFC<unsigned short,ATL::ChTraitsCRT<unsigned short> > >::CStringT<unsigned short,StrTraitMFC<unsigned short,ATL::ChTraitsCRT<unsigned short> > >, COMDAT
; _this$ = ecx

; 814  : 	{

	push	ebp
	mov	ebp, esp
	sub	esp, 204				; 000000ccH
	push	ebx
	push	esi
	push	edi
	push	ecx
	lea	edi, DWORD PTR [ebp-204]
	mov	ecx, 51					; 00000033H
	mov	eax, -858993460				; ccccccccH
	rep stosd
	pop	ecx
	mov	DWORD PTR _this$[ebp], ecx
	mov	eax, DWORD PTR _strSrc$[ebp]
	push	eax
	mov	ecx, DWORD PTR _this$[ebp]
	call	??0?$CSimpleStringT@G$0A@@ATL@@QAE@ABV01@@Z ; ATL::CSimpleStringT<unsigned short,0>::CSimpleStringT<unsigned short,0>

; 815  : 	}

	mov	eax, DWORD PTR _this$[ebp]
	pop	edi
	pop	esi
	pop	ebx
	add	esp, 204				; 000000ccH
	cmp	ebp, esp
	call	__RTC_CheckEsp
	mov	esp, ebp
	pop	ebp
	ret	4
??0?$CStringT@GV?$StrTraitMFC@GV?$ChTraitsCRT@G@ATL@@@@@ATL@@QAE@ABV01@@Z ENDP ; ATL::CStringT<unsigned short,StrTraitMFC<unsigned short,ATL::ChTraitsCRT<unsigned short> > >::CStringT<unsigned short,StrTraitMFC<unsigned short,ATL::ChTraitsCRT<unsigned short> > >
_TEXT	ENDS
PUBLIC	?CheckImplicitLoad@?$CStringT@GV?$StrTraitMFC@GV?$ChTraitsCRT@G@ATL@@@@@ATL@@AAE_NPBX@Z ; ATL::CStringT<unsigned short,StrTraitMFC<unsigned short,ATL::ChTraitsCRT<unsigned short> > >::CheckImplicitLoad
PUBLIC	??1?$CSimpleStringT@G$0A@@ATL@@QAE@XZ		; ATL::CSimpleStringT<unsigned short,0>::~CSimpleStringT<unsigned short,0>
;	COMDAT xdata$x
xdata$x	SEGMENT
__unwindtable$??0?$CStringT@GV?$StrTraitMFC@GV?$ChTraitsCRT@G@ATL@@@@@ATL@@QAE@PBD@Z DD 0ffffffffH
	DD	FLAT:__unwindfunclet$??0?$CStringT@GV?$StrTraitMFC@GV?$ChTraitsCRT@G@ATL@@@@@ATL@@QAE@PBD@Z$0
__ehfuncinfo$??0?$CStringT@GV?$StrTraitMFC@GV?$ChTraitsCRT@G@ATL@@@@@ATL@@QAE@PBD@Z DD 019930520H
	DD	01H
	DD	FLAT:__unwindtable$??0?$CStringT@GV?$StrTraitMFC@GV?$ChTraitsCRT@G@ATL@@@@@ATL@@QAE@PBD@Z
	DD	2 DUP(00H)
	DD	2 DUP(00H)
; Function compile flags: /Odt /RTCcsu /ZI
xdata$x	ENDS
;	COMDAT ??0?$CStringT@GV?$StrTraitMFC@GV?$ChTraitsCRT@G@ATL@@@@@ATL@@QAE@PBD@Z
_TEXT	SEGMENT
_this$ = -20						; size = 4
__$EHRec$ = -12						; size = 12
_pszSrc$ = 8						; size = 4
??0?$CStringT@GV?$StrTraitMFC@GV?$ChTraitsCRT@G@ATL@@@@@ATL@@QAE@PBD@Z PROC NEAR ; ATL::CStringT<unsigned short,StrTraitMFC<unsigned short,ATL::ChTraitsCRT<unsigned short> > >::CStringT<unsigned short,StrTraitMFC<unsigned short,ATL::ChTraitsCRT<unsigned short> > >, COMDAT
; _this$ = ecx

; 850  : 	{

	push	ebp
	mov	ebp, esp
	push	-1
	push	__ehhandler$??0?$CStringT@GV?$StrTraitMFC@GV?$ChTraitsCRT@G@ATL@@@@@ATL@@QAE@PBD@Z
	mov	eax, DWORD PTR fs:__except_list
	push	eax
	mov	DWORD PTR fs:__except_list, esp
	sub	esp, 204				; 000000ccH
	push	ebx
	push	esi
	push	edi
	push	ecx
	lea	edi, DWORD PTR [ebp-216]
	mov	ecx, 51					; 00000033H
	mov	eax, -858993460				; ccccccccH
	rep stosd
	pop	ecx
	mov	DWORD PTR _this$[ebp], ecx
	call	?GetDefaultManager@?$StrTraitMFC@GV?$ChTraitsCRT@G@ATL@@@@SAPAUIAtlStringMgr@ATL@@XZ ; StrTraitMFC<unsigned short,ATL::ChTraitsCRT<unsigned short> >::GetDefaultManager
	push	eax
	mov	ecx, DWORD PTR _this$[ebp]
	call	??0?$CSimpleStringT@G$0A@@ATL@@QAE@PAUIAtlStringMgr@1@@Z ; ATL::CSimpleStringT<unsigned short,0>::CSimpleStringT<unsigned short,0>
	mov	DWORD PTR __$EHRec$[ebp+8], 0

; 851  : 		if( !CheckImplicitLoad( pszSrc ) )

	mov	eax, DWORD PTR _pszSrc$[ebp]
	push	eax
	mov	ecx, DWORD PTR _this$[ebp]
	call	?CheckImplicitLoad@?$CStringT@GV?$StrTraitMFC@GV?$ChTraitsCRT@G@ATL@@@@@ATL@@AAE_NPBX@Z ; ATL::CStringT<unsigned short,StrTraitMFC<unsigned short,ATL::ChTraitsCRT<unsigned short> > >::CheckImplicitLoad
	movzx	ecx, al
	test	ecx, ecx
	jne	SHORT $L92626

; 852  : 		{
; 853  : 			*this = pszSrc;

	mov	eax, DWORD PTR _pszSrc$[ebp]
	push	eax
	mov	ecx, DWORD PTR _this$[ebp]
	call	??4?$CStringT@GV?$StrTraitMFC@GV?$ChTraitsCRT@G@ATL@@@@@ATL@@QAEAAV01@PBD@Z ; ATL::CStringT<unsigned short,StrTraitMFC<unsigned short,ATL::ChTraitsCRT<unsigned short> > >::operator=
$L92626:

; 854  : 		}
; 855  : 	}

	mov	DWORD PTR __$EHRec$[ebp+8], -1
	mov	eax, DWORD PTR _this$[ebp]
	mov	ecx, DWORD PTR __$EHRec$[ebp]
	mov	DWORD PTR fs:__except_list, ecx
	pop	edi
	pop	esi
	pop	ebx
	add	esp, 216				; 000000d8H
	cmp	ebp, esp
	call	__RTC_CheckEsp
	mov	esp, ebp
	pop	ebp
	ret	4
_TEXT	ENDS
;	COMDAT text$x
text$x	SEGMENT
__unwindfunclet$??0?$CStringT@GV?$StrTraitMFC@GV?$ChTraitsCRT@G@ATL@@@@@ATL@@QAE@PBD@Z$0:
	mov	ecx, DWORD PTR _this$[ebp]
	jmp	??1?$CSimpleStringT@G$0A@@ATL@@QAE@XZ	; ATL::CSimpleStringT<unsigned short,0>::~CSimpleStringT<unsigned short,0>
__ehhandler$??0?$CStringT@GV?$StrTraitMFC@GV?$ChTraitsCRT@G@ATL@@@@@ATL@@QAE@PBD@Z:
	mov	eax, OFFSET FLAT:__ehfuncinfo$??0?$CStringT@GV?$StrTraitMFC@GV?$ChTraitsCRT@G@ATL@@@@@ATL@@QAE@PBD@Z
	jmp	___CxxFrameHandler
text$x	ENDS
??0?$CStringT@GV?$StrTraitMFC@GV?$ChTraitsCRT@G@ATL@@@@@ATL@@QAE@PBD@Z ENDP ; ATL::CStringT<unsigned short,StrTraitMFC<unsigned short,ATL::ChTraitsCRT<unsigned short> > >::CStringT<unsigned short,StrTraitMFC<unsigned short,ATL::ChTraitsCRT<unsigned short> > >
; Function compile flags: /Odt /RTCcsu /ZI
;	COMDAT ??1?$CStringT@GV?$StrTraitMFC@GV?$ChTraitsCRT@G@ATL@@@@@ATL@@QAE@XZ
_TEXT	SEGMENT
_this$ = -8						; size = 4
??1?$CStringT@GV?$StrTraitMFC@GV?$ChTraitsCRT@G@ATL@@@@@ATL@@QAE@XZ PROC NEAR ; ATL::CStringT<unsigned short,StrTraitMFC<unsigned short,ATL::ChTraitsCRT<unsigned short> > >::~CStringT<unsigned short,StrTraitMFC<unsigned short,ATL::ChTraitsCRT<unsigned short> > >, COMDAT
; _this$ = ecx

; 962  : 	{

	push	ebp
	mov	ebp, esp
	sub	esp, 204				; 000000ccH
	push	ebx
	push	esi
	push	edi
	push	ecx
	lea	edi, DWORD PTR [ebp-204]
	mov	ecx, 51					; 00000033H
	mov	eax, -858993460				; ccccccccH
	rep stosd
	pop	ecx
	mov	DWORD PTR _this$[ebp], ecx

; 963  : 	}

	mov	ecx, DWORD PTR _this$[ebp]
	call	??1?$CSimpleStringT@G$0A@@ATL@@QAE@XZ	; ATL::CSimpleStringT<unsigned short,0>::~CSimpleStringT<unsigned short,0>
	pop	edi
	pop	esi
	pop	ebx
	add	esp, 204				; 000000ccH
	cmp	ebp, esp
	call	__RTC_CheckEsp
	mov	esp, ebp
	pop	ebp
	ret	0
??1?$CStringT@GV?$StrTraitMFC@GV?$ChTraitsCRT@G@ATL@@@@@ATL@@QAE@XZ ENDP ; ATL::CStringT<unsigned short,StrTraitMFC<unsigned short,ATL::ChTraitsCRT<unsigned short> > >::~CStringT<unsigned short,StrTraitMFC<unsigned short,ATL::ChTraitsCRT<unsigned short> > >
_TEXT	ENDS
PUBLIC	??4?$CSimpleStringT@G$0A@@ATL@@QAEAAV01@PBG@Z	; ATL::CSimpleStringT<unsigned short,0>::operator=
; Function compile flags: /Odt /RTCcsu /ZI
;	COMDAT ??4?$CStringT@GV?$StrTraitMFC@GV?$ChTraitsCRT@G@ATL@@@@@ATL@@QAEAAV01@PBG@Z
_TEXT	SEGMENT
_this$ = -8						; size = 4
_pszSrc$ = 8						; size = 4
??4?$CStringT@GV?$StrTraitMFC@GV?$ChTraitsCRT@G@ATL@@@@@ATL@@QAEAAV01@PBG@Z PROC NEAR ; ATL::CStringT<unsigned short,StrTraitMFC<unsigned short,ATL::ChTraitsCRT<unsigned short> > >::operator=, COMDAT
; _this$ = ecx

; 982  : 	{

	push	ebp
	mov	ebp, esp
	sub	esp, 204				; 000000ccH
	push	ebx
	push	esi
	push	edi
	push	ecx
	lea	edi, DWORD PTR [ebp-204]
	mov	ecx, 51					; 00000033H
	mov	eax, -858993460				; ccccccccH
	rep stosd
	pop	ecx
	mov	DWORD PTR _this$[ebp], ecx

; 983  : 		CThisSimpleString::operator=( pszSrc );

	mov	eax, DWORD PTR _pszSrc$[ebp]
	push	eax
	mov	ecx, DWORD PTR _this$[ebp]
	call	??4?$CSimpleStringT@G$0A@@ATL@@QAEAAV01@PBG@Z ; ATL::CSimpleStringT<unsigned short,0>::operator=

; 984  : 
; 985  : 		return( *this );

	mov	eax, DWORD PTR _this$[ebp]

; 986  : 	}

	pop	edi
	pop	esi
	pop	ebx
	add	esp, 204				; 000000ccH
	cmp	ebp, esp
	call	__RTC_CheckEsp
	mov	esp, ebp
	pop	ebp
	ret	4
??4?$CStringT@GV?$StrTraitMFC@GV?$ChTraitsCRT@G@ATL@@@@@ATL@@QAEAAV01@PBG@Z ENDP ; ATL::CStringT<unsigned short,StrTraitMFC<unsigned short,ATL::ChTraitsCRT<unsigned short> > >::operator=
; Function compile flags: /Odt /RTCcsu /ZI
; File c:\program files\microsoft visual studio .net 2003\vc7\atlmfc\include\atlsimpstr.h
_TEXT	ENDS
;	COMDAT ??B?$CSimpleStringT@G$0A@@ATL@@QBEPBGXZ
_TEXT	SEGMENT
_this$ = -8						; size = 4
??B?$CSimpleStringT@G$0A@@ATL@@QBEPBGXZ PROC NEAR	; ATL::CSimpleStringT<unsigned short,0>::operator unsigned short const *, COMDAT
; _this$ = ecx

; 378  : 	{

	push	ebp
	mov	ebp, esp
	sub	esp, 204				; 000000ccH
	push	ebx
	push	esi
	push	edi
	push	ecx
	lea	edi, DWORD PTR [ebp-204]
	mov	ecx, 51					; 00000033H
	mov	eax, -858993460				; ccccccccH
	rep stosd
	pop	ecx
	mov	DWORD PTR _this$[ebp], ecx

; 379  : 		return( m_pszData );

	mov	eax, DWORD PTR _this$[ebp]
	mov	eax, DWORD PTR [eax]

; 380  : 	}

	pop	edi
	pop	esi
	pop	ebx
	mov	esp, ebp
	pop	ebp
	ret	0
??B?$CSimpleStringT@G$0A@@ATL@@QBEPBGXZ ENDP		; ATL::CSimpleStringT<unsigned short,0>::operator unsigned short const *
; Function compile flags: /Odt /RTCcsu /ZI
_TEXT	ENDS
;	COMDAT ?GetLength@?$CSimpleStringT@G$0A@@ATL@@QBEHXZ
_TEXT	SEGMENT
_this$ = -8						; size = 4
?GetLength@?$CSimpleStringT@G$0A@@ATL@@QBEHXZ PROC NEAR	; ATL::CSimpleStringT<unsigned short,0>::GetLength, COMDAT
; _this$ = ecx

; 500  : 	{

	push	ebp
	mov	ebp, esp
	sub	esp, 204				; 000000ccH
	push	ebx
	push	esi
	push	edi
	push	ecx
	lea	edi, DWORD PTR [ebp-204]
	mov	ecx, 51					; 00000033H
	mov	eax, -858993460				; ccccccccH
	rep stosd
	pop	ecx
	mov	DWORD PTR _this$[ebp], ecx

; 501  : 		return( GetData()->nDataLength );

	mov	ecx, DWORD PTR _this$[ebp]
	call	?GetData@?$CSimpleStringT@G$0A@@ATL@@ABEPAUCStringData@2@XZ ; ATL::CSimpleStringT<unsigned short,0>::GetData
	mov	eax, DWORD PTR [eax+4]

; 502  : 	}

	pop	edi
	pop	esi
	pop	ebx
	add	esp, 204				; 000000ccH
	cmp	ebp, esp
	call	__RTC_CheckEsp
	mov	esp, ebp
	pop	ebp
	ret	0
?GetLength@?$CSimpleStringT@G$0A@@ATL@@QBEHXZ ENDP	; ATL::CSimpleStringT<unsigned short,0>::GetLength
_TEXT	ENDS
PUBLIC	?Empty@?$CSimpleStringT@G$0A@@ATL@@QAEXXZ	; ATL::CSimpleStringT<unsigned short,0>::Empty
PUBLIC	?GetBaseTypeLength@?$ChTraitsCRT@G@ATL@@SAHPBD@Z ; ATL::ChTraitsCRT<unsigned short>::GetBaseTypeLength
PUBLIC	?ConvertToBaseType@?$ChTraitsCRT@G@ATL@@SAXPAGHPBDH@Z ; ATL::ChTraitsCRT<unsigned short>::ConvertToBaseType
; Function compile flags: /Odt /RTCcsu /ZI
; File c:\program files\microsoft visual studio .net 2003\vc7\atlmfc\include\cstringt.h
;	COMDAT ??4?$CStringT@GV?$StrTraitMFC@GV?$ChTraitsCRT@G@ATL@@@@@ATL@@QAEAAV01@PBD@Z
_TEXT	SEGMENT
tv67 = -232						; size = 4
_pszBuffer$92707 = -32					; size = 4
_nDestLength$ = -20					; size = 4
_this$ = -8						; size = 4
_pszSrc$ = 8						; size = 4
??4?$CStringT@GV?$StrTraitMFC@GV?$ChTraitsCRT@G@ATL@@@@@ATL@@QAEAAV01@PBD@Z PROC NEAR ; ATL::CStringT<unsigned short,StrTraitMFC<unsigned short,ATL::ChTraitsCRT<unsigned short> > >::operator=, COMDAT
; _this$ = ecx

; 989  : 	{

	push	ebp
	mov	ebp, esp
	sub	esp, 232				; 000000e8H
	push	ebx
	push	esi
	push	edi
	push	ecx
	lea	edi, DWORD PTR [ebp-232]
	mov	ecx, 58					; 0000003aH
	mov	eax, -858993460				; ccccccccH
	rep stosd
	pop	ecx
	mov	DWORD PTR _this$[ebp], ecx

; 990  : 		// nDestLength is in XCHARs
; 991  : 		int nDestLength = (pszSrc != NULL) ? StringTraits::GetBaseTypeLength( pszSrc ) : 0;

	cmp	DWORD PTR _pszSrc$[ebp], 0
	je	SHORT $L94663
	mov	eax, DWORD PTR _pszSrc$[ebp]
	push	eax
	call	?GetBaseTypeLength@?$ChTraitsCRT@G@ATL@@SAHPBD@Z ; ATL::ChTraitsCRT<unsigned short>::GetBaseTypeLength
	add	esp, 4
	mov	DWORD PTR tv67[ebp], eax
	jmp	SHORT $L94664
$L94663:
	mov	DWORD PTR tv67[ebp], 0
$L94664:
	mov	ecx, DWORD PTR tv67[ebp]
	mov	DWORD PTR _nDestLength$[ebp], ecx

; 992  : 		if( nDestLength > 0 )

	cmp	DWORD PTR _nDestLength$[ebp], 0
	jle	SHORT $L92706

; 993  : 		{
; 994  : 			PXSTR pszBuffer = GetBuffer( nDestLength );

	mov	eax, DWORD PTR _nDestLength$[ebp]
	push	eax
	mov	ecx, DWORD PTR _this$[ebp]
	call	?GetBuffer@?$CSimpleStringT@G$0A@@ATL@@QAEPAGH@Z ; ATL::CSimpleStringT<unsigned short,0>::GetBuffer
	mov	DWORD PTR _pszBuffer$92707[ebp], eax

; 995  : 			StringTraits::ConvertToBaseType( pszBuffer, nDestLength, pszSrc );

	push	-1
	mov	eax, DWORD PTR _pszSrc$[ebp]
	push	eax
	mov	ecx, DWORD PTR _nDestLength$[ebp]
	push	ecx
	mov	edx, DWORD PTR _pszBuffer$92707[ebp]
	push	edx
	call	?ConvertToBaseType@?$ChTraitsCRT@G@ATL@@SAXPAGHPBDH@Z ; ATL::ChTraitsCRT<unsigned short>::ConvertToBaseType
	add	esp, 16					; 00000010H

; 996  : 			ReleaseBufferSetLength( nDestLength );

	mov	eax, DWORD PTR _nDestLength$[ebp]
	push	eax
	mov	ecx, DWORD PTR _this$[ebp]
	call	?ReleaseBufferSetLength@?$CSimpleStringT@G$0A@@ATL@@QAEXH@Z ; ATL::CSimpleStringT<unsigned short,0>::ReleaseBufferSetLength

; 997  : 		}
; 998  : 		else

	jmp	SHORT $L92708
$L92706:

; 999  : 		{
; 1000 : 			Empty();

	mov	ecx, DWORD PTR _this$[ebp]
	call	?Empty@?$CSimpleStringT@G$0A@@ATL@@QAEXXZ ; ATL::CSimpleStringT<unsigned short,0>::Empty
$L92708:

; 1001 : 		}
; 1002 : 
; 1003 : 		return( *this );

	mov	eax, DWORD PTR _this$[ebp]

; 1004 : 	}

	pop	edi
	pop	esi
	pop	ebx
	add	esp, 232				; 000000e8H
	cmp	ebp, esp
	call	__RTC_CheckEsp
	mov	esp, ebp
	pop	ebp
	ret	4
??4?$CStringT@GV?$StrTraitMFC@GV?$ChTraitsCRT@G@ATL@@@@@ATL@@QAEAAV01@PBD@Z ENDP ; ATL::CStringT<unsigned short,StrTraitMFC<unsigned short,ATL::ChTraitsCRT<unsigned short> > >::operator=
_TEXT	ENDS
PUBLIC	?_AtlGetConversionACP@ATL@@YGIXZ		; ATL::_AtlGetConversionACP
EXTRN	__imp__MultiByteToWideChar@24:NEAR
; Function compile flags: /Odt /RTCcsu /ZI
;	COMDAT ?GetBaseTypeLength@?$ChTraitsCRT@G@ATL@@SAHPBD@Z
_TEXT	SEGMENT
_pszSrc$ = 8						; size = 4
?GetBaseTypeLength@?$ChTraitsCRT@G@ATL@@SAHPBD@Z PROC NEAR ; ATL::ChTraitsCRT<unsigned short>::GetBaseTypeLength, COMDAT

; 653  : 	{

	push	ebp
	mov	ebp, esp
	sub	esp, 192				; 000000c0H
	push	ebx
	push	esi
	push	edi
	lea	edi, DWORD PTR [ebp-192]
	mov	ecx, 48					; 00000030H
	mov	eax, -858993460				; ccccccccH
	rep stosd

; 654  : 		// Returns required buffer size in wchar_ts
; 655  : 		return ::MultiByteToWideChar( _AtlGetConversionACP(), 0, pszSrc, -1, NULL, 0 )-1;

	mov	esi, esp
	push	0
	push	0
	push	-1
	mov	eax, DWORD PTR _pszSrc$[ebp]
	push	eax
	push	0
	call	?_AtlGetConversionACP@ATL@@YGIXZ	; ATL::_AtlGetConversionACP
	push	eax
	call	DWORD PTR __imp__MultiByteToWideChar@24
	cmp	esi, esp
	call	__RTC_CheckEsp
	sub	eax, 1

; 656  : 	}

	pop	edi
	pop	esi
	pop	ebx
	add	esp, 192				; 000000c0H
	cmp	ebp, esp
	call	__RTC_CheckEsp
	mov	esp, ebp
	pop	ebp
	ret	0
?GetBaseTypeLength@?$ChTraitsCRT@G@ATL@@SAHPBD@Z ENDP	; ATL::ChTraitsCRT<unsigned short>::GetBaseTypeLength
; Function compile flags: /Odt /RTCcsu /ZI
; File c:\program files\microsoft visual studio .net 2003\vc7\atlmfc\include\atlconv.h
_TEXT	ENDS
;	COMDAT ?_AtlGetConversionACP@ATL@@YGIXZ
_TEXT	SEGMENT
?_AtlGetConversionACP@ATL@@YGIXZ PROC NEAR		; ATL::_AtlGetConversionACP, COMDAT

; 157  : {

	push	ebp
	mov	ebp, esp
	sub	esp, 192				; 000000c0H
	push	ebx
	push	esi
	push	edi
	lea	edi, DWORD PTR [ebp-192]
	mov	ecx, 48					; 00000030H
	mov	eax, -858993460				; ccccccccH
	rep stosd

; 158  : 	return( g_pfnGetThreadACP() );

	mov	esi, esp
	call	DWORD PTR ?g_pfnGetThreadACP@ATL@@3P6GIXZA ; ATL::g_pfnGetThreadACP
	cmp	esi, esp
	call	__RTC_CheckEsp

; 159  : }

	pop	edi
	pop	esi
	pop	ebx
	add	esp, 192				; 000000c0H
	cmp	ebp, esp
	call	__RTC_CheckEsp
	mov	esp, ebp
	pop	ebp
	ret	0
?_AtlGetConversionACP@ATL@@YGIXZ ENDP			; ATL::_AtlGetConversionACP
; Function compile flags: /Odt /RTCcsu /ZI
; File c:\program files\microsoft visual studio .net 2003\vc7\atlmfc\include\cstringt.h
_TEXT	ENDS
;	COMDAT ?ConvertToBaseType@?$ChTraitsCRT@G@ATL@@SAXPAGHPBDH@Z
_TEXT	SEGMENT
_pszDest$ = 8						; size = 4
_nDestLength$ = 12					; size = 4
_pszSrc$ = 16						; size = 4
_nSrcLength$ = 20					; size = 4
?ConvertToBaseType@?$ChTraitsCRT@G@ATL@@SAXPAGHPBDH@Z PROC NEAR ; ATL::ChTraitsCRT<unsigned short>::ConvertToBaseType, COMDAT

; 679  : 	{

	push	ebp
	mov	ebp, esp
	sub	esp, 192				; 000000c0H
	push	ebx
	push	esi
	push	edi
	lea	edi, DWORD PTR [ebp-192]
	mov	ecx, 48					; 00000030H
	mov	eax, -858993460				; ccccccccH
	rep stosd

; 680  : 		// nLen is in wchar_ts
; 681  : 		::MultiByteToWideChar( _AtlGetConversionACP(), 0, pszSrc, nSrcLength, pszDest, nDestLength );

	mov	esi, esp
	mov	eax, DWORD PTR _nDestLength$[ebp]
	push	eax
	mov	ecx, DWORD PTR _pszDest$[ebp]
	push	ecx
	mov	edx, DWORD PTR _nSrcLength$[ebp]
	push	edx
	mov	eax, DWORD PTR _pszSrc$[ebp]
	push	eax
	push	0
	call	?_AtlGetConversionACP@ATL@@YGIXZ	; ATL::_AtlGetConversionACP
	push	eax
	call	DWORD PTR __imp__MultiByteToWideChar@24
	cmp	esi, esp
	call	__RTC_CheckEsp

; 682  : 	}

	pop	edi
	pop	esi
	pop	ebx
	add	esp, 192				; 000000c0H
	cmp	ebp, esp
	call	__RTC_CheckEsp
	mov	esp, ebp
	pop	ebp
	ret	0
?ConvertToBaseType@?$ChTraitsCRT@G@ATL@@SAXPAGHPBDH@Z ENDP ; ATL::ChTraitsCRT<unsigned short>::ConvertToBaseType
_TEXT	ENDS
PUBLIC	?LoadStringW@?$CStringT@GV?$StrTraitMFC@GV?$ChTraitsCRT@G@ATL@@@@@ATL@@QAEHI@Z ; ATL::CStringT<unsigned short,StrTraitMFC<unsigned short,ATL::ChTraitsCRT<unsigned short> > >::LoadStringW
PUBLIC	??BCTraceCategory@ATL@@QBEKXZ			; ATL::CTraceCategory::operator unsigned long
PUBLIC	??0CTraceFileAndLineInfo@ATL@@QAE@PBDH@Z	; ATL::CTraceFileAndLineInfo::CTraceFileAndLineInfo
PUBLIC	??RCTraceFileAndLineInfo@ATL@@QBAXKIPBGZZ	; ATL::CTraceFileAndLineInfo::operator()
PUBLIC	??_C@_1FC@BMOLDHIO@?$AAW?$AAa?$AAr?$AAn?$AAi?$AAn?$AAg?$AA?3?$AA?5?$AAi?$AAm?$AAp?$AAl?$AAi?$AAc?$AAi?$AAt?$AA?5?$AAL?$AAo@ ; `string'
PUBLIC	??_C@_0FB@BCKJDECD@c?3?2program?5files?2microsoft?5visua@ ; `string'
EXTRN	?atlTraceString@ATL@@3VCTraceCategory@1@A:DWORD	; ATL::atlTraceString
;	COMDAT ??_C@_1FC@BMOLDHIO@?$AAW?$AAa?$AAr?$AAn?$AAi?$AAn?$AAg?$AA?3?$AA?5?$AAi?$AAm?$AAp?$AAl?$AAi?$AAc?$AAi?$AAt?$AA?5?$AAL?$AAo@
CONST	SEGMENT
??_C@_1FC@BMOLDHIO@?$AAW?$AAa?$AAr?$AAn?$AAi?$AAn?$AAg?$AA?3?$AA?5?$AAi?$AAm?$AAp?$AAl?$AAi?$AAc?$AAi?$AAt?$AA?5?$AAL?$AAo@ DB 'W'
	DB	00H, 'a', 00H, 'r', 00H, 'n', 00H, 'i', 00H, 'n', 00H, 'g', 00H
	DB	':', 00H, ' ', 00H, 'i', 00H, 'm', 00H, 'p', 00H, 'l', 00H, 'i'
	DB	00H, 'c', 00H, 'i', 00H, 't', 00H, ' ', 00H, 'L', 00H, 'o', 00H
	DB	'a', 00H, 'd', 00H, 'S', 00H, 't', 00H, 'r', 00H, 'i', 00H, 'n'
	DB	00H, 'g', 00H, '(', 00H, '%', 00H, 'u', 00H, ')', 00H, ' ', 00H
	DB	'f', 00H, 'a', 00H, 'i', 00H, 'l', 00H, 'e', 00H, 'd', 00H, 0aH
	DB	00H, 00H, 00H				; `string'
CONST	ENDS
;	COMDAT ??_C@_0FB@BCKJDECD@c?3?2program?5files?2microsoft?5visua@
CONST	SEGMENT
??_C@_0FB@BCKJDECD@c?3?2program?5files?2microsoft?5visua@ DB 'c:\program '
	DB	'files\microsoft visual studio .net 2003\vc7\atlmfc\include\cs'
	DB	'tringt.h', 00H				; `string'
; Function compile flags: /Odt /RTCcsu /ZI
CONST	ENDS
;	COMDAT ?CheckImplicitLoad@?$CStringT@GV?$StrTraitMFC@GV?$ChTraitsCRT@G@ATL@@@@@ATL@@AAE_NPBX@Z
_TEXT	SEGMENT
$T94673 = -240						; size = 8
_nID$92726 = -32					; size = 4
_bRet$ = -17						; size = 1
_this$ = -8						; size = 4
_pv$ = 8						; size = 4
?CheckImplicitLoad@?$CStringT@GV?$StrTraitMFC@GV?$ChTraitsCRT@G@ATL@@@@@ATL@@AAE_NPBX@Z PROC NEAR ; ATL::CStringT<unsigned short,StrTraitMFC<unsigned short,ATL::ChTraitsCRT<unsigned short> > >::CheckImplicitLoad, COMDAT
; _this$ = ecx

; 2229 : 	{

	push	ebp
	mov	ebp, esp
	sub	esp, 244				; 000000f4H
	push	ebx
	push	esi
	push	edi
	push	ecx
	lea	edi, DWORD PTR [ebp-244]
	mov	ecx, 61					; 0000003dH
	mov	eax, -858993460				; ccccccccH
	rep stosd
	pop	ecx
	mov	DWORD PTR _this$[ebp], ecx

; 2230 : 		bool bRet = false;

	mov	BYTE PTR _bRet$[ebp], 0

; 2231 : 
; 2232 : 		if( (pv != NULL) && IS_INTRESOURCE( pv ) )

	cmp	DWORD PTR _pv$[ebp], 0
	je	SHORT $L92725
	mov	eax, DWORD PTR _pv$[ebp]
	shr	eax, 16					; 00000010H
	test	eax, eax
	jne	SHORT $L92725

; 2233 : 		{
; 2234 : 			UINT nID = LOWORD( reinterpret_cast< DWORD_PTR >( pv ) );

	mov	ecx, DWORD PTR _pv$[ebp]
	and	ecx, 65535				; 0000ffffH
	call	@_RTC_Check_4_to_2@4
	movzx	eax, ax
	mov	DWORD PTR _nID$92726[ebp], eax

; 2235 : 			if( !LoadString( nID ) )

	mov	eax, DWORD PTR _nID$92726[ebp]
	push	eax
	mov	ecx, DWORD PTR _this$[ebp]
	call	?LoadStringW@?$CStringT@GV?$StrTraitMFC@GV?$ChTraitsCRT@G@ATL@@@@@ATL@@QAEHI@Z ; ATL::CStringT<unsigned short,StrTraitMFC<unsigned short,ATL::ChTraitsCRT<unsigned short> > >::LoadStringW
	test	eax, eax
	jne	SHORT $L92730

; 2236 : 			{
; 2237 : 				ATLTRACE( atlTraceString, 2, _T( "Warning: implicit LoadString(%u) failed\n" ), nID );

	mov	eax, DWORD PTR _nID$92726[ebp]
	push	eax
	push	OFFSET FLAT:??_C@_1FC@BMOLDHIO@?$AAW?$AAa?$AAr?$AAn?$AAi?$AAn?$AAg?$AA?3?$AA?5?$AAi?$AAm?$AAp?$AAl?$AAi?$AAc?$AAi?$AAt?$AA?5?$AAL?$AAo@
	push	2
	mov	ecx, OFFSET FLAT:?atlTraceString@ATL@@3VCTraceCategory@1@A ; ATL::atlTraceString
	call	??BCTraceCategory@ATL@@QBEKXZ		; ATL::CTraceCategory::operator unsigned long
	push	eax
	push	2237					; 000008bdH
	push	OFFSET FLAT:??_C@_0FB@BCKJDECD@c?3?2program?5files?2microsoft?5visua@
	lea	ecx, DWORD PTR $T94673[ebp]
	call	??0CTraceFileAndLineInfo@ATL@@QAE@PBDH@Z ; ATL::CTraceFileAndLineInfo::CTraceFileAndLineInfo
	push	eax
	call	??RCTraceFileAndLineInfo@ATL@@QBAXKIPBGZZ ; ATL::CTraceFileAndLineInfo::operator()
	add	esp, 20					; 00000014H
$L92730:

; 2238 : 			}
; 2239 : 			bRet = true;

	mov	BYTE PTR _bRet$[ebp], 1
$L92725:

; 2240 : 		}
; 2241 : 
; 2242 : 		return( bRet );

	mov	al, BYTE PTR _bRet$[ebp]

; 2243 : 	}

	pop	edi
	pop	esi
	pop	ebx
	add	esp, 244				; 000000f4H
	cmp	ebp, esp
	call	__RTC_CheckEsp
	mov	esp, ebp
	pop	ebp
	ret	4
?CheckImplicitLoad@?$CStringT@GV?$StrTraitMFC@GV?$ChTraitsCRT@G@ATL@@@@@ATL@@AAE_NPBX@Z ENDP ; ATL::CStringT<unsigned short,StrTraitMFC<unsigned short,ATL::ChTraitsCRT<unsigned short> > >::CheckImplicitLoad
; Function compile flags: /Odt /RTCcsu /ZI
; File c:\program files\microsoft visual studio .net 2003\vc7\atlmfc\include\atltrace.h
_TEXT	ENDS
;	COMDAT ??0CTraceFileAndLineInfo@ATL@@QAE@PBDH@Z
_TEXT	SEGMENT
_this$ = -8						; size = 4
_pszFileName$ = 8					; size = 4
_nLineNo$ = 12						; size = 4
??0CTraceFileAndLineInfo@ATL@@QAE@PBDH@Z PROC NEAR	; ATL::CTraceFileAndLineInfo::CTraceFileAndLineInfo, COMDAT
; _this$ = ecx

; 158  : 	{}

	push	ebp
	mov	ebp, esp
	sub	esp, 204				; 000000ccH
	push	ebx
	push	esi
	push	edi
	push	ecx
	lea	edi, DWORD PTR [ebp-204]
	mov	ecx, 51					; 00000033H
	mov	eax, -858993460				; ccccccccH
	rep stosd
	pop	ecx
	mov	DWORD PTR _this$[ebp], ecx
	mov	eax, DWORD PTR _this$[ebp]
	mov	ecx, DWORD PTR _pszFileName$[ebp]
	mov	DWORD PTR [eax], ecx
	mov	eax, DWORD PTR _this$[ebp]
	mov	ecx, DWORD PTR _nLineNo$[ebp]
	mov	DWORD PTR [eax+4], ecx
	mov	eax, DWORD PTR _this$[ebp]
	pop	edi
	pop	esi
	pop	ebx
	mov	esp, ebp
	pop	ebp
	ret	8
??0CTraceFileAndLineInfo@ATL@@QAE@PBDH@Z ENDP		; ATL::CTraceFileAndLineInfo::CTraceFileAndLineInfo
_TEXT	ENDS
PUBLIC	?TraceV@CTrace@ATL@@QBAXPBDHKIPBGPAD@Z		; ATL::CTrace::TraceV
EXTRN	?s_trace@CTrace@ATL@@2V12@A:QWORD		; ATL::CTrace::s_trace
; Function compile flags: /Odt /RTCcsu /ZI
;	COMDAT ??RCTraceFileAndLineInfo@ATL@@QBAXKIPBGZZ
_TEXT	SEGMENT
_ptr$ = -8						; size = 4
_this$ = 8						; size = 4
_dwCategory$ = 12					; size = 4
_nLevel$ = 16						; size = 4
_pszFmt$ = 20						; size = 4
??RCTraceFileAndLineInfo@ATL@@QBAXKIPBGZZ PROC NEAR	; ATL::CTraceFileAndLineInfo::operator(), COMDAT

; 167  : 	{

	push	ebp
	mov	ebp, esp
	sub	esp, 204				; 000000ccH
	push	ebx
	push	esi
	push	edi
	lea	edi, DWORD PTR [ebp-204]
	mov	ecx, 51					; 00000033H
	mov	eax, -858993460				; ccccccccH
	rep stosd

; 168  : 		va_list ptr; va_start(ptr, pszFmt);

	lea	eax, DWORD PTR _pszFmt$[ebp+4]
	mov	DWORD PTR _ptr$[ebp], eax

; 169  : 		ATL::CTrace::s_trace.TraceV(m_pszFileName, m_nLineNo, dwCategory, nLevel, pszFmt, ptr);

	mov	eax, DWORD PTR _ptr$[ebp]
	push	eax
	mov	ecx, DWORD PTR _pszFmt$[ebp]
	push	ecx
	mov	edx, DWORD PTR _nLevel$[ebp]
	push	edx
	mov	eax, DWORD PTR _dwCategory$[ebp]
	push	eax
	mov	ecx, DWORD PTR _this$[ebp]
	mov	edx, DWORD PTR [ecx+4]
	push	edx
	mov	eax, DWORD PTR _this$[ebp]
	mov	ecx, DWORD PTR [eax]
	push	ecx
	push	OFFSET FLAT:?s_trace@CTrace@ATL@@2V12@A
	call	?TraceV@CTrace@ATL@@QBAXPBDHKIPBGPAD@Z	; ATL::CTrace::TraceV
	add	esp, 28					; 0000001cH

; 170  : 		va_end(ptr);

	mov	DWORD PTR _ptr$[ebp], 0

; 171  : 	}

	pop	edi
	pop	esi
	pop	ebx
	add	esp, 204				; 000000ccH
	cmp	ebp, esp
	call	__RTC_CheckEsp
	mov	esp, ebp
	pop	ebp
	ret	0
??RCTraceFileAndLineInfo@ATL@@QBAXKIPBGZZ ENDP		; ATL::CTraceFileAndLineInfo::operator()
_TEXT	ENDS
EXTRN	_AtlTraceVU:NEAR
; Function compile flags: /Odt /RTCcsu /ZI
;	COMDAT ?TraceV@CTrace@ATL@@QBAXPBDHKIPBGPAD@Z
_TEXT	SEGMENT
_this$ = 8						; size = 4
_pszFileName$ = 12					; size = 4
_nLine$ = 16						; size = 4
_dwCategory$ = 20					; size = 4
_nLevel$ = 24						; size = 4
_pszFmt$ = 28						; size = 4
_args$ = 32						; size = 4
?TraceV@CTrace@ATL@@QBAXPBDHKIPBGPAD@Z PROC NEAR	; ATL::CTrace::TraceV, COMDAT

; 126  : 	{

	push	ebp
	mov	ebp, esp
	sub	esp, 192				; 000000c0H
	push	ebx
	push	esi
	push	edi
	lea	edi, DWORD PTR [ebp-192]
	mov	ecx, 48					; 00000030H
	mov	eax, -858993460				; ccccccccH
	rep stosd

; 127  : 		AtlTraceVU(m_dwModule, pszFileName, nLine, dwCategory, nLevel, pszFmt, args);

	mov	eax, DWORD PTR _args$[ebp]
	push	eax
	mov	ecx, DWORD PTR _pszFmt$[ebp]
	push	ecx
	mov	edx, DWORD PTR _nLevel$[ebp]
	push	edx
	mov	eax, DWORD PTR _dwCategory$[ebp]
	push	eax
	mov	ecx, DWORD PTR _nLine$[ebp]
	push	ecx
	mov	edx, DWORD PTR _pszFileName$[ebp]
	push	edx
	mov	eax, DWORD PTR _this$[ebp]
	mov	ecx, DWORD PTR [eax+4]
	push	ecx
	call	_AtlTraceVU
	add	esp, 28					; 0000001cH

; 128  : 	}

	pop	edi
	pop	esi
	pop	ebx
	add	esp, 192				; 000000c0H
	cmp	ebp, esp
	call	__RTC_CheckEsp
	mov	esp, ebp
	pop	ebp
	ret	0
?TraceV@CTrace@ATL@@QBAXPBDHKIPBGPAD@Z ENDP		; ATL::CTrace::TraceV
; Function compile flags: /Odt /RTCcsu /ZI
_TEXT	ENDS
;	COMDAT ??BCTraceCategory@ATL@@QBEKXZ
_TEXT	SEGMENT
_this$ = -8						; size = 4
??BCTraceCategory@ATL@@QBEKXZ PROC NEAR			; ATL::CTraceCategory::operator unsigned long, COMDAT
; _this$ = ecx

; 202  : {

	push	ebp
	mov	ebp, esp
	sub	esp, 204				; 000000ccH
	push	ebx
	push	esi
	push	edi
	push	ecx
	lea	edi, DWORD PTR [ebp-204]
	mov	ecx, 51					; 00000033H
	mov	eax, -858993460				; ccccccccH
	rep stosd
	pop	ecx
	mov	DWORD PTR _this$[ebp], ecx

; 203  : 	return( m_dwCategory );

	mov	eax, DWORD PTR _this$[ebp]
	mov	eax, DWORD PTR [eax]

; 204  : }

	pop	edi
	pop	esi
	pop	ebx
	mov	esp, ebp
	pop	ebp
	ret	0
??BCTraceCategory@ATL@@QBEKXZ ENDP			; ATL::CTraceCategory::operator unsigned long
_TEXT	ENDS
PUBLIC	?LoadStringW@?$CStringT@GV?$StrTraitMFC@GV?$ChTraitsCRT@G@ATL@@@@@ATL@@QAEHPAUHINSTANCE__@@I@Z ; ATL::CStringT<unsigned short,StrTraitMFC<unsigned short,ATL::ChTraitsCRT<unsigned short> > >::LoadStringW
PUBLIC	?FindStringResourceInstance@?$StrTraitMFC@GV?$ChTraitsCRT@G@ATL@@@@SAPAUHINSTANCE__@@I@Z ; StrTraitMFC<unsigned short,ATL::ChTraitsCRT<unsigned short> >::FindStringResourceInstance
; Function compile flags: /Odt /RTCcsu /ZI
; File c:\program files\microsoft visual studio .net 2003\vc7\atlmfc\include\cstringt.h
;	COMDAT ?LoadStringW@?$CStringT@GV?$StrTraitMFC@GV?$ChTraitsCRT@G@ATL@@@@@ATL@@QAEHI@Z
_TEXT	SEGMENT
_hInst$ = -20						; size = 4
_this$ = -8						; size = 4
_nID$ = 8						; size = 4
?LoadStringW@?$CStringT@GV?$StrTraitMFC@GV?$ChTraitsCRT@G@ATL@@@@@ATL@@QAEHI@Z PROC NEAR ; ATL::CStringT<unsigned short,StrTraitMFC<unsigned short,ATL::ChTraitsCRT<unsigned short> > >::LoadStringW, COMDAT
; _this$ = ecx

; 1969 : 	{

	push	ebp
	mov	ebp, esp
	sub	esp, 216				; 000000d8H
	push	ebx
	push	esi
	push	edi
	push	ecx
	lea	edi, DWORD PTR [ebp-216]
	mov	ecx, 54					; 00000036H
	mov	eax, -858993460				; ccccccccH
	rep stosd
	pop	ecx
	mov	DWORD PTR _this$[ebp], ecx

; 1970 : 		HINSTANCE hInst = StringTraits::FindStringResourceInstance( nID );

	mov	eax, DWORD PTR _nID$[ebp]
	push	eax
	call	?FindStringResourceInstance@?$StrTraitMFC@GV?$ChTraitsCRT@G@ATL@@@@SAPAUHINSTANCE__@@I@Z ; StrTraitMFC<unsigned short,ATL::ChTraitsCRT<unsigned short> >::FindStringResourceInstance
	add	esp, 4
	mov	DWORD PTR _hInst$[ebp], eax

; 1971 : 		if( hInst == NULL )

	cmp	DWORD PTR _hInst$[ebp], 0
	jne	SHORT $L92647

; 1972 : 		{
; 1973 : 			return( FALSE );

	xor	eax, eax
	jmp	SHORT $L92645
$L92647:

; 1974 : 		}
; 1975 : 
; 1976 : 		return( LoadString( hInst, nID ) );		

	mov	eax, DWORD PTR _nID$[ebp]
	push	eax
	mov	ecx, DWORD PTR _hInst$[ebp]
	push	ecx
	mov	ecx, DWORD PTR _this$[ebp]
