; Listing generated by Microsoft (R) Optimizing Compiler Version 13.10.3077 

	TITLE	.\DAspectText1.cpp
	.386P
include listing.inc
if @Version gt 510
.model FLAT
else
_TEXT	SEGMENT PARA USE32 PUBLIC 'CODE'
_TEXT	ENDS
_DATA	SEGMENT DWORD USE32 PUBLIC 'DATA'
_DATA	ENDS
CONST	SEGMENT DWORD USE32 PUBLIC 'CONST'
CONST	ENDS
_BSS	SEGMENT DWORD USE32 PUBLIC 'BSS'
_BSS	ENDS
$$SYMBOLS	SEGMENT BYTE USE32 'DEBSYM'
$$SYMBOLS	ENDS
$$TYPES	SEGMENT BYTE USE32 'DEBTYP'
$$TYPES	ENDS
_TLS	SEGMENT DWORD USE32 PUBLIC 'TLS'
_TLS	ENDS
;	COMDAT ??_C@_0N@FLIOKPKG@CDAspectText?$AA@
CONST	SEGMENT DWORD USE32 PUBLIC 'CONST'
CONST	ENDS
;	COMDAT ??_C@_1BK@BNCJDPCL@?$AA?$FL?$AAA?$AAs?$AAp?$AAe?$AAc?$AAt?$AAT?$AAe?$AAx?$AAt?$AA?$FN?$AA?$AA@
CONST	SEGMENT DWORD USE32 PUBLIC 'CONST'
CONST	ENDS
;	COMDAT ??_C@_1BG@ILCPOCCL@?$AA?$FL?$AAT?$AAe?$AAx?$AAt?$AAT?$AAy?$AAp?$AAe?$AA?$FN?$AA?$AA@
CONST	SEGMENT DWORD USE32 PUBLIC 'CONST'
CONST	ENDS
;	COMDAT ??_C@_1BE@CEAPAEGO@?$AA?$FL?$AAP?$AAl?$AAa?$AAn?$AAe?$AAt?$AA1?$AA?$FN?$AA?$AA@
CONST	SEGMENT DWORD USE32 PUBLIC 'CONST'
CONST	ENDS
;	COMDAT ??_C@_1BE@KCJLHGMA@?$AA?$FL?$AAP?$AAl?$AAa?$AAn?$AAe?$AAt?$AA2?$AA?$FN?$AA?$AA@
CONST	SEGMENT DWORD USE32 PUBLIC 'CONST'
CONST	ENDS
;	COMDAT ??_C@_1BK@EKCAFLLE@?$AA?$FL?$AAP?$AAl?$AAa?$AAn?$AAe?$AAt?$AA1?$AAn?$AAu?$AAm?$AA?$FN?$AA?$AA@
CONST	SEGMENT DWORD USE32 PUBLIC 'CONST'
CONST	ENDS
;	COMDAT ??_C@_1BK@DNLOIJEE@?$AA?$FL?$AAP?$AAl?$AAa?$AAn?$AAe?$AAt?$AA2?$AAn?$AAu?$AAm?$AA?$FN?$AA?$AA@
CONST	SEGMENT DWORD USE32 PUBLIC 'CONST'
CONST	ENDS
;	COMDAT ??_C@_1BC@DDBOPGB@?$AA?$FL?$AAA?$AAs?$AAp?$AAe?$AAc?$AAt?$AA?$FN?$AA?$AA@
CONST	SEGMENT DWORD USE32 PUBLIC 'CONST'
CONST	ENDS
;	COMDAT ??_C@_1BI@MJIEMAFI@?$AA?$FL?$AAA?$AAs?$AAp?$AAe?$AAc?$AAt?$AAn?$AAu?$AAm?$AA?$FN?$AA?$AA@
CONST	SEGMENT DWORD USE32 PUBLIC 'CONST'
CONST	ENDS
;	COMDAT ??_C@_1O@JIKFMKIC@?$AA?$FL?$AAT?$AAe?$AAx?$AAt?$AA?$FN?$AA?$AA@
CONST	SEGMENT DWORD USE32 PUBLIC 'CONST'
CONST	ENDS
;	COMDAT ??_C@_1O@KEMMLJGD@?$AA?$FL?$AAL?$AAa?$AAn?$AAg?$AA?$FN?$AA?$AA@
CONST	SEGMENT DWORD USE32 PUBLIC 'CONST'
CONST	ENDS
;	COMDAT ?GetRuntimeClass@CDAspectText@@UBEPAUCRuntimeClass@@XZ
_TEXT	SEGMENT PARA USE32 PUBLIC 'CODE'
_TEXT	ENDS
;	COMDAT ??0CDAspectText@@QAE@PAVCDaoDatabase@@@Z
_TEXT	SEGMENT PARA USE32 PUBLIC 'CODE'
_TEXT	ENDS
;	COMDAT ??_GCDAspectText@@UAEPAXI@Z
_TEXT	SEGMENT PARA USE32 PUBLIC 'CODE'
_TEXT	ENDS
;	COMDAT ??1CDAspectText@@UAE@XZ
_TEXT	SEGMENT PARA USE32 PUBLIC 'CODE'
_TEXT	ENDS
;	COMDAT ?GetDefaultDBName@CDAspectText@@UAE?AV?$CStringT@GV?$StrTraitMFC@GV?$ChTraitsCRT@G@ATL@@@@@ATL@@XZ
_TEXT	SEGMENT PARA USE32 PUBLIC 'CODE'
_TEXT	ENDS
;	COMDAT ?GetDefaultSQL@CDAspectText@@UAE?AV?$CStringT@GV?$StrTraitMFC@GV?$ChTraitsCRT@G@ATL@@@@@ATL@@XZ
_TEXT	SEGMENT PARA USE32 PUBLIC 'CODE'
_TEXT	ENDS
;	COMDAT ?DoFieldExchange@CDAspectText@@UAEXPAVCDaoFieldExchange@@@Z
_TEXT	SEGMENT PARA USE32 PUBLIC 'CODE'
_TEXT	ENDS
;	COMDAT ?AssertValid@CDAspectText@@UBEXXZ
_TEXT	SEGMENT PARA USE32 PUBLIC 'CODE'
_TEXT	ENDS
;	COMDAT ?Dump@CDAspectText@@UBEXAAVCDumpContext@@@Z
_TEXT	SEGMENT PARA USE32 PUBLIC 'CODE'
_TEXT	ENDS
;	COMDAT ??4?$CStringT@GV?$StrTraitMFC@GV?$ChTraitsCRT@G@ATL@@@@@ATL@@QAEAAV01@ABV01@@Z
_TEXT	SEGMENT PARA USE32 PUBLIC 'CODE'
_TEXT	ENDS
;	COMDAT ??4?$CSimpleStringT@G$0A@@ATL@@QAEAAV01@ABV01@@Z
_TEXT	SEGMENT PARA USE32 PUBLIC 'CODE'
_TEXT	ENDS
;	COMDAT ?Attach@?$CSimpleStringT@G$0A@@ATL@@AAEXPAUCStringData@2@@Z
_TEXT	SEGMENT PARA USE32 PUBLIC 'CODE'
_TEXT	ENDS
;	COMDAT ?data@CStringData@ATL@@QAEPAXXZ
_TEXT	SEGMENT PARA USE32 PUBLIC 'CODE'
_TEXT	ENDS
;	COMDAT ?Release@CStringData@ATL@@QAEXXZ
_TEXT	SEGMENT PARA USE32 PUBLIC 'CODE'
_TEXT	ENDS
;	COMDAT ??_C@_0L@OIIMFBNE@nRefs?5?$CB?$DN?50?$AA@
CONST	SEGMENT DWORD USE32 PUBLIC 'CONST'
CONST	ENDS
;	COMDAT ??_C@_0FD@JDCNPMMG@c?3?2program?5files?2microsoft?5visua@
CONST	SEGMENT DWORD USE32 PUBLIC 'CONST'
CONST	ENDS
;	COMDAT ?CloneData@?$CSimpleStringT@G$0A@@ATL@@CAPAUCStringData@2@PAU32@@Z
_TEXT	SEGMENT PARA USE32 PUBLIC 'CODE'
_TEXT	ENDS
;	COMDAT ?AddRef@CStringData@ATL@@QAEXXZ
_TEXT	SEGMENT PARA USE32 PUBLIC 'CODE'
_TEXT	ENDS
;	COMDAT ??_C@_09EEBKLCFA@nRefs?5?$DO?50?$AA@
CONST	SEGMENT DWORD USE32 PUBLIC 'CONST'
CONST	ENDS
;	COMDAT ?ThrowMemoryException@?$CSimpleStringT@G$0A@@ATL@@KAXXZ
_TEXT	SEGMENT PARA USE32 PUBLIC 'CODE'
_TEXT	ENDS
;	COMDAT ?AtlThrow@ATL@@YGXJ@Z
_TEXT	SEGMENT PARA USE32 PUBLIC 'CODE'
_TEXT	ENDS
;	COMDAT ??RCTraceFileAndLineInfo@ATL@@QBAXKIPBGZZ
_TEXT	SEGMENT PARA USE32 PUBLIC 'CODE'
_TEXT	ENDS
;	COMDAT ?TraceV@CTrace@ATL@@QBAXPBDHKIPBGPAD@Z
_TEXT	SEGMENT PARA USE32 PUBLIC 'CODE'
_TEXT	ENDS
;	COMDAT ??0CTraceFileAndLineInfo@ATL@@QAE@PBDH@Z
_TEXT	SEGMENT PARA USE32 PUBLIC 'CODE'
_TEXT	ENDS
;	COMDAT ?__LINE__Var@?1??AtlThrow@ATL@@YGXJ@Z@4JA
_DATA	SEGMENT DWORD USE32 PUBLIC 'DATA'
_DATA	ENDS
;	COMDAT ??_C@_0FC@IPKABFFL@c?3?2program?5files?2microsoft?5visua@
CONST	SEGMENT DWORD USE32 PUBLIC 'CONST'
CONST	ENDS
;	COMDAT ??_C@_1CK@DFMKPFAK@?$AAA?$AAt?$AAl?$AAT?$AAh?$AAr?$AAo?$AAw?$AA?3?$AA?5?$AAh?$AAr?$AA?5?$AA?$DN?$AA?5?$AA0?$AAx?$AA?$CF?$AAx?$AA?6@
CONST	SEGMENT DWORD USE32 PUBLIC 'CONST'
CONST	ENDS
;	COMDAT ??BCTraceCategory@ATL@@QBEKXZ
_TEXT	SEGMENT PARA USE32 PUBLIC 'CODE'
_TEXT	ENDS
;	COMDAT ?CopyChars@?$CSimpleStringT@G$0A@@ATL@@SAXPAGPBGH@Z
_TEXT	SEGMENT PARA USE32 PUBLIC 'CODE'
_TEXT	ENDS
;	COMDAT ?GetString@?$CSimpleStringT@G$0A@@ATL@@QBEPBGXZ
_TEXT	SEGMENT PARA USE32 PUBLIC 'CODE'
_TEXT	ENDS
;	COMDAT ?GetLength@?$CSimpleStringT@G$0A@@ATL@@QBEHXZ
_TEXT	SEGMENT PARA USE32 PUBLIC 'CODE'
_TEXT	ENDS
;	COMDAT ?SetString@?$CSimpleStringT@G$0A@@ATL@@QAEXPBGH@Z
_TEXT	SEGMENT PARA USE32 PUBLIC 'CODE'
_TEXT	ENDS
;	COMDAT ?Empty@?$CSimpleStringT@G$0A@@ATL@@QAEXXZ
_TEXT	SEGMENT PARA USE32 PUBLIC 'CODE'
_TEXT	ENDS
;	COMDAT ?SetLength@?$CSimpleStringT@G$0A@@ATL@@AAEXH@Z
_TEXT	SEGMENT PARA USE32 PUBLIC 'CODE'
_TEXT	ENDS
;	COMDAT ??_C@_0N@ILOMLJGA@nLength?5?$DO?$DN?50?$AA@
CONST	SEGMENT DWORD USE32 PUBLIC 'CONST'
CONST	ENDS
;	COMDAT ??_C@_0CD@EEFFJEGJ@nLength?5?$DM?$DN?5GetData?$CI?$CJ?9?$DOnAllocLeng@
CONST	SEGMENT DWORD USE32 PUBLIC 'CONST'
CONST	ENDS
;	COMDAT ?GetBuffer@?$CSimpleStringT@G$0A@@ATL@@QAEPAGH@Z
_TEXT	SEGMENT PARA USE32 PUBLIC 'CODE'
_TEXT	ENDS
;	COMDAT ?PrepareWrite@?$CSimpleStringT@G$0A@@ATL@@AAEPAGH@Z
_TEXT	SEGMENT PARA USE32 PUBLIC 'CODE'
_TEXT	ENDS
;	COMDAT ?PrepareWrite2@?$CSimpleStringT@G$0A@@ATL@@AAEXH@Z
_TEXT	SEGMENT PARA USE32 PUBLIC 'CODE'
_TEXT	ENDS
;	COMDAT ?IsShared@CStringData@ATL@@QBE_NXZ
_TEXT	SEGMENT PARA USE32 PUBLIC 'CODE'
_TEXT	ENDS
;	COMDAT ?Fork@?$CSimpleStringT@G$0A@@ATL@@AAEXH@Z
_TEXT	SEGMENT PARA USE32 PUBLIC 'CODE'
_TEXT	ENDS
;	COMDAT ?Reallocate@?$CSimpleStringT@G$0A@@ATL@@AAEXH@Z
_TEXT	SEGMENT PARA USE32 PUBLIC 'CODE'
_TEXT	ENDS
;	COMDAT ??_C@_0CB@GFHAPKDK@pOldData?9?$DOnAllocLength?5?$DM?5nLength@
CONST	SEGMENT DWORD USE32 PUBLIC 'CONST'
CONST	ENDS
;	COMDAT ?CopyCharsOverlapped@?$CSimpleStringT@G$0A@@ATL@@SAXPAGPBGH@Z
_TEXT	SEGMENT PARA USE32 PUBLIC 'CODE'
_TEXT	ENDS
;	COMDAT ?ReleaseBufferSetLength@?$CSimpleStringT@G$0A@@ATL@@QAEXH@Z
_TEXT	SEGMENT PARA USE32 PUBLIC 'CODE'
_TEXT	ENDS
;	COMDAT ??_C@_0BA@GNIEOBOF@nNewLength?5?$DO?$DN?50?$AA@
CONST	SEGMENT DWORD USE32 PUBLIC 'CONST'
CONST	ENDS
;	COMDAT ?IsLocked@CStringData@ATL@@QBE_NXZ
_TEXT	SEGMENT PARA USE32 PUBLIC 'CODE'
_TEXT	ENDS
;	COMDAT ?GetData@?$CSimpleStringT@G$0A@@ATL@@ABEPAUCStringData@2@XZ
_TEXT	SEGMENT PARA USE32 PUBLIC 'CODE'
_TEXT	ENDS
;	COMDAT ??0?$CStringT@GV?$StrTraitMFC@GV?$ChTraitsCRT@G@ATL@@@@@ATL@@QAE@PBG@Z
_TEXT	SEGMENT PARA USE32 PUBLIC 'CODE'
_TEXT	ENDS
;	COMDAT ??0?$CSimpleStringT@G$0A@@ATL@@QAE@PAUIAtlStringMgr@1@@Z
_TEXT	SEGMENT PARA USE32 PUBLIC 'CODE'
_TEXT	ENDS
;	COMDAT ??_C@_0BA@GOIMFHNK@pStringMgr?5?$CB?$DN?50?$AA@
CONST	SEGMENT DWORD USE32 PUBLIC 'CONST'
CONST	ENDS
;	COMDAT ?GetDefaultManager@?$StrTraitMFC@GV?$ChTraitsCRT@G@ATL@@@@SAPAUIAtlStringMgr@ATL@@XZ
_TEXT	SEGMENT PARA USE32 PUBLIC 'CODE'
_TEXT	ENDS
;	COMDAT ??1?$CSimpleStringT@G$0A@@ATL@@QAE@XZ
_TEXT	SEGMENT PARA USE32 PUBLIC 'CODE'
_TEXT	ENDS
;	COMDAT ?CheckImplicitLoad@?$CStringT@GV?$StrTraitMFC@GV?$ChTraitsCRT@G@ATL@@@@@ATL@@AAE_NPBX@Z
_TEXT	SEGMENT PARA USE32 PUBLIC 'CODE'
_TEXT	ENDS
;	COMDAT ?LoadStringW@?$CStringT@GV?$StrTraitMFC@GV?$ChTraitsCRT@G@ATL@@@@@ATL@@QAEHI@Z
_TEXT	SEGMENT PARA USE32 PUBLIC 'CODE'
_TEXT	ENDS
;	COMDAT ?FindStringResourceInstance@?$StrTraitMFC@GV?$ChTraitsCRT@G@ATL@@@@SAPAUHINSTANCE__@@I@Z
_TEXT	SEGMENT PARA USE32 PUBLIC 'CODE'
_TEXT	ENDS
;	COMDAT ?LoadStringW@?$CStringT@GV?$StrTraitMFC@GV?$ChTraitsCRT@G@ATL@@@@@ATL@@QAEHPAUHINSTANCE__@@I@Z
_TEXT	SEGMENT PARA USE32 PUBLIC 'CODE'
_TEXT	ENDS
;	COMDAT ?AtlGetStringResourceImage@ATL@@YAPBUATLSTRINGRESOURCEIMAGE@1@PAUHINSTANCE__@@I@Z
_TEXT	SEGMENT PARA USE32 PUBLIC 'CODE'
_TEXT	ENDS
;	COMDAT ?_AtlGetStringResourceImage@ATL@@YAPBUATLSTRINGRESOURCEIMAGE@1@PAUHINSTANCE__@@PAUHRSRC__@@I@Z
_TEXT	SEGMENT PARA USE32 PUBLIC 'CODE'
_TEXT	ENDS
;	COMDAT ?GetBaseTypeLength@?$ChTraitsCRT@G@ATL@@SAHPBGH@Z
_TEXT	SEGMENT PARA USE32 PUBLIC 'CODE'
_TEXT	ENDS
;	COMDAT ?ConvertToBaseType@?$ChTraitsCRT@G@ATL@@SAXPAGHPBGH@Z
_TEXT	SEGMENT PARA USE32 PUBLIC 'CODE'
_TEXT	ENDS
;	COMDAT ??_C@_0FB@BCKJDECD@c?3?2program?5files?2microsoft?5visua@
CONST	SEGMENT DWORD USE32 PUBLIC 'CONST'
CONST	ENDS
;	COMDAT ??_C@_1FC@BMOLDHIO@?$AAW?$AAa?$AAr?$AAn?$AAi?$AAn?$AAg?$AA?3?$AA?5?$AAi?$AAm?$AAp?$AAl?$AAi?$AAc?$AAi?$AAt?$AA?5?$AAL?$AAo@
CONST	SEGMENT DWORD USE32 PUBLIC 'CONST'
CONST	ENDS
;	COMDAT ??_C@_11LOCGONAA@?$AA?$AA@
CONST	SEGMENT DWORD USE32 PUBLIC 'CONST'
CONST	ENDS
;	COMDAT ??4?$CStringT@GV?$StrTraitMFC@GV?$ChTraitsCRT@G@ATL@@@@@ATL@@QAEAAV01@PBG@Z
_TEXT	SEGMENT PARA USE32 PUBLIC 'CODE'
_TEXT	ENDS
;	COMDAT ??4?$CSimpleStringT@G$0A@@ATL@@QAEAAV01@PBG@Z
_TEXT	SEGMENT PARA USE32 PUBLIC 'CODE'
_TEXT	ENDS
;	COMDAT ?SetString@?$CSimpleStringT@G$0A@@ATL@@QAEXPBG@Z
_TEXT	SEGMENT PARA USE32 PUBLIC 'CODE'
_TEXT	ENDS
;	COMDAT ?StringLength@?$CSimpleStringT@G$0A@@ATL@@SAHPBG@Z
_TEXT	SEGMENT PARA USE32 PUBLIC 'CODE'
_TEXT	ENDS
;	COMDAT ??1?$CStringT@GV?$StrTraitMFC@GV?$ChTraitsCRT@G@ATL@@@@@ATL@@QAE@XZ
_TEXT	SEGMENT PARA USE32 PUBLIC 'CODE'
_TEXT	ENDS
;	COMDAT ??0?$CStringT@GV?$StrTraitMFC@GV?$ChTraitsCRT@G@ATL@@@@@ATL@@QAE@XZ
_TEXT	SEGMENT PARA USE32 PUBLIC 'CODE'
_TEXT	ENDS
;	COMDAT ??_7CDAspectText@@6B@
CONST	SEGMENT DWORD USE32 PUBLIC 'CONST'
CONST	ENDS
;	COMDAT ?classCDAspectText@CDAspectText@@2UCRuntimeClass@@B
CONST	SEGMENT DWORD USE32 PUBLIC 'CONST'
CONST	ENDS
sxdata	SEGMENT DWORD USE32 'SXDATA'
sxdata	ENDS
FLAT	GROUP _DATA, CONST, _BSS
	ASSUME	CS: FLAT, DS: FLAT, SS: FLAT
endif

INCLUDELIB LIBCMTD
INCLUDELIB OLDNAMES

PUBLIC	?classCDAspectText@CDAspectText@@2UCRuntimeClass@@B ; CDAspectText::classCDAspectText
PUBLIC	??_C@_0N@FLIOKPKG@CDAspectText?$AA@		; `string'
EXTRN	?classCDaoRecordset@CDaoRecordset@@2UCRuntimeClass@@B:BYTE ; CDaoRecordset::classCDaoRecordset
_DATA	SEGMENT
_THIS_FILE DB	'c:\astrow32dev\tbt32\daspecttext1.cpp', 00H
_DATA	ENDS
;	COMDAT ??_C@_0N@FLIOKPKG@CDAspectText?$AA@
CONST	SEGMENT
??_C@_0N@FLIOKPKG@CDAspectText?$AA@ DB 'CDAspectText', 00H ; `string'
CONST	ENDS
;	COMDAT ?classCDAspectText@CDAspectText@@2UCRuntimeClass@@B
CONST	SEGMENT
?classCDAspectText@CDAspectText@@2UCRuntimeClass@@B DD FLAT:??_C@_0N@FLIOKPKG@CDAspectText?$AA@ ; CDAspectText::classCDAspectText
	DD	0b8H
	DD	0ffffH
	DD	00H
	DD	FLAT:?classCDaoRecordset@CDaoRecordset@@2UCRuntimeClass@@B
	DD	00H
	DD	00H
CONST	ENDS
PUBLIC	?GetRuntimeClass@CDAspectText@@UBEPAUCRuntimeClass@@XZ ; CDAspectText::GetRuntimeClass
EXTRN	__RTC_InitBase:NEAR
EXTRN	__RTC_Shutdown:NEAR
;	COMDAT rtc$IMZ
; File c:\astrow32dev\tbt32\daspecttext1.cpp
rtc$IMZ	SEGMENT
__RTC_InitBase.rtc$IMZ DD FLAT:__RTC_InitBase
rtc$IMZ	ENDS
;	COMDAT rtc$TMZ
rtc$TMZ	SEGMENT
__RTC_Shutdown.rtc$TMZ DD FLAT:__RTC_Shutdown
; Function compile flags: /Odt /RTCcsu /ZI
rtc$TMZ	ENDS
;	COMDAT ?GetRuntimeClass@CDAspectText@@UBEPAUCRuntimeClass@@XZ
_TEXT	SEGMENT
_this$ = -8						; size = 4
?GetRuntimeClass@CDAspectText@@UBEPAUCRuntimeClass@@XZ PROC NEAR ; CDAspectText::GetRuntimeClass, COMDAT
; _this$ = ecx

; 19   : IMPLEMENT_DYNAMIC(CDAspectText, CDaoRecordset)

	push	ebp
	mov	ebp, esp
	sub	esp, 204				; 000000ccH
	push	ebx
	push	esi
	push	edi
	push	ecx
	lea	edi, DWORD PTR [ebp-204]
	mov	ecx, 51					; 00000033H
	mov	eax, -858993460				; ccccccccH
	rep stosd
	pop	ecx
	mov	DWORD PTR _this$[ebp], ecx
	mov	eax, OFFSET FLAT:?classCDAspectText@CDAspectText@@2UCRuntimeClass@@B ; CDAspectText::classCDAspectText
	pop	edi
	pop	esi
	pop	ebx
	mov	esp, ebp
	pop	ebp
	ret	0
?GetRuntimeClass@CDAspectText@@UBEPAUCRuntimeClass@@XZ ENDP ; CDAspectText::GetRuntimeClass
_TEXT	ENDS
PUBLIC	??_C@_11LOCGONAA@?$AA?$AA@			; `string'
PUBLIC	??0CDAspectText@@QAE@PAVCDaoDatabase@@@Z	; CDAspectText::CDAspectText
PUBLIC	?GetDefaultDBName@CDAspectText@@UAE?AV?$CStringT@GV?$StrTraitMFC@GV?$ChTraitsCRT@G@ATL@@@@@ATL@@XZ ; CDAspectText::GetDefaultDBName
PUBLIC	?GetDefaultSQL@CDAspectText@@UAE?AV?$CStringT@GV?$StrTraitMFC@GV?$ChTraitsCRT@G@ATL@@@@@ATL@@XZ ; CDAspectText::GetDefaultSQL
PUBLIC	?DoFieldExchange@CDAspectText@@UAEXPAVCDaoFieldExchange@@@Z ; CDAspectText::DoFieldExchange
PUBLIC	?AssertValid@CDAspectText@@UBEXXZ		; CDAspectText::AssertValid
PUBLIC	?Dump@CDAspectText@@UBEXAAVCDumpContext@@@Z	; CDAspectText::Dump
PUBLIC	??_7CDAspectText@@6B@				; CDAspectText::`vftable'
PUBLIC	??_GCDAspectText@@UAEPAXI@Z			; CDAspectText::`scalar deleting destructor'
PUBLIC	??0?$CStringT@GV?$StrTraitMFC@GV?$ChTraitsCRT@G@ATL@@@@@ATL@@QAE@XZ ; ATL::CStringT<unsigned short,StrTraitMFC<unsigned short,ATL::ChTraitsCRT<unsigned short> > >::CStringT<unsigned short,StrTraitMFC<unsigned short,ATL::ChTraitsCRT<unsigned short> > >
PUBLIC	??1?$CStringT@GV?$StrTraitMFC@GV?$ChTraitsCRT@G@ATL@@@@@ATL@@QAE@XZ ; ATL::CStringT<unsigned short,StrTraitMFC<unsigned short,ATL::ChTraitsCRT<unsigned short> > >::~CStringT<unsigned short,StrTraitMFC<unsigned short,ATL::ChTraitsCRT<unsigned short> > >
PUBLIC	??4?$CStringT@GV?$StrTraitMFC@GV?$ChTraitsCRT@G@ATL@@@@@ATL@@QAEAAV01@PBG@Z ; ATL::CStringT<unsigned short,StrTraitMFC<unsigned short,ATL::ChTraitsCRT<unsigned short> > >::operator=
EXTRN	?Serialize@CObject@@UAEXAAVCArchive@@@Z:NEAR	; CObject::Serialize
EXTRN	??0CDaoRecordset@@QAE@PAVCDaoDatabase@@@Z:NEAR	; CDaoRecordset::CDaoRecordset
EXTRN	?Open@CDaoRecordset@@UAEXHPBGH@Z:NEAR		; CDaoRecordset::Open
EXTRN	?Open@CDaoRecordset@@UAEXPAVCDaoQueryDef@@HH@Z:NEAR ; CDaoRecordset::Open
EXTRN	?Open@CDaoRecordset@@UAEXPAVCDaoTableDef@@HH@Z:NEAR ; CDaoRecordset::Open
EXTRN	?Close@CDaoRecordset@@UAEXXZ:NEAR		; CDaoRecordset::Close
EXTRN	?Move@CDaoRecordset@@UAEXJ@Z:NEAR		; CDaoRecordset::Move
EXTRN	?Find@CDaoRecordset@@UAEHJPBG@Z:NEAR		; CDaoRecordset::Find
EXTRN	?AddNew@CDaoRecordset@@UAEXXZ:NEAR		; CDaoRecordset::AddNew
EXTRN	?Edit@CDaoRecordset@@UAEXXZ:NEAR		; CDaoRecordset::Edit
EXTRN	?Update@CDaoRecordset@@UAEXXZ:NEAR		; CDaoRecordset::Update
EXTRN	?Delete@CDaoRecordset@@UAEXXZ:NEAR		; CDaoRecordset::Delete
EXTRN	?CancelUpdate@CDaoRecordset@@UAEXXZ:NEAR	; CDaoRecordset::CancelUpdate
EXTRN	?GetFieldValue@CDaoRecordset@@UAEXPBGAAVCOleVariant@@@Z:NEAR ; CDaoRecordset::GetFieldValue
EXTRN	?GetFieldValue@CDaoRecordset@@UAEXHAAVCOleVariant@@@Z:NEAR ; CDaoRecordset::GetFieldValue
EXTRN	?SetFieldValue@CDaoRecordset@@UAEXPBGABVCOleVariant@@@Z:NEAR ; CDaoRecordset::SetFieldValue
EXTRN	?SetFieldValue@CDaoRecordset@@UAEXHABVCOleVariant@@@Z:NEAR ; CDaoRecordset::SetFieldValue
EXTRN	?GetParamValue@CDaoRecordset@@UAE?AVCOleVariant@@PBG@Z:NEAR ; CDaoRecordset::GetParamValue
EXTRN	?GetParamValue@CDaoRecordset@@UAE?AVCOleVariant@@H@Z:NEAR ; CDaoRecordset::GetParamValue
EXTRN	?SetParamValue@CDaoRecordset@@UAEXPBGABVCOleVariant@@@Z:NEAR ; CDaoRecordset::SetParamValue
EXTRN	?SetParamValue@CDaoRecordset@@UAEXHABVCOleVariant@@@Z:NEAR ; CDaoRecordset::SetParamValue
EXTRN	?Requery@CDaoRecordset@@UAEXXZ:NEAR		; CDaoRecordset::Requery
EXTRN	??1CDaoRecordset@@UAE@XZ:NEAR			; CDaoRecordset::~CDaoRecordset
EXTRN	?GetFieldValue@CDaoRecordset@@UAE?AVCOleVariant@@PBG@Z:NEAR ; CDaoRecordset::GetFieldValue
EXTRN	?GetFieldValue@CDaoRecordset@@UAE?AVCOleVariant@@H@Z:NEAR ; CDaoRecordset::GetFieldValue
EXTRN	??_ECDAspectText@@UAEPAXI@Z:NEAR		; CDAspectText::`vector deleting destructor'
EXTRN	?SetDirtyFields@CDaoRecordset@@MAEXXZ:NEAR	; CDaoRecordset::SetDirtyFields
EXTRN	?ThrowDaoException@CDaoRecordset@@MAEXH@Z:NEAR	; CDaoRecordset::ThrowDaoException
EXTRN	__except_list:DWORD
EXTRN	__RTC_CheckEsp:NEAR
EXTRN	___CxxFrameHandler:NEAR
;	COMDAT xdata$x
xdata$x	SEGMENT
__unwindtable$??0CDAspectText@@QAE@PAVCDaoDatabase@@@Z DD 0ffffffffH
	DD	FLAT:__unwindfunclet$??0CDAspectText@@QAE@PAVCDaoDatabase@@@Z$0
	DD	00H
	DD	FLAT:__unwindfunclet$??0CDAspectText@@QAE@PAVCDaoDatabase@@@Z$1
	DD	01H
	DD	FLAT:__unwindfunclet$??0CDAspectText@@QAE@PAVCDaoDatabase@@@Z$2
	DD	02H
	DD	FLAT:__unwindfunclet$??0CDAspectText@@QAE@PAVCDaoDatabase@@@Z$3
	DD	03H
	DD	FLAT:__unwindfunclet$??0CDAspectText@@QAE@PAVCDaoDatabase@@@Z$4
	DD	04H
	DD	FLAT:__unwindfunclet$??0CDAspectText@@QAE@PAVCDaoDatabase@@@Z$5
	DD	05H
	DD	FLAT:__unwindfunclet$??0CDAspectText@@QAE@PAVCDaoDatabase@@@Z$6
__ehfuncinfo$??0CDAspectText@@QAE@PAVCDaoDatabase@@@Z DD 019930520H
	DD	07H
	DD	FLAT:__unwindtable$??0CDAspectText@@QAE@PAVCDaoDatabase@@@Z
	DD	2 DUP(00H)
	DD	2 DUP(00H)
xdata$x	ENDS
;	COMDAT ??_7CDAspectText@@6B@
CONST	SEGMENT
??_7CDAspectText@@6B@ DD FLAT:?GetRuntimeClass@CDAspectText@@UBEPAUCRuntimeClass@@XZ ; CDAspectText::`vftable'
	DD	FLAT:??_ECDAspectText@@UAEPAXI@Z
	DD	FLAT:?Serialize@CObject@@UAEXAAVCArchive@@@Z
	DD	FLAT:?AssertValid@CDAspectText@@UBEXXZ
	DD	FLAT:?Dump@CDAspectText@@UBEXAAVCDumpContext@@@Z
	DD	FLAT:?Open@CDaoRecordset@@UAEXPAVCDaoTableDef@@HH@Z
	DD	FLAT:?Open@CDaoRecordset@@UAEXPAVCDaoQueryDef@@HH@Z
	DD	FLAT:?Open@CDaoRecordset@@UAEXHPBGH@Z
	DD	FLAT:?Close@CDaoRecordset@@UAEXXZ
	DD	FLAT:?Move@CDaoRecordset@@UAEXJ@Z
	DD	FLAT:?Find@CDaoRecordset@@UAEHJPBG@Z
	DD	FLAT:?AddNew@CDaoRecordset@@UAEXXZ
	DD	FLAT:?Edit@CDaoRecordset@@UAEXXZ
	DD	FLAT:?Update@CDaoRecordset@@UAEXXZ
	DD	FLAT:?Delete@CDaoRecordset@@UAEXXZ
	DD	FLAT:?CancelUpdate@CDaoRecordset@@UAEXXZ
	DD	FLAT:?GetFieldValue@CDaoRecordset@@UAE?AVCOleVariant@@H@Z
	DD	FLAT:?GetFieldValue@CDaoRecordset@@UAE?AVCOleVariant@@PBG@Z
	DD	FLAT:?GetFieldValue@CDaoRecordset@@UAEXHAAVCOleVariant@@@Z
	DD	FLAT:?GetFieldValue@CDaoRecordset@@UAEXPBGAAVCOleVariant@@@Z
	DD	FLAT:?SetFieldValue@CDaoRecordset@@UAEXHABVCOleVariant@@@Z
	DD	FLAT:?SetFieldValue@CDaoRecordset@@UAEXPBGABVCOleVariant@@@Z
	DD	FLAT:?GetParamValue@CDaoRecordset@@UAE?AVCOleVariant@@H@Z
	DD	FLAT:?GetParamValue@CDaoRecordset@@UAE?AVCOleVariant@@PBG@Z
	DD	FLAT:?SetParamValue@CDaoRecordset@@UAEXHABVCOleVariant@@@Z
	DD	FLAT:?SetParamValue@CDaoRecordset@@UAEXPBGABVCOleVariant@@@Z
	DD	FLAT:?Requery@CDaoRecordset@@UAEXXZ
	DD	FLAT:?GetDefaultDBName@CDAspectText@@UAE?AV?$CStringT@GV?$StrTraitMFC@GV?$ChTraitsCRT@G@ATL@@@@@ATL@@XZ
	DD	FLAT:?GetDefaultSQL@CDAspectText@@UAE?AV?$CStringT@GV?$StrTraitMFC@GV?$ChTraitsCRT@G@ATL@@@@@ATL@@XZ
	DD	FLAT:?DoFieldExchange@CDAspectText@@UAEXPAVCDaoFieldExchange@@@Z
	DD	FLAT:?SetDirtyFields@CDaoRecordset@@MAEXXZ
	DD	FLAT:?ThrowDaoException@CDaoRecordset@@MAEXH@Z
CONST	ENDS
;	COMDAT ??_C@_11LOCGONAA@?$AA?$AA@
CONST	SEGMENT
??_C@_11LOCGONAA@?$AA?$AA@ DB 00H, 00H			; `string'
; Function compile flags: /Odt /RTCcsu /ZI
CONST	ENDS
;	COMDAT ??0CDAspectText@@QAE@PAVCDaoDatabase@@@Z
_TEXT	SEGMENT
_this$ = -20						; size = 4
__$EHRec$ = -12						; size = 12
_pdb$ = 8						; size = 4
??0CDAspectText@@QAE@PAVCDaoDatabase@@@Z PROC NEAR	; CDAspectText::CDAspectText, COMDAT
; _this$ = ecx

; 23   : {

	push	ebp
	mov	ebp, esp
	push	-1
	push	__ehhandler$??0CDAspectText@@QAE@PAVCDaoDatabase@@@Z
	mov	eax, DWORD PTR fs:__except_list
	push	eax
	mov	DWORD PTR fs:__except_list, esp
	sub	esp, 204				; 000000ccH
	push	ebx
	push	esi
	push	edi
	push	ecx
	lea	edi, DWORD PTR [ebp-216]
	mov	ecx, 51					; 00000033H
	mov	eax, -858993460				; ccccccccH
	rep stosd
	pop	ecx
	mov	DWORD PTR _this$[ebp], ecx
	mov	eax, DWORD PTR _pdb$[ebp]
	push	eax
	mov	ecx, DWORD PTR _this$[ebp]
	call	??0CDaoRecordset@@QAE@PAVCDaoDatabase@@@Z ; CDaoRecordset::CDaoRecordset
	mov	DWORD PTR __$EHRec$[ebp+8], 0
	mov	eax, DWORD PTR _this$[ebp]
	mov	DWORD PTR [eax], OFFSET FLAT:??_7CDAspectText@@6B@
	mov	ecx, DWORD PTR _this$[ebp]
	add	ecx, 152				; 00000098H
	call	??0?$CStringT@GV?$StrTraitMFC@GV?$ChTraitsCRT@G@ATL@@@@@ATL@@QAE@XZ ; ATL::CStringT<unsigned short,StrTraitMFC<unsigned short,ATL::ChTraitsCRT<unsigned short> > >::CStringT<unsigned short,StrTraitMFC<unsigned short,ATL::ChTraitsCRT<unsigned short> > >
	mov	BYTE PTR __$EHRec$[ebp+8], 1
	mov	ecx, DWORD PTR _this$[ebp]
	add	ecx, 156				; 0000009cH
	call	??0?$CStringT@GV?$StrTraitMFC@GV?$ChTraitsCRT@G@ATL@@@@@ATL@@QAE@XZ ; ATL::CStringT<unsigned short,StrTraitMFC<unsigned short,ATL::ChTraitsCRT<unsigned short> > >::CStringT<unsigned short,StrTraitMFC<unsigned short,ATL::ChTraitsCRT<unsigned short> > >
	mov	BYTE PTR __$EHRec$[ebp+8], 2
	mov	ecx, DWORD PTR _this$[ebp]
	add	ecx, 160				; 000000a0H
	call	??0?$CStringT@GV?$StrTraitMFC@GV?$ChTraitsCRT@G@ATL@@@@@ATL@@QAE@XZ ; ATL::CStringT<unsigned short,StrTraitMFC<unsigned short,ATL::ChTraitsCRT<unsigned short> > >::CStringT<unsigned short,StrTraitMFC<unsigned short,ATL::ChTraitsCRT<unsigned short> > >
	mov	BYTE PTR __$EHRec$[ebp+8], 3
	mov	ecx, DWORD PTR _this$[ebp]
	add	ecx, 168				; 000000a8H
	call	??0?$CStringT@GV?$StrTraitMFC@GV?$ChTraitsCRT@G@ATL@@@@@ATL@@QAE@XZ ; ATL::CStringT<unsigned short,StrTraitMFC<unsigned short,ATL::ChTraitsCRT<unsigned short> > >::CStringT<unsigned short,StrTraitMFC<unsigned short,ATL::ChTraitsCRT<unsigned short> > >
	mov	BYTE PTR __$EHRec$[ebp+8], 4
	mov	ecx, DWORD PTR _this$[ebp]
	add	ecx, 176				; 000000b0H
	call	??0?$CStringT@GV?$StrTraitMFC@GV?$ChTraitsCRT@G@ATL@@@@@ATL@@QAE@XZ ; ATL::CStringT<unsigned short,StrTraitMFC<unsigned short,ATL::ChTraitsCRT<unsigned short> > >::CStringT<unsigned short,StrTraitMFC<unsigned short,ATL::ChTraitsCRT<unsigned short> > >
	mov	BYTE PTR __$EHRec$[ebp+8], 5
	mov	ecx, DWORD PTR _this$[ebp]
	add	ecx, 180				; 000000b4H
	call	??0?$CStringT@GV?$StrTraitMFC@GV?$ChTraitsCRT@G@ATL@@@@@ATL@@QAE@XZ ; ATL::CStringT<unsigned short,StrTraitMFC<unsigned short,ATL::ChTraitsCRT<unsigned short> > >::CStringT<unsigned short,StrTraitMFC<unsigned short,ATL::ChTraitsCRT<unsigned short> > >
	mov	BYTE PTR __$EHRec$[ebp+8], 6

; 24   : 	//{{AFX_FIELD_INIT(CDAspectText)
; 25   : 	m_TextType = _T("");

	push	OFFSET FLAT:??_C@_11LOCGONAA@?$AA?$AA@
	mov	ecx, DWORD PTR _this$[ebp]
	add	ecx, 152				; 00000098H
	call	??4?$CStringT@GV?$StrTraitMFC@GV?$ChTraitsCRT@G@ATL@@@@@ATL@@QAEAAV01@PBG@Z ; ATL::CStringT<unsigned short,StrTraitMFC<unsigned short,ATL::ChTraitsCRT<unsigned short> > >::operator=

; 26   : 	m_Planet1 = _T("");

	push	OFFSET FLAT:??_C@_11LOCGONAA@?$AA?$AA@
	mov	ecx, DWORD PTR _this$[ebp]
	add	ecx, 156				; 0000009cH
	call	??4?$CStringT@GV?$StrTraitMFC@GV?$ChTraitsCRT@G@ATL@@@@@ATL@@QAEAAV01@PBG@Z ; ATL::CStringT<unsigned short,StrTraitMFC<unsigned short,ATL::ChTraitsCRT<unsigned short> > >::operator=

; 27   : 	m_Planet2 = _T("");

	push	OFFSET FLAT:??_C@_11LOCGONAA@?$AA?$AA@
	mov	ecx, DWORD PTR _this$[ebp]
	add	ecx, 160				; 000000a0H
	call	??4?$CStringT@GV?$StrTraitMFC@GV?$ChTraitsCRT@G@ATL@@@@@ATL@@QAEAAV01@PBG@Z ; ATL::CStringT<unsigned short,StrTraitMFC<unsigned short,ATL::ChTraitsCRT<unsigned short> > >::operator=

; 28   : 	m_Planet1num = 0;

	mov	eax, DWORD PTR _this$[ebp]
	mov	WORD PTR [eax+164], 0

; 29   : 	m_Planet2num = 0;

	mov	eax, DWORD PTR _this$[ebp]
	mov	WORD PTR [eax+166], 0

; 30   : 	m_Aspect = _T("");

	push	OFFSET FLAT:??_C@_11LOCGONAA@?$AA?$AA@
	mov	ecx, DWORD PTR _this$[ebp]
	add	ecx, 168				; 000000a8H
	call	??4?$CStringT@GV?$StrTraitMFC@GV?$ChTraitsCRT@G@ATL@@@@@ATL@@QAEAAV01@PBG@Z ; ATL::CStringT<unsigned short,StrTraitMFC<unsigned short,ATL::ChTraitsCRT<unsigned short> > >::operator=

; 31   : 	m_Aspectnum = 0;

	mov	eax, DWORD PTR _this$[ebp]
	mov	WORD PTR [eax+172], 0

; 32   : 	m_Text = _T("");

	push	OFFSET FLAT:??_C@_11LOCGONAA@?$AA?$AA@
	mov	ecx, DWORD PTR _this$[ebp]
	add	ecx, 176				; 000000b0H
	call	??4?$CStringT@GV?$StrTraitMFC@GV?$ChTraitsCRT@G@ATL@@@@@ATL@@QAEAAV01@PBG@Z ; ATL::CStringT<unsigned short,StrTraitMFC<unsigned short,ATL::ChTraitsCRT<unsigned short> > >::operator=

; 33   : 	m_Lang = _T("");

	push	OFFSET FLAT:??_C@_11LOCGONAA@?$AA?$AA@
	mov	ecx, DWORD PTR _this$[ebp]
	add	ecx, 180				; 000000b4H
	call	??4?$CStringT@GV?$StrTraitMFC@GV?$ChTraitsCRT@G@ATL@@@@@ATL@@QAEAAV01@PBG@Z ; ATL::CStringT<unsigned short,StrTraitMFC<unsigned short,ATL::ChTraitsCRT<unsigned short> > >::operator=

; 34   : 	m_nFields = 9;

	mov	eax, DWORD PTR _this$[ebp]
	mov	DWORD PTR [eax+20], 9

; 35   : 	//}}AFX_FIELD_INIT
; 36   : 	m_nDefaultType = dbOpenDynaset;

	mov	eax, DWORD PTR _this$[ebp]
	mov	DWORD PTR [eax+132], 2

; 37   : }

	mov	DWORD PTR __$EHRec$[ebp+8], -1
	mov	eax, DWORD PTR _this$[ebp]
	mov	ecx, DWORD PTR __$EHRec$[ebp]
	mov	DWORD PTR fs:__except_list, ecx
	pop	edi
	pop	esi
	pop	ebx
	add	esp, 216				; 000000d8H
	cmp	ebp, esp
	call	__RTC_CheckEsp
	mov	esp, ebp
	pop	ebp
	ret	4
_TEXT	ENDS
;	COMDAT text$x
text$x	SEGMENT
__unwindfunclet$??0CDAspectText@@QAE@PAVCDaoDatabase@@@Z$0:
	mov	ecx, DWORD PTR _this$[ebp]
	jmp	??1CDaoRecordset@@UAE@XZ		; CDaoRecordset::~CDaoRecordset
__unwindfunclet$??0CDAspectText@@QAE@PAVCDaoDatabase@@@Z$1:
	mov	ecx, DWORD PTR _this$[ebp]
	add	ecx, 152				; 00000098H
	jmp	??1?$CStringT@GV?$StrTraitMFC@GV?$ChTraitsCRT@G@ATL@@@@@ATL@@QAE@XZ ; ATL::CStringT<unsigned short,StrTraitMFC<unsigned short,ATL::ChTraitsCRT<unsigned short> > >::~CStringT<unsigned short,StrTraitMFC<unsigned short,ATL::ChTraitsCRT<unsigned short> > >
__unwindfunclet$??0CDAspectText@@QAE@PAVCDaoDatabase@@@Z$2:
	mov	ecx, DWORD PTR _this$[ebp]
	add	ecx, 156				; 0000009cH
	jmp	??1?$CStringT@GV?$StrTraitMFC@GV?$ChTraitsCRT@G@ATL@@@@@ATL@@QAE@XZ ; ATL::CStringT<unsigned short,StrTraitMFC<unsigned short,ATL::ChTraitsCRT<unsigned short> > >::~CStringT<unsigned short,StrTraitMFC<unsigned short,ATL::ChTraitsCRT<unsigned short> > >
__unwindfunclet$??0CDAspectText@@QAE@PAVCDaoDatabase@@@Z$3:
	mov	ecx, DWORD PTR _this$[ebp]
	add	ecx, 160				; 000000a0H
	jmp	??1?$CStringT@GV?$StrTraitMFC@GV?$ChTraitsCRT@G@ATL@@@@@ATL@@QAE@XZ ; ATL::CStringT<unsigned short,StrTraitMFC<unsigned short,ATL::ChTraitsCRT<unsigned short> > >::~CStringT<unsigned short,StrTraitMFC<unsigned short,ATL::ChTraitsCRT<unsigned short> > >
__unwindfunclet$??0CDAspectText@@QAE@PAVCDaoDatabase@@@Z$4:
	mov	ecx, DWORD PTR _this$[ebp]
	add	ecx, 168				; 000000a8H
	jmp	??1?$CStringT@GV?$StrTraitMFC@GV?$ChTraitsCRT@G@ATL@@@@@ATL@@QAE@XZ ; ATL::CStringT<unsigned short,StrTraitMFC<unsigned short,ATL::ChTraitsCRT<unsigned short> > >::~CStringT<unsigned short,StrTraitMFC<unsigned short,ATL::ChTraitsCRT<unsigned short> > >
__unwindfunclet$??0CDAspectText@@QAE@PAVCDaoDatabase@@@Z$5:
	mov	ecx, DWORD PTR _this$[ebp]
	add	ecx, 176				; 000000b0H
	jmp	??1?$CStringT@GV?$StrTraitMFC@GV?$ChTraitsCRT@G@ATL@@@@@ATL@@QAE@XZ ; ATL::CStringT<unsigned short,StrTraitMFC<unsigned short,ATL::ChTraitsCRT<unsigned short> > >::~CStringT<unsigned short,StrTraitMFC<unsigned short,ATL::ChTraitsCRT<unsigned short> > >
__unwindfunclet$??0CDAspectText@@QAE@PAVCDaoDatabase@@@Z$6:
	mov	ecx, DWORD PTR _this$[ebp]
	add	ecx, 180				; 000000b4H
	jmp	??1?$CStringT@GV?$StrTraitMFC@GV?$ChTraitsCRT@G@ATL@@@@@ATL@@QAE@XZ ; ATL::CStringT<unsigned short,StrTraitMFC<unsigned short,ATL::ChTraitsCRT<unsigned short> > >::~CStringT<unsigned short,StrTraitMFC<unsigned short,ATL::ChTraitsCRT<unsigned short> > >
__ehhandler$??0CDAspectText@@QAE@PAVCDaoDatabase@@@Z:
	mov	eax, OFFSET FLAT:__ehfuncinfo$??0CDAspectText@@QAE@PAVCDaoDatabase@@@Z
	jmp	___CxxFrameHandler
text$x	ENDS
??0CDAspectText@@QAE@PAVCDaoDatabase@@@Z ENDP		; CDAspectText::CDAspectText
PUBLIC	??1CDAspectText@@UAE@XZ				; CDAspectText::~CDAspectText
EXTRN	??3CObject@@SGXPAX@Z:NEAR			; CObject::operator delete
; Function compile flags: /Odt /RTCcsu /ZI
;	COMDAT ??_GCDAspectText@@UAEPAXI@Z
_TEXT	SEGMENT
_this$ = -8						; size = 4
___flags$ = 8						; size = 4
??_GCDAspectText@@UAEPAXI@Z PROC NEAR			; CDAspectText::`scalar deleting destructor', COMDAT
; _this$ = ecx
	push	ebp
	mov	ebp, esp
	sub	esp, 204				; 000000ccH
	push	ebx
	push	esi
	push	edi
	push	ecx
	lea	edi, DWORD PTR [ebp-204]
	mov	ecx, 51					; 00000033H
	mov	eax, -858993460				; ccccccccH
	rep stosd
	pop	ecx
	mov	DWORD PTR _this$[ebp], ecx
	mov	ecx, DWORD PTR _this$[ebp]
	call	??1CDAspectText@@UAE@XZ
	mov	eax, DWORD PTR ___flags$[ebp]
	and	eax, 1
	je	SHORT $L92993
	mov	eax, DWORD PTR _this$[ebp]
	push	eax
	call	??3CObject@@SGXPAX@Z			; CObject::operator delete
$L92993:
	mov	eax, DWORD PTR _this$[ebp]
	pop	edi
	pop	esi
	pop	ebx
	add	esp, 204				; 000000ccH
	cmp	ebp, esp
	call	__RTC_CheckEsp
	mov	esp, ebp
	pop	ebp
	ret	4
??_GCDAspectText@@UAEPAXI@Z ENDP			; CDAspectText::`scalar deleting destructor'
; Function compile flags: /Odt /RTCcsu /ZI
_TEXT	ENDS
;	COMDAT ??1CDAspectText@@UAE@XZ
_TEXT	SEGMENT
_this$ = -8						; size = 4
??1CDAspectText@@UAE@XZ PROC NEAR			; CDAspectText::~CDAspectText, COMDAT
; _this$ = ecx
	push	ebp
	mov	ebp, esp
	sub	esp, 204				; 000000ccH
	push	ebx
	push	esi
	push	edi
	push	ecx
	lea	edi, DWORD PTR [ebp-204]
	mov	ecx, 51					; 00000033H
	mov	eax, -858993460				; ccccccccH
	rep stosd
	pop	ecx
	mov	DWORD PTR _this$[ebp], ecx
	mov	ecx, DWORD PTR _this$[ebp]
	add	ecx, 180				; 000000b4H
	call	??1?$CStringT@GV?$StrTraitMFC@GV?$ChTraitsCRT@G@ATL@@@@@ATL@@QAE@XZ ; ATL::CStringT<unsigned short,StrTraitMFC<unsigned short,ATL::ChTraitsCRT<unsigned short> > >::~CStringT<unsigned short,StrTraitMFC<unsigned short,ATL::ChTraitsCRT<unsigned short> > >
	mov	ecx, DWORD PTR _this$[ebp]
	add	ecx, 176				; 000000b0H
	call	??1?$CStringT@GV?$StrTraitMFC@GV?$ChTraitsCRT@G@ATL@@@@@ATL@@QAE@XZ ; ATL::CStringT<unsigned short,StrTraitMFC<unsigned short,ATL::ChTraitsCRT<unsigned short> > >::~CStringT<unsigned short,StrTraitMFC<unsigned short,ATL::ChTraitsCRT<unsigned short> > >
	mov	ecx, DWORD PTR _this$[ebp]
	add	ecx, 168				; 000000a8H
	call	??1?$CStringT@GV?$StrTraitMFC@GV?$ChTraitsCRT@G@ATL@@@@@ATL@@QAE@XZ ; ATL::CStringT<unsigned short,StrTraitMFC<unsigned short,ATL::ChTraitsCRT<unsigned short> > >::~CStringT<unsigned short,StrTraitMFC<unsigned short,ATL::ChTraitsCRT<unsigned short> > >
	mov	ecx, DWORD PTR _this$[ebp]
	add	ecx, 160				; 000000a0H
	call	??1?$CStringT@GV?$StrTraitMFC@GV?$ChTraitsCRT@G@ATL@@@@@ATL@@QAE@XZ ; ATL::CStringT<unsigned short,StrTraitMFC<unsigned short,ATL::ChTraitsCRT<unsigned short> > >::~CStringT<unsigned short,StrTraitMFC<unsigned short,ATL::ChTraitsCRT<unsigned short> > >
	mov	ecx, DWORD PTR _this$[ebp]
	add	ecx, 156				; 0000009cH
	call	??1?$CStringT@GV?$StrTraitMFC@GV?$ChTraitsCRT@G@ATL@@@@@ATL@@QAE@XZ ; ATL::CStringT<unsigned short,StrTraitMFC<unsigned short,ATL::ChTraitsCRT<unsigned short> > >::~CStringT<unsigned short,StrTraitMFC<unsigned short,ATL::ChTraitsCRT<unsigned short> > >
	mov	ecx, DWORD PTR _this$[ebp]
	add	ecx, 152				; 00000098H
	call	??1?$CStringT@GV?$StrTraitMFC@GV?$ChTraitsCRT@G@ATL@@@@@ATL@@QAE@XZ ; ATL::CStringT<unsigned short,StrTraitMFC<unsigned short,ATL::ChTraitsCRT<unsigned short> > >::~CStringT<unsigned short,StrTraitMFC<unsigned short,ATL::ChTraitsCRT<unsigned short> > >
	mov	ecx, DWORD PTR _this$[ebp]
	call	??1CDaoRecordset@@UAE@XZ		; CDaoRecordset::~CDaoRecordset
	pop	edi
	pop	esi
	pop	ebx
	add	esp, 204				; 000000ccH
	cmp	ebp, esp
	call	__RTC_CheckEsp
	mov	esp, ebp
	pop	ebp
	ret	0
??1CDAspectText@@UAE@XZ ENDP				; CDAspectText::~CDAspectText
_TEXT	ENDS
EXTRN	?GetDatabaseNamePath@@YA?AV?$CStringT@GV?$StrTraitMFC@GV?$ChTraitsCRT@G@ATL@@@@@ATL@@XZ:NEAR ; GetDatabaseNamePath
; Function compile flags: /Odt /RTCcsu /ZI
;	COMDAT ?GetDefaultDBName@CDAspectText@@UAE?AV?$CStringT@GV?$StrTraitMFC@GV?$ChTraitsCRT@G@ATL@@@@@ATL@@XZ
_TEXT	SEGMENT
$T93175 = -212						; size = 4
_this$ = -8						; size = 4
___$ReturnUdt$ = 8					; size = 4
?GetDefaultDBName@CDAspectText@@UAE?AV?$CStringT@GV?$StrTraitMFC@GV?$ChTraitsCRT@G@ATL@@@@@ATL@@XZ PROC NEAR ; CDAspectText::GetDefaultDBName, COMDAT
; _this$ = ecx

; 41   : {

	push	ebp
	mov	ebp, esp
	sub	esp, 216				; 000000d8H
	push	ebx
	push	esi
	push	edi
	push	ecx
	lea	edi, DWORD PTR [ebp-216]
	mov	ecx, 54					; 00000036H
	mov	eax, -858993460				; ccccccccH
	rep stosd
	pop	ecx
	mov	DWORD PTR _this$[ebp], ecx
	mov	DWORD PTR $T93175[ebp], 0

; 42   : 	return GetDatabaseNamePath();

	mov	eax, DWORD PTR ___$ReturnUdt$[ebp]
	push	eax
	call	?GetDatabaseNamePath@@YA?AV?$CStringT@GV?$StrTraitMFC@GV?$ChTraitsCRT@G@ATL@@@@@ATL@@XZ ; GetDatabaseNamePath
	add	esp, 4
	mov	ecx, DWORD PTR $T93175[ebp]
	or	ecx, 1
	mov	DWORD PTR $T93175[ebp], ecx
	mov	eax, DWORD PTR ___$ReturnUdt$[ebp]

; 43   : }

	pop	edi
	pop	esi
	pop	ebx
	add	esp, 216				; 000000d8H
	cmp	ebp, esp
	call	__RTC_CheckEsp
	mov	esp, ebp
	pop	ebp
	ret	4
?GetDefaultDBName@CDAspectText@@UAE?AV?$CStringT@GV?$StrTraitMFC@GV?$ChTraitsCRT@G@ATL@@@@@ATL@@XZ ENDP ; CDAspectText::GetDefaultDBName
_TEXT	ENDS
PUBLIC	??_C@_1BK@BNCJDPCL@?$AA?$FL?$AAA?$AAs?$AAp?$AAe?$AAc?$AAt?$AAT?$AAe?$AAx?$AAt?$AA?$FN?$AA?$AA@ ; `string'
PUBLIC	??0?$CStringT@GV?$StrTraitMFC@GV?$ChTraitsCRT@G@ATL@@@@@ATL@@QAE@PBG@Z ; ATL::CStringT<unsigned short,StrTraitMFC<unsigned short,ATL::ChTraitsCRT<unsigned short> > >::CStringT<unsigned short,StrTraitMFC<unsigned short,ATL::ChTraitsCRT<unsigned short> > >
;	COMDAT ??_C@_1BK@BNCJDPCL@?$AA?$FL?$AAA?$AAs?$AAp?$AAe?$AAc?$AAt?$AAT?$AAe?$AAx?$AAt?$AA?$FN?$AA?$AA@
CONST	SEGMENT
??_C@_1BK@BNCJDPCL@?$AA?$FL?$AAA?$AAs?$AAp?$AAe?$AAc?$AAt?$AAT?$AAe?$AAx?$AAt?$AA?$FN?$AA?$AA@ DB '['
	DB	00H, 'A', 00H, 's', 00H, 'p', 00H, 'e', 00H, 'c', 00H, 't', 00H
	DB	'T', 00H, 'e', 00H, 'x', 00H, 't', 00H, ']', 00H, 00H, 00H ; `string'
; Function compile flags: /Odt /RTCcsu /ZI
CONST	ENDS
;	COMDAT ?GetDefaultSQL@CDAspectText@@UAE?AV?$CStringT@GV?$StrTraitMFC@GV?$ChTraitsCRT@G@ATL@@@@@ATL@@XZ
_TEXT	SEGMENT
$T93180 = -212						; size = 4
_this$ = -8						; size = 4
___$ReturnUdt$ = 8					; size = 4
?GetDefaultSQL@CDAspectText@@UAE?AV?$CStringT@GV?$StrTraitMFC@GV?$ChTraitsCRT@G@ATL@@@@@ATL@@XZ PROC NEAR ; CDAspectText::GetDefaultSQL, COMDAT
; _this$ = ecx

; 46   : {

	push	ebp
	mov	ebp, esp
	sub	esp, 216				; 000000d8H
	push	ebx
	push	esi
	push	edi
	push	ecx
	lea	edi, DWORD PTR [ebp-216]
	mov	ecx, 54					; 00000036H
	mov	eax, -858993460				; ccccccccH
	rep stosd
	pop	ecx
	mov	DWORD PTR _this$[ebp], ecx
	mov	DWORD PTR $T93180[ebp], 0

; 47   : 	return _T("[AspectText]");

	push	OFFSET FLAT:??_C@_1BK@BNCJDPCL@?$AA?$FL?$AAA?$AAs?$AAp?$AAe?$AAc?$AAt?$AAT?$AAe?$AAx?$AAt?$AA?$FN?$AA?$AA@
	mov	ecx, DWORD PTR ___$ReturnUdt$[ebp]
	call	??0?$CStringT@GV?$StrTraitMFC@GV?$ChTraitsCRT@G@ATL@@@@@ATL@@QAE@PBG@Z ; ATL::CStringT<unsigned short,StrTraitMFC<unsigned short,ATL::ChTraitsCRT<unsigned short> > >::CStringT<unsigned short,StrTraitMFC<unsigned short,ATL::ChTraitsCRT<unsigned short> > >
	mov	eax, DWORD PTR $T93180[ebp]
	or	eax, 1
	mov	DWORD PTR $T93180[ebp], eax
	mov	eax, DWORD PTR ___$ReturnUdt$[ebp]

; 48   : }

	pop	edi
	pop	esi
	pop	ebx
	add	esp, 216				; 000000d8H
	cmp	ebp, esp
	call	__RTC_CheckEsp
	mov	esp, ebp
	pop	ebp
	ret	4
?GetDefaultSQL@CDAspectText@@UAE?AV?$CStringT@GV?$StrTraitMFC@GV?$ChTraitsCRT@G@ATL@@@@@ATL@@XZ ENDP ; CDAspectText::GetDefaultSQL
_TEXT	ENDS
PUBLIC	??_C@_1BG@ILCPOCCL@?$AA?$FL?$AAT?$AAe?$AAx?$AAt?$AAT?$AAy?$AAp?$AAe?$AA?$FN?$AA?$AA@ ; `string'
PUBLIC	??_C@_1BE@CEAPAEGO@?$AA?$FL?$AAP?$AAl?$AAa?$AAn?$AAe?$AAt?$AA1?$AA?$FN?$AA?$AA@ ; `string'
PUBLIC	??_C@_1BE@KCJLHGMA@?$AA?$FL?$AAP?$AAl?$AAa?$AAn?$AAe?$AAt?$AA2?$AA?$FN?$AA?$AA@ ; `string'
PUBLIC	??_C@_1BK@EKCAFLLE@?$AA?$FL?$AAP?$AAl?$AAa?$AAn?$AAe?$AAt?$AA1?$AAn?$AAu?$AAm?$AA?$FN?$AA?$AA@ ; `string'
PUBLIC	??_C@_1BK@DNLOIJEE@?$AA?$FL?$AAP?$AAl?$AAa?$AAn?$AAe?$AAt?$AA2?$AAn?$AAu?$AAm?$AA?$FN?$AA?$AA@ ; `string'
PUBLIC	??_C@_1BC@DDBOPGB@?$AA?$FL?$AAA?$AAs?$AAp?$AAe?$AAc?$AAt?$AA?$FN?$AA?$AA@ ; `string'
PUBLIC	??_C@_1BI@MJIEMAFI@?$AA?$FL?$AAA?$AAs?$AAp?$AAe?$AAc?$AAt?$AAn?$AAu?$AAm?$AA?$FN?$AA?$AA@ ; `string'
PUBLIC	??_C@_1O@JIKFMKIC@?$AA?$FL?$AAT?$AAe?$AAx?$AAt?$AA?$FN?$AA?$AA@ ; `string'
PUBLIC	??_C@_1O@KEMMLJGD@?$AA?$FL?$AAL?$AAa?$AAn?$AAg?$AA?$FN?$AA?$AA@ ; `string'
PUBLIC	??4?$CStringT@GV?$StrTraitMFC@GV?$ChTraitsCRT@G@ATL@@@@@ATL@@QAEAAV01@ABV01@@Z ; ATL::CStringT<unsigned short,StrTraitMFC<unsigned short,ATL::ChTraitsCRT<unsigned short> > >::operator=
EXTRN	?GetCurLanguage@@YAAAV?$CStringT@GV?$StrTraitMFC@GV?$ChTraitsCRT@G@ATL@@@@@ATL@@XZ:NEAR ; GetCurLanguage
EXTRN	?SetFieldType@CDaoFieldExchange@@QAEXI@Z:NEAR	; CDaoFieldExchange::SetFieldType
EXTRN	?DFX_Text@@YGXPAVCDaoFieldExchange@@PBGAAV?$CStringT@GV?$StrTraitMFC@GV?$ChTraitsCRT@G@ATL@@@@@ATL@@HK@Z:NEAR ; DFX_Text
EXTRN	?DFX_Short@@YGXPAVCDaoFieldExchange@@PBGAAFK@Z:NEAR ; DFX_Short
;	COMDAT ??_C@_1BG@ILCPOCCL@?$AA?$FL?$AAT?$AAe?$AAx?$AAt?$AAT?$AAy?$AAp?$AAe?$AA?$FN?$AA?$AA@
CONST	SEGMENT
??_C@_1BG@ILCPOCCL@?$AA?$FL?$AAT?$AAe?$AAx?$AAt?$AAT?$AAy?$AAp?$AAe?$AA?$FN?$AA?$AA@ DB '['
	DB	00H, 'T', 00H, 'e', 00H, 'x', 00H, 't', 00H, 'T', 00H, 'y', 00H
	DB	'p', 00H, 'e', 00H, ']', 00H, 00H, 00H	; `string'
CONST	ENDS
;	COMDAT ??_C@_1BE@CEAPAEGO@?$AA?$FL?$AAP?$AAl?$AAa?$AAn?$AAe?$AAt?$AA1?$AA?$FN?$AA?$AA@
CONST	SEGMENT
??_C@_1BE@CEAPAEGO@?$AA?$FL?$AAP?$AAl?$AAa?$AAn?$AAe?$AAt?$AA1?$AA?$FN?$AA?$AA@ DB '['
	DB	00H, 'P', 00H, 'l', 00H, 'a', 00H, 'n', 00H, 'e', 00H, 't', 00H
	DB	'1', 00H, ']', 00H, 00H, 00H			; `string'
CONST	ENDS
;	COMDAT ??_C@_1BE@KCJLHGMA@?$AA?$FL?$AAP?$AAl?$AAa?$AAn?$AAe?$AAt?$AA2?$AA?$FN?$AA?$AA@
CONST	SEGMENT
??_C@_1BE@KCJLHGMA@?$AA?$FL?$AAP?$AAl?$AAa?$AAn?$AAe?$AAt?$AA2?$AA?$FN?$AA?$AA@ DB '['
	DB	00H, 'P', 00H, 'l', 00H, 'a', 00H, 'n', 00H, 'e', 00H, 't', 00H
	DB	'2', 00H, ']', 00H, 00H, 00H			; `string'
CONST	ENDS
;	COMDAT ??_C@_1BK@EKCAFLLE@?$AA?$FL?$AAP?$AAl?$AAa?$AAn?$AAe?$AAt?$AA1?$AAn?$AAu?$AAm?$AA?$FN?$AA?$AA@
CONST	SEGMENT
??_C@_1BK@EKCAFLLE@?$AA?$FL?$AAP?$AAl?$AAa?$AAn?$AAe?$AAt?$AA1?$AAn?$AAu?$AAm?$AA?$FN?$AA?$AA@ DB '['
	DB	00H, 'P', 00H, 'l', 00H, 'a', 00H, 'n', 00H, 'e', 00H, 't', 00H
	DB	'1', 00H, 'n', 00H, 'u', 00H, 'm', 00H, ']', 00H, 00H, 00H ; `string'
CONST	ENDS
;	COMDAT ??_C@_1BK@DNLOIJEE@?$AA?$FL?$AAP?$AAl?$AAa?$AAn?$AAe?$AAt?$AA2?$AAn?$AAu?$AAm?$AA?$FN?$AA?$AA@
CONST	SEGMENT
??_C@_1BK@DNLOIJEE@?$AA?$FL?$AAP?$AAl?$AAa?$AAn?$AAe?$AAt?$AA2?$AAn?$AAu?$AAm?$AA?$FN?$AA?$AA@ DB '['
	DB	00H, 'P', 00H, 'l', 00H, 'a', 00H, 'n', 00H, 'e', 00H, 't', 00H
	DB	'2', 00H, 'n', 00H, 'u', 00H, 'm', 00H, ']', 00H, 00H, 00H ; `string'
CONST	ENDS
;	COMDAT ??_C@_1BC@DDBOPGB@?$AA?$FL?$AAA?$AAs?$AAp?$AAe?$AAc?$AAt?$AA?$FN?$AA?$AA@
CONST	SEGMENT
??_C@_1BC@DDBOPGB@?$AA?$FL?$AAA?$AAs?$AAp?$AAe?$AAc?$AAt?$AA?$FN?$AA?$AA@ DB '['
	DB	00H, 'A', 00H, 's', 00H, 'p', 00H, 'e', 00H, 'c', 00H, 't', 00H
	DB	']', 00H, 00H, 00H				; `string'
CONST	ENDS
;	COMDAT ??_C@_1BI@MJIEMAFI@?$AA?$FL?$AAA?$AAs?$AAp?$AAe?$AAc?$AAt?$AAn?$AAu?$AAm?$AA?$FN?$AA?$AA@
CONST	SEGMENT
??_C@_1BI@MJIEMAFI@?$AA?$FL?$AAA?$AAs?$AAp?$AAe?$AAc?$AAt?$AAn?$AAu?$AAm?$AA?$FN?$AA?$AA@ DB '['
	DB	00H, 'A', 00H, 's', 00H, 'p', 00H, 'e', 00H, 'c', 00H, 't', 00H
	DB	'n', 00H, 'u', 00H, 'm', 00H, ']', 00H, 00H, 00H ; `string'
CONST	ENDS
;	COMDAT ??_C@_1O@JIKFMKIC@?$AA?$FL?$AAT?$AAe?$AAx?$AAt?$AA?$FN?$AA?$AA@
CONST	SEGMENT
??_C@_1O@JIKFMKIC@?$AA?$FL?$AAT?$AAe?$AAx?$AAt?$AA?$FN?$AA?$AA@ DB '[', 00H
	DB	'T', 00H, 'e', 00H, 'x', 00H, 't', 00H, ']', 00H, 00H, 00H ; `string'
CONST	ENDS
;	COMDAT ??_C@_1O@KEMMLJGD@?$AA?$FL?$AAL?$AAa?$AAn?$AAg?$AA?$FN?$AA?$AA@
CONST	SEGMENT
??_C@_1O@KEMMLJGD@?$AA?$FL?$AAL?$AAa?$AAn?$AAg?$AA?$FN?$AA?$AA@ DB '[', 00H
	DB	'L', 00H, 'a', 00H, 'n', 00H, 'g', 00H, ']', 00H, 00H, 00H ; `string'
; Function compile flags: /Odt /RTCcsu /ZI
CONST	ENDS
;	COMDAT ?DoFieldExchange@CDAspectText@@UAEXPAVCDaoFieldExchange@@@Z
_TEXT	SEGMENT
_this$ = -8						; size = 4
_pFX$ = 8						; size = 4
?DoFieldExchange@CDAspectText@@UAEXPAVCDaoFieldExchange@@@Z PROC NEAR ; CDAspectText::DoFieldExchange, COMDAT
; _this$ = ecx

; 51   : {

	push	ebp
	mov	ebp, esp
	sub	esp, 204				; 000000ccH
	push	ebx
	push	esi
	push	edi
	push	ecx
	lea	edi, DWORD PTR [ebp-204]
	mov	ecx, 51					; 00000033H
	mov	eax, -858993460				; ccccccccH
	rep stosd
	pop	ecx
	mov	DWORD PTR _this$[ebp], ecx

; 52   : 	//{{AFX_FIELD_MAP(CDAspectText)
; 53   : 	pFX->SetFieldType(CDaoFieldExchange::outputColumn);

	push	1
	mov	ecx, DWORD PTR _pFX$[ebp]
	call	?SetFieldType@CDaoFieldExchange@@QAEXI@Z ; CDaoFieldExchange::SetFieldType

; 54   : 	DFX_Text(pFX, _T("[TextType]"), m_TextType);

	push	1
	push	255					; 000000ffH
	mov	eax, DWORD PTR _this$[ebp]
	add	eax, 152				; 00000098H
	push	eax
	push	OFFSET FLAT:??_C@_1BG@ILCPOCCL@?$AA?$FL?$AAT?$AAe?$AAx?$AAt?$AAT?$AAy?$AAp?$AAe?$AA?$FN?$AA?$AA@
	mov	ecx, DWORD PTR _pFX$[ebp]
	push	ecx
	call	?DFX_Text@@YGXPAVCDaoFieldExchange@@PBGAAV?$CStringT@GV?$StrTraitMFC@GV?$ChTraitsCRT@G@ATL@@@@@ATL@@HK@Z ; DFX_Text

; 55   : 	DFX_Text(pFX, _T("[Planet1]"), m_Planet1);

	push	1
	push	255					; 000000ffH
	mov	eax, DWORD PTR _this$[ebp]
	add	eax, 156				; 0000009cH
	push	eax
	push	OFFSET FLAT:??_C@_1BE@CEAPAEGO@?$AA?$FL?$AAP?$AAl?$AAa?$AAn?$AAe?$AAt?$AA1?$AA?$FN?$AA?$AA@
	mov	ecx, DWORD PTR _pFX$[ebp]
	push	ecx
	call	?DFX_Text@@YGXPAVCDaoFieldExchange@@PBGAAV?$CStringT@GV?$StrTraitMFC@GV?$ChTraitsCRT@G@ATL@@@@@ATL@@HK@Z ; DFX_Text

; 56   : 	DFX_Text(pFX, _T("[Planet2]"), m_Planet2);

	push	1
	push	255					; 000000ffH
	mov	eax, DWORD PTR _this$[ebp]
	add	eax, 160				; 000000a0H
	push	eax
	push	OFFSET FLAT:??_C@_1BE@KCJLHGMA@?$AA?$FL?$AAP?$AAl?$AAa?$AAn?$AAe?$AAt?$AA2?$AA?$FN?$AA?$AA@
	mov	ecx, DWORD PTR _pFX$[ebp]
	push	ecx
	call	?DFX_Text@@YGXPAVCDaoFieldExchange@@PBGAAV?$CStringT@GV?$StrTraitMFC@GV?$ChTraitsCRT@G@ATL@@@@@ATL@@HK@Z ; DFX_Text

; 57   : 	DFX_Short(pFX, _T("[Planet1num]"), m_Planet1num);

	push	1
	mov	eax, DWORD PTR _this$[ebp]
	add	eax, 164				; 000000a4H
	push	eax
	push	OFFSET FLAT:??_C@_1BK@EKCAFLLE@?$AA?$FL?$AAP?$AAl?$AAa?$AAn?$AAe?$AAt?$AA1?$AAn?$AAu?$AAm?$AA?$FN?$AA?$AA@
	mov	ecx, DWORD PTR _pFX$[ebp]
	push	ecx
	call	?DFX_Short@@YGXPAVCDaoFieldExchange@@PBGAAFK@Z ; DFX_Short

; 58   : 	DFX_Short(pFX, _T("[Planet2num]"), m_Planet2num);

	push	1
	mov	eax, DWORD PTR _this$[ebp]
	add	eax, 166				; 000000a6H
	push	eax
	push	OFFSET FLAT:??_C@_1BK@DNLOIJEE@?$AA?$FL?$AAP?$AAl?$AAa?$AAn?$AAe?$AAt?$AA2?$AAn?$AAu?$AAm?$AA?$FN?$AA?$AA@
	mov	ecx, DWORD PTR _pFX$[ebp]
	push	ecx
	call	?DFX_Short@@YGXPAVCDaoFieldExchange@@PBGAAFK@Z ; DFX_Short

; 59   : 	DFX_Text(pFX, _T("[Aspect]"), m_Aspect);

	push	1
	push	255					; 000000ffH
	mov	eax, DWORD PTR _this$[ebp]
	add	eax, 168				; 000000a8H
	push	eax
	push	OFFSET FLAT:??_C@_1BC@DDBOPGB@?$AA?$FL?$AAA?$AAs?$AAp?$AAe?$AAc?$AAt?$AA?$FN?$AA?$AA@
	mov	ecx, DWORD PTR _pFX$[ebp]
	push	ecx
	call	?DFX_Text@@YGXPAVCDaoFieldExchange@@PBGAAV?$CStringT@GV?$StrTraitMFC@GV?$ChTraitsCRT@G@ATL@@@@@ATL@@HK@Z ; DFX_Text

; 60   : 	DFX_Short(pFX, _T("[Aspectnum]"), m_Aspectnum);

	push	1
	mov	eax, DWORD PTR _this$[ebp]
	add	eax, 172				; 000000acH
	push	eax
	push	OFFSET FLAT:??_C@_1BI@MJIEMAFI@?$AA?$FL?$AAA?$AAs?$AAp?$AAe?$AAc?$AAt?$AAn?$AAu?$AAm?$AA?$FN?$AA?$AA@
	mov	ecx, DWORD PTR _pFX$[ebp]
	push	ecx
	call	?DFX_Short@@YGXPAVCDaoFieldExchange@@PBGAAFK@Z ; DFX_Short

; 61   : 	DFX_Text(pFX, _T("[Text]"), m_Text);

	push	1
	push	255					; 000000ffH
	mov	eax, DWORD PTR _this$[ebp]
	add	eax, 176				; 000000b0H
	push	eax
	push	OFFSET FLAT:??_C@_1O@JIKFMKIC@?$AA?$FL?$AAT?$AAe?$AAx?$AAt?$AA?$FN?$AA?$AA@
	mov	ecx, DWORD PTR _pFX$[ebp]
	push	ecx
	call	?DFX_Text@@YGXPAVCDaoFieldExchange@@PBGAAV?$CStringT@GV?$StrTraitMFC@GV?$ChTraitsCRT@G@ATL@@@@@ATL@@HK@Z ; DFX_Text

; 62   : 	m_Lang = GetCurLanguage();

	call	?GetCurLanguage@@YAAAV?$CStringT@GV?$StrTraitMFC@GV?$ChTraitsCRT@G@ATL@@@@@ATL@@XZ ; GetCurLanguage
	push	eax
	mov	ecx, DWORD PTR _this$[ebp]
	add	ecx, 180				; 000000b4H
	call	??4?$CStringT@GV?$StrTraitMFC@GV?$ChTraitsCRT@G@ATL@@@@@ATL@@QAEAAV01@ABV01@@Z ; ATL::CStringT<unsigned short,StrTraitMFC<unsigned short,ATL::ChTraitsCRT<unsigned short> > >::operator=

; 63   : 	DFX_Text(pFX, _T("[Lang]"), m_Lang);

	push	1
	push	255					; 000000ffH
	mov	eax, DWORD PTR _this$[ebp]
	add	eax, 180				; 000000b4H
	push	eax
	push	OFFSET FLAT:??_C@_1O@KEMMLJGD@?$AA?$FL?$AAL?$AAa?$AAn?$AAg?$AA?$FN?$AA?$AA@
	mov	ecx, DWORD PTR _pFX$[ebp]
	push	ecx
	call	?DFX_Text@@YGXPAVCDaoFieldExchange@@PBGAAV?$CStringT@GV?$StrTraitMFC@GV?$ChTraitsCRT@G@ATL@@@@@ATL@@HK@Z ; DFX_Text

; 64   : 	//}}AFX_FIELD_MAP
; 65   : }

	pop	edi
	pop	esi
	pop	ebx
	add	esp, 204				; 000000ccH
	cmp	ebp, esp
	call	__RTC_CheckEsp
	mov	esp, ebp
	pop	ebp
	ret	4
?DoFieldExchange@CDAspectText@@UAEXPAVCDaoFieldExchange@@@Z ENDP ; CDAspectText::DoFieldExchange
_TEXT	ENDS
EXTRN	?AssertValid@CDaoRecordset@@UBEXXZ:NEAR		; CDaoRecordset::AssertValid
; Function compile flags: /Odt /RTCcsu /ZI
;	COMDAT ?AssertValid@CDAspectText@@UBEXXZ
_TEXT	SEGMENT
_this$ = -8						; size = 4
?AssertValid@CDAspectText@@UBEXXZ PROC NEAR		; CDAspectText::AssertValid, COMDAT
; _this$ = ecx

; 72   : {

	push	ebp
	mov	ebp, esp
	sub	esp, 204				; 000000ccH
	push	ebx
	push	esi
	push	edi
	push	ecx
	lea	edi, DWORD PTR [ebp-204]
	mov	ecx, 51					; 00000033H
	mov	eax, -858993460				; ccccccccH
	rep stosd
	pop	ecx
	mov	DWORD PTR _this$[ebp], ecx

; 73   : 	CDaoRecordset::AssertValid();

	mov	ecx, DWORD PTR _this$[ebp]
	call	?AssertValid@CDaoRecordset@@UBEXXZ	; CDaoRecordset::AssertValid

; 74   : }

	pop	edi
	pop	esi
	pop	ebx
	add	esp, 204				; 000000ccH
	cmp	ebp, esp
	call	__RTC_CheckEsp
	mov	esp, ebp
	pop	ebp
	ret	0
?AssertValid@CDAspectText@@UBEXXZ ENDP			; CDAspectText::AssertValid
_TEXT	ENDS
EXTRN	?Dump@CDaoRecordset@@UBEXAAVCDumpContext@@@Z:NEAR ; CDaoRecordset::Dump
; Function compile flags: /Odt /RTCcsu /ZI
;	COMDAT ?Dump@CDAspectText@@UBEXAAVCDumpContext@@@Z
_TEXT	SEGMENT
_this$ = -8						; size = 4
_dc$ = 8						; size = 4
?Dump@CDAspectText@@UBEXAAVCDumpContext@@@Z PROC NEAR	; CDAspectText::Dump, COMDAT
; _this$ = ecx

; 77   : {

	push	ebp
	mov	ebp, esp
	sub	esp, 204				; 000000ccH
	push	ebx
	push	esi
	push	edi
	push	ecx
	lea	edi, DWORD PTR [ebp-204]
	mov	ecx, 51					; 00000033H
	mov	eax, -858993460				; ccccccccH
	rep stosd
	pop	ecx
	mov	DWORD PTR _this$[ebp], ecx

; 78   : 	CDaoRecordset::Dump(dc);

	mov	eax, DWORD PTR _dc$[ebp]
	push	eax
	mov	ecx, DWORD PTR _this$[ebp]
	call	?Dump@CDaoRecordset@@UBEXAAVCDumpContext@@@Z ; CDaoRecordset::Dump

; 79   : }

	pop	edi
	pop	esi
	pop	ebx
	add	esp, 204				; 000000ccH
	cmp	ebp, esp
	call	__RTC_CheckEsp
	mov	esp, ebp
	pop	ebp
	ret	4
?Dump@CDAspectText@@UBEXAAVCDumpContext@@@Z ENDP	; CDAspectText::Dump
_TEXT	ENDS
PUBLIC	??4?$CSimpleStringT@G$0A@@ATL@@QAEAAV01@ABV01@@Z ; ATL::CSimpleStringT<unsigned short,0>::operator=
; Function compile flags: /Odt /RTCcsu /ZI
; File c:\program files\microsoft visual studio .net 2003\vc7\atlmfc\include\cstringt.h
;	COMDAT ??4?$CStringT@GV?$StrTraitMFC@GV?$ChTraitsCRT@G@ATL@@@@@ATL@@QAEAAV01@ABV01@@Z
_TEXT	SEGMENT
_this$ = -8						; size = 4
_strSrc$ = 8						; size = 4
??4?$CStringT@GV?$StrTraitMFC@GV?$ChTraitsCRT@G@ATL@@@@@ATL@@QAEAAV01@ABV01@@Z PROC NEAR ; ATL::CStringT<unsigned short,StrTraitMFC<unsigned short,ATL::ChTraitsCRT<unsigned short> > >::operator=, COMDAT
; _this$ = ecx

; 967  : 	{

	push	ebp
	mov	ebp, esp
	sub	esp, 204				; 000000ccH
	push	ebx
	push	esi
	push	edi
	push	ecx
	lea	edi, DWORD PTR [ebp-204]
	mov	ecx, 51					; 00000033H
	mov	eax, -858993460				; ccccccccH
	rep stosd
	pop	ecx
	mov	DWORD PTR _this$[ebp], ecx

; 968  : 		CThisSimpleString::operator=( strSrc );

	mov	eax, DWORD PTR _strSrc$[ebp]
	push	eax
	mov	ecx, DWORD PTR _this$[ebp]
	call	??4?$CSimpleStringT@G$0A@@ATL@@QAEAAV01@ABV01@@Z ; ATL::CSimpleStringT<unsigned short,0>::operator=

; 969  : 
; 970  : 		return( *this );

	mov	eax, DWORD PTR _this$[ebp]

; 971  : 	}

	pop	edi
	pop	esi
	pop	ebx
	add	esp, 204				; 000000ccH
	cmp	ebp, esp
	call	__RTC_CheckEsp
	mov	esp, ebp
	pop	ebp
	ret	4
??4?$CStringT@GV?$StrTraitMFC@GV?$ChTraitsCRT@G@ATL@@@@@ATL@@QAEAAV01@ABV01@@Z ENDP ; ATL::CStringT<unsigned short,StrTraitMFC<unsigned short,ATL::ChTraitsCRT<unsigned short> > >::operator=
_TEXT	ENDS
PUBLIC	?IsLocked@CStringData@ATL@@QBE_NXZ		; ATL::CStringData::IsLocked
PUBLIC	?Release@CStringData@ATL@@QAEXXZ		; ATL::CStringData::Release
PUBLIC	?GetLength@?$CSimpleStringT@G$0A@@ATL@@QBEHXZ	; ATL::CSimpleStringT<unsigned short,0>::GetLength
PUBLIC	?GetString@?$CSimpleStringT@G$0A@@ATL@@QBEPBGXZ	; ATL::CSimpleStringT<unsigned short,0>::GetString
PUBLIC	?SetString@?$CSimpleStringT@G$0A@@ATL@@QAEXPBGH@Z ; ATL::CSimpleStringT<unsigned short,0>::SetString
PUBLIC	?Attach@?$CSimpleStringT@G$0A@@ATL@@AAEXPAUCStringData@2@@Z ; ATL::CSimpleStringT<unsigned short,0>::Attach
PUBLIC	?GetData@?$CSimpleStringT@G$0A@@ATL@@ABEPAUCStringData@2@XZ ; ATL::CSimpleStringT<unsigned short,0>::GetData
PUBLIC	?CloneData@?$CSimpleStringT@G$0A@@ATL@@CAPAUCStringData@2@PAU32@@Z ; ATL::CSimpleStringT<unsigned short,0>::CloneData
; Function compile flags: /Odt /RTCcsu /ZI
; File c:\program files\microsoft visual studio .net 2003\vc7\atlmfc\include\atlsimpstr.h
;	COMDAT ??4?$CSimpleStringT@G$0A@@ATL@@QAEAAV01@ABV01@@Z
_TEXT	SEGMENT
_pNewData$93039 = -44					; size = 4
_pOldData$ = -32					; size = 4
_pSrcData$ = -20					; size = 4
_this$ = -8						; size = 4
_strSrc$ = 8						; size = 4
??4?$CSimpleStringT@G$0A@@ATL@@QAEAAV01@ABV01@@Z PROC NEAR ; ATL::CSimpleStringT<unsigned short,0>::operator=, COMDAT
; _this$ = ecx

; 273  : 	{

	push	ebp
	mov	ebp, esp
	sub	esp, 240				; 000000f0H
	push	ebx
	push	esi
	push	edi
	push	ecx
	lea	edi, DWORD PTR [ebp-240]
	mov	ecx, 60					; 0000003cH
	mov	eax, -858993460				; ccccccccH
	rep stosd
	pop	ecx
	mov	DWORD PTR _this$[ebp], ecx

; 274  : 		CStringData* pSrcData = strSrc.GetData();

	mov	ecx, DWORD PTR _strSrc$[ebp]
	call	?GetData@?$CSimpleStringT@G$0A@@ATL@@ABEPAUCStringData@2@XZ ; ATL::CSimpleStringT<unsigned short,0>::GetData
	mov	DWORD PTR _pSrcData$[ebp], eax

; 275  : 		CStringData* pOldData = GetData();

	mov	ecx, DWORD PTR _this$[ebp]
	call	?GetData@?$CSimpleStringT@G$0A@@ATL@@ABEPAUCStringData@2@XZ ; ATL::CSimpleStringT<unsigned short,0>::GetData
	mov	DWORD PTR _pOldData$[ebp], eax

; 276  : 		if( pSrcData != pOldData)

	mov	eax, DWORD PTR _pSrcData$[ebp]
	cmp	eax, DWORD PTR _pOldData$[ebp]
	je	SHORT $L93035

; 277  : 		{
; 278  : 			if( pOldData->IsLocked() || pSrcData->pStringMgr != pOldData->pStringMgr )

	mov	ecx, DWORD PTR _pOldData$[ebp]
	call	?IsLocked@CStringData@ATL@@QBE_NXZ	; ATL::CStringData::IsLocked
	movzx	eax, al
	test	eax, eax
	jne	SHORT $L93037
	mov	eax, DWORD PTR _pSrcData$[ebp]
	mov	ecx, DWORD PTR _pOldData$[ebp]
	mov	edx, DWORD PTR [eax]
	cmp	edx, DWORD PTR [ecx]
	je	SHORT $L93036
$L93037:

; 279  : 			{
; 280  : 				SetString( strSrc.GetString(), strSrc.GetLength() );

	mov	ecx, DWORD PTR _strSrc$[ebp]
	call	?GetLength@?$CSimpleStringT@G$0A@@ATL@@QBEHXZ ; ATL::CSimpleStringT<unsigned short,0>::GetLength
	push	eax
	mov	ecx, DWORD PTR _strSrc$[ebp]
	call	?GetString@?$CSimpleStringT@G$0A@@ATL@@QBEPBGXZ ; ATL::CSimpleStringT<unsigned short,0>::GetString
	push	eax
	mov	ecx, DWORD PTR _this$[ebp]
	call	?SetString@?$CSimpleStringT@G$0A@@ATL@@QAEXPBGH@Z ; ATL::CSimpleStringT<unsigned short,0>::SetString

; 281  : 			}
; 282  : 			else

	jmp	SHORT $L93035
$L93036:

; 283  : 			{
; 284  : 				CStringData* pNewData = CloneData( pSrcData );

	mov	eax, DWORD PTR _pSrcData$[ebp]
	push	eax
	call	?CloneData@?$CSimpleStringT@G$0A@@ATL@@CAPAUCStringData@2@PAU32@@Z ; ATL::CSimpleStringT<unsigned short,0>::CloneData
	add	esp, 4
	mov	DWORD PTR _pNewData$93039[ebp], eax

; 285  : 				pOldData->Release();

	mov	ecx, DWORD PTR _pOldData$[ebp]
	call	?Release@CStringData@ATL@@QAEXXZ	; ATL::CStringData::Release

; 286  : 				Attach( pNewData );

	mov	eax, DWORD PTR _pNewData$93039[ebp]
	push	eax
	mov	ecx, DWORD PTR _this$[ebp]
	call	?Attach@?$CSimpleStringT@G$0A@@ATL@@AAEXPAUCStringData@2@@Z ; ATL::CSimpleStringT<unsigned short,0>::Attach
$L93035:

; 287  : 			}
; 288  : 		}
; 289  : 
; 290  : 		return( *this );

	mov	eax, DWORD PTR _this$[ebp]

; 291  : 	}

	pop	edi
	pop	esi
	pop	ebx
	add	esp, 240				; 000000f0H
	cmp	ebp, esp
	call	__RTC_CheckEsp
	mov	esp, ebp
	pop	ebp
	ret	4
??4?$CSimpleStringT@G$0A@@ATL@@QAEAAV01@ABV01@@Z ENDP	; ATL::CSimpleStringT<unsigned short,0>::operator=
_TEXT	ENDS
EXTRN	@_RTC_Check_4_to_1@4:NEAR
; Function compile flags: /Odt /RTCcsu /ZI
;	COMDAT ?IsLocked@CStringData@ATL@@QBE_NXZ
_TEXT	SEGMENT
_this$ = -8						; size = 4
?IsLocked@CStringData@ATL@@QBE_NXZ PROC NEAR		; ATL::CStringData::IsLocked, COMDAT
; _this$ = ecx

; 75   : 	{

	push	ebp
	mov	ebp, esp
	sub	esp, 204				; 000000ccH
	push	ebx
	push	esi
	push	edi
	push	ecx
	lea	edi, DWORD PTR [ebp-204]
	mov	ecx, 51					; 00000033H
	mov	eax, -858993460				; ccccccccH
	rep stosd
	pop	ecx
	mov	DWORD PTR _this$[ebp], ecx

; 76   : 		return nRefs < 0;

	mov	eax, DWORD PTR _this$[ebp]
	xor	ecx, ecx
	cmp	DWORD PTR [eax+12], 0
	setl	cl
	call	@_RTC_Check_4_to_1@4

; 77   : 	}

	pop	edi
	pop	esi
	pop	ebx
	add	esp, 204				; 000000ccH
	cmp	ebp, esp
	call	__RTC_CheckEsp
	mov	esp, ebp
	pop	ebp
	ret	0
?IsLocked@CStringData@ATL@@QBE_NXZ ENDP			; ATL::CStringData::IsLocked
_TEXT	ENDS
PUBLIC	??_C@_0FD@JDCNPMMG@c?3?2program?5files?2microsoft?5visua@ ; `string'
PUBLIC	??_C@_0L@OIIMFBNE@nRefs?5?$CB?$DN?50?$AA@	; `string'
EXTRN	__CrtDbgReport:NEAR
;	COMDAT ??_C@_0L@OIIMFBNE@nRefs?5?$CB?$DN?50?$AA@
CONST	SEGMENT
??_C@_0L@OIIMFBNE@nRefs?5?$CB?$DN?50?$AA@ DB 'nRefs != 0', 00H ; `string'
CONST	ENDS
;	COMDAT ??_C@_0FD@JDCNPMMG@c?3?2program?5files?2microsoft?5visua@
CONST	SEGMENT
??_C@_0FD@JDCNPMMG@c?3?2program?5files?2microsoft?5visua@ DB 'c:\program '
	DB	'files\microsoft visual studio .net 2003\vc7\atlmfc\include\at'
	DB	'lsimpstr.h', 00H				; `string'
; Function compile flags: /Odt /RTCcsu /ZI
CONST	ENDS
;	COMDAT ?Release@CStringData@ATL@@QAEXXZ
_TEXT	SEGMENT
_this$ = -8						; size = 4
?Release@CStringData@ATL@@QAEXXZ PROC NEAR		; ATL::CStringData::Release, COMDAT
; _this$ = ecx

; 92   : 	{

	push	ebp
	mov	ebp, esp
	sub	esp, 204				; 000000ccH
	push	ebx
	push	esi
	push	edi
	push	ecx
	lea	edi, DWORD PTR [ebp-204]
	mov	ecx, 51					; 00000033H
	mov	eax, -858993460				; ccccccccH
	rep stosd
	pop	ecx
	mov	DWORD PTR _this$[ebp], ecx

; 93   : 		ATLASSERT( nRefs != 0 );

	mov	eax, DWORD PTR _this$[ebp]
	cmp	DWORD PTR [eax+12], 0
	jne	SHORT $L93197
	push	OFFSET FLAT:??_C@_0L@OIIMFBNE@nRefs?5?$CB?$DN?50?$AA@
	push	0
	push	93					; 0000005dH
	push	OFFSET FLAT:??_C@_0FD@JDCNPMMG@c?3?2program?5files?2microsoft?5visua@
	push	2
	call	__CrtDbgReport
	add	esp, 20					; 00000014H
	cmp	eax, 1
	jne	SHORT $L93197
	int	3
$L93197:

; 94   : 
; 95   : 		if( _InterlockedDecrement( &nRefs ) <= 0 )

	mov	eax, DWORD PTR _this$[ebp]
	add	eax, 12					; 0000000cH
	or	ecx, -1
	lock	 xadd	 DWORD PTR [eax], ecx
	dec	ecx
	test	ecx, ecx
	jg	SHORT $L26116

; 96   : 		{
; 97   : 			pStringMgr->Free( this );

	mov	esi, esp
	mov	eax, DWORD PTR _this$[ebp]
	push	eax
	mov	ecx, DWORD PTR _this$[ebp]
	mov	edx, DWORD PTR [ecx]
	mov	eax, DWORD PTR _this$[ebp]
	mov	ecx, DWORD PTR [eax]
	mov	edx, DWORD PTR [edx]
	call	DWORD PTR [edx+4]
	cmp	esi, esp
	call	__RTC_CheckEsp
$L26116:

; 98   : 		}
; 99   : 	}

	pop	edi
	pop	esi
	pop	ebx
	add	esp, 204				; 000000ccH
	cmp	ebp, esp
	call	__RTC_CheckEsp
	mov	esp, ebp
	pop	ebp
	ret	0
?Release@CStringData@ATL@@QAEXXZ ENDP			; ATL::CStringData::Release
_TEXT	ENDS
PUBLIC	??0?$CSimpleStringT@G$0A@@ATL@@QAE@PAUIAtlStringMgr@1@@Z ; ATL::CSimpleStringT<unsigned short,0>::CSimpleStringT<unsigned short,0>
PUBLIC	?GetDefaultManager@?$StrTraitMFC@GV?$ChTraitsCRT@G@ATL@@@@SAPAUIAtlStringMgr@ATL@@XZ ; StrTraitMFC<unsigned short,ATL::ChTraitsCRT<unsigned short> >::GetDefaultManager
; Function compile flags: /Odt /RTCcsu /ZI
; File c:\program files\microsoft visual studio .net 2003\vc7\atlmfc\include\cstringt.h
;	COMDAT ??0?$CStringT@GV?$StrTraitMFC@GV?$ChTraitsCRT@G@ATL@@@@@ATL@@QAE@XZ
_TEXT	SEGMENT
_this$ = -8						; size = 4
??0?$CStringT@GV?$StrTraitMFC@GV?$ChTraitsCRT@G@ATL@@@@@ATL@@QAE@XZ PROC NEAR ; ATL::CStringT<unsigned short,StrTraitMFC<unsigned short,ATL::ChTraitsCRT<unsigned short> > >::CStringT<unsigned short,StrTraitMFC<unsigned short,ATL::ChTraitsCRT<unsigned short> > >, COMDAT
; _this$ = ecx

; 796  : 	{

	push	ebp
	mov	ebp, esp
	sub	esp, 204				; 000000ccH
	push	ebx
	push	esi
	push	edi
	push	ecx
	lea	edi, DWORD PTR [ebp-204]
	mov	ecx, 51					; 00000033H
	mov	eax, -858993460				; ccccccccH
	rep stosd
	pop	ecx
	mov	DWORD PTR _this$[ebp], ecx
	call	?GetDefaultManager@?$StrTraitMFC@GV?$ChTraitsCRT@G@ATL@@@@SAPAUIAtlStringMgr@ATL@@XZ ; StrTraitMFC<unsigned short,ATL::ChTraitsCRT<unsigned short> >::GetDefaultManager
	push	eax
	mov	ecx, DWORD PTR _this$[ebp]
	call	??0?$CSimpleStringT@G$0A@@ATL@@QAE@PAUIAtlStringMgr@1@@Z ; ATL::CSimpleStringT<unsigned short,0>::CSimpleStringT<unsigned short,0>

; 797  : 	}

	mov	eax, DWORD PTR _this$[ebp]
	pop	edi
	pop	esi
	pop	ebx
	add	esp, 204				; 000000ccH
	cmp	ebp, esp
	call	__RTC_CheckEsp
	mov	esp, ebp
	pop	ebp
	ret	0
??0?$CStringT@GV?$StrTraitMFC@GV?$ChTraitsCRT@G@ATL@@@@@ATL@@QAE@XZ ENDP ; ATL::CStringT<unsigned short,StrTraitMFC<unsigned short,ATL::ChTraitsCRT<unsigned short> > >::CStringT<unsigned short,StrTraitMFC<unsigned short,ATL::ChTraitsCRT<unsigned short> > >
_TEXT	ENDS
PUBLIC	?CheckImplicitLoad@?$CStringT@GV?$StrTraitMFC@GV?$ChTraitsCRT@G@ATL@@@@@ATL@@AAE_NPBX@Z ; ATL::CStringT<unsigned short,StrTraitMFC<unsigned short,ATL::ChTraitsCRT<unsigned short> > >::CheckImplicitLoad
PUBLIC	??1?$CSimpleStringT@G$0A@@ATL@@QAE@XZ		; ATL::CSimpleStringT<unsigned short,0>::~CSimpleStringT<unsigned short,0>
;	COMDAT xdata$x
xdata$x	SEGMENT
__unwindtable$??0?$CStringT@GV?$StrTraitMFC@GV?$ChTraitsCRT@G@ATL@@@@@ATL@@QAE@PBG@Z DD 0ffffffffH
	DD	FLAT:__unwindfunclet$??0?$CStringT@GV?$StrTraitMFC@GV?$ChTraitsCRT@G@ATL@@@@@ATL@@QAE@PBG@Z$0
__ehfuncinfo$??0?$CStringT@GV?$StrTraitMFC@GV?$ChTraitsCRT@G@ATL@@@@@ATL@@QAE@PBG@Z DD 019930520H
	DD	01H
	DD	FLAT:__unwindtable$??0?$CStringT@GV?$StrTraitMFC@GV?$ChTraitsCRT@G@ATL@@@@@ATL@@QAE@PBG@Z
	DD	2 DUP(00H)
	DD	2 DUP(00H)
; Function compile flags: /Odt /RTCcsu /ZI
xdata$x	ENDS
;	COMDAT ??0?$CStringT@GV?$StrTraitMFC@GV?$ChTraitsCRT@G@ATL@@@@@ATL@@QAE@PBG@Z
_TEXT	SEGMENT
_this$ = -20						; size = 4
__$EHRec$ = -12						; size = 12
_pszSrc$ = 8						; size = 4
??0?$CStringT@GV?$StrTraitMFC@GV?$ChTraitsCRT@G@ATL@@@@@ATL@@QAE@PBG@Z PROC NEAR ; ATL::CStringT<unsigned short,StrTraitMFC<unsigned short,ATL::ChTraitsCRT<unsigned short> > >::CStringT<unsigned short,StrTraitMFC<unsigned short,ATL::ChTraitsCRT<unsigned short> > >, COMDAT
; _this$ = ecx

; 830  : 	{

	push	ebp
	mov	ebp, esp
	push	-1
	push	__ehhandler$??0?$CStringT@GV?$StrTraitMFC@GV?$ChTraitsCRT@G@ATL@@@@@ATL@@QAE@PBG@Z
	mov	eax, DWORD PTR fs:__except_list
	push	eax
	mov	DWORD PTR fs:__except_list, esp
	sub	esp, 204				; 000000ccH
	push	ebx
	push	esi
	push	edi
	push	ecx
	lea	edi, DWORD PTR [ebp-216]
	mov	ecx, 51					; 00000033H
	mov	eax, -858993460				; ccccccccH
	rep stosd
	pop	ecx
	mov	DWORD PTR _this$[ebp], ecx
	call	?GetDefaultManager@?$StrTraitMFC@GV?$ChTraitsCRT@G@ATL@@@@SAPAUIAtlStringMgr@ATL@@XZ ; StrTraitMFC<unsigned short,ATL::ChTraitsCRT<unsigned short> >::GetDefaultManager
	push	eax
	mov	ecx, DWORD PTR _this$[ebp]
	call	??0?$CSimpleStringT@G$0A@@ATL@@QAE@PAUIAtlStringMgr@1@@Z ; ATL::CSimpleStringT<unsigned short,0>::CSimpleStringT<unsigned short,0>
	mov	DWORD PTR __$EHRec$[ebp+8], 0

; 831  : 		if( !CheckImplicitLoad( pszSrc ) )

	mov	eax, DWORD PTR _pszSrc$[ebp]
	push	eax
	mov	ecx, DWORD PTR _this$[ebp]
	call	?CheckImplicitLoad@?$CStringT@GV?$StrTraitMFC@GV?$ChTraitsCRT@G@ATL@@@@@ATL@@AAE_NPBX@Z ; ATL::CStringT<unsigned short,StrTraitMFC<unsigned short,ATL::ChTraitsCRT<unsigned short> > >::CheckImplicitLoad
	movzx	ecx, al
	test	ecx, ecx
	jne	SHORT $L92623

; 832  : 		{
; 833  : 			// nDestLength is in XCHARs
; 834  : 			*this = pszSrc;

	mov	eax, DWORD PTR _pszSrc$[ebp]
	push	eax
	mov	ecx, DWORD PTR _this$[ebp]
	call	??4?$CStringT@GV?$StrTraitMFC@GV?$ChTraitsCRT@G@ATL@@@@@ATL@@QAEAAV01@PBG@Z ; ATL::CStringT<unsigned short,StrTraitMFC<unsigned short,ATL::ChTraitsCRT<unsigned short> > >::operator=
$L92623:

; 835  : 		}
; 836  : 	}

	mov	DWORD PTR __$EHRec$[ebp+8], -1
	mov	eax, DWORD PTR _this$[ebp]
	mov	ecx, DWORD PTR __$EHRec$[ebp]
	mov	DWORD PTR fs:__except_list, ecx
	pop	edi
	pop	esi
	pop	ebx
	add	esp, 216				; 000000d8H
	cmp	ebp, esp
	call	__RTC_CheckEsp
	mov	esp, ebp
	pop	ebp
	ret	4
_TEXT	ENDS
;	COMDAT text$x
text$x	SEGMENT
__unwindfunclet$??0?$CStringT@GV?$StrTraitMFC@GV?$ChTraitsCRT@G@ATL@@@@@ATL@@QAE@PBG@Z$0:
	mov	ecx, DWORD PTR _this$[ebp]
	jmp	??1?$CSimpleStringT@G$0A@@ATL@@QAE@XZ	; ATL::CSimpleStringT<unsigned short,0>::~CSimpleStringT<unsigned short,0>
__ehhandler$??0?$CStringT@GV?$StrTraitMFC@GV?$ChTraitsCRT@G@ATL@@@@@ATL@@QAE@PBG@Z:
	mov	eax, OFFSET FLAT:__ehfuncinfo$??0?$CStringT@GV?$StrTraitMFC@GV?$ChTraitsCRT@G@ATL@@@@@ATL@@QAE@PBG@Z
	jmp	___CxxFrameHandler
text$x	ENDS
??0?$CStringT@GV?$StrTraitMFC@GV?$ChTraitsCRT@G@ATL@@@@@ATL@@QAE@PBG@Z ENDP ; ATL::CStringT<unsigned short,StrTraitMFC<unsigned short,ATL::ChTraitsCRT<unsigned short> > >::CStringT<unsigned short,StrTraitMFC<unsigned short,ATL::ChTraitsCRT<unsigned short> > >
; Function compile flags: /Odt /RTCcsu /ZI
;	COMDAT ??1?$CStringT@GV?$StrTraitMFC@GV?$ChTraitsCRT@G@ATL@@@@@ATL@@QAE@XZ
_TEXT	SEGMENT
_this$ = -8						; size = 4
??1?$CStringT@GV?$StrTraitMFC@GV?$ChTraitsCRT@G@ATL@@@@@ATL@@QAE@XZ PROC NEAR ; ATL::CStringT<unsigned short,StrTraitMFC<unsigned short,ATL::ChTraitsCRT<unsigned short> > >::~CStringT<unsigned short,StrTraitMFC<unsigned short,ATL::ChTraitsCRT<unsigned short> > >, COMDAT
; _this$ = ecx

; 962  : 	{

	push	ebp
	mov	ebp, esp
	sub	esp, 204				; 000000ccH
	push	ebx
	push	esi
	push	edi
	push	ecx
	lea	edi, DWORD PTR [ebp-204]
	mov	ecx, 51					; 00000033H
	mov	eax, -858993460				; ccccccccH
	rep stosd
	pop	ecx
	mov	DWORD PTR _this$[ebp], ecx

; 963  : 	}

	mov	ecx, DWORD PTR _this$[ebp]
	call	??1?$CSimpleStringT@G$0A@@ATL@@QAE@XZ	; ATL::CSimpleStringT<unsigned short,0>::~CSimpleStringT<unsigned short,0>
	pop	edi
	pop	esi
	pop	ebx
	add	esp, 204				; 000000ccH
	cmp	ebp, esp
	call	__RTC_CheckEsp
	mov	esp, ebp
	pop	ebp
	ret	0
??1?$CStringT@GV?$StrTraitMFC@GV?$ChTraitsCRT@G@ATL@@@@@ATL@@QAE@XZ ENDP ; ATL::CStringT<unsigned short,StrTraitMFC<unsigned short,ATL::ChTraitsCRT<unsigned short> > >::~CStringT<unsigned short,StrTraitMFC<unsigned short,ATL::ChTraitsCRT<unsigned short> > >
_TEXT	ENDS
PUBLIC	??4?$CSimpleStringT@G$0A@@ATL@@QAEAAV01@PBG@Z	; ATL::CSimpleStringT<unsigned short,0>::operator=
; Function compile flags: /Odt /RTCcsu /ZI
;	COMDAT ??4?$CStringT@GV?$StrTraitMFC@GV?$ChTraitsCRT@G@ATL@@@@@ATL@@QAEAAV01@PBG@Z
_TEXT	SEGMENT
_this$ = -8						; size = 4
_pszSrc$ = 8						; size = 4
??4?$CStringT@GV?$StrTraitMFC@GV?$ChTraitsCRT@G@ATL@@@@@ATL@@QAEAAV01@PBG@Z PROC NEAR ; ATL::CStringT<unsigned short,StrTraitMFC<unsigned short,ATL::ChTraitsCRT<unsigned short> > >::operator=, COMDAT
; _this$ = ecx

; 982  : 	{

	push	ebp
	mov	ebp, esp
	sub	esp, 204				; 000000ccH
	push	ebx
	push	esi
	push	edi
	push	ecx
	lea	edi, DWORD PTR [ebp-204]
	mov	ecx, 51					; 00000033H
	mov	eax, -858993460				; ccccccccH
	rep stosd
	pop	ecx
	mov	DWORD PTR _this$[ebp], ecx

; 983  : 		CThisSimpleString::operator=( pszSrc );

	mov	eax, DWORD PTR _pszSrc$[ebp]
	push	eax
	mov	ecx, DWORD PTR _this$[ebp]
	call	??4?$CSimpleStringT@G$0A@@ATL@@QAEAAV01@PBG@Z ; ATL::CSimpleStringT<unsigned short,0>::operator=

; 984  : 
; 985  : 		return( *this );

	mov	eax, DWORD PTR _this$[ebp]

; 986  : 	}

	pop	edi
	pop	esi
	pop	ebx
	add	esp, 204				; 000000ccH
	cmp	ebp, esp
	call	__RTC_CheckEsp
	mov	esp, ebp
	pop	ebp
	ret	4
??4?$CStringT@GV?$StrTraitMFC@GV?$ChTraitsCRT@G@ATL@@@@@ATL@@QAEAAV01@PBG@Z ENDP ; ATL::CStringT<unsigned short,StrTraitMFC<unsigned short,ATL::ChTraitsCRT<unsigned short> > >::operator=
; Function compile flags: /Odt /RTCcsu /ZI
; File c:\program files\microsoft visual studio .net 2003\vc7\atlmfc\include\atlsimpstr.h
_TEXT	ENDS
;	COMDAT ?GetLength@?$CSimpleStringT@G$0A@@ATL@@QBEHXZ
_TEXT	SEGMENT
_this$ = -8						; size = 4
?GetLength@?$CSimpleStringT@G$0A@@ATL@@QBEHXZ PROC NEAR	; ATL::CSimpleStringT<unsigned short,0>::GetLength, COMDAT
; _this$ = ecx

; 500  : 	{

	push	ebp
	mov	ebp, esp
	sub	esp, 204				; 000000ccH
	push	ebx
	push	esi
	push	edi
	push	ecx
	lea	edi, DWORD PTR [ebp-204]
	mov	ecx, 51					; 00000033H
	mov	eax, -858993460				; ccccccccH
	rep stosd
	pop	ecx
	mov	DWORD PTR _this$[ebp], ecx

; 501  : 		return( GetData()->nDataLength );

	mov	ecx, DWORD PTR _this$[ebp]
	call	?GetData@?$CSimpleStringT@G$0A@@ATL@@ABEPAUCStringData@2@XZ ; ATL::CSimpleStringT<unsigned short,0>::GetData
	mov	eax, DWORD PTR [eax+4]

; 502  : 	}

	pop	edi
	pop	esi
	pop	ebx
	add	esp, 204				; 000000ccH
	cmp	ebp, esp
	call	__RTC_CheckEsp
	mov	esp, ebp
	pop	ebp
	ret	0
?GetLength@?$CSimpleStringT@G$0A@@ATL@@QBEHXZ ENDP	; ATL::CSimpleStringT<unsigned short,0>::GetLength
_TEXT	ENDS
PUBLIC	?LoadStringW@?$CStringT@GV?$StrTraitMFC@GV?$ChTraitsCRT@G@ATL@@@@@ATL@@QAEHI@Z ; ATL::CStringT<unsigned short,StrTraitMFC<unsigned short,ATL::ChTraitsCRT<unsigned short> > >::LoadStringW
PUBLIC	??BCTraceCategory@ATL@@QBEKXZ			; ATL::CTraceCategory::operator unsigned long
PUBLIC	??0CTraceFileAndLineInfo@ATL@@QAE@PBDH@Z	; ATL::CTraceFileAndLineInfo::CTraceFileAndLineInfo
PUBLIC	??RCTraceFileAndLineInfo@ATL@@QBAXKIPBGZZ	; ATL::CTraceFileAndLineInfo::operator()
PUBLIC	??_C@_1FC@BMOLDHIO@?$AAW?$AAa?$AAr?$AAn?$AAi?$AAn?$AAg?$AA?3?$AA?5?$AAi?$AAm?$AAp?$AAl?$AAi?$AAc?$AAi?$AAt?$AA?5?$AAL?$AAo@ ; `string'
PUBLIC	??_C@_0FB@BCKJDECD@c?3?2program?5files?2microsoft?5visua@ ; `string'
EXTRN	@_RTC_Check_4_to_2@4:NEAR
EXTRN	?atlTraceString@ATL@@3VCTraceCategory@1@A:DWORD	; ATL::atlTraceString
;	COMDAT ??_C@_1FC@BMOLDHIO@?$AAW?$AAa?$AAr?$AAn?$AAi?$AAn?$AAg?$AA?3?$AA?5?$AAi?$AAm?$AAp?$AAl?$AAi?$AAc?$AAi?$AAt?$AA?5?$AAL?$AAo@
; File c:\program files\microsoft visual studio .net 2003\vc7\atlmfc\include\cstringt.h
CONST	SEGMENT
??_C@_1FC@BMOLDHIO@?$AAW?$AAa?$AAr?$AAn?$AAi?$AAn?$AAg?$AA?3?$AA?5?$AAi?$AAm?$AAp?$AAl?$AAi?$AAc?$AAi?$AAt?$AA?5?$AAL?$AAo@ DB 'W'
	DB	00H, 'a', 00H, 'r', 00H, 'n', 00H, 'i', 00H, 'n', 00H, 'g', 00H
	DB	':', 00H, ' ', 00H, 'i', 00H, 'm', 00H, 'p', 00H, 'l', 00H, 'i'
	DB	00H, 'c', 00H, 'i', 00H, 't', 00H, ' ', 00H, 'L', 00H, 'o', 00H
	DB	'a', 00H, 'd', 00H, 'S', 00H, 't', 00H, 'r', 00H, 'i', 00H, 'n'
	DB	00H, 'g', 00H, '(', 00H, '%', 00H, 'u', 00H, ')', 00H, ' ', 00H
	DB	'f', 00H, 'a', 00H, 'i', 00H, 'l', 00H, 'e', 00H, 'd', 00H, 0aH
	DB	00H, 00H, 00H				; `string'
CONST	ENDS
;	COMDAT ??_C@_0FB@BCKJDECD@c?3?2program?5files?2microsoft?5visua@
CONST	SEGMENT
??_C@_0FB@BCKJDECD@c?3?2program?5files?2microsoft?5visua@ DB 'c:\program '
	DB	'files\microsoft visual studio .net 2003\vc7\atlmfc\include\cs'
	DB	'tringt.h', 00H				; `string'
; Function compile flags: /Odt /RTCcsu /ZI
CONST	ENDS
;	COMDAT ?CheckImplicitLoad@?$CStringT@GV?$StrTraitMFC@GV?$ChTraitsCRT@G@ATL@@@@@ATL@@AAE_NPBX@Z
_TEXT	SEGMENT
$T93217 = -240						; size = 8
_nID$92726 = -32					; size = 4
_bRet$ = -17						; size = 1
_this$ = -8						; size = 4
_pv$ = 8						; size = 4
?CheckImplicitLoad@?$CStringT@GV?$StrTraitMFC@GV?$ChTraitsCRT@G@ATL@@@@@ATL@@AAE_NPBX@Z PROC NEAR ; ATL::CStringT<unsigned short,StrTraitMFC<unsigned short,ATL::ChTraitsCRT<unsigned short> > >::CheckImplicitLoad, COMDAT
; _this$ = ecx

; 2229 : 	{

	push	ebp
	mov	ebp, esp
	sub	esp, 244				; 000000f4H
	push	ebx
	push	esi
	push	edi
	push	ecx
	lea	edi, DWORD PTR [ebp-244]
	mov	ecx, 61					; 0000003dH
	mov	eax, -858993460				; ccccccccH
	rep stosd
	pop	ecx
	mov	DWORD PTR _this$[ebp], ecx

; 2230 : 		bool bRet = false;

	mov	BYTE PTR _bRet$[ebp], 0

; 2231 : 
; 2232 : 		if( (pv != NULL) && IS_INTRESOURCE( pv ) )

	cmp	DWORD PTR _pv$[ebp], 0
	je	SHORT $L92725
	mov	eax, DWORD PTR _pv$[ebp]
	shr	eax, 16					; 00000010H
	test	eax, eax
	jne	SHORT $L92725

; 2233 : 		{
; 2234 : 			UINT nID = LOWORD( reinterpret_cast< DWORD_PTR >( pv ) );

	mov	ecx, DWORD PTR _pv$[ebp]
	and	ecx, 65535				; 0000ffffH
	call	@_RTC_Check_4_to_2@4
	movzx	eax, ax
	mov	DWORD PTR _nID$92726[ebp], eax

; 2235 : 			if( !LoadString( nID ) )

	mov	eax, DWORD PTR _nID$92726[ebp]
	push	eax
	mov	ecx, DWORD PTR _this$[ebp]
	call	?LoadStringW@?$CStringT@GV?$StrTraitMFC@GV?$ChTraitsCRT@G@ATL@@@@@ATL@@QAEHI@Z ; ATL::CStringT<unsigned short,StrTraitMFC<unsigned short,ATL::ChTraitsCRT<unsigned short> > >::LoadStringW
	test	eax, eax
	jne	SHORT $L92730

; 2236 : 			{
; 2237 : 				ATLTRACE( atlTraceString, 2, _T( "Warning: implicit LoadString(%u) failed\n" ), nID );

	mov	eax, DWORD PTR _nID$92726[ebp]
	push	eax
	push	OFFSET FLAT:??_C@_1FC@BMOLDHIO@?$AAW?$AAa?$AAr?$AAn?$AAi?$AAn?$AAg?$AA?3?$AA?5?$AAi?$AAm?$AAp?$AAl?$AAi?$AAc?$AAi?$AAt?$AA?5?$AAL?$AAo@
	push	2
	mov	ecx, OFFSET FLAT:?atlTraceString@ATL@@3VCTraceCategory@1@A ; ATL::atlTraceString
	call	??BCTraceCategory@ATL@@QBEKXZ		; ATL::CTraceCategory::operator unsigned long
	push	eax
	push	2237					; 000008bdH
	push	OFFSET FLAT:??_C@_0FB@BCKJDECD@c?3?2program?5files?2microsoft?5visua@
	lea	ecx, DWORD PTR $T93217[ebp]
	call	??0CTraceFileAndLineInfo@ATL@@QAE@PBDH@Z ; ATL::CTraceFileAndLineInfo::CTraceFileAndLineInfo
	push	eax
	call	??RCTraceFileAndLineInfo@ATL@@QBAXKIPBGZZ ; ATL::CTraceFileAndLineInfo::operator()
	add	esp, 20					; 00000014H
$L92730:

; 2238 : 			}
; 2239 : 			bRet = true;

	mov	BYTE PTR _bRet$[ebp], 1
$L92725:

; 2240 : 		}
; 2241 : 
; 2242 : 		return( bRet );

	mov	al, BYTE PTR _bRet$[ebp]

; 2243 : 	}

	pop	edi
	pop	esi
	pop	ebx
	add	esp, 244				; 000000f4H
	cmp	ebp, esp
	call	__RTC_CheckEsp
	mov	esp, ebp
	pop	ebp
	ret	4
?CheckImplicitLoad@?$CStringT@GV?$StrTraitMFC@GV?$ChTraitsCRT@G@ATL@@@@@ATL@@AAE_NPBX@Z ENDP ; ATL::CStringT<unsigned short,StrTraitMFC<unsigned short,ATL::ChTraitsCRT<unsigned short> > >::CheckImplicitLoad
; Function compile flags: /Odt /RTCcsu /ZI
; File c:\program files\microsoft visual studio .net 2003\vc7\atlmfc\include\atltrace.h
_TEXT	ENDS
;	COMDAT ??0CTraceFileAndLineInfo@ATL@@QAE@PBDH@Z
_TEXT	SEGMENT
_this$ = -8						; size = 4
_pszFileName$ = 8					; size = 4
_nLineNo$ = 12						; size = 4
??0CTraceFileAndLineInfo@ATL@@QAE@PBDH@Z PROC NEAR	; ATL::CTraceFileAndLineInfo::CTraceFileAndLineInfo, COMDAT
; _this$ = ecx

; 158  : 	{}

	push	ebp
	mov	ebp, esp
	sub	esp, 204				; 000000ccH
	push	ebx
	push	esi
	push	edi
	push	ecx
	lea	edi, DWORD PTR [ebp-204]
	mov	ecx, 51					; 00000033H
	mov	eax, -858993460				; ccccccccH
	rep stosd
	pop	ecx
	mov	DWORD PTR _this$[ebp], ecx
	mov	eax, DWORD PTR _this$[ebp]
	mov	ecx, DWORD PTR _pszFileName$[ebp]
	mov	DWORD PTR [eax], ecx
	mov	eax, DWORD PTR _this$[ebp]
	mov	ecx, DWORD PTR _nLineNo$[ebp]
	mov	DWORD PTR [eax+4], ecx
	mov	eax, DWORD PTR _this$[ebp]
	pop	edi
	pop	esi
	pop	ebx
	mov	esp, ebp
	pop	ebp
	ret	8
??0CTraceFileAndLineInfo@ATL@@QAE@PBDH@Z ENDP		; ATL::CTraceFileAndLineInfo::CTraceFileAndLineInfo
_TEXT	ENDS
PUBLIC	?TraceV@CTrace@ATL@@QBAXPBDHKIPBGPAD@Z		; ATL::CTrace::TraceV
EXTRN	?s_trace@CTrace@ATL@@2V12@A:QWORD		; ATL::CTrace::s_trace
; Function compile flags: /Odt /RTCcsu /ZI
;	COMDAT ??RCTraceFileAndLineInfo@ATL@@QBAXKIPBGZZ
_TEXT	SEGMENT
_ptr$ = -8						; size = 4
_this$ = 8						; size = 4
_dwCategory$ = 12					; size = 4
_nLevel$ = 16						; size = 4
_pszFmt$ = 20						; size = 4
??RCTraceFileAndLineInfo@ATL@@QBAXKIPBGZZ PROC NEAR	; ATL::CTraceFileAndLineInfo::operator(), COMDAT

; 167  : 	{

	push	ebp
	mov	ebp, esp
	sub	esp, 204				; 000000ccH
	push	ebx
	push	esi
	push	edi
	lea	edi, DWORD PTR [ebp-204]
	mov	ecx, 51					; 00000033H
	mov	eax, -858993460				; ccccccccH
	rep stosd

; 168  : 		va_list ptr; va_start(ptr, pszFmt);

	lea	eax, DWORD PTR _pszFmt$[ebp+4]
	mov	DWORD PTR _ptr$[ebp], eax

; 169  : 		ATL::CTrace::s_trace.TraceV(m_pszFileName, m_nLineNo, dwCategory, nLevel, pszFmt, ptr);

	mov	eax, DWORD PTR _ptr$[ebp]
	push	eax
	mov	ecx, DWORD PTR _pszFmt$[ebp]
	push	ecx
	mov	edx, DWORD PTR _nLevel$[ebp]
	push	edx
	mov	eax, DWORD PTR _dwCategory$[ebp]
	push	eax
	mov	ecx, DWORD PTR _this$[ebp]
	mov	edx, DWORD PTR [ecx+4]
	push	edx
	mov	eax, DWORD PTR _this$[ebp]
	mov	ecx, DWORD PTR [eax]
	push	ecx
	push	OFFSET FLAT:?s_trace@CTrace@ATL@@2V12@A
	call	?TraceV@CTrace@ATL@@QBAXPBDHKIPBGPAD@Z	; ATL::CTrace::TraceV
	add	esp, 28					; 0000001cH

; 170  : 		va_end(ptr);

	mov	DWORD PTR _ptr$[ebp], 0

; 171  : 	}

	pop	edi
	pop	esi
	pop	ebx
	add	esp, 204				; 000000ccH
	cmp	ebp, esp
	call	__RTC_CheckEsp
	mov	esp, ebp
	pop	ebp
	ret	0
??RCTraceFileAndLineInfo@ATL@@QBAXKIPBGZZ ENDP		; ATL::CTraceFileAndLineInfo::operator()
_TEXT	ENDS
EXTRN	_AtlTraceVU:NEAR
; Function compile flags: /Odt /RTCcsu /ZI
;	COMDAT ?TraceV@CTrace@ATL@@QBAXPBDHKIPBGPAD@Z
_TEXT	SEGMENT
_this$ = 8						; size = 4
_pszFileName$ = 12					; size = 4
_nLine$ = 16						; size = 4
_dwCategory$ = 20					; size = 4
_nLevel$ = 24						; size = 4
_pszFmt$ = 28						; size = 4
_args$ = 32						; size = 4
?TraceV@CTrace@ATL@@QBAXPBDHKIPBGPAD@Z PROC NEAR	; ATL::CTrace::TraceV, COMDAT

; 126  : 	{

	push	ebp
	mov	ebp, esp
	sub	esp, 192				; 000000c0H
	push	ebx
	push	esi
	push	edi
	lea	edi, DWORD PTR [ebp-192]
	mov	ecx, 48					; 00000030H
	mov	eax, -858993460				; ccccccccH
	rep stosd

; 127  : 		AtlTraceVU(m_dwModule, pszFileName, nLine, dwCategory, nLevel, pszFmt, args);

	mov	eax, DWORD PTR _args$[ebp]
	push	eax
	mov	ecx, DWORD PTR _pszFmt$[ebp]
	push	ecx
	mov	edx, DWORD PTR _nLevel$[ebp]
	push	edx
	mov	eax, DWORD PTR _dwCategory$[ebp]
	push	eax
	mov	ecx, DWORD PTR _nLine$[ebp]
	push	ecx
	mov	edx, DWORD PTR _pszFileName$[ebp]
	push	edx
	mov	eax, DWORD PTR _this$[ebp]
	mov	ecx, DWORD PTR [eax+4]
	push	ecx
	call	_AtlTraceVU
	add	esp, 28					; 0000001cH

; 128  : 	}

	pop	edi
	pop	esi
	pop	ebx
	add	esp, 192				; 000000c0H
	cmp	ebp, esp
	call	__RTC_CheckEsp
	mov	esp, ebp
	pop	ebp
	ret	0
?TraceV@CTrace@ATL@@QBAXPBDHKIPBGPAD@Z ENDP		; ATL::CTrace::TraceV
; Function compile flags: /Odt /RTCcsu /ZI
_TEXT	ENDS
;	COMDAT ??BCTraceCategory@ATL@@QBEKXZ
_TEXT	SEGMENT
_this$ = -8						; size = 4
??BCTraceCategory@ATL@@QBEKXZ PROC NEAR			; ATL::CTraceCategory::operator unsigned long, COMDAT
; _this$ = ecx

; 202  : {

	push	ebp
	mov	ebp, esp
	sub	esp, 204				; 000000ccH
	push	ebx
	push	esi
	push	edi
	push	ecx
	lea	edi, DWORD PTR [ebp-204]
	mov	ecx, 51					; 00000033H
	mov	eax, -858993460				; ccccccccH
	rep stosd
	pop	ecx
	mov	DWORD PTR _this$[ebp], ecx

; 203  : 	return( m_dwCategory );

	mov	eax, DWORD PTR _this$[ebp]
	mov	eax, DWORD PTR [eax]

; 204  : }

	pop	edi
	pop	esi
	pop	ebx
	mov	esp, ebp
	pop	ebp
	ret	0
??BCTraceCategory@ATL@@QBEKXZ ENDP			; ATL::CTraceCategory::operator unsigned long
_TEXT	ENDS
PUBLIC	?LoadStringW@?$CStringT@GV?$StrTraitMFC@GV?$ChTraitsCRT@G@ATL@@@@@ATL@@QAEHPAUHINSTANCE__@@I@Z ; ATL::CStringT<unsigned short,StrTraitMFC<unsigned short,ATL::ChTraitsCRT<unsigned short> > >::LoadStringW
PUBLIC	?FindStringResourceInstance@?$StrTraitMFC@GV?$ChTraitsCRT@G@ATL@@@@SAPAUHINSTANCE__@@I@Z ; StrTraitMFC<unsigned short,ATL::ChTraitsCRT<unsigned short> >::FindStringResourceInstance
; Function compile flags: /Odt /RTCcsu /ZI
; File c:\program files\microsoft visual studio .net 2003\vc7\atlmfc\include\cstringt.h
;	COMDAT ?LoadStringW@?$CStringT@GV?$StrTraitMFC@GV?$ChTraitsCRT@G@ATL@@@@@ATL@@QAEHI@Z
_TEXT	SEGMENT
_hInst$ = -20						; size = 4
_this$ = -8						; size = 4
_nID$ = 8						; size = 4
?LoadStringW@?$CStringT@GV?$StrTraitMFC@GV?$ChTraitsCRT@G@ATL@@@@@ATL@@QAEHI@Z PROC NEAR ; ATL::CStringT<unsigned short,StrTraitMFC<unsigned short,ATL::ChTraitsCRT<unsigned short> > >::LoadStringW, COMDAT
; _this$ = ecx

; 1969 : 	{

	push	ebp
	mov	ebp, esp
	sub	esp, 216				; 000000d8H
	push	ebx
	push	esi
	push	edi
	push	ecx
	lea	edi, DWORD PTR [ebp-216]
	mov	ecx, 54					; 00000036H
	mov	eax, -858993460				; ccccccccH
	rep stosd
	pop	ecx
	mov	DWORD PTR _this$[ebp], ecx

; 1970 : 		HINSTANCE hInst = StringTraits::FindStringResourceInstance( nID );

	mov	eax, DWORD PTR _nID$[ebp]
	push	eax
	call	?FindStringResourceInstance@?$StrTraitMFC@GV?$ChTraitsCRT@G@ATL@@@@SAPAUHINSTANCE__@@I@Z ; StrTraitMFC<unsigned short,ATL::ChTraitsCRT<unsigned short> >::FindStringResourceInstance
	add	esp, 4
	mov	DWORD PTR _hInst$[ebp], eax

; 1971 : 		if( hInst == NULL )

	cmp	DWORD PTR _hInst$[ebp], 0
	jne	SHORT $L92647

; 1972 : 		{
; 1973 : 			return( FALSE );

	xor	eax, eax
	jmp	SHORT $L92645
$L92647:

; 1974 : 		}
; 1975 : 
; 1976 : 		return( LoadString( hInst, nID ) );		

	mov	eax, DWORD PTR _nID$[ebp]
	push	eax
	mov	ecx, DWORD PTR _hInst$[ebp]
	push	ecx
	mov	ecx, DWORD PTR _this$[ebp]
	call	?LoadStringW@?$CStringT@GV?$StrTraitMFC@GV?$ChTraitsCRT@G@ATL@@@@@ATL@@QAEHPAUHINSTANCE__@@I@Z ; ATL::CStringT<unsigned short,StrTraitMFC<unsigned short,ATL::ChTraitsCRT<unsigned short> > >::LoadStringW
$L92645:

; 1977 : 	}

	pop	edi
	pop	esi
	pop	ebx
	add	esp, 216				; 000000d8H
	cmp	ebp, esp
	call	__RTC_CheckEsp
	mov	esp, ebp
	pop	ebp
	ret	4
?LoadStringW@?$CStringT@GV?$StrTraitMFC@GV?$ChTraitsCRT@G@ATL@@@@@ATL@@QAEHI@Z ENDP ; ATL::CStringT<unsigned short,StrTraitMFC<unsigned short,ATL::ChTraitsCRT<unsigned short> > >::LoadStringW
_TEXT	ENDS
PUBLIC	?AtlGetStringResourceImage@ATL@@YAPBUATLSTRINGRESOURCEIMAGE@1@PAUHINSTANCE__@@I@Z ; ATL::AtlGetStringResourceImage
PUBLIC	?GetBuffer@?$CSimpleStringT@G$0A@@ATL@@QAEPAGH@Z ; ATL::CSimpleStringT<unsigned short,0>::GetBuffer
PUBLIC	?ReleaseBufferSetLength@?$CSimpleStringT@G$0A@@ATL@@QAEXH@Z ; ATL::CSimpleStringT<unsigned short,0>::ReleaseBufferSetLength
PUBLIC	?GetBaseTypeLength@?$ChTraitsCRT@G@ATL@@SAHPBGH@Z ; ATL::ChTraitsCRT<unsigned short>::GetBaseTypeLength
PUBLIC	?ConvertToBaseType@?$ChTraitsCRT@G@ATL@@SAXPAGHPBGH@Z ; ATL::ChTraitsCRT<unsigned short>::ConvertToBaseType
; Function compile flags: /Odt /RTCcsu /ZI
;	COMDAT ?LoadStringW@?$CStringT@GV?$StrTraitMFC@GV?$ChTraitsCRT@G@ATL@@@@@ATL@@QAEHPAUHINSTANCE__@@I@Z
_TEXT	SEGMENT
_pszBuffer$ = -44					; size = 4
_nLength$ = -32						; size = 4
_pImage$ = -20						; size = 4
_this$ = -8						; size = 4
_hInstance$ = 8						; size = 4
_nID$ = 12						; size = 4
?LoadStringW@?$CStringT@GV?$StrTraitMFC@GV?$ChTraitsCRT@G@ATL@@@@@ATL@@QAEHPAUHINSTANCE__@@I@Z PROC NEAR ; ATL::CStringT<unsigned short,StrTraitMFC<unsigned short,ATL::ChTraitsCRT<unsigned short> > >::LoadStringW, COMDAT
; _this$ = ecx

; 1981 : 	{

	push	ebp
	mov	ebp, esp
	sub	esp, 240				; 000000f0H
	push	ebx
	push	esi
	push	edi
	push	ecx
	lea	edi, DWORD PTR [ebp-240]
	mov	ecx, 60					; 0000003cH
	mov	eax, -858993460				; ccccccccH
	rep stosd
	pop	ecx
	mov	DWORD PTR _this$[ebp], ecx

; 1982 : 		const ATLSTRINGRESOURCEIMAGE* pImage = AtlGetStringResourceImage( hInstance, nID );

	mov	eax, DWORD PTR _nID$[ebp]
	push	eax
	mov	ecx, DWORD PTR _hInstance$[ebp]
	push	ecx
	call	?AtlGetStringResourceImage@ATL@@YAPBUATLSTRINGRESOURCEIMAGE@1@PAUHINSTANCE__@@I@Z ; ATL::AtlGetStringResourceImage
	add	esp, 8
	mov	DWORD PTR _pImage$[ebp], eax

; 1983 : 		if( pImage == NULL )

	cmp	DWORD PTR _pImage$[ebp], 0
	jne	SHORT $L92718

; 1984 : 		{
; 1985 : 			return( FALSE );

	xor	eax, eax
	jmp	SHORT $L92716
$L92718:

; 1986 : 		}
; 1987 : 
; 1988 : 		int nLength = StringTraits::GetBaseTypeLength( pImage->achString, pImage->nLength );

	mov	eax, DWORD PTR _pImage$[ebp]
	movzx	ecx, WORD PTR [eax]
	push	ecx
	mov	edx, DWORD PTR _pImage$[ebp]
	add	edx, 2
	push	edx
	call	?GetBaseTypeLength@?$ChTraitsCRT@G@ATL@@SAHPBGH@Z ; ATL::ChTraitsCRT<unsigned short>::GetBaseTypeLength
	add	esp, 8
	mov	DWORD PTR _nLength$[ebp], eax

; 1989 : 		PXSTR pszBuffer = GetBuffer( nLength );

	mov	eax, DWORD PTR _nLength$[ebp]
	push	eax
	mov	ecx, DWORD PTR _this$[ebp]
	call	?GetBuffer@?$CSimpleStringT@G$0A@@ATL@@QAEPAGH@Z ; ATL::CSimpleStringT<unsigned short,0>::GetBuffer
	mov	DWORD PTR _pszBuffer$[ebp], eax

; 1990 : 		StringTraits::ConvertToBaseType( pszBuffer, nLength, pImage->achString, pImage->nLength );

	mov	eax, DWORD PTR _pImage$[ebp]
	movzx	ecx, WORD PTR [eax]
	push	ecx
	mov	edx, DWORD PTR _pImage$[ebp]
	add	edx, 2
	push	edx
	mov	eax, DWORD PTR _nLength$[ebp]
	push	eax
	mov	ecx, DWORD PTR _pszBuffer$[ebp]
	push	ecx
	call	?ConvertToBaseType@?$ChTraitsCRT@G@ATL@@SAXPAGHPBGH@Z ; ATL::ChTraitsCRT<unsigned short>::ConvertToBaseType
	add	esp, 16					; 00000010H

; 1991 : 		ReleaseBufferSetLength( nLength );

	mov	eax, DWORD PTR _nLength$[ebp]
	push	eax
	mov	ecx, DWORD PTR _this$[ebp]
	call	?ReleaseBufferSetLength@?$CSimpleStringT@G$0A@@ATL@@QAEXH@Z ; ATL::CSimpleStringT<unsigned short,0>::ReleaseBufferSetLength

; 1992 : 
; 1993 : 		return( TRUE );

	mov	eax, 1
$L92716:

; 1994 : 	}

	pop	edi
	pop	esi
	pop	ebx
	add	esp, 240				; 000000f0H
	cmp	ebp, esp
	call	__RTC_CheckEsp
	mov	esp, ebp
	pop	ebp
	ret	8
?LoadStringW@?$CStringT@GV?$StrTraitMFC@GV?$ChTraitsCRT@G@ATL@@@@@ATL@@QAEHPAUHINSTANCE__@@I@Z ENDP ; ATL::CStringT<unsigned short,StrTraitMFC<unsigned short,ATL::ChTraitsCRT<unsigned short> > >::LoadStringW
_TEXT	ENDS
PUBLIC	?_AtlGetStringResourceImage@ATL@@YAPBUATLSTRINGRESOURCEIMAGE@1@PAUHINSTANCE__@@PAUHRSRC__@@I@Z ; ATL::_AtlGetStringResourceImage
EXTRN	__imp__FindResourceW@12:NEAR
; Function compile flags: /Odt /RTCcsu /ZI
; File c:\program files\microsoft visual studio .net 2003\vc7\atlmfc\include\atlcore.h
;	COMDAT ?AtlGetStringResourceImage@ATL@@YAPBUATLSTRINGRESOURCEIMAGE@1@PAUHINSTANCE__@@I@Z
_TEXT	SEGMENT
_hResource$ = -8					; size = 4
_hInstance$ = 8						; size = 4
_id$ = 12						; size = 4
?AtlGetStringResourceImage@ATL@@YAPBUATLSTRINGRESOURCEIMAGE@1@PAUHINSTANCE__@@I@Z PROC NEAR ; ATL::AtlGetStringResourceImage, COMDAT

; 280  : {

	push	ebp
	mov	ebp, esp
	sub	esp, 204				; 000000ccH
	push	ebx
	push	esi
	push	edi
	lea	edi, DWORD PTR [ebp-204]
	mov	ecx, 51					; 00000033H
	mov	eax, -858993460				; ccccccccH
	rep stosd

; 281  : 	HRSRC hResource;
; 282  : 
; 283  : 	hResource = ::FindResource( hInstance, MAKEINTRESOURCE( ((id>>4)+1) ), RT_STRING );

	mov	esi, esp
	push	6
	mov	ecx, DWORD PTR _id$[ebp]
	shr	ecx, 4
	add	ecx, 1
	call	@_RTC_Check_4_to_2@4
	movzx	eax, ax
	push	eax
	mov	ecx, DWORD PTR _hInstance$[ebp]
	push	ecx
	call	DWORD PTR __imp__FindResourceW@12
	cmp	esi, esp
	call	__RTC_CheckEsp
	mov	DWORD PTR _hResource$[ebp], eax

; 284  : 	if( hResource == NULL )

	cmp	DWORD PTR _hResource$[ebp], 0
	jne	SHORT $L25769

; 285  : 	{
; 286  : 		return( NULL );

	xor	eax, eax
	jmp	SHORT $L25761
$L25769:

; 287  : 	}
; 288  : 
; 289  : 	return _AtlGetStringResourceImage( hInstance, hResource, id );

	mov	eax, DWORD PTR _id$[ebp]
	push	eax
	mov	ecx, DWORD PTR _hResource$[ebp]
	push	ecx
	mov	edx, DWORD PTR _hInstance$[ebp]
	push	edx
	call	?_AtlGetStringResourceImage@ATL@@YAPBUATLSTRINGRESOURCEIMAGE@1@PAUHINSTANCE__@@PAUHRSRC__@@I@Z ; ATL::_AtlGetStringResourceImage
	add	esp, 12					; 0000000cH
$L25761:

; 290  : }

	pop	edi
	pop	esi
	pop	ebx
	add	esp, 204				; 000000ccH
	cmp	ebp, esp
	call	__RTC_CheckEsp
	mov	esp, ebp
	pop	ebp
	ret	0
?AtlGetStringResourceImage@ATL@@YAPBUATLSTRINGRESOURCEIMAGE@1@PAUHINSTANCE__@@I@Z ENDP ; ATL::AtlGetStringResourceImage
_TEXT	ENDS
EXTRN	__imp__LockResource@4:NEAR
EXTRN	__imp__LoadResource@8:NEAR
EXTRN	__imp__SizeofResource@8:NEAR
; Function compile flags: /Odt /RTCcsu /ZI
;	COMDAT ?_AtlGetStringResourceImage@ATL@@YAPBUATLSTRINGRESOURCEIMAGE@1@PAUHINSTANCE__@@PAUHRSRC__@@I@Z
_TEXT	SEGMENT
_iIndex$ = -56						; size = 4
_hGlobal$ = -44						; size = 4
_nResourceSize$ = -32					; size = 4
_pImageEnd$ = -20					; size = 4
_pImage$ = -8						; size = 4
_hInstance$ = 8						; size = 4
_hResource$ = 12					; size = 4
_id$ = 16						; size = 4
?_AtlGetStringResourceImage@ATL@@YAPBUATLSTRINGRESOURCEIMAGE@1@PAUHINSTANCE__@@PAUHRSRC__@@I@Z PROC NEAR ; ATL::_AtlGetStringResourceImage, COMDAT

; 239  : {

	push	ebp
	mov	ebp, esp
	sub	esp, 252				; 000000fcH
	push	ebx
	push	esi
	push	edi
	lea	edi, DWORD PTR [ebp-252]
	mov	ecx, 63					; 0000003fH
	mov	eax, -858993460				; ccccccccH
	rep stosd

; 240  : 	const ATLSTRINGRESOURCEIMAGE* pImage;
; 241  : 	const ATLSTRINGRESOURCEIMAGE* pImageEnd;
; 242  : 	ULONG nResourceSize;
; 243  : 	HGLOBAL hGlobal;
; 244  : 	UINT iIndex;
; 245  : 
; 246  : 	hGlobal = ::LoadResource( hInstance, hResource );

	mov	esi, esp
	mov	eax, DWORD PTR _hResource$[ebp]
	push	eax
	mov	ecx, DWORD PTR _hInstance$[ebp]
	push	ecx
	call	DWORD PTR __imp__LoadResource@8
	cmp	esi, esp
	call	__RTC_CheckEsp
	mov	DWORD PTR _hGlobal$[ebp], eax

; 247  : 	if( hGlobal == NULL )

	cmp	DWORD PTR _hGlobal$[ebp], 0
	jne	SHORT $L25746

; 248  : 	{
; 249  : 		return( NULL );

	xor	eax, eax
	jmp	$L25740
$L25746:

; 250  : 	}
; 251  : 
; 252  : 	pImage = (const ATLSTRINGRESOURCEIMAGE*)::LockResource( hGlobal );

	mov	esi, esp
	mov	eax, DWORD PTR _hGlobal$[ebp]
	push	eax
	call	DWORD PTR __imp__LockResource@4
	cmp	esi, esp
	call	__RTC_CheckEsp
	mov	DWORD PTR _pImage$[ebp], eax

; 253  : 	if( pImage == NULL )

	cmp	DWORD PTR _pImage$[ebp], 0
	jne	SHORT $L25748

; 254  : 	{
; 255  : 		return( NULL );

	xor	eax, eax
	jmp	SHORT $L25740
$L25748:

; 256  : 	}
; 257  : 
; 258  : 	nResourceSize = ::SizeofResource( hInstance, hResource );

	mov	esi, esp
	mov	eax, DWORD PTR _hResource$[ebp]
	push	eax
	mov	ecx, DWORD PTR _hInstance$[ebp]
	push	ecx
	call	DWORD PTR __imp__SizeofResource@8
	cmp	esi, esp
	call	__RTC_CheckEsp
	mov	DWORD PTR _nResourceSize$[ebp], eax

; 259  : 	pImageEnd = (const ATLSTRINGRESOURCEIMAGE*)(LPBYTE( pImage )+nResourceSize);

	mov	eax, DWORD PTR _pImage$[ebp]
	add	eax, DWORD PTR _nResourceSize$[ebp]
	mov	DWORD PTR _pImageEnd$[ebp], eax

; 260  : 	iIndex = id&0x000f;

	mov	eax, DWORD PTR _id$[ebp]
	and	eax, 15					; 0000000fH
	mov	DWORD PTR _iIndex$[ebp], eax
$L25751:

; 261  : 
; 262  : 	while( (iIndex > 0) && (pImage < pImageEnd) )

	cmp	DWORD PTR _iIndex$[ebp], 0
	jbe	SHORT $L25752
	mov	eax, DWORD PTR _pImage$[ebp]
	cmp	eax, DWORD PTR _pImageEnd$[ebp]
	jae	SHORT $L25752

; 263  : 	{
; 264  : 		pImage = (const ATLSTRINGRESOURCEIMAGE*)(LPBYTE( pImage )+(sizeof( ATLSTRINGRESOURCEIMAGE )+(pImage->nLength*sizeof( WCHAR ))));

	mov	eax, DWORD PTR _pImage$[ebp]
	movzx	ecx, WORD PTR [eax]
	mov	edx, DWORD PTR _pImage$[ebp]
	lea	eax, DWORD PTR [edx+ecx*2+2]
	mov	DWORD PTR _pImage$[ebp], eax

; 265  : 		iIndex--;

	mov	eax, DWORD PTR _iIndex$[ebp]
	sub	eax, 1
	mov	DWORD PTR _iIndex$[ebp], eax

; 266  : 	}

	jmp	SHORT $L25751
$L25752:

; 267  : 	if( pImage >= pImageEnd )

	mov	eax, DWORD PTR _pImage$[ebp]
	cmp	eax, DWORD PTR _pImageEnd$[ebp]
	jb	SHORT $L25756

; 268  : 	{
; 269  : 		return( NULL );

	xor	eax, eax
	jmp	SHORT $L25740
$L25756:

; 270  : 	}
; 271  : 	if( pImage->nLength == 0 )

	mov	eax, DWORD PTR _pImage$[ebp]
	movzx	ecx, WORD PTR [eax]
	test	ecx, ecx
	jne	SHORT $L25757

; 272  : 	{
; 273  : 		return( NULL );

	xor	eax, eax
	jmp	SHORT $L25740
$L25757:

; 274  : 	}
; 275  : 
; 276  : 	return( pImage );

	mov	eax, DWORD PTR _pImage$[ebp]
$L25740:

; 277  : }

	pop	edi
	pop	esi
	pop	ebx
	add	esp, 252				; 000000fcH
	cmp	ebp, esp
	call	__RTC_CheckEsp
	mov	esp, ebp
	pop	ebp
	ret	0
?_AtlGetStringResourceImage@ATL@@YAPBUATLSTRINGRESOURCEIMAGE@1@PAUHINSTANCE__@@PAUHRSRC__@@I@Z ENDP ; ATL::_AtlGetStringResourceImage
; Function compile flags: /Odt /RTCcsu /ZI
; File c:\program files\microsoft visual studio .net 2003\vc7\atlmfc\include\cstringt.h
_TEXT	ENDS
;	COMDAT ?GetBaseTypeLength@?$ChTraitsCRT@G@ATL@@SAHPBGH@Z
_TEXT	SEGMENT
_pszSrc$ = 8						; size = 4
_nLength$ = 12						; size = 4
?GetBaseTypeLength@?$ChTraitsCRT@G@ATL@@SAHPBGH@Z PROC NEAR ; ATL::ChTraitsCRT<unsigned short>::GetBaseTypeLength, COMDAT

; 671  : 	{

	push	ebp
	mov	ebp, esp
	sub	esp, 192				; 000000c0H
	push	ebx
	push	esi
	push	edi
	lea	edi, DWORD PTR [ebp-192]
	mov	ecx, 48					; 00000030H
	mov	eax, -858993460				; ccccccccH
	rep stosd

; 672  : 		(void)pszSrc;
; 673  : 		// Returns required buffer size in wchar_ts
; 674  : 		return nLength;

	mov	eax, DWORD PTR _nLength$[ebp]

; 675  : 	}

	pop	edi
	pop	esi
	pop	ebx
	mov	esp, ebp
	pop	ebp
	ret	0
?GetBaseTypeLength@?$ChTraitsCRT@G@ATL@@SAHPBGH@Z ENDP	; ATL::ChTraitsCRT<unsigned short>::GetBaseTypeLength
_TEXT	ENDS
EXTRN	_memcpy:NEAR
; Function compile flags: /Odt /RTCcsu /ZI
;	COMDAT ?ConvertToBaseType@?$ChTraitsCRT@G@ATL@@SAXPAGHPBGH@Z
_TEXT	SEGMENT
_pszDest$ = 8						; size = 4
_nDestLength$ = 12					; size = 4
_pszSrc$ = 16						; size = 4
_nSrcLength$ = 20					; size = 4
?ConvertToBaseType@?$ChTraitsCRT@G@ATL@@SAXPAGHPBGH@Z PROC NEAR ; ATL::ChTraitsCRT<unsigned short>::ConvertToBaseType, COMDAT

; 686  : 	{

	push	ebp
	mov	ebp, esp
	sub	esp, 192				; 000000c0H
	push	ebx
	push	esi
	push	edi
	lea	edi, DWORD PTR [ebp-192]
	mov	ecx, 48					; 00000030H
	mov	eax, -858993460				; ccccccccH
	rep stosd

; 687  : 		(void)nSrcLength;
; 688  : 		// nLen is in wchar_ts
; 689  : 		memcpy( pszDest, pszSrc, nDestLength*sizeof( wchar_t ) );

	mov	eax, DWORD PTR _nDestLength$[ebp]
	shl	eax, 1
	push	eax
	mov	ecx, DWORD PTR _pszSrc$[ebp]
	push	ecx
	mov	edx, DWORD PTR _pszDest$[ebp]
	push	edx
	call	_memcpy
	add	esp, 12					; 0000000cH

; 690  : 	}

	pop	edi
	pop	esi
	pop	ebx
	add	esp, 192				; 000000c0H
	cmp	ebp, esp
	call	__RTC_CheckEsp
	mov	esp, ebp
	pop	ebp
	ret	0
?ConvertToBaseType@?$ChTraitsCRT@G@ATL@@SAXPAGHPBGH@Z ENDP ; ATL::ChTraitsCRT<unsigned short>::ConvertToBaseType
_TEXT	ENDS
PUBLIC	??_C@_0BA@GOIMFHNK@pStringMgr?5?$CB?$DN?50?$AA@	; `string'
;	COMDAT ??_C@_0BA@GOIMFHNK@pStringMgr?5?$CB?$DN?50?$AA@
; File c:\program files\microsoft visual studio .net 2003\vc7\atlmfc\include\atlsimpstr.h
CONST	SEGMENT
??_C@_0BA@GOIMFHNK@pStringMgr?5?$CB?$DN?50?$AA@ DB 'pStringMgr != 0', 00H ; `string'
; Function compile flags: /Odt /RTCcsu /ZI
CONST	ENDS
;	COMDAT ??0?$CSimpleStringT@G$0A@@ATL@@QAE@PAUIAtlStringMgr@1@@Z
_TEXT	SEGMENT
_pData$ = -20						; size = 4
_this$ = -8						; size = 4
_pStringMgr$ = 8					; size = 4
??0?$CSimpleStringT@G$0A@@ATL@@QAE@PAUIAtlStringMgr@1@@Z PROC NEAR ; ATL::CSimpleStringT<unsigned short,0>::CSimpleStringT<unsigned short,0>, COMDAT
; _this$ = ecx

; 210  : 	explicit CSimpleStringT( IAtlStringMgr* pStringMgr ) throw()

	push	ebp
	mov	ebp, esp
	sub	esp, 216				; 000000d8H
	push	ebx
	push	esi
	push	edi
	push	ecx
	lea	edi, DWORD PTR [ebp-216]
	mov	ecx, 54					; 00000036H
	mov	eax, -858993460				; ccccccccH
	rep stosd
	pop	ecx
	mov	DWORD PTR _this$[ebp], ecx

; 211  : 	{
; 212  : 		ATLASSERT( pStringMgr != NULL );

	cmp	DWORD PTR _pStringMgr$[ebp], 0
	jne	SHORT $L93241
	push	OFFSET FLAT:??_C@_0BA@GOIMFHNK@pStringMgr?5?$CB?$DN?50?$AA@
	push	0
	push	212					; 000000d4H
	push	OFFSET FLAT:??_C@_0FD@JDCNPMMG@c?3?2program?5files?2microsoft?5visua@
	push	2
	call	__CrtDbgReport
	add	esp, 20					; 00000014H
	cmp	eax, 1
	jne	SHORT $L93241
	int	3
$L93241:

; 213  : 		CStringData* pData = pStringMgr->GetNilString();

	mov	eax, DWORD PTR _pStringMgr$[ebp]
	mov	edx, DWORD PTR [eax]
	mov	esi, esp
	mov	ecx, DWORD PTR _pStringMgr$[ebp]
	call	DWORD PTR [edx+12]
	cmp	esi, esp
	call	__RTC_CheckEsp
	mov	DWORD PTR _pData$[ebp], eax

; 214  : 		Attach( pData );

	mov	eax, DWORD PTR _pData$[ebp]
	push	eax
	mov	ecx, DWORD PTR _this$[ebp]
	call	?Attach@?$CSimpleStringT@G$0A@@ATL@@AAEXPAUCStringData@2@@Z ; ATL::CSimpleStringT<unsigned short,0>::Attach

; 215  : 	}

	mov	eax, DWORD PTR _this$[ebp]
	pop	edi
	pop	esi
	pop	ebx
	add	esp, 216				; 000000d8H
	cmp	ebp, esp
	call	__RTC_CheckEsp
	mov	esp, ebp
	pop	ebp
	ret	4
??0?$CSimpleStringT@G$0A@@ATL@@QAE@PAUIAtlStringMgr@1@@Z ENDP ; ATL::CSimpleStringT<unsigned short,0>::CSimpleStringT<unsigned short,0>
; Function compile flags: /Odt /RTCcsu /ZI
_TEXT	ENDS
;	COMDAT ??1?$CSimpleStringT@G$0A@@ATL@@QAE@XZ
_TEXT	SEGMENT
_pData$ = -20						; size = 4
_this$ = -8						; size = 4
??1?$CSimpleStringT@G$0A@@ATL@@QAE@XZ PROC NEAR		; ATL::CSimpleStringT<unsigned short,0>::~CSimpleStringT<unsigned short,0>, COMDAT
; _this$ = ecx

; 262  : 	{

	push	ebp
	mov	ebp, esp
	sub	esp, 216				; 000000d8H
	push	ebx
	push	esi
	push	edi
	push	ecx
	lea	edi, DWORD PTR [ebp-216]
	mov	ecx, 54					; 00000036H
	mov	eax, -858993460				; ccccccccH
	rep stosd
	pop	ecx
	mov	DWORD PTR _this$[ebp], ecx

; 263  : 		CStringData* pData = GetData();

	mov	ecx, DWORD PTR _this$[ebp]
	call	?GetData@?$CSimpleStringT@G$0A@@ATL@@ABEPAUCStringData@2@XZ ; ATL::CSimpleStringT<unsigned short,0>::GetData
	mov	DWORD PTR _pData$[ebp], eax

; 264  : 		pData->Release();

	mov	ecx, DWORD PTR _pData$[ebp]
	call	?Release@CStringData@ATL@@QAEXXZ	; ATL::CStringData::Release

; 265  : 	}

	pop	edi
	pop	esi
	pop	ebx
	add	esp, 216				; 000000d8H
	cmp	ebp, esp
	call	__RTC_CheckEsp
	mov	esp, ebp
	pop	ebp
	ret	0
??1?$CSimpleStringT@G$0A@@ATL@@QAE@XZ ENDP		; ATL::CSimpleStringT<unsigned short,0>::~CSimpleStringT<unsigned short,0>
_TEXT	ENDS
PUBLIC	?SetString@?$CSimpleStringT@G$0A@@ATL@@QAEXPBG@Z ; ATL::CSimpleStringT<unsigned short,0>::SetString
; Function compile flags: /Odt /RTCcsu /ZI
;	COMDAT ??4?$CSimpleStringT@G$0A@@ATL@@QAEAAV01@PBG@Z
_TEXT	SEGMENT
_this$ = -8						; size = 4
_pszSrc$ = 8						; size = 4
??4?$CSimpleStringT@G$0A@@ATL@@QAEAAV01@PBG@Z PROC NEAR	; ATL::CSimpleStringT<unsigned short,0>::operator=, COMDAT
; _this$ = ecx

; 315  : 	{

	push	ebp
	mov	ebp, esp
	sub	esp, 204				; 000000ccH
	push	ebx
	push	esi
	push	edi
	push	ecx
	lea	edi, DWORD PTR [ebp-204]
	mov	ecx, 51					; 00000033H
	mov	eax, -858993460				; ccccccccH
	rep stosd
	pop	ecx
	mov	DWORD PTR _this$[ebp], ecx

; 316  : 		SetString( pszSrc );

	mov	eax, DWORD PTR _pszSrc$[ebp]
	push	eax
	mov	ecx, DWORD PTR _this$[ebp]
	call	?SetString@?$CSimpleStringT@G$0A@@ATL@@QAEXPBG@Z ; ATL::CSimpleStringT<unsigned short,0>::SetString

; 317  : 
; 318  : 		return( *this );

	mov	eax, DWORD PTR _this$[ebp]

; 319  : 	}

	pop	edi
	pop	esi
	pop	ebx
	add	esp, 204				; 000000ccH
	cmp	ebp, esp
	call	__RTC_CheckEsp
	mov	esp, ebp
	pop	ebp
	ret	4
??4?$CSimpleStringT@G$0A@@ATL@@QAEAAV01@PBG@Z ENDP	; ATL::CSimpleStringT<unsigned short,0>::operator=
_TEXT	ENDS
PUBLIC	?PrepareWrite@?$CSimpleStringT@G$0A@@ATL@@AAEPAGH@Z ; ATL::CSimpleStringT<unsigned short,0>::PrepareWrite
; Function compile flags: /Odt /RTCcsu /ZI
;	COMDAT ?GetBuffer@?$CSimpleStringT@G$0A@@ATL@@QAEPAGH@Z
_TEXT	SEGMENT
_this$ = -8						; size = 4
_nMinBufferLength$ = 8					; size = 4
?GetBuffer@?$CSimpleStringT@G$0A@@ATL@@QAEPAGH@Z PROC NEAR ; ATL::CSimpleStringT<unsigned short,0>::GetBuffer, COMDAT
; _this$ = ecx

; 489  : 	{

	push	ebp
	mov	ebp, esp
	sub	esp, 204				; 000000ccH
	push	ebx
	push	esi
	push	edi
	push	ecx
	lea	edi, DWORD PTR [ebp-204]
	mov	ecx, 51					; 00000033H
	mov	eax, -858993460				; ccccccccH
	rep stosd
	pop	ecx
	mov	DWORD PTR _this$[ebp], ecx

; 490  : 		return( PrepareWrite( nMinBufferLength ) );

	mov	eax, DWORD PTR _nMinBufferLength$[ebp]
	push	eax
	mov	ecx, DWORD PTR _this$[ebp]
	call	?PrepareWrite@?$CSimpleStringT@G$0A@@ATL@@AAEPAGH@Z ; ATL::CSimpleStringT<unsigned short,0>::PrepareWrite

; 491  : 	}

	pop	edi
	pop	esi
	pop	ebx
	add	esp, 204				; 000000ccH
	cmp	ebp, esp
	call	__RTC_CheckEsp
	mov	esp, ebp
	pop	ebp
	ret	4
?GetBuffer@?$CSimpleStringT@G$0A@@ATL@@QAEPAGH@Z ENDP	; ATL::CSimpleStringT<unsigned short,0>::GetBuffer
; Function compile flags: /Odt /RTCcsu /ZI
_TEXT	ENDS
;	COMDAT ?GetData@?$CSimpleStringT@G$0A@@ATL@@ABEPAUCStringData@2@XZ
_TEXT	SEGMENT
_this$ = -8						; size = 4
?GetData@?$CSimpleStringT@G$0A@@ATL@@ABEPAUCStringData@2@XZ PROC NEAR ; ATL::CSimpleStringT<unsigned short,0>::GetData, COMDAT
; _this$ = ecx

; 730  : 	{

	push	ebp
	mov	ebp, esp
	sub	esp, 204				; 000000ccH
	push	ebx
	push	esi
	push	edi
	push	ecx
	lea	edi, DWORD PTR [ebp-204]
	mov	ecx, 51					; 00000033H
	mov	eax, -858993460				; ccccccccH
	rep stosd
	pop	ecx
	mov	DWORD PTR _this$[ebp], ecx

; 731  : 		return( reinterpret_cast< CStringData* >( m_pszData )-1 );

	mov	eax, DWORD PTR _this$[ebp]
	mov	eax, DWORD PTR [eax]
	sub	eax, 16					; 00000010H

; 732  : 	}

	pop	edi
	pop	esi
	pop	ebx
	mov	esp, ebp
	pop	ebp
	ret	0
?GetData@?$CSimpleStringT@G$0A@@ATL@@ABEPAUCStringData@2@XZ ENDP ; ATL::CSimpleStringT<unsigned short,0>::GetData
_TEXT	ENDS
PUBLIC	?PrepareWrite2@?$CSimpleStringT@G$0A@@ATL@@AAEXH@Z ; ATL::CSimpleStringT<unsigned short,0>::PrepareWrite2
; Function compile flags: /Odt /RTCcsu /ZI
;	COMDAT ?PrepareWrite@?$CSimpleStringT@G$0A@@ATL@@AAEPAGH@Z
_TEXT	SEGMENT
_nTooShort$ = -44					; size = 4
_nShared$ = -32						; size = 4
_pOldData$ = -20					; size = 4
_this$ = -8						; size = 4
_nLength$ = 8						; size = 4
?PrepareWrite@?$CSimpleStringT@G$0A@@ATL@@AAEPAGH@Z PROC NEAR ; ATL::CSimpleStringT<unsigned short,0>::PrepareWrite, COMDAT
; _this$ = ecx

; 734  : 	{

	push	ebp
	mov	ebp, esp
	sub	esp, 240				; 000000f0H
	push	ebx
	push	esi
	push	edi
	push	ecx
	lea	edi, DWORD PTR [ebp-240]
	mov	ecx, 60					; 0000003cH
	mov	eax, -858993460				; ccccccccH
	rep stosd
	pop	ecx
	mov	DWORD PTR _this$[ebp], ecx

; 735  : 		CStringData* pOldData = GetData();

	mov	ecx, DWORD PTR _this$[ebp]
	call	?GetData@?$CSimpleStringT@G$0A@@ATL@@ABEPAUCStringData@2@XZ ; ATL::CSimpleStringT<unsigned short,0>::GetData
	mov	DWORD PTR _pOldData$[ebp], eax

; 736  : 		int nShared = 1-pOldData->nRefs;  // nShared < 0 means true, >= 0 means false

	mov	eax, DWORD PTR _pOldData$[ebp]
	mov	ecx, 1
	sub	ecx, DWORD PTR [eax+12]
	mov	DWORD PTR _nShared$[ebp], ecx

; 737  : 		int nTooShort = pOldData->nAllocLength-nLength;  // nTooShort < 0 means true, >= 0 means false

	mov	eax, DWORD PTR _pOldData$[ebp]
	mov	ecx, DWORD PTR [eax+8]
	sub	ecx, DWORD PTR _nLength$[ebp]
	mov	DWORD PTR _nTooShort$[ebp], ecx

; 738  : 		if( (nShared|nTooShort) < 0 )  // If either sign bit is set (i.e. either is less than zero), we need to copy data

	mov	eax, DWORD PTR _nShared$[ebp]
	or	eax, DWORD PTR _nTooShort$[ebp]
	jge	SHORT $L92761

; 739  : 		{
; 740  : 			PrepareWrite2( nLength );

	mov	eax, DWORD PTR _nLength$[ebp]
	push	eax
	mov	ecx, DWORD PTR _this$[ebp]
	call	?PrepareWrite2@?$CSimpleStringT@G$0A@@ATL@@AAEXH@Z ; ATL::CSimpleStringT<unsigned short,0>::PrepareWrite2
$L92761:

; 741  : 		}
; 742  : 
; 743  : 		return( m_pszData );

	mov	eax, DWORD PTR _this$[ebp]
	mov	eax, DWORD PTR [eax]

; 744  : 	}

	pop	edi
	pop	esi
	pop	ebx
	add	esp, 240				; 000000f0H
	cmp	ebp, esp
	call	__RTC_CheckEsp
	mov	esp, ebp
	pop	ebp
	ret	4
?PrepareWrite@?$CSimpleStringT@G$0A@@ATL@@AAEPAGH@Z ENDP ; ATL::CSimpleStringT<unsigned short,0>::PrepareWrite
_TEXT	ENDS
EXTRN	?AfxFindStringResourceHandle@@YGPAUHINSTANCE__@@I@Z:NEAR ; AfxFindStringResourceHandle
; Function compile flags: /Odt /RTCcsu /ZI
; File c:\program files\microsoft visual studio .net 2003\vc7\atlmfc\include\afxstr.h
;	COMDAT ?FindStringResourceInstance@?$StrTraitMFC@GV?$ChTraitsCRT@G@ATL@@@@SAPAUHINSTANCE__@@I@Z
_TEXT	SEGMENT
_nID$ = 8						; size = 4
?FindStringResourceInstance@?$StrTraitMFC@GV?$ChTraitsCRT@G@ATL@@@@SAPAUHINSTANCE__@@I@Z PROC NEAR ; StrTraitMFC<unsigned short,ATL::ChTraitsCRT<unsigned short> >::FindStringResourceInstance, COMDAT

; 44   : 	{

	push	ebp
	mov	ebp, esp
	sub	esp, 192				; 000000c0H
	push	ebx
	push	esi
	push	edi
	lea	edi, DWORD PTR [ebp-192]
	mov	ecx, 48					; 00000030H
	mov	eax, -858993460				; ccccccccH
	rep stosd

; 45   : 		return( AfxFindStringResourceHandle( nID ) );

	mov	eax, DWORD PTR _nID$[ebp]
	push	eax
	call	?AfxFindStringResourceHandle@@YGPAUHINSTANCE__@@I@Z ; AfxFindStringResourceHandle

; 46   : 	}

	pop	edi
	pop	esi
	pop	ebx
	add	esp, 192				; 000000c0H
	cmp	ebp, esp
	call	__RTC_CheckEsp
	mov	esp, ebp
	pop	ebp
	ret	0
?FindStringResourceInstance@?$StrTraitMFC@GV?$ChTraitsCRT@G@ATL@@@@SAPAUHINSTANCE__@@I@Z ENDP ; StrTraitMFC<unsigned short,ATL::ChTraitsCRT<unsigned short> >::FindStringResourceInstance
_TEXT	ENDS
EXTRN	?AfxGetStringManager@@YGPAUIAtlStringMgr@ATL@@XZ:NEAR ; AfxGetStringManager
; Function compile flags: /Odt /RTCcsu /ZI
;	COMDAT ?GetDefaultManager@?$StrTraitMFC@GV?$ChTraitsCRT@G@ATL@@@@SAPAUIAtlStringMgr@ATL@@XZ
_TEXT	SEGMENT
?GetDefaultManager@?$StrTraitMFC@GV?$ChTraitsCRT@G@ATL@@@@SAPAUIAtlStringMgr@ATL@@XZ PROC NEAR ; StrTraitMFC<unsigned short,ATL::ChTraitsCRT<unsigned short> >::GetDefaultManager, COMDAT

; 49   : 	{

	push	ebp
	mov	ebp, esp
	sub	esp, 192				; 000000c0H
	push	ebx
	push	esi
	push	edi
	lea	edi, DWORD PTR [ebp-192]
	mov	ecx, 48					; 00000030H
	mov	eax, -858993460				; ccccccccH
	rep stosd

; 50   : 		return( AfxGetStringManager() );

	call	?AfxGetStringManager@@YGPAUIAtlStringMgr@ATL@@XZ ; AfxGetStringManager

; 51   : 	}

	pop	edi
	pop	esi
	pop	ebx
	add	esp, 192				; 000000c0H
	cmp	ebp, esp
	call	__RTC_CheckEsp
	mov	esp, ebp
	pop	ebp
	ret	0
?GetDefaultManager@?$StrTraitMFC@GV?$ChTraitsCRT@G@ATL@@@@SAPAUIAtlStringMgr@ATL@@XZ ENDP ; StrTraitMFC<unsigned short,ATL::ChTraitsCRT<unsigned short> >::GetDefaultManager
_TEXT	ENDS
PUBLIC	??_C@_0BA@GNIEOBOF@nNewLength?5?$DO?$DN?50?$AA@	; `string'
PUBLIC	?SetLength@?$CSimpleStringT@G$0A@@ATL@@AAEXH@Z	; ATL::CSimpleStringT<unsigned short,0>::SetLength
;	COMDAT ??_C@_0BA@GNIEOBOF@nNewLength?5?$DO?$DN?50?$AA@
; File c:\program files\microsoft visual studio .net 2003\vc7\atlmfc\include\atlsimpstr.h
CONST	SEGMENT
??_C@_0BA@GNIEOBOF@nNewLength?5?$DO?$DN?50?$AA@ DB 'nNewLength >= 0', 00H ; `string'
; Function compile flags: /Odt /RTCcsu /ZI
CONST	ENDS
;	COMDAT ?ReleaseBufferSetLength@?$CSimpleStringT@G$0A@@ATL@@QAEXH@Z
_TEXT	SEGMENT
_this$ = -8						; size = 4
_nNewLength$ = 8					; size = 4
?ReleaseBufferSetLength@?$CSimpleStringT@G$0A@@ATL@@QAEXH@Z PROC NEAR ; ATL::CSimpleStringT<unsigned short,0>::ReleaseBufferSetLength, COMDAT
; _this$ = ecx

; 546  : 	{

	push	ebp
	mov	ebp, esp
	sub	esp, 204				; 000000ccH
	push	ebx
	push	esi
	push	edi
	push	ecx
	lea	edi, DWORD PTR [ebp-204]
	mov	ecx, 51					; 00000033H
	mov	eax, -858993460				; ccccccccH
	rep stosd
	pop	ecx
	mov	DWORD PTR _this$[ebp], ecx

; 547  : 		ATLASSERT( nNewLength >= 0 );

	cmp	DWORD PTR _nNewLength$[ebp], 0
	jge	SHORT $L93258
	push	OFFSET FLAT:??_C@_0BA@GNIEOBOF@nNewLength?5?$DO?$DN?50?$AA@
	push	0
	push	547					; 00000223H
	push	OFFSET FLAT:??_C@_0FD@JDCNPMMG@c?3?2program?5files?2microsoft?5visua@
	push	2
	call	__CrtDbgReport
	add	esp, 20					; 00000014H
	cmp	eax, 1
	jne	SHORT $L93258
	int	3
$L93258:

; 548  : 		SetLength( nNewLength );

	mov	eax, DWORD PTR _nNewLength$[ebp]
	push	eax
	mov	ecx, DWORD PTR _this$[ebp]
	call	?SetLength@?$CSimpleStringT@G$0A@@ATL@@AAEXH@Z ; ATL::CSimpleStringT<unsigned short,0>::SetLength

; 549  : 	}

	pop	edi
	pop	esi
	pop	ebx
	add	esp, 204				; 000000ccH
	cmp	ebp, esp
	call	__RTC_CheckEsp
	mov	esp, ebp
	pop	ebp
	ret	4
?ReleaseBufferSetLength@?$CSimpleStringT@G$0A@@ATL@@QAEXH@Z ENDP ; ATL::CSimpleStringT<unsigned short,0>::ReleaseBufferSetLength
_TEXT	ENDS
PUBLIC	??_C@_0N@ILOMLJGA@nLength?5?$DO?$DN?50?$AA@	; `string'
PUBLIC	??_C@_0CD@EEFFJEGJ@nLength?5?$DM?$DN?5GetData?$CI?$CJ?9?$DOnAllocLeng@ ; `string'
PUBLIC	?AtlThrow@ATL@@YGXJ@Z				; ATL::AtlThrow
;	COMDAT ??_C@_0N@ILOMLJGA@nLength?5?$DO?$DN?50?$AA@
CONST	SEGMENT
??_C@_0N@ILOMLJGA@nLength?5?$DO?$DN?50?$AA@ DB 'nLength >= 0', 00H ; `string'
CONST	ENDS
;	COMDAT ??_C@_0CD@EEFFJEGJ@nLength?5?$DM?$DN?5GetData?$CI?$CJ?9?$DOnAllocLeng@
CONST	SEGMENT
??_C@_0CD@EEFFJEGJ@nLength?5?$DM?$DN?5GetData?$CI?$CJ?9?$DOnAllocLeng@ DB 'n'
	DB	'Length <= GetData()->nAllocLength', 00H	; `string'
; Function compile flags: /Odt /RTCcsu /ZI
CONST	ENDS
;	COMDAT ?SetLength@?$CSimpleStringT@G$0A@@ATL@@AAEXH@Z
_TEXT	SEGMENT
_this$ = -8						; size = 4
_nLength$ = 8						; size = 4
?SetLength@?$CSimpleStringT@G$0A@@ATL@@AAEXH@Z PROC NEAR ; ATL::CSimpleStringT<unsigned short,0>::SetLength, COMDAT
; _this$ = ecx

; 789  : 	{

	push	ebp
	mov	ebp, esp
	sub	esp, 204				; 000000ccH
	push	ebx
	push	esi
	push	edi
	push	ecx
	lea	edi, DWORD PTR [ebp-204]
	mov	ecx, 51					; 00000033H
	mov	eax, -858993460				; ccccccccH
	rep stosd
	pop	ecx
	mov	DWORD PTR _this$[ebp], ecx

; 790  : 		ATLASSERT( nLength >= 0 );

	cmp	DWORD PTR _nLength$[ebp], 0
	jge	SHORT $L93261
	push	OFFSET FLAT:??_C@_0N@ILOMLJGA@nLength?5?$DO?$DN?50?$AA@
	push	0
	push	790					; 00000316H
	push	OFFSET FLAT:??_C@_0FD@JDCNPMMG@c?3?2program?5files?2microsoft?5visua@
	push	2
	call	__CrtDbgReport
	add	esp, 20					; 00000014H
	cmp	eax, 1
	jne	SHORT $L93261
	int	3
$L93261:

; 791  : 		ATLASSERT( nLength <= GetData()->nAllocLength );

	mov	ecx, DWORD PTR _this$[ebp]
	call	?GetData@?$CSimpleStringT@G$0A@@ATL@@ABEPAUCStringData@2@XZ ; ATL::CSimpleStringT<unsigned short,0>::GetData
	mov	ecx, DWORD PTR _nLength$[ebp]
	cmp	ecx, DWORD PTR [eax+8]
	jle	SHORT $L93262
	push	OFFSET FLAT:??_C@_0CD@EEFFJEGJ@nLength?5?$DM?$DN?5GetData?$CI?$CJ?9?$DOnAllocLeng@
	push	0
	push	791					; 00000317H
	push	OFFSET FLAT:??_C@_0FD@JDCNPMMG@c?3?2program?5files?2microsoft?5visua@
	push	2
	call	__CrtDbgReport
	add	esp, 20					; 00000014H
	cmp	eax, 1
	jne	SHORT $L93262
	int	3
$L93262:

; 792  : 
; 793  : 		if( nLength < 0 || nLength > GetData()->nAllocLength)

	cmp	DWORD PTR _nLength$[ebp], 0
	jl	SHORT $L92769
	mov	ecx, DWORD PTR _this$[ebp]
	call	?GetData@?$CSimpleStringT@G$0A@@ATL@@ABEPAUCStringData@2@XZ ; ATL::CSimpleStringT<unsigned short,0>::GetData
	mov	ecx, DWORD PTR _nLength$[ebp]
	cmp	ecx, DWORD PTR [eax+8]
	jle	SHORT $L92768
$L92769:

; 794  : 			AtlThrow(E_INVALIDARG);

	push	-2147024809				; 80070057H
	call	?AtlThrow@ATL@@YGXJ@Z			; ATL::AtlThrow
$L92768:

; 795  : 			
; 796  : 		GetData()->nDataLength = nLength;

	mov	ecx, DWORD PTR _this$[ebp]
	call	?GetData@?$CSimpleStringT@G$0A@@ATL@@ABEPAUCStringData@2@XZ ; ATL::CSimpleStringT<unsigned short,0>::GetData
	mov	ecx, DWORD PTR _nLength$[ebp]
	mov	DWORD PTR [eax+4], ecx

; 797  : 		m_pszData[nLength] = 0;

	mov	eax, DWORD PTR _this$[ebp]
	mov	ecx, DWORD PTR [eax]
	mov	edx, DWORD PTR _nLength$[ebp]
	mov	WORD PTR [ecx+edx*2], 0
$L93260:

; 798  : 	}

	pop	edi
	pop	esi
	pop	ebx
	add	esp, 204				; 000000ccH
	cmp	ebp, esp
	call	__RTC_CheckEsp
	mov	esp, ebp
	pop	ebp
	ret	4
?SetLength@?$CSimpleStringT@G$0A@@ATL@@AAEXH@Z ENDP	; ATL::CSimpleStringT<unsigned short,0>::SetLength
_TEXT	ENDS
PUBLIC	?__LINE__Var@?1??AtlThrow@ATL@@YGXJ@Z@4JA	; `ATL::AtlThrow'::`2'::__LINE__Var
PUBLIC	??_C@_0FC@IPKABFFL@c?3?2program?5files?2microsoft?5visua@ ; `string'
PUBLIC	??_C@_1CK@DFMKPFAK@?$AAA?$AAt?$AAl?$AAT?$AAh?$AAr?$AAo?$AAw?$AA?3?$AA?5?$AAh?$AAr?$AA?5?$AA?$DN?$AA?5?$AA0?$AAx?$AA?$CF?$AAx?$AA?6@ ; `string'
EXTRN	?atlTraceException@ATL@@3VCTraceCategory@1@A:DWORD ; ATL::atlTraceException
EXTRN	?AfxThrowMemoryException@@YGXXZ:NEAR		; AfxThrowMemoryException
EXTRN	?AfxThrowOleException@@YGXJ@Z:NEAR		; AfxThrowOleException
;	COMDAT ??_C@_1CK@DFMKPFAK@?$AAA?$AAt?$AAl?$AAT?$AAh?$AAr?$AAo?$AAw?$AA?3?$AA?5?$AAh?$AAr?$AA?5?$AA?$DN?$AA?5?$AA0?$AAx?$AA?$CF?$AAx?$AA?6@
; File c:\program files\microsoft visual studio .net 2003\vc7\atlmfc\include\atlexcept.h
CONST	SEGMENT
??_C@_1CK@DFMKPFAK@?$AAA?$AAt?$AAl?$AAT?$AAh?$AAr?$AAo?$AAw?$AA?3?$AA?5?$AAh?$AAr?$AA?5?$AA?$DN?$AA?5?$AA0?$AAx?$AA?$CF?$AAx?$AA?6@ DB 'A'
	DB	00H, 't', 00H, 'l', 00H, 'T', 00H, 'h', 00H, 'r', 00H, 'o', 00H
	DB	'w', 00H, ':', 00H, ' ', 00H, 'h', 00H, 'r', 00H, ' ', 00H, '='
	DB	00H, ' ', 00H, '0', 00H, 'x', 00H, '%', 00H, 'x', 00H, 0aH, 00H
	DB	00H, 00H					; `string'
CONST	ENDS
;	COMDAT ?__LINE__Var@?1??AtlThrow@ATL@@YGXJ@Z@4JA
_DATA	SEGMENT
?__LINE__Var@?1??AtlThrow@ATL@@YGXJ@Z@4JA DD 03dH	; `ATL::AtlThrow'::`2'::__LINE__Var
_DATA	ENDS
;	COMDAT ??_C@_0FC@IPKABFFL@c?3?2program?5files?2microsoft?5visua@
CONST	SEGMENT
??_C@_0FC@IPKABFFL@c?3?2program?5files?2microsoft?5visua@ DB 'c:\program '
	DB	'files\microsoft visual studio .net 2003\vc7\atlmfc\include\at'
	DB	'lexcept.h', 00H				; `string'
; Function compile flags: /Odt /RTCcsu /ZI
CONST	ENDS
;	COMDAT ?AtlThrow@ATL@@YGXJ@Z
_TEXT	SEGMENT
$T93265 = -204						; size = 8
_hr$ = 8						; size = 4
?AtlThrow@ATL@@YGXJ@Z PROC NEAR				; ATL::AtlThrow, COMDAT

; 61   : {

	push	ebp
	mov	ebp, esp
	sub	esp, 208				; 000000d0H
	push	ebx
	push	esi
	push	edi
	lea	edi, DWORD PTR [ebp-208]
	mov	ecx, 52					; 00000034H
	mov	eax, -858993460				; ccccccccH
	rep stosd

; 62   : 	ATLTRACE(atlTraceException, 0, _T("AtlThrow: hr = 0x%x\n"), hr );

	mov	eax, DWORD PTR _hr$[ebp]
	push	eax
	push	OFFSET FLAT:??_C@_1CK@DFMKPFAK@?$AAA?$AAt?$AAl?$AAT?$AAh?$AAr?$AAo?$AAw?$AA?3?$AA?5?$AAh?$AAr?$AA?5?$AA?$DN?$AA?5?$AA0?$AAx?$AA?$CF?$AAx?$AA?6@
	push	0
	mov	ecx, OFFSET FLAT:?atlTraceException@ATL@@3VCTraceCategory@1@A ; ATL::atlTraceException
	call	??BCTraceCategory@ATL@@QBEKXZ		; ATL::CTraceCategory::operator unsigned long
	push	eax
	mov	ecx, DWORD PTR ?__LINE__Var@?1??AtlThrow@ATL@@YGXJ@Z@4JA
	add	ecx, 1
	push	ecx
	push	OFFSET FLAT:??_C@_0FC@IPKABFFL@c?3?2program?5files?2microsoft?5visua@
	lea	ecx, DWORD PTR $T93265[ebp]
	call	??0CTraceFileAndLineInfo@ATL@@QAE@PBDH@Z ; ATL::CTraceFileAndLineInfo::CTraceFileAndLineInfo
	push	eax
	call	??RCTraceFileAndLineInfo@ATL@@QBAXKIPBGZZ ; ATL::CTraceFileAndLineInfo::operator()
	add	esp, 20					; 00000014H

; 63   : #ifdef _AFX
; 64   : 	if( hr == E_OUTOFMEMORY )

	cmp	DWORD PTR _hr$[ebp], -2147024882	; 8007000eH
	jne	SHORT $L25398

; 65   : 	{
; 66   : 		AfxThrowMemoryException();

	call	?AfxThrowMemoryException@@YGXXZ		; AfxThrowMemoryException
$L25398:

; 67   : 	}
; 68   : 	else
; 69   : 	{
; 70   : 		AfxThrowOleException( hr );

	mov	eax, DWORD PTR _hr$[ebp]
	push	eax
	call	?AfxThrowOleException@@YGXJ@Z		; AfxThrowOleException
$L93264:

; 71   : 	}
; 72   : #else
; 73   : 	throw CAtlException( hr );
; 74   : #endif
; 75   : };

	pop	edi
	pop	esi
	pop	ebx
	add	esp, 208				; 000000d0H
	cmp	ebp, esp
	call	__RTC_CheckEsp
	mov	esp, ebp
	pop	ebp
	ret	4
?AtlThrow@ATL@@YGXJ@Z ENDP				; ATL::AtlThrow
_TEXT	ENDS
PUBLIC	?StringLength@?$CSimpleStringT@G$0A@@ATL@@SAHPBG@Z ; ATL::CSimpleStringT<unsigned short,0>::StringLength
; Function compile flags: /Odt /RTCcsu /ZI
; File c:\program files\microsoft visual studio .net 2003\vc7\atlmfc\include\atlsimpstr.h
;	COMDAT ?SetString@?$CSimpleStringT@G$0A@@ATL@@QAEXPBG@Z
_TEXT	SEGMENT
_this$ = -8						; size = 4
_pszSrc$ = 8						; size = 4
?SetString@?$CSimpleStringT@G$0A@@ATL@@QAEXPBG@Z PROC NEAR ; ATL::CSimpleStringT<unsigned short,0>::SetString, COMDAT
; _this$ = ecx

; 579  : 	{

	push	ebp
	mov	ebp, esp
	sub	esp, 204				; 000000ccH
	push	ebx
	push	esi
	push	edi
	push	ecx
	lea	edi, DWORD PTR [ebp-204]
	mov	ecx, 51					; 00000033H
	mov	eax, -858993460				; ccccccccH
	rep stosd
	pop	ecx
	mov	DWORD PTR _this$[ebp], ecx

; 580  : 		SetString( pszSrc, StringLength( pszSrc ) );

	mov	eax, DWORD PTR _pszSrc$[ebp]
	push	eax
	call	?StringLength@?$CSimpleStringT@G$0A@@ATL@@SAHPBG@Z ; ATL::CSimpleStringT<unsigned short,0>::StringLength
	add	esp, 4
	push	eax
	mov	ecx, DWORD PTR _pszSrc$[ebp]
	push	ecx
	mov	ecx, DWORD PTR _this$[ebp]
	call	?SetString@?$CSimpleStringT@G$0A@@ATL@@QAEXPBGH@Z ; ATL::CSimpleStringT<unsigned short,0>::SetString

; 581  : 	}

	pop	edi
	pop	esi
	pop	ebx
	add	esp, 204				; 000000ccH
	cmp	ebp, esp
	call	__RTC_CheckEsp
	mov	esp, ebp
	pop	ebp
	ret	4
?SetString@?$CSimpleStringT@G$0A@@ATL@@QAEXPBG@Z ENDP	; ATL::CSimpleStringT<unsigned short,0>::SetString
_TEXT	ENDS
EXTRN	_wcslen:NEAR
; Function compile flags: /Odt /RTCcsu /ZI
;	COMDAT ?StringLength@?$CSimpleStringT@G$0A@@ATL@@SAHPBG@Z
_TEXT	SEGMENT
_psz$ = 8						; size = 4
?StringLength@?$CSimpleStringT@G$0A@@ATL@@SAHPBG@Z PROC NEAR ; ATL::CSimpleStringT<unsigned short,0>::StringLength, COMDAT

; 685  : 	{

	push	ebp
	mov	ebp, esp
	sub	esp, 192				; 000000c0H
	push	ebx
	push	esi
	push	edi
	lea	edi, DWORD PTR [ebp-192]
	mov	ecx, 48					; 00000030H
	mov	eax, -858993460				; ccccccccH
	rep stosd

; 686  : 		if( psz == NULL )

	cmp	DWORD PTR _psz$[ebp], 0
	jne	SHORT $L92752

; 687  : 		{
; 688  : 			return( 0 );

	xor	eax, eax
	jmp	SHORT $L92751
$L92752:

; 689  : 		}
; 690  : 		return( int( wcslen( psz ) ) );

	mov	eax, DWORD PTR _psz$[ebp]
	push	eax
	call	_wcslen
	add	esp, 4
$L92751:

; 691  : 	}

	pop	edi
	pop	esi
	pop	ebx
	add	esp, 192				; 000000c0H
	cmp	ebp, esp
	call	__RTC_CheckEsp
	mov	esp, ebp
	pop	ebp
	ret	0
?StringLength@?$CSimpleStringT@G$0A@@ATL@@SAHPBG@Z ENDP	; ATL::CSimpleStringT<unsigned short,0>::StringLength
_TEXT	ENDS
PUBLIC	?data@CStringData@ATL@@QAEPAXXZ			; ATL::CStringData::data
; Function compile flags: /Odt /RTCcsu /ZI
;	COMDAT ?Attach@?$CSimpleStringT@G$0A@@ATL@@AAEXPAUCStringData@2@@Z
_TEXT	SEGMENT
_this$ = -8						; size = 4
_pData$ = 8						; size = 4
?Attach@?$CSimpleStringT@G$0A@@ATL@@AAEXPAUCStringData@2@@Z PROC NEAR ; ATL::CSimpleStringT<unsigned short,0>::Attach, COMDAT
; _this$ = ecx

; 711  : 	{

	push	ebp
	mov	ebp, esp
	sub	esp, 204				; 000000ccH
	push	ebx
	push	esi
	push	edi
	push	ecx
	lea	edi, DWORD PTR [ebp-204]
	mov	ecx, 51					; 00000033H
	mov	eax, -858993460				; ccccccccH
	rep stosd
	pop	ecx
	mov	DWORD PTR _this$[ebp], ecx

; 712  : 		m_pszData = static_cast< PXSTR >( pData->data() );

	mov	ecx, DWORD PTR _pData$[ebp]
	call	?data@CStringData@ATL@@QAEPAXXZ		; ATL::CStringData::data
	mov	ecx, DWORD PTR _this$[ebp]
	mov	DWORD PTR [ecx], eax

; 713  : 	}

	pop	edi
	pop	esi
	pop	ebx
	add	esp, 204				; 000000ccH
	cmp	ebp, esp
	call	__RTC_CheckEsp
	mov	esp, ebp
	pop	ebp
	ret	4
?Attach@?$CSimpleStringT@G$0A@@ATL@@AAEXPAUCStringData@2@@Z ENDP ; ATL::CSimpleStringT<unsigned short,0>::Attach
; Function compile flags: /Odt /RTCcsu /ZI
_TEXT	ENDS
;	COMDAT ?data@CStringData@ATL@@QAEPAXXZ
_TEXT	SEGMENT
_this$ = -8						; size = 4
?data@CStringData@ATL@@QAEPAXXZ PROC NEAR		; ATL::CStringData::data, COMDAT
; _this$ = ecx

; 65   : 	{

	push	ebp
	mov	ebp, esp
	sub	esp, 204				; 000000ccH
	push	ebx
	push	esi
	push	edi
	push	ecx
	lea	edi, DWORD PTR [ebp-204]
	mov	ecx, 51					; 00000033H
	mov	eax, -858993460				; ccccccccH
	rep stosd
	pop	ecx
	mov	DWORD PTR _this$[ebp], ecx

; 66   : 		return (this+1);

	mov	eax, DWORD PTR _this$[ebp]
	add	eax, 16					; 00000010H

; 67   : 	}

	pop	edi
	pop	esi
	pop	ebx
	mov	esp, ebp
	pop	ebp
	ret	0
?data@CStringData@ATL@@QAEPAXXZ ENDP			; ATL::CStringData::data
_TEXT	ENDS
PUBLIC	?IsShared@CStringData@ATL@@QBE_NXZ		; ATL::CStringData::IsShared
PUBLIC	?Fork@?$CSimpleStringT@G$0A@@ATL@@AAEXH@Z	; ATL::CSimpleStringT<unsigned short,0>::Fork
PUBLIC	?Reallocate@?$CSimpleStringT@G$0A@@ATL@@AAEXH@Z	; ATL::CSimpleStringT<unsigned short,0>::Reallocate
; Function compile flags: /Odt /RTCcsu /ZI
;	COMDAT ?PrepareWrite2@?$CSimpleStringT@G$0A@@ATL@@AAEXH@Z
_TEXT	SEGMENT
_nNewLength$92813 = -32					; size = 4
_pOldData$ = -20					; size = 4
_this$ = -8						; size = 4
_nLength$ = 8						; size = 4
?PrepareWrite2@?$CSimpleStringT@G$0A@@ATL@@AAEXH@Z PROC NEAR ; ATL::CSimpleStringT<unsigned short,0>::PrepareWrite2, COMDAT
; _this$ = ecx

; 746  : 	{

	push	ebp
	mov	ebp, esp
	sub	esp, 228				; 000000e4H
	push	ebx
	push	esi
	push	edi
	push	ecx
	lea	edi, DWORD PTR [ebp-228]
	mov	ecx, 57					; 00000039H
	mov	eax, -858993460				; ccccccccH
	rep stosd
	pop	ecx
	mov	DWORD PTR _this$[ebp], ecx

; 747  : 		CStringData* pOldData = GetData();

	mov	ecx, DWORD PTR _this$[ebp]
	call	?GetData@?$CSimpleStringT@G$0A@@ATL@@ABEPAUCStringData@2@XZ ; ATL::CSimpleStringT<unsigned short,0>::GetData
	mov	DWORD PTR _pOldData$[ebp], eax

; 748  : 		if( pOldData->nDataLength > nLength )

	mov	eax, DWORD PTR _pOldData$[ebp]
	mov	ecx, DWORD PTR [eax+4]
	cmp	ecx, DWORD PTR _nLength$[ebp]
	jle	SHORT $L92809

; 749  : 		{
; 750  : 			nLength = pOldData->nDataLength;

	mov	eax, DWORD PTR _pOldData$[ebp]
	mov	ecx, DWORD PTR [eax+4]
	mov	DWORD PTR _nLength$[ebp], ecx
$L92809:

; 751  : 		}
; 752  : 		if( pOldData->IsShared() )

	mov	ecx, DWORD PTR _pOldData$[ebp]
	call	?IsShared@CStringData@ATL@@QBE_NXZ	; ATL::CStringData::IsShared
	movzx	eax, al
	test	eax, eax
	je	SHORT $L92810

; 753  : 		{
; 754  : 			Fork( nLength );

	mov	eax, DWORD PTR _nLength$[ebp]
	push	eax
	mov	ecx, DWORD PTR _this$[ebp]
	call	?Fork@?$CSimpleStringT@G$0A@@ATL@@AAEXH@Z ; ATL::CSimpleStringT<unsigned short,0>::Fork

; 755  : 		}
; 756  : 		else if( pOldData->nAllocLength < nLength )

	jmp	SHORT $L92807
$L92810:
	mov	eax, DWORD PTR _pOldData$[ebp]
	mov	ecx, DWORD PTR [eax+8]
	cmp	ecx, DWORD PTR _nLength$[ebp]
	jge	SHORT $L92807

; 757  : 		{
; 758  : 			// Grow exponentially, until we hit 1K.
; 759  : 			int nNewLength = pOldData->nAllocLength;

	mov	eax, DWORD PTR _pOldData$[ebp]
	mov	ecx, DWORD PTR [eax+8]
	mov	DWORD PTR _nNewLength$92813[ebp], ecx

; 760  : 			if( nNewLength > 1024 )

	cmp	DWORD PTR _nNewLength$92813[ebp], 1024	; 00000400H
	jle	SHORT $L92814

; 761  : 			{
; 762  : 				nNewLength += 1024;

	mov	eax, DWORD PTR _nNewLength$92813[ebp]
	add	eax, 1024				; 00000400H
	mov	DWORD PTR _nNewLength$92813[ebp], eax

; 763  : 			}
; 764  : 			else

	jmp	SHORT $L92815
$L92814:

; 765  : 			{
; 766  : 				nNewLength *= 2;

	mov	eax, DWORD PTR _nNewLength$92813[ebp]
	shl	eax, 1
	mov	DWORD PTR _nNewLength$92813[ebp], eax
$L92815:

; 767  : 			}
; 768  : 			if( nNewLength < nLength )

	mov	eax, DWORD PTR _nNewLength$92813[ebp]
	cmp	eax, DWORD PTR _nLength$[ebp]
	jge	SHORT $L92816

; 769  : 			{
; 770  : 				nNewLength = nLength;

	mov	eax, DWORD PTR _nLength$[ebp]
	mov	DWORD PTR _nNewLength$92813[ebp], eax
$L92816:

; 771  : 			}
; 772  : 			Reallocate( nNewLength );

	mov	eax, DWORD PTR _nNewLength$92813[ebp]
	push	eax
	mov	ecx, DWORD PTR _this$[ebp]
	call	?Reallocate@?$CSimpleStringT@G$0A@@ATL@@AAEXH@Z ; ATL::CSimpleStringT<unsigned short,0>::Reallocate
$L92807:

; 773  : 		}
; 774  : 	}

	pop	edi
	pop	esi
	pop	ebx
	add	esp, 228				; 000000e4H
	cmp	ebp, esp
	call	__RTC_CheckEsp
	mov	esp, ebp
	pop	ebp
	ret	4
?PrepareWrite2@?$CSimpleStringT@G$0A@@ATL@@AAEXH@Z ENDP	; ATL::CSimpleStringT<unsigned short,0>::PrepareWrite2
; Function compile flags: /Odt /RTCcsu /ZI
_TEXT	ENDS
;	COMDAT ?IsShared@CStringData@ATL@@QBE_NXZ
_TEXT	SEGMENT
_this$ = -8						; size = 4
?IsShared@CStringData@ATL@@QBE_NXZ PROC NEAR		; ATL::CStringData::IsShared, COMDAT
; _this$ = ecx

; 79   : 	{

	push	ebp
	mov	ebp, esp
	sub	esp, 204				; 000000ccH
	push	ebx
	push	esi
	push	edi
	push	ecx
	lea	edi, DWORD PTR [ebp-204]
	mov	ecx, 51					; 00000033H
	mov	eax, -858993460				; ccccccccH
	rep stosd
	pop	ecx
	mov	DWORD PTR _this$[ebp], ecx

; 80   : 		return( nRefs > 1 ); 

	mov	eax, DWORD PTR _this$[ebp]
	xor	ecx, ecx
	cmp	DWORD PTR [eax+12], 1
	setg	cl
	call	@_RTC_Check_4_to_1@4

; 81   : 	}

	pop	edi
	pop	esi
	pop	ebx
	add	esp, 204				; 000000ccH
	cmp	ebp, esp
	call	__RTC_CheckEsp
	mov	esp, ebp
	pop	ebp
	ret	0
?IsShared@CStringData@ATL@@QBE_NXZ ENDP			; ATL::CStringData::IsShared
_TEXT	ENDS
PUBLIC	?AddRef@CStringData@ATL@@QAEXXZ			; ATL::CStringData::AddRef
PUBLIC	?CopyChars@?$CSimpleStringT@G$0A@@ATL@@SAXPAGPBGH@Z ; ATL::CSimpleStringT<unsigned short,0>::CopyChars
PUBLIC	?ThrowMemoryException@?$CSimpleStringT@G$0A@@ATL@@KAXXZ ; ATL::CSimpleStringT<unsigned short,0>::ThrowMemoryException
; Function compile flags: /Odt /RTCcsu /ZI
;	COMDAT ?CloneData@?$CSimpleStringT@G$0A@@ATL@@CAPAUCStringData@2@PAU32@@Z
_TEXT	SEGMENT
_pNewStringMgr$ = -20					; size = 4
_pNewData$ = -8						; size = 4
_pData$ = 8						; size = 4
?CloneData@?$CSimpleStringT@G$0A@@ATL@@CAPAUCStringData@2@PAU32@@Z PROC NEAR ; ATL::CSimpleStringT<unsigned short,0>::CloneData, COMDAT

; 801  : 	{

	push	ebp
	mov	ebp, esp
	sub	esp, 216				; 000000d8H
	push	ebx
	push	esi
	push	edi
	lea	edi, DWORD PTR [ebp-216]
	mov	ecx, 54					; 00000036H
	mov	eax, -858993460				; ccccccccH
	rep stosd

; 802  : 		CStringData* pNewData = NULL;

	mov	DWORD PTR _pNewData$[ebp], 0

; 803  : 
; 804  : 		IAtlStringMgr* pNewStringMgr = pData->pStringMgr->Clone();

	mov	eax, DWORD PTR _pData$[ebp]
	mov	ecx, DWORD PTR [eax]
	mov	edx, DWORD PTR _pData$[ebp]
	mov	eax, DWORD PTR [edx]
	mov	edx, DWORD PTR [ecx]
	mov	esi, esp
	mov	ecx, eax
	call	DWORD PTR [edx+16]
	cmp	esi, esp
	call	__RTC_CheckEsp
	mov	DWORD PTR _pNewStringMgr$[ebp], eax

; 805  : 		if( !pData->IsLocked() && (pNewStringMgr == pData->pStringMgr) )

	mov	ecx, DWORD PTR _pData$[ebp]
	call	?IsLocked@CStringData@ATL@@QBE_NXZ	; ATL::CStringData::IsLocked
	movzx	eax, al
	test	eax, eax
	jne	SHORT $L92820
	mov	eax, DWORD PTR _pData$[ebp]
	mov	ecx, DWORD PTR _pNewStringMgr$[ebp]
	cmp	ecx, DWORD PTR [eax]
	jne	SHORT $L92820

; 806  : 		{
; 807  : 			pNewData = pData;

	mov	eax, DWORD PTR _pData$[ebp]
	mov	DWORD PTR _pNewData$[ebp], eax

; 808  : 			pNewData->AddRef();

	mov	ecx, DWORD PTR _pNewData$[ebp]
	call	?AddRef@CStringData@ATL@@QAEXXZ		; ATL::CStringData::AddRef

; 809  : 		}
; 810  : 		else

	jmp	SHORT $L92821
$L92820:

; 811  : 		{
; 812  : 			pNewData = pNewStringMgr->Allocate( pData->nDataLength, sizeof( XCHAR ) );

	mov	esi, esp
	push	2
	mov	eax, DWORD PTR _pData$[ebp]
	mov	ecx, DWORD PTR [eax+4]
	push	ecx
	mov	edx, DWORD PTR _pNewStringMgr$[ebp]
	mov	eax, DWORD PTR [edx]
	mov	ecx, DWORD PTR _pNewStringMgr$[ebp]
	call	DWORD PTR [eax]
	cmp	esi, esp
	call	__RTC_CheckEsp
	mov	DWORD PTR _pNewData$[ebp], eax

; 813  : 			if( pNewData == NULL )

	cmp	DWORD PTR _pNewData$[ebp], 0
	jne	SHORT $L92823

; 814  : 			{
; 815  : 				ThrowMemoryException();

	call	?ThrowMemoryException@?$CSimpleStringT@G$0A@@ATL@@KAXXZ ; ATL::CSimpleStringT<unsigned short,0>::ThrowMemoryException
$L92823:

; 816  : 			}
; 817  : 			pNewData->nDataLength = pData->nDataLength;

	mov	eax, DWORD PTR _pNewData$[ebp]
	mov	ecx, DWORD PTR _pData$[ebp]
	mov	edx, DWORD PTR [ecx+4]
	mov	DWORD PTR [eax+4], edx

; 818  : 			CopyChars( PXSTR( pNewData->data() ), PCXSTR( pData->data() ), pData->nDataLength+1 );  // Copy '\0'

	mov	eax, DWORD PTR _pData$[ebp]
	mov	ecx, DWORD PTR [eax+4]
	add	ecx, 1
	push	ecx
	mov	ecx, DWORD PTR _pData$[ebp]
	call	?data@CStringData@ATL@@QAEPAXXZ		; ATL::CStringData::data
	push	eax
	mov	ecx, DWORD PTR _pNewData$[ebp]
	call	?data@CStringData@ATL@@QAEPAXXZ		; ATL::CStringData::data
	push	eax
	call	?CopyChars@?$CSimpleStringT@G$0A@@ATL@@SAXPAGPBGH@Z ; ATL::CSimpleStringT<unsigned short,0>::CopyChars
	add	esp, 12					; 0000000cH
$L92821:

; 819  : 		}
; 820  : 
; 821  : 		return( pNewData );

	mov	eax, DWORD PTR _pNewData$[ebp]
$L93279:

; 822  : 	}

	pop	edi
	pop	esi
	pop	ebx
	add	esp, 216				; 000000d8H
	cmp	ebp, esp
	call	__RTC_CheckEsp
	mov	esp, ebp
	pop	ebp
	ret	0
?CloneData@?$CSimpleStringT@G$0A@@ATL@@CAPAUCStringData@2@PAU32@@Z ENDP ; ATL::CSimpleStringT<unsigned short,0>::CloneData
_TEXT	ENDS
PUBLIC	??_C@_09EEBKLCFA@nRefs?5?$DO?50?$AA@		; `string'
;	COMDAT ??_C@_09EEBKLCFA@nRefs?5?$DO?50?$AA@
CONST	SEGMENT
??_C@_09EEBKLCFA@nRefs?5?$DO?50?$AA@ DB 'nRefs > 0', 00H ; `string'
; Function compile flags: /Odt /RTCcsu /ZI
CONST	ENDS
;	COMDAT ?AddRef@CStringData@ATL@@QAEXXZ
_TEXT	SEGMENT
_this$ = -8						; size = 4
?AddRef@CStringData@ATL@@QAEXXZ PROC NEAR		; ATL::CStringData::AddRef, COMDAT
; _this$ = ecx

; 70   : 	{

	push	ebp
	mov	ebp, esp
	sub	esp, 204				; 000000ccH
	push	ebx
	push	esi
	push	edi
	push	ecx
	lea	edi, DWORD PTR [ebp-204]
	mov	ecx, 51					; 00000033H
	mov	eax, -858993460				; ccccccccH
	rep stosd
	pop	ecx
	mov	DWORD PTR _this$[ebp], ecx

; 71   : 		ATLASSERT(nRefs > 0);

	mov	eax, DWORD PTR _this$[ebp]
	cmp	DWORD PTR [eax+12], 0
	jg	SHORT $L93282
	push	OFFSET FLAT:??_C@_09EEBKLCFA@nRefs?5?$DO?50?$AA@
	push	0
	push	71					; 00000047H
	push	OFFSET FLAT:??_C@_0FD@JDCNPMMG@c?3?2program?5files?2microsoft?5visua@
	push	2
	call	__CrtDbgReport
	add	esp, 20					; 00000014H
	cmp	eax, 1
	jne	SHORT $L93282
	int	3
$L93282:

; 72   : 		_InterlockedIncrement(&nRefs);

	mov	eax, DWORD PTR _this$[ebp]
	add	eax, 12					; 0000000cH
	mov	ecx, 1
	lock	 xadd	 DWORD PTR [eax], ecx

; 73   : 	}

	pop	edi
	pop	esi
	pop	ebx
	add	esp, 204				; 000000ccH
	cmp	ebp, esp
	call	__RTC_CheckEsp
	mov	esp, ebp
	pop	ebp
	ret	0
?AddRef@CStringData@ATL@@QAEXXZ ENDP			; ATL::CStringData::AddRef
_TEXT	ENDS
PUBLIC	?Empty@?$CSimpleStringT@G$0A@@ATL@@QAEXXZ	; ATL::CSimpleStringT<unsigned short,0>::Empty
PUBLIC	?CopyCharsOverlapped@?$CSimpleStringT@G$0A@@ATL@@SAXPAGPBGH@Z ; ATL::CSimpleStringT<unsigned short,0>::CopyCharsOverlapped
; Function compile flags: /Odt /RTCcsu /ZI
;	COMDAT ?SetString@?$CSimpleStringT@G$0A@@ATL@@QAEXPBGH@Z
_TEXT	SEGMENT
_pszBuffer$92832 = -44					; size = 4
_nOffset$92831 = -32					; size = 4
_nOldLength$92830 = -20					; size = 4
_this$ = -8						; size = 4
_pszSrc$ = 8						; size = 4
_nLength$ = 12						; size = 4
?SetString@?$CSimpleStringT@G$0A@@ATL@@QAEXPBGH@Z PROC NEAR ; ATL::CSimpleStringT<unsigned short,0>::SetString, COMDAT
; _this$ = ecx

; 583  : 	{

	push	ebp
	mov	ebp, esp
	sub	esp, 240				; 000000f0H
	push	ebx
	push	esi
	push	edi
	push	ecx
	lea	edi, DWORD PTR [ebp-240]
	mov	ecx, 60					; 0000003cH
	mov	eax, -858993460				; ccccccccH
	rep stosd
	pop	ecx
	mov	DWORD PTR _this$[ebp], ecx

; 584  : 		if( nLength == 0 )

	cmp	DWORD PTR _nLength$[ebp], 0
	jne	SHORT $L92826

; 585  : 		{
; 586  : 			Empty();

	mov	ecx, DWORD PTR _this$[ebp]
	call	?Empty@?$CSimpleStringT@G$0A@@ATL@@QAEXXZ ; ATL::CSimpleStringT<unsigned short,0>::Empty

; 587  : 		}
; 588  : 		else

	jmp	$L93284
$L92826:

; 589  : 		{
; 590  : 			// It is possible that pszSrc points to a location inside of our 
; 591  : 			// buffer.  GetBuffer() might change m_pszData if (1) the buffer 
; 592  : 			// is shared or (2) the buffer is too small to hold the new 
; 593  : 			// string.  We detect this aliasing, and modify pszSrc to point
; 594  : 			// into the newly allocated buffer instead.
; 595  : 			
; 596  : 			if(pszSrc == NULL)

	cmp	DWORD PTR _pszSrc$[ebp], 0
	jne	SHORT $L92828

; 597  : 				AtlThrow(E_INVALIDARG);			

	push	-2147024809				; 80070057H
	call	?AtlThrow@ATL@@YGXJ@Z			; ATL::AtlThrow
$L92828:

; 598  : 				
; 599  : 			UINT nOldLength = GetLength();

	mov	ecx, DWORD PTR _this$[ebp]
	call	?GetLength@?$CSimpleStringT@G$0A@@ATL@@QBEHXZ ; ATL::CSimpleStringT<unsigned short,0>::GetLength
	mov	DWORD PTR _nOldLength$92830[ebp], eax

; 600  : 			UINT_PTR nOffset = pszSrc-GetString();

	mov	ecx, DWORD PTR _this$[ebp]
	call	?GetString@?$CSimpleStringT@G$0A@@ATL@@QBEPBGXZ ; ATL::CSimpleStringT<unsigned short,0>::GetString
	mov	ecx, DWORD PTR _pszSrc$[ebp]
	sub	ecx, eax
	sar	ecx, 1
	mov	DWORD PTR _nOffset$92831[ebp], ecx

; 601  : 			// If 0 <= nOffset <= nOldLength, then pszSrc points into our 
; 602  : 			// buffer
; 603  : 
; 604  : 			PXSTR pszBuffer = GetBuffer( nLength );

	mov	eax, DWORD PTR _nLength$[ebp]
	push	eax
	mov	ecx, DWORD PTR _this$[ebp]
	call	?GetBuffer@?$CSimpleStringT@G$0A@@ATL@@QAEPAGH@Z ; ATL::CSimpleStringT<unsigned short,0>::GetBuffer
	mov	DWORD PTR _pszBuffer$92832[ebp], eax

; 605  : 			if( nOffset <= nOldLength )

	mov	eax, DWORD PTR _nOffset$92831[ebp]
	cmp	eax, DWORD PTR _nOldLength$92830[ebp]
	ja	SHORT $L92833

; 606  : 			{
; 607  : 				CopyCharsOverlapped( pszBuffer, pszBuffer+nOffset, nLength );

	mov	eax, DWORD PTR _nLength$[ebp]
	push	eax
	mov	ecx, DWORD PTR _nOffset$92831[ebp]
	mov	edx, DWORD PTR _pszBuffer$92832[ebp]
	lea	eax, DWORD PTR [edx+ecx*2]
	push	eax
	mov	ecx, DWORD PTR _pszBuffer$92832[ebp]
	push	ecx
	call	?CopyCharsOverlapped@?$CSimpleStringT@G$0A@@ATL@@SAXPAGPBGH@Z ; ATL::CSimpleStringT<unsigned short,0>::CopyCharsOverlapped
	add	esp, 12					; 0000000cH

; 608  : 			}
; 609  : 			else

	jmp	SHORT $L92834
$L92833:

; 610  : 			{
; 611  : 				CopyChars( pszBuffer, pszSrc, nLength );

	mov	eax, DWORD PTR _nLength$[ebp]
	push	eax
	mov	ecx, DWORD PTR _pszSrc$[ebp]
	push	ecx
	mov	edx, DWORD PTR _pszBuffer$92832[ebp]
	push	edx
	call	?CopyChars@?$CSimpleStringT@G$0A@@ATL@@SAXPAGPBGH@Z ; ATL::CSimpleStringT<unsigned short,0>::CopyChars
	add	esp, 12					; 0000000cH
$L92834:

; 612  : 			}
; 613  : 			ReleaseBufferSetLength( nLength );

	mov	eax, DWORD PTR _nLength$[ebp]
	push	eax
	mov	ecx, DWORD PTR _this$[ebp]
	call	?ReleaseBufferSetLength@?$CSimpleStringT@G$0A@@ATL@@QAEXH@Z ; ATL::CSimpleStringT<unsigned short,0>::ReleaseBufferSetLength
$L93284:

; 614  : 		}
; 615  : 	}

	pop	edi
	pop	esi
	pop	ebx
	add	esp, 240				; 000000f0H
	cmp	ebp, esp
	call	__RTC_CheckEsp
	mov	esp, ebp
	pop	ebp
	ret	8
?SetString@?$CSimpleStringT@G$0A@@ATL@@QAEXPBGH@Z ENDP	; ATL::CSimpleStringT<unsigned short,0>::SetString
; Function compile flags: /Odt /RTCcsu /ZI
_TEXT	ENDS
;	COMDAT ?Empty@?$CSimpleStringT@G$0A@@ATL@@QAEXXZ
_TEXT	SEGMENT
_pNewData$92796 = -44					; size = 4
_pStringMgr$ = -32					; size = 4
_pOldData$ = -20					; size = 4
_this$ = -8						; size = 4
?Empty@?$CSimpleStringT@G$0A@@ATL@@QAEXXZ PROC NEAR	; ATL::CSimpleStringT<unsigned short,0>::Empty, COMDAT
; _this$ = ecx

; 421  : 	{

	push	ebp
	mov	ebp, esp
	sub	esp, 240				; 000000f0H
	push	ebx
	push	esi
	push	edi
	push	ecx
	lea	edi, DWORD PTR [ebp-240]
	mov	ecx, 60					; 0000003cH
	mov	eax, -858993460				; ccccccccH
	rep stosd
	pop	ecx
	mov	DWORD PTR _this$[ebp], ecx

; 422  : 		CStringData* pOldData = GetData();

	mov	ecx, DWORD PTR _this$[ebp]
	call	?GetData@?$CSimpleStringT@G$0A@@ATL@@ABEPAUCStringData@2@XZ ; ATL::CSimpleStringT<unsigned short,0>::GetData
	mov	DWORD PTR _pOldData$[ebp], eax

; 423  : 		IAtlStringMgr* pStringMgr = pOldData->pStringMgr;

	mov	eax, DWORD PTR _pOldData$[ebp]
	mov	ecx, DWORD PTR [eax]
	mov	DWORD PTR _pStringMgr$[ebp], ecx

; 424  : 		if( pOldData->nDataLength == 0 )

	mov	eax, DWORD PTR _pOldData$[ebp]
	cmp	DWORD PTR [eax+4], 0
	jne	SHORT $L92793

; 425  : 		{
; 426  : 			return;

	jmp	SHORT $L92790
$L92793:

; 427  : 		}
; 428  : 
; 429  : 		if( pOldData->IsLocked() )

	mov	ecx, DWORD PTR _pOldData$[ebp]
	call	?IsLocked@CStringData@ATL@@QBE_NXZ	; ATL::CStringData::IsLocked
	movzx	eax, al
	test	eax, eax
	je	SHORT $L92794

; 430  : 		{
; 431  : 			// Don't reallocate a locked buffer that's shrinking
; 432  : 			SetLength( 0 );

	push	0
	mov	ecx, DWORD PTR _this$[ebp]
	call	?SetLength@?$CSimpleStringT@G$0A@@ATL@@AAEXH@Z ; ATL::CSimpleStringT<unsigned short,0>::SetLength

; 433  : 		}
; 434  : 		else

	jmp	SHORT $L92790
$L92794:

; 435  : 		{
; 436  : 			pOldData->Release();

	mov	ecx, DWORD PTR _pOldData$[ebp]
	call	?Release@CStringData@ATL@@QAEXXZ	; ATL::CStringData::Release

; 437  : 			CStringData* pNewData = pStringMgr->GetNilString();

	mov	eax, DWORD PTR _pStringMgr$[ebp]
	mov	edx, DWORD PTR [eax]
	mov	esi, esp
	mov	ecx, DWORD PTR _pStringMgr$[ebp]
	call	DWORD PTR [edx+12]
	cmp	esi, esp
	call	__RTC_CheckEsp
	mov	DWORD PTR _pNewData$92796[ebp], eax

; 438  : 			Attach( pNewData );

	mov	eax, DWORD PTR _pNewData$92796[ebp]
	push	eax
	mov	ecx, DWORD PTR _this$[ebp]
	call	?Attach@?$CSimpleStringT@G$0A@@ATL@@AAEXPAUCStringData@2@@Z ; ATL::CSimpleStringT<unsigned short,0>::Attach
$L92790:

; 439  : 		}
; 440  : 	}

	pop	edi
	pop	esi
	pop	ebx
	add	esp, 240				; 000000f0H
	cmp	ebp, esp
	call	__RTC_CheckEsp
	mov	esp, ebp
	pop	ebp
	ret	0
?Empty@?$CSimpleStringT@G$0A@@ATL@@QAEXXZ ENDP		; ATL::CSimpleStringT<unsigned short,0>::Empty
; Function compile flags: /Odt /RTCcsu /ZI
_TEXT	ENDS
;	COMDAT ?CopyChars@?$CSimpleStringT@G$0A@@ATL@@SAXPAGPBGH@Z
_TEXT	SEGMENT
_pchDest$ = 8						; size = 4
_pchSrc$ = 12						; size = 4
_nChars$ = 16						; size = 4
?CopyChars@?$CSimpleStringT@G$0A@@ATL@@SAXPAGPBGH@Z PROC NEAR ; ATL::CSimpleStringT<unsigned short,0>::CopyChars, COMDAT

; 652  : 	{

	push	ebp
	mov	ebp, esp
	sub	esp, 192				; 000000c0H
	push	ebx
	push	esi
	push	edi
	lea	edi, DWORD PTR [ebp-192]
	mov	ecx, 48					; 00000030H
	mov	eax, -858993460				; ccccccccH
	rep stosd

; 653  : 		memcpy( pchDest, pchSrc, nChars*sizeof( XCHAR ) );

	mov	eax, DWORD PTR _nChars$[ebp]
	shl	eax, 1
	push	eax
	mov	ecx, DWORD PTR _pchSrc$[ebp]
	push	ecx
	mov	edx, DWORD PTR _pchDest$[ebp]
	push	edx
	call	_memcpy
	add	esp, 12					; 0000000cH

; 654  : 	}

	pop	edi
	pop	esi
	pop	ebx
	add	esp, 192				; 000000c0H
	cmp	ebp, esp
	call	__RTC_CheckEsp
	mov	esp, ebp
	pop	ebp
	ret	0
?CopyChars@?$CSimpleStringT@G$0A@@ATL@@SAXPAGPBGH@Z ENDP ; ATL::CSimpleStringT<unsigned short,0>::CopyChars
; Function compile flags: /Odt /RTCcsu /ZI
_TEXT	ENDS
;	COMDAT ?ThrowMemoryException@?$CSimpleStringT@G$0A@@ATL@@KAXXZ
_TEXT	SEGMENT
?ThrowMemoryException@?$CSimpleStringT@G$0A@@ATL@@KAXXZ PROC NEAR ; ATL::CSimpleStringT<unsigned short,0>::ThrowMemoryException, COMDAT

; 704  : 	{

	push	ebp
	mov	ebp, esp
	sub	esp, 192				; 000000c0H
	push	ebx
	push	esi
	push	edi
	lea	edi, DWORD PTR [ebp-192]
	mov	ecx, 48					; 00000030H
	mov	eax, -858993460				; ccccccccH
	rep stosd

; 705  : 		AtlThrow( E_OUTOFMEMORY );

	push	-2147024882				; 8007000eH
	call	?AtlThrow@ATL@@YGXJ@Z			; ATL::AtlThrow
$L93290:

; 706  : 	}

	pop	edi
	pop	esi
	pop	ebx
	add	esp, 192				; 000000c0H
	cmp	ebp, esp
	call	__RTC_CheckEsp
	mov	esp, ebp
	pop	ebp
	ret	0
?ThrowMemoryException@?$CSimpleStringT@G$0A@@ATL@@KAXXZ ENDP ; ATL::CSimpleStringT<unsigned short,0>::ThrowMemoryException
; Function compile flags: /Odt /RTCcsu /ZI
_TEXT	ENDS
;	COMDAT ?Fork@?$CSimpleStringT@G$0A@@ATL@@AAEXH@Z
_TEXT	SEGMENT
tv82 = -256						; size = 4
tv74 = -256						; size = 4
_nCharsToCopy$ = -56					; size = 4
_pNewData$ = -44					; size = 4
_nOldLength$ = -32					; size = 4
_pOldData$ = -20					; size = 4
_this$ = -8						; size = 4
_nLength$ = 8						; size = 4
?Fork@?$CSimpleStringT@G$0A@@ATL@@AAEXH@Z PROC NEAR	; ATL::CSimpleStringT<unsigned short,0>::Fork, COMDAT
; _this$ = ecx

; 715  : 	{

	push	ebp
	mov	ebp, esp
	sub	esp, 256				; 00000100H
	push	ebx
	push	esi
	push	edi
	push	ecx
	lea	edi, DWORD PTR [ebp-256]
	mov	ecx, 64					; 00000040H
	mov	eax, -858993460				; ccccccccH
	rep stosd
	pop	ecx
	mov	DWORD PTR _this$[ebp], ecx

; 716  : 		CStringData* pOldData = GetData();

	mov	ecx, DWORD PTR _this$[ebp]
	call	?GetData@?$CSimpleStringT@G$0A@@ATL@@ABEPAUCStringData@2@XZ ; ATL::CSimpleStringT<unsigned short,0>::GetData
	mov	DWORD PTR _pOldData$[ebp], eax

; 717  : 		int nOldLength = pOldData->nDataLength;

	mov	eax, DWORD PTR _pOldData$[ebp]
	mov	ecx, DWORD PTR [eax+4]
	mov	DWORD PTR _nOldLength$[ebp], ecx

; 718  : 		CStringData* pNewData = pOldData->pStringMgr->Clone()->Allocate( nLength, sizeof( XCHAR ) );

	mov	eax, DWORD PTR _pOldData$[ebp]
	mov	ecx, DWORD PTR [eax]
	mov	edx, DWORD PTR _pOldData$[ebp]
	mov	eax, DWORD PTR [edx]
	mov	edx, DWORD PTR [ecx]
	mov	esi, esp
	mov	ecx, eax
	call	DWORD PTR [edx+16]
	cmp	esi, esp
	call	__RTC_CheckEsp
	mov	DWORD PTR tv74[ebp], eax
	mov	esi, esp
	push	2
	mov	eax, DWORD PTR _nLength$[ebp]
	push	eax
	mov	ecx, DWORD PTR tv74[ebp]
	mov	edx, DWORD PTR [ecx]
	mov	ecx, DWORD PTR tv74[ebp]
	call	DWORD PTR [edx]
	cmp	esi, esp
	call	__RTC_CheckEsp
	mov	DWORD PTR _pNewData$[ebp], eax

; 719  : 		if( pNewData == NULL )

	cmp	DWORD PTR _pNewData$[ebp], 0
	jne	SHORT $L92845

; 720  : 		{
; 721  : 			ThrowMemoryException();

	call	?ThrowMemoryException@?$CSimpleStringT@G$0A@@ATL@@KAXXZ ; ATL::CSimpleStringT<unsigned short,0>::ThrowMemoryException
$L92845:

; 722  : 		}
; 723  : 		int nCharsToCopy = ((nOldLength < nLength) ? nOldLength : nLength)+1;  // Copy '\0'

	mov	eax, DWORD PTR _nOldLength$[ebp]
	cmp	eax, DWORD PTR _nLength$[ebp]
	jge	SHORT $L93293
	mov	ecx, DWORD PTR _nOldLength$[ebp]
	mov	DWORD PTR tv82[ebp], ecx
	jmp	SHORT $L93294
$L93293:
	mov	edx, DWORD PTR _nLength$[ebp]
	mov	DWORD PTR tv82[ebp], edx
$L93294:
	mov	eax, DWORD PTR tv82[ebp]
	add	eax, 1
	mov	DWORD PTR _nCharsToCopy$[ebp], eax

; 724  : 		CopyChars( PXSTR( pNewData->data() ), PCXSTR( pOldData->data() ), nCharsToCopy );

	mov	eax, DWORD PTR _nCharsToCopy$[ebp]
	push	eax
	mov	ecx, DWORD PTR _pOldData$[ebp]
	call	?data@CStringData@ATL@@QAEPAXXZ		; ATL::CStringData::data
	push	eax
	mov	ecx, DWORD PTR _pNewData$[ebp]
	call	?data@CStringData@ATL@@QAEPAXXZ		; ATL::CStringData::data
	push	eax
	call	?CopyChars@?$CSimpleStringT@G$0A@@ATL@@SAXPAGPBGH@Z ; ATL::CSimpleStringT<unsigned short,0>::CopyChars
	add	esp, 12					; 0000000cH

; 725  : 		pNewData->nDataLength = nOldLength;

	mov	eax, DWORD PTR _pNewData$[ebp]
	mov	ecx, DWORD PTR _nOldLength$[ebp]
	mov	DWORD PTR [eax+4], ecx

; 726  : 		pOldData->Release();

	mov	ecx, DWORD PTR _pOldData$[ebp]
	call	?Release@CStringData@ATL@@QAEXXZ	; ATL::CStringData::Release

; 727  : 		Attach( pNewData );

	mov	eax, DWORD PTR _pNewData$[ebp]
	push	eax
	mov	ecx, DWORD PTR _this$[ebp]
	call	?Attach@?$CSimpleStringT@G$0A@@ATL@@AAEXPAUCStringData@2@@Z ; ATL::CSimpleStringT<unsigned short,0>::Attach
$L93292:

; 728  : 	}

	pop	edi
	pop	esi
	pop	ebx
	add	esp, 256				; 00000100H
	cmp	ebp, esp
	call	__RTC_CheckEsp
	mov	esp, ebp
	pop	ebp
	ret	4
?Fork@?$CSimpleStringT@G$0A@@ATL@@AAEXH@Z ENDP		; ATL::CSimpleStringT<unsigned short,0>::Fork
_TEXT	ENDS
PUBLIC	??_C@_0CB@GFHAPKDK@pOldData?9?$DOnAllocLength?5?$DM?5nLength@ ; `string'
;	COMDAT ??_C@_0CB@GFHAPKDK@pOldData?9?$DOnAllocLength?5?$DM?5nLength@
CONST	SEGMENT
??_C@_0CB@GFHAPKDK@pOldData?9?$DOnAllocLength?5?$DM?5nLength@ DB 'pOldDat'
	DB	'a->nAllocLength < nLength', 00H		; `string'
; Function compile flags: /Odt /RTCcsu /ZI
CONST	ENDS
;	COMDAT ?Reallocate@?$CSimpleStringT@G$0A@@ATL@@AAEXH@Z
_TEXT	SEGMENT
_pNewData$ = -44					; size = 4
_pStringMgr$ = -32					; size = 4
_pOldData$ = -20					; size = 4
_this$ = -8						; size = 4
_nLength$ = 8						; size = 4
?Reallocate@?$CSimpleStringT@G$0A@@ATL@@AAEXH@Z PROC NEAR ; ATL::CSimpleStringT<unsigned short,0>::Reallocate, COMDAT
; _this$ = ecx

; 776  : 	{

	push	ebp
	mov	ebp, esp
	sub	esp, 240				; 000000f0H
	push	ebx
	push	esi
	push	edi
	push	ecx
	lea	edi, DWORD PTR [ebp-240]
	mov	ecx, 60					; 0000003cH
	mov	eax, -858993460				; ccccccccH
	rep stosd
	pop	ecx
	mov	DWORD PTR _this$[ebp], ecx

; 777  : 		CStringData* pOldData = GetData();

	mov	ecx, DWORD PTR _this$[ebp]
	call	?GetData@?$CSimpleStringT@G$0A@@ATL@@ABEPAUCStringData@2@XZ ; ATL::CSimpleStringT<unsigned short,0>::GetData
	mov	DWORD PTR _pOldData$[ebp], eax

; 778  : 		ATLASSERT( pOldData->nAllocLength < nLength );

	mov	eax, DWORD PTR _pOldData$[ebp]
	mov	ecx, DWORD PTR [eax+8]
	cmp	ecx, DWORD PTR _nLength$[ebp]
	jl	SHORT $L93297
	push	OFFSET FLAT:??_C@_0CB@GFHAPKDK@pOldData?9?$DOnAllocLength?5?$DM?5nLength@
	push	0
	push	778					; 0000030aH
	push	OFFSET FLAT:??_C@_0FD@JDCNPMMG@c?3?2program?5files?2microsoft?5visua@
	push	2
	call	__CrtDbgReport
	add	esp, 20					; 00000014H
	cmp	eax, 1
	jne	SHORT $L93297
	int	3
$L93297:

; 779  : 		IAtlStringMgr* pStringMgr = pOldData->pStringMgr;

	mov	eax, DWORD PTR _pOldData$[ebp]
	mov	ecx, DWORD PTR [eax]
	mov	DWORD PTR _pStringMgr$[ebp], ecx

; 780  : 		CStringData* pNewData = pStringMgr->Reallocate( pOldData, nLength, sizeof( XCHAR ) );

	mov	esi, esp
	push	2
	mov	eax, DWORD PTR _nLength$[ebp]
	push	eax
	mov	ecx, DWORD PTR _pOldData$[ebp]
	push	ecx
	mov	edx, DWORD PTR _pStringMgr$[ebp]
	mov	eax, DWORD PTR [edx]
	mov	ecx, DWORD PTR _pStringMgr$[ebp]
	call	DWORD PTR [eax+8]
	cmp	esi, esp
	call	__RTC_CheckEsp
	mov	DWORD PTR _pNewData$[ebp], eax

; 781  : 		if( pNewData == NULL )

	cmp	DWORD PTR _pNewData$[ebp], 0
	jne	SHORT $L92855

; 782  : 		{
; 783  : 			ThrowMemoryException();

	call	?ThrowMemoryException@?$CSimpleStringT@G$0A@@ATL@@KAXXZ ; ATL::CSimpleStringT<unsigned short,0>::ThrowMemoryException
$L92855:

; 784  : 		}
; 785  : 		Attach( pNewData );

	mov	eax, DWORD PTR _pNewData$[ebp]
	push	eax
	mov	ecx, DWORD PTR _this$[ebp]
	call	?Attach@?$CSimpleStringT@G$0A@@ATL@@AAEXPAUCStringData@2@@Z ; ATL::CSimpleStringT<unsigned short,0>::Attach
$L93296:

; 786  : 	}

	pop	edi
	pop	esi
	pop	ebx
	add	esp, 240				; 000000f0H
	cmp	ebp, esp
	call	__RTC_CheckEsp
	mov	esp, ebp
	pop	ebp
	ret	4
?Reallocate@?$CSimpleStringT@G$0A@@ATL@@AAEXH@Z ENDP	; ATL::CSimpleStringT<unsigned short,0>::Reallocate
; Function compile flags: /Odt /RTCcsu /ZI
_TEXT	ENDS
;	COMDAT ?GetString@?$CSimpleStringT@G$0A@@ATL@@QBEPBGXZ
_TEXT	SEGMENT
_this$ = -8						; size = 4
?GetString@?$CSimpleStringT@G$0A@@ATL@@QBEPBGXZ PROC NEAR ; ATL::CSimpleStringT<unsigned short,0>::GetString, COMDAT
; _this$ = ecx

; 509  : 	{

	push	ebp
	mov	ebp, esp
	sub	esp, 204				; 000000ccH
	push	ebx
	push	esi
	push	edi
	push	ecx
	lea	edi, DWORD PTR [ebp-204]
	mov	ecx, 51					; 00000033H
	mov	eax, -858993460				; ccccccccH
	rep stosd
	pop	ecx
	mov	DWORD PTR _this$[ebp], ecx

; 510  : 		return( m_pszData );

	mov	eax, DWORD PTR _this$[ebp]
	mov	eax, DWORD PTR [eax]

; 511  : 	}

	pop	edi
	pop	esi
	pop	ebx
	mov	esp, ebp
	pop	ebp
	ret	0
?GetString@?$CSimpleStringT@G$0A@@ATL@@QBEPBGXZ ENDP	; ATL::CSimpleStringT<unsigned short,0>::GetString
_TEXT	ENDS
EXTRN	_memmove:NEAR
; Function compile flags: /Odt /RTCcsu /ZI
;	COMDAT ?CopyCharsOverlapped@?$CSimpleStringT@G$0A@@ATL@@SAXPAGPBGH@Z
_TEXT	SEGMENT
_pchDest$ = 8						; size = 4
_pchSrc$ = 12						; size = 4
_nChars$ = 16						; size = 4
?CopyCharsOverlapped@?$CSimpleStringT@G$0A@@ATL@@SAXPAGPBGH@Z PROC NEAR ; ATL::CSimpleStringT<unsigned short,0>::CopyCharsOverlapped, COMDAT

; 656  : 	{

	push	ebp
	mov	ebp, esp
	sub	esp, 192				; 000000c0H
	push	ebx
	push	esi
	push	edi
	lea	edi, DWORD PTR [ebp-192]
	mov	ecx, 48					; 00000030H
	mov	eax, -858993460				; ccccccccH
	rep stosd

; 657  : 		memmove( pchDest, pchSrc, nChars*sizeof( XCHAR ) );

	mov	eax, DWORD PTR _nChars$[ebp]
	shl	eax, 1
	push	eax
	mov	ecx, DWORD PTR _pchSrc$[ebp]
	push	ecx
	mov	edx, DWORD PTR _pchDest$[ebp]
	push	edx
	call	_memmove
	add	esp, 12					; 0000000cH

; 658  : 	}

	pop	edi
	pop	esi
	pop	ebx
	add	esp, 192				; 000000c0H
	cmp	ebp, esp
	call	__RTC_CheckEsp
	mov	esp, ebp
	pop	ebp
	ret	0
?CopyCharsOverlapped@?$CSimpleStringT@G$0A@@ATL@@SAXPAGPBGH@Z ENDP ; ATL::CSimpleStringT<unsigned short,0>::CopyCharsOverlapped
_TEXT	ENDS
END
