; Listing generated by Microsoft (R) Optimizing Compiler Version 13.10.3077 

	TITLE	.\ImportHelp.cpp
	.386P
include listing.inc
if @Version gt 510
.model FLAT
else
_TEXT	SEGMENT PARA USE32 PUBLIC 'CODE'
_TEXT	ENDS
_DATA	SEGMENT DWORD USE32 PUBLIC 'DATA'
_DATA	ENDS
CONST	SEGMENT DWORD USE32 PUBLIC 'CONST'
CONST	ENDS
_BSS	SEGMENT DWORD USE32 PUBLIC 'BSS'
_BSS	ENDS
$$SYMBOLS	SEGMENT BYTE USE32 'DEBSYM'
$$SYMBOLS	ENDS
$$TYPES	SEGMENT BYTE USE32 'DEBTYP'
$$TYPES	ENDS
_TLS	SEGMENT DWORD USE32 PUBLIC 'TLS'
_TLS	ENDS
;	COMDAT ??_C@_0EJ@MFCPJIHN@select?5?$CK?5from?5helptext?5where?5tex@
CONST	SEGMENT DWORD USE32 PUBLIC 'CONST'
CONST	ENDS
;	COMDAT ??_C@_01KICIPPFI@?2?$AA@
CONST	SEGMENT DWORD USE32 PUBLIC 'CONST'
CONST	ENDS
;	COMDAT ??_C@_04NJFCGDBK@?4ast?$AA@
CONST	SEGMENT DWORD USE32 PUBLIC 'CONST'
CONST	ENDS
;	COMDAT ??_C@_1CE@OOAKNAGM@?$AAE?$AAr?$AAr?$AAo?$AAr?$AA?5?$AAo?$AAn?$AA?5?$AAD?$AAa?$AAt?$AAa?$AAb?$AAa?$AAs?$AAe?$AA?$AA@
CONST	SEGMENT DWORD USE32 PUBLIC 'CONST'
CONST	ENDS
;	COMDAT ??0CAsFile@@QAE@XZ
_TEXT	SEGMENT PARA USE32 PUBLIC 'CODE'
_TEXT	ENDS
;	COMDAT ??1CAsFile@@QAE@XZ
_TEXT	SEGMENT PARA USE32 PUBLIC 'CODE'
_TEXT	ENDS
;	COMDAT ?type@CAsFile@@QAEHXZ
_TEXT	SEGMENT PARA USE32 PUBLIC 'CODE'
_TEXT	ENDS
;	COMDAT ?name@CAsFile@@QAEPADXZ
_TEXT	SEGMENT PARA USE32 PUBLIC 'CODE'
_TEXT	ENDS
;	COMDAT ?dest@CAsFile@@QAEPADXZ
_TEXT	SEGMENT PARA USE32 PUBLIC 'CODE'
_TEXT	ENDS
;	COMDAT ?nElements@CAsFileAry@@QAEAAIXZ
_TEXT	SEGMENT PARA USE32 PUBLIC 'CODE'
_TEXT	ENDS
;	COMDAT ?array@CAsFileAry@@QAEPAVCAsFile@@XZ
_TEXT	SEGMENT PARA USE32 PUBLIC 'CODE'
_TEXT	ENDS
;	COMDAT ??_ECAsFile@@QAEPAXI@Z
_TEXT	SEGMENT PARA USE32 PUBLIC 'CODE'
_TEXT	ENDS
;	COMDAT ??1ImportHelp@@UAE@XZ
_TEXT	SEGMENT PARA USE32 PUBLIC 'CODE'
_TEXT	ENDS
;	COMDAT ??_GImportHelp@@UAEPAXI@Z
_TEXT	SEGMENT PARA USE32 PUBLIC 'CODE'
_TEXT	ENDS
;	COMDAT ??1CDHelpTxt@@UAE@XZ
_TEXT	SEGMENT PARA USE32 PUBLIC 'CODE'
_TEXT	ENDS
;	COMDAT ??0CTextBlock@@QAE@XZ
_TEXT	SEGMENT PARA USE32 PUBLIC 'CODE'
_TEXT	ENDS
;	COMDAT ??1CTextBlock@@QAE@XZ
_TEXT	SEGMENT PARA USE32 PUBLIC 'CODE'
_TEXT	ENDS
;	COMDAT ?text@CTextBlock@@QAEAAV?$CStringT@GV?$StrTraitMFC@GV?$ChTraitsCRT@G@ATL@@@@@ATL@@XZ
_TEXT	SEGMENT PARA USE32 PUBLIC 'CODE'
_TEXT	ENDS
;	COMDAT ??0CTextBlockAry@@QAE@HH@Z
_TEXT	SEGMENT PARA USE32 PUBLIC 'CODE'
_TEXT	ENDS
;	COMDAT ??1CTextBlockAry@@QAE@XZ
_TEXT	SEGMENT PARA USE32 PUBLIC 'CODE'
_TEXT	ENDS
;	COMDAT ?next@CTextBlockAry@@QAEPAVCTextBlock@@XZ
_TEXT	SEGMENT PARA USE32 PUBLIC 'CODE'
_TEXT	ENDS
;	COMDAT ??_ECTextBlock@@QAEPAXI@Z
_TEXT	SEGMENT PARA USE32 PUBLIC 'CODE'
_TEXT	ENDS
;	COMDAT ?ProcessItem@ImportHelp@@QAEHPAD@Z
_TEXT	SEGMENT PARA USE32 PUBLIC 'CODE'
_TEXT	ENDS
;	COMDAT ??_GCTextBlockAry@@QAEPAXI@Z
_TEXT	SEGMENT PARA USE32 PUBLIC 'CODE'
_TEXT	ENDS
;	COMDAT ?Process@ImportHelp@@QAEXXZ
_TEXT	SEGMENT PARA USE32 PUBLIC 'CODE'
_TEXT	ENDS
;	COMDAT ??4?$CStringT@GV?$StrTraitMFC@GV?$ChTraitsCRT@G@ATL@@@@@ATL@@QAEAAV01@ABV01@@Z
_TEXT	SEGMENT PARA USE32 PUBLIC 'CODE'
_TEXT	ENDS
;	COMDAT ??4?$CSimpleStringT@G$0A@@ATL@@QAEAAV01@ABV01@@Z
_TEXT	SEGMENT PARA USE32 PUBLIC 'CODE'
_TEXT	ENDS
;	COMDAT ?Attach@?$CSimpleStringT@G$0A@@ATL@@AAEXPAUCStringData@2@@Z
_TEXT	SEGMENT PARA USE32 PUBLIC 'CODE'
_TEXT	ENDS
;	COMDAT ?data@CStringData@ATL@@QAEPAXXZ
_TEXT	SEGMENT PARA USE32 PUBLIC 'CODE'
_TEXT	ENDS
;	COMDAT ?Release@CStringData@ATL@@QAEXXZ
_TEXT	SEGMENT PARA USE32 PUBLIC 'CODE'
_TEXT	ENDS
;	COMDAT ??_C@_0L@OIIMFBNE@nRefs?5?$CB?$DN?50?$AA@
CONST	SEGMENT DWORD USE32 PUBLIC 'CONST'
CONST	ENDS
;	COMDAT ??_C@_0FD@JDCNPMMG@c?3?2program?5files?2microsoft?5visua@
CONST	SEGMENT DWORD USE32 PUBLIC 'CONST'
CONST	ENDS
;	COMDAT ?CloneData@?$CSimpleStringT@G$0A@@ATL@@CAPAUCStringData@2@PAU32@@Z
_TEXT	SEGMENT PARA USE32 PUBLIC 'CODE'
_TEXT	ENDS
;	COMDAT ?AddRef@CStringData@ATL@@QAEXXZ
_TEXT	SEGMENT PARA USE32 PUBLIC 'CODE'
_TEXT	ENDS
;	COMDAT ??_C@_09EEBKLCFA@nRefs?5?$DO?50?$AA@
CONST	SEGMENT DWORD USE32 PUBLIC 'CONST'
CONST	ENDS
;	COMDAT ?ThrowMemoryException@?$CSimpleStringT@G$0A@@ATL@@KAXXZ
_TEXT	SEGMENT PARA USE32 PUBLIC 'CODE'
_TEXT	ENDS
;	COMDAT ?AtlThrow@ATL@@YGXJ@Z
_TEXT	SEGMENT PARA USE32 PUBLIC 'CODE'
_TEXT	ENDS
;	COMDAT ??RCTraceFileAndLineInfo@ATL@@QBAXKIPBGZZ
_TEXT	SEGMENT PARA USE32 PUBLIC 'CODE'
_TEXT	ENDS
;	COMDAT ?TraceV@CTrace@ATL@@QBAXPBDHKIPBGPAD@Z
_TEXT	SEGMENT PARA USE32 PUBLIC 'CODE'
_TEXT	ENDS
;	COMDAT ??0CTraceFileAndLineInfo@ATL@@QAE@PBDH@Z
_TEXT	SEGMENT PARA USE32 PUBLIC 'CODE'
_TEXT	ENDS
;	COMDAT ?__LINE__Var@?1??AtlThrow@ATL@@YGXJ@Z@4JA
_DATA	SEGMENT DWORD USE32 PUBLIC 'DATA'
_DATA	ENDS
;	COMDAT ??_C@_0FC@IPKABFFL@c?3?2program?5files?2microsoft?5visua@
CONST	SEGMENT DWORD USE32 PUBLIC 'CONST'
CONST	ENDS
;	COMDAT ??_C@_1CK@DFMKPFAK@?$AAA?$AAt?$AAl?$AAT?$AAh?$AAr?$AAo?$AAw?$AA?3?$AA?5?$AAh?$AAr?$AA?5?$AA?$DN?$AA?5?$AA0?$AAx?$AA?$CF?$AAx?$AA?6@
CONST	SEGMENT DWORD USE32 PUBLIC 'CONST'
CONST	ENDS
;	COMDAT ??BCTraceCategory@ATL@@QBEKXZ
_TEXT	SEGMENT PARA USE32 PUBLIC 'CODE'
_TEXT	ENDS
;	COMDAT ?CopyChars@?$CSimpleStringT@G$0A@@ATL@@SAXPAGPBGH@Z
_TEXT	SEGMENT PARA USE32 PUBLIC 'CODE'
_TEXT	ENDS
;	COMDAT ?GetString@?$CSimpleStringT@G$0A@@ATL@@QBEPBGXZ
_TEXT	SEGMENT PARA USE32 PUBLIC 'CODE'
_TEXT	ENDS
;	COMDAT ?SetString@?$CSimpleStringT@G$0A@@ATL@@QAEXPBGH@Z
_TEXT	SEGMENT PARA USE32 PUBLIC 'CODE'
_TEXT	ENDS
;	COMDAT ?Empty@?$CSimpleStringT@G$0A@@ATL@@QAEXXZ
_TEXT	SEGMENT PARA USE32 PUBLIC 'CODE'
_TEXT	ENDS
;	COMDAT ?SetLength@?$CSimpleStringT@G$0A@@ATL@@AAEXH@Z
_TEXT	SEGMENT PARA USE32 PUBLIC 'CODE'
_TEXT	ENDS
;	COMDAT ??_C@_0N@ILOMLJGA@nLength?5?$DO?$DN?50?$AA@
CONST	SEGMENT DWORD USE32 PUBLIC 'CONST'
CONST	ENDS
;	COMDAT ??_C@_0CD@EEFFJEGJ@nLength?5?$DM?$DN?5GetData?$CI?$CJ?9?$DOnAllocLeng@
CONST	SEGMENT DWORD USE32 PUBLIC 'CONST'
CONST	ENDS
;	COMDAT ?GetBuffer@?$CSimpleStringT@G$0A@@ATL@@QAEPAGH@Z
_TEXT	SEGMENT PARA USE32 PUBLIC 'CODE'
_TEXT	ENDS
;	COMDAT ?PrepareWrite@?$CSimpleStringT@G$0A@@ATL@@AAEPAGH@Z
_TEXT	SEGMENT PARA USE32 PUBLIC 'CODE'
_TEXT	ENDS
;	COMDAT ?PrepareWrite2@?$CSimpleStringT@G$0A@@ATL@@AAEXH@Z
_TEXT	SEGMENT PARA USE32 PUBLIC 'CODE'
_TEXT	ENDS
;	COMDAT ?IsShared@CStringData@ATL@@QBE_NXZ
_TEXT	SEGMENT PARA USE32 PUBLIC 'CODE'
_TEXT	ENDS
;	COMDAT ?Fork@?$CSimpleStringT@G$0A@@ATL@@AAEXH@Z
_TEXT	SEGMENT PARA USE32 PUBLIC 'CODE'
_TEXT	ENDS
;	COMDAT ?Reallocate@?$CSimpleStringT@G$0A@@ATL@@AAEXH@Z
_TEXT	SEGMENT PARA USE32 PUBLIC 'CODE'
_TEXT	ENDS
;	COMDAT ??_C@_0CB@GFHAPKDK@pOldData?9?$DOnAllocLength?5?$DM?5nLength@
CONST	SEGMENT DWORD USE32 PUBLIC 'CONST'
CONST	ENDS
;	COMDAT ?CopyCharsOverlapped@?$CSimpleStringT@G$0A@@ATL@@SAXPAGPBGH@Z
_TEXT	SEGMENT PARA USE32 PUBLIC 'CODE'
_TEXT	ENDS
;	COMDAT ?ReleaseBufferSetLength@?$CSimpleStringT@G$0A@@ATL@@QAEXH@Z
_TEXT	SEGMENT PARA USE32 PUBLIC 'CODE'
_TEXT	ENDS
;	COMDAT ??_C@_0BA@GNIEOBOF@nNewLength?5?$DO?$DN?50?$AA@
CONST	SEGMENT DWORD USE32 PUBLIC 'CONST'
CONST	ENDS
;	COMDAT ?IsLocked@CStringData@ATL@@QBE_NXZ
_TEXT	SEGMENT PARA USE32 PUBLIC 'CODE'
_TEXT	ENDS
;	COMDAT ?GetData@?$CSimpleStringT@G$0A@@ATL@@ABEPAUCStringData@2@XZ
_TEXT	SEGMENT PARA USE32 PUBLIC 'CODE'
_TEXT	ENDS
;	COMDAT ??_R0PAVCDaoException@@@8
_DATA	SEGMENT DWORD USE32 PUBLIC 'DATA'
_DATA	ENDS
;	COMDAT ?__LINE__Var@?1??ProcessItem@ImportHelp@@QAEHPAD@Z@4JA
_DATA	SEGMENT DWORD USE32 PUBLIC 'DATA'
_DATA	ENDS
;	COMDAT ??B?$CSimpleStringT@G$0A@@ATL@@QBEPBGXZ
_TEXT	SEGMENT PARA USE32 PUBLIC 'CODE'
_TEXT	ENDS
;	COMDAT ??0?$CStringT@GV?$StrTraitMFC@GV?$ChTraitsCRT@G@ATL@@@@@ATL@@QAE@ABV01@@Z
_TEXT	SEGMENT PARA USE32 PUBLIC 'CODE'
_TEXT	ENDS
;	COMDAT ??0?$CSimpleStringT@G$0A@@ATL@@QAE@ABV01@@Z
_TEXT	SEGMENT PARA USE32 PUBLIC 'CODE'
_TEXT	ENDS
;	COMDAT ??1?$CSimpleStringT@G$0A@@ATL@@QAE@XZ
_TEXT	SEGMENT PARA USE32 PUBLIC 'CODE'
_TEXT	ENDS
;	COMDAT ??0?$CStringT@GV?$StrTraitMFC@GV?$ChTraitsCRT@G@ATL@@@@@ATL@@QAE@PBD@Z
_TEXT	SEGMENT PARA USE32 PUBLIC 'CODE'
_TEXT	ENDS
;	COMDAT ??0?$CSimpleStringT@G$0A@@ATL@@QAE@PAUIAtlStringMgr@1@@Z
_TEXT	SEGMENT PARA USE32 PUBLIC 'CODE'
_TEXT	ENDS
;	COMDAT ??_C@_0BA@GOIMFHNK@pStringMgr?5?$CB?$DN?50?$AA@
CONST	SEGMENT DWORD USE32 PUBLIC 'CONST'
CONST	ENDS
;	COMDAT ?GetDefaultManager@?$StrTraitMFC@GV?$ChTraitsCRT@G@ATL@@@@SAPAUIAtlStringMgr@ATL@@XZ
_TEXT	SEGMENT PARA USE32 PUBLIC 'CODE'
_TEXT	ENDS
;	COMDAT ?CheckImplicitLoad@?$CStringT@GV?$StrTraitMFC@GV?$ChTraitsCRT@G@ATL@@@@@ATL@@AAE_NPBX@Z
_TEXT	SEGMENT PARA USE32 PUBLIC 'CODE'
_TEXT	ENDS
;	COMDAT ?LoadStringW@?$CStringT@GV?$StrTraitMFC@GV?$ChTraitsCRT@G@ATL@@@@@ATL@@QAEHI@Z
_TEXT	SEGMENT PARA USE32 PUBLIC 'CODE'
_TEXT	ENDS
;	COMDAT ?FindStringResourceInstance@?$StrTraitMFC@GV?$ChTraitsCRT@G@ATL@@@@SAPAUHINSTANCE__@@I@Z
_TEXT	SEGMENT PARA USE32 PUBLIC 'CODE'
_TEXT	ENDS
;	COMDAT ?LoadStringW@?$CStringT@GV?$StrTraitMFC@GV?$ChTraitsCRT@G@ATL@@@@@ATL@@QAEHPAUHINSTANCE__@@I@Z
_TEXT	SEGMENT PARA USE32 PUBLIC 'CODE'
_TEXT	ENDS
;	COMDAT ?AtlGetStringResourceImage@ATL@@YAPBUATLSTRINGRESOURCEIMAGE@1@PAUHINSTANCE__@@I@Z
_TEXT	SEGMENT PARA USE32 PUBLIC 'CODE'
_TEXT	ENDS
;	COMDAT ?_AtlGetStringResourceImage@ATL@@YAPBUATLSTRINGRESOURCEIMAGE@1@PAUHINSTANCE__@@PAUHRSRC__@@I@Z
_TEXT	SEGMENT PARA USE32 PUBLIC 'CODE'
_TEXT	ENDS
;	COMDAT ?GetBaseTypeLength@?$ChTraitsCRT@G@ATL@@SAHPBGH@Z
_TEXT	SEGMENT PARA USE32 PUBLIC 'CODE'
_TEXT	ENDS
;	COMDAT ?ConvertToBaseType@?$ChTraitsCRT@G@ATL@@SAXPAGHPBGH@Z
_TEXT	SEGMENT PARA USE32 PUBLIC 'CODE'
_TEXT	ENDS
;	COMDAT ??_C@_0FB@BCKJDECD@c?3?2program?5files?2microsoft?5visua@
CONST	SEGMENT DWORD USE32 PUBLIC 'CONST'
CONST	ENDS
;	COMDAT ??_C@_1FC@BMOLDHIO@?$AAW?$AAa?$AAr?$AAn?$AAi?$AAn?$AAg?$AA?3?$AA?5?$AAi?$AAm?$AAp?$AAl?$AAi?$AAc?$AAi?$AAt?$AA?5?$AAL?$AAo@
CONST	SEGMENT DWORD USE32 PUBLIC 'CONST'
CONST	ENDS
;	COMDAT ?GetLength@?$CSimpleStringT@G$0A@@ATL@@QBEHXZ
_TEXT	SEGMENT PARA USE32 PUBLIC 'CODE'
_TEXT	ENDS
;	COMDAT ??4?$CStringT@GV?$StrTraitMFC@GV?$ChTraitsCRT@G@ATL@@@@@ATL@@QAEAAV01@PBD@Z
_TEXT	SEGMENT PARA USE32 PUBLIC 'CODE'
_TEXT	ENDS
;	COMDAT ?GetBaseTypeLength@?$ChTraitsCRT@G@ATL@@SAHPBD@Z
_TEXT	SEGMENT PARA USE32 PUBLIC 'CODE'
_TEXT	ENDS
;	COMDAT ?_AtlGetConversionACP@ATL@@YGIXZ
_TEXT	SEGMENT PARA USE32 PUBLIC 'CODE'
_TEXT	ENDS
;	COMDAT ?g_pfnGetThreadACP@ATL@@3P6GIXZA
_DATA	SEGMENT DWORD USE32 PUBLIC 'DATA'
_DATA	ENDS
;	COMDAT ?_AtlGetThreadACPThunk@ATL@@YGIXZ
_TEXT	SEGMENT PARA USE32 PUBLIC 'CODE'
_TEXT	ENDS
;	COMDAT ?_AtlGetThreadACPReal@ATL@@YGIXZ
_TEXT	SEGMENT PARA USE32 PUBLIC 'CODE'
_TEXT	ENDS
;	COMDAT ?_AtlGetThreadACPFake@ATL@@YGIXZ
_TEXT	SEGMENT PARA USE32 PUBLIC 'CODE'
_TEXT	ENDS
;	COMDAT ?InterlockedExchangePointer@@YGPAXPAPAXPAX@Z
_TEXT	SEGMENT PARA USE32 PUBLIC 'CODE'
_TEXT	ENDS
;	COMDAT ?ConvertToBaseType@?$ChTraitsCRT@G@ATL@@SAXPAGHPBDH@Z
_TEXT	SEGMENT PARA USE32 PUBLIC 'CODE'
_TEXT	ENDS
;	COMDAT ??1?$CStringT@GV?$StrTraitMFC@GV?$ChTraitsCRT@G@ATL@@@@@ATL@@QAE@XZ
_TEXT	SEGMENT PARA USE32 PUBLIC 'CODE'
_TEXT	ENDS
;	COMDAT ??0?$CStringT@GV?$StrTraitMFC@GV?$ChTraitsCRT@G@ATL@@@@@ATL@@QAE@XZ
_TEXT	SEGMENT PARA USE32 PUBLIC 'CODE'
_TEXT	ENDS
;	COMDAT ??_7ImportHelp@@6B@
CONST	SEGMENT DWORD USE32 PUBLIC 'CONST'
CONST	ENDS
sxdata	SEGMENT DWORD USE32 'SXDATA'
sxdata	ENDS
FLAT	GROUP _DATA, CONST, _BSS
	ASSUME	CS: FLAT, DS: FLAT, SS: FLAT
endif

INCLUDELIB LIBCMTD
INCLUDELIB OLDNAMES

PUBLIC	?g_pfnGetThreadACP@ATL@@3P6GIXZA		; ATL::g_pfnGetThreadACP
PUBLIC	?_AtlGetThreadACPThunk@ATL@@YGIXZ		; ATL::_AtlGetThreadACPThunk
_DATA	SEGMENT
_THIS_FILE DB	'c:\astrow32dev\tbt32\importhelp.cpp', 00H
_DATA	ENDS
;	COMDAT ?g_pfnGetThreadACP@ATL@@3P6GIXZA
_DATA	SEGMENT
?g_pfnGetThreadACP@ATL@@3P6GIXZA DD FLAT:?_AtlGetThreadACPThunk@ATL@@YGIXZ ; ATL::g_pfnGetThreadACP
_DATA	ENDS
PUBLIC	??_ECAsFile@@QAEPAXI@Z				; CAsFile::`vector deleting destructor'
PUBLIC	??1CAsFile@@QAE@XZ				; CAsFile::~CAsFile
EXTRN	??_M@YGXPAXIHP6EX0@Z@Z:NEAR			; `eh vector destructor iterator'
EXTRN	??3@YAXPAX@Z:NEAR				; operator delete
EXTRN	??_V@YAXPAX@Z:NEAR				; operator delete[]
EXTRN	__RTC_InitBase:NEAR
EXTRN	__RTC_Shutdown:NEAR
EXTRN	__RTC_CheckEsp:NEAR
;	COMDAT rtc$IMZ
rtc$IMZ	SEGMENT
__RTC_InitBase.rtc$IMZ DD FLAT:__RTC_InitBase
rtc$IMZ	ENDS
;	COMDAT rtc$TMZ
rtc$TMZ	SEGMENT
__RTC_Shutdown.rtc$TMZ DD FLAT:__RTC_Shutdown
; Function compile flags: /Odt /RTCcsu /ZI
rtc$TMZ	ENDS
;	COMDAT ??_ECAsFile@@QAEPAXI@Z
_TEXT	SEGMENT
_this$ = -8						; size = 4
___flags$ = 8						; size = 4
??_ECAsFile@@QAEPAXI@Z PROC NEAR			; CAsFile::`vector deleting destructor', COMDAT
; _this$ = ecx
	push	ebp
	mov	ebp, esp
	sub	esp, 204				; 000000ccH
	push	ebx
	push	esi
	push	edi
	push	ecx
	lea	edi, DWORD PTR [ebp-204]
	mov	ecx, 51					; 00000033H
	mov	eax, -858993460				; ccccccccH
	rep stosd
	pop	ecx
	mov	DWORD PTR _this$[ebp], ecx
	mov	eax, DWORD PTR ___flags$[ebp]
	and	eax, 2
	je	SHORT $L93279
	push	OFFSET FLAT:??1CAsFile@@QAE@XZ		; CAsFile::~CAsFile
	mov	eax, DWORD PTR _this$[ebp]
	mov	ecx, DWORD PTR [eax-4]
	push	ecx
	push	156					; 0000009cH
	mov	edx, DWORD PTR _this$[ebp]
	push	edx
	call	??_M@YGXPAXIHP6EX0@Z@Z
	mov	eax, DWORD PTR ___flags$[ebp]
	and	eax, 1
	je	SHORT $L93280
	mov	eax, DWORD PTR _this$[ebp]
	sub	eax, 4
	push	eax
	call	??_V@YAXPAX@Z				; operator delete[]
	add	esp, 4
$L93280:
	mov	eax, DWORD PTR _this$[ebp]
	sub	eax, 4
	jmp	SHORT $L93278
$L93279:
	mov	ecx, DWORD PTR _this$[ebp]
	call	??1CAsFile@@QAE@XZ			; CAsFile::~CAsFile
	mov	eax, DWORD PTR ___flags$[ebp]
	and	eax, 1
	je	SHORT $L93282
	mov	eax, DWORD PTR _this$[ebp]
	push	eax
	call	??3@YAXPAX@Z				; operator delete
	add	esp, 4
$L93282:
	mov	eax, DWORD PTR _this$[ebp]
$L93278:
	pop	edi
	pop	esi
	pop	ebx
	add	esp, 204				; 000000ccH
	cmp	ebp, esp
	call	__RTC_CheckEsp
	mov	esp, ebp
	pop	ebp
	ret	4
??_ECAsFile@@QAEPAXI@Z ENDP				; CAsFile::`vector deleting destructor'
; Function compile flags: /Odt /RTCcsu /ZI
; File c:\astrow32dev\tbt32\fileary.hpp
_TEXT	ENDS
;	COMDAT ??1CAsFile@@QAE@XZ
_TEXT	SEGMENT
_this$ = -8						; size = 4
??1CAsFile@@QAE@XZ PROC NEAR				; CAsFile::~CAsFile, COMDAT
; _this$ = ecx

; 16   :     ~CAsFile() {}

	push	ebp
	mov	ebp, esp
	sub	esp, 204				; 000000ccH
	push	ebx
	push	esi
	push	edi
	push	ecx
	lea	edi, DWORD PTR [ebp-204]
	mov	ecx, 51					; 00000033H
	mov	eax, -858993460				; ccccccccH
	rep stosd
	pop	ecx
	mov	DWORD PTR _this$[ebp], ecx
	pop	edi
	pop	esi
	pop	ebx
	mov	esp, ebp
	pop	ebp
	ret	0
??1CAsFile@@QAE@XZ ENDP					; CAsFile::~CAsFile
_TEXT	ENDS
PUBLIC	??1CTextBlock@@QAE@XZ				; CTextBlock::~CTextBlock
PUBLIC	??_ECTextBlock@@QAEPAXI@Z			; CTextBlock::`vector deleting destructor'
; Function compile flags: /Odt /RTCcsu /ZI
;	COMDAT ??_ECTextBlock@@QAEPAXI@Z
_TEXT	SEGMENT
_this$ = -8						; size = 4
___flags$ = 8						; size = 4
??_ECTextBlock@@QAEPAXI@Z PROC NEAR			; CTextBlock::`vector deleting destructor', COMDAT
; _this$ = ecx
	push	ebp
	mov	ebp, esp
	sub	esp, 204				; 000000ccH
	push	ebx
	push	esi
	push	edi
	push	ecx
	lea	edi, DWORD PTR [ebp-204]
	mov	ecx, 51					; 00000033H
	mov	eax, -858993460				; ccccccccH
	rep stosd
	pop	ecx
	mov	DWORD PTR _this$[ebp], ecx
	mov	eax, DWORD PTR ___flags$[ebp]
	and	eax, 2
	je	SHORT $L93503
	push	OFFSET FLAT:??1CTextBlock@@QAE@XZ	; CTextBlock::~CTextBlock
	mov	eax, DWORD PTR _this$[ebp]
	mov	ecx, DWORD PTR [eax-4]
	push	ecx
	push	144					; 00000090H
	mov	edx, DWORD PTR _this$[ebp]
	push	edx
	call	??_M@YGXPAXIHP6EX0@Z@Z
	mov	eax, DWORD PTR ___flags$[ebp]
	and	eax, 1
	je	SHORT $L93504
	mov	eax, DWORD PTR _this$[ebp]
	sub	eax, 4
	push	eax
	call	??_V@YAXPAX@Z				; operator delete[]
	add	esp, 4
$L93504:
	mov	eax, DWORD PTR _this$[ebp]
	sub	eax, 4
	jmp	SHORT $L93502
$L93503:
	mov	ecx, DWORD PTR _this$[ebp]
	call	??1CTextBlock@@QAE@XZ			; CTextBlock::~CTextBlock
	mov	eax, DWORD PTR ___flags$[ebp]
	and	eax, 1
	je	SHORT $L93506
	mov	eax, DWORD PTR _this$[ebp]
	push	eax
	call	??3@YAXPAX@Z				; operator delete
	add	esp, 4
$L93506:
	mov	eax, DWORD PTR _this$[ebp]
$L93502:
	pop	edi
	pop	esi
	pop	ebx
	add	esp, 204				; 000000ccH
	cmp	ebp, esp
	call	__RTC_CheckEsp
	mov	esp, ebp
	pop	ebp
	ret	4
??_ECTextBlock@@QAEPAXI@Z ENDP				; CTextBlock::`vector deleting destructor'
_TEXT	ENDS
PUBLIC	??1?$CStringT@GV?$StrTraitMFC@GV?$ChTraitsCRT@G@ATL@@@@@ATL@@QAE@XZ ; ATL::CStringT<unsigned short,StrTraitMFC<unsigned short,ATL::ChTraitsCRT<unsigned short> > >::~CStringT<unsigned short,StrTraitMFC<unsigned short,ATL::ChTraitsCRT<unsigned short> > >
; Function compile flags: /Odt /RTCcsu /ZI
; File c:\astrow32dev\tbt32\textbloc.hpp
;	COMDAT ??1CTextBlock@@QAE@XZ
_TEXT	SEGMENT
_this$ = -8						; size = 4
??1CTextBlock@@QAE@XZ PROC NEAR				; CTextBlock::~CTextBlock, COMDAT
; _this$ = ecx

; 9    :    ~CTextBlock() {}

	push	ebp
	mov	ebp, esp
	sub	esp, 204				; 000000ccH
	push	ebx
	push	esi
	push	edi
	push	ecx
	lea	edi, DWORD PTR [ebp-204]
	mov	ecx, 51					; 00000033H
	mov	eax, -858993460				; ccccccccH
	rep stosd
	pop	ecx
	mov	DWORD PTR _this$[ebp], ecx
	mov	ecx, DWORD PTR _this$[ebp]
	add	ecx, 140				; 0000008cH
	call	??1?$CStringT@GV?$StrTraitMFC@GV?$ChTraitsCRT@G@ATL@@@@@ATL@@QAE@XZ ; ATL::CStringT<unsigned short,StrTraitMFC<unsigned short,ATL::ChTraitsCRT<unsigned short> > >::~CStringT<unsigned short,StrTraitMFC<unsigned short,ATL::ChTraitsCRT<unsigned short> > >
	pop	edi
	pop	esi
	pop	ebx
	add	esp, 204				; 000000ccH
	cmp	ebp, esp
	call	__RTC_CheckEsp
	mov	esp, ebp
	pop	ebp
	ret	0
??1CTextBlock@@QAE@XZ ENDP				; CTextBlock::~CTextBlock
_TEXT	ENDS
PUBLIC	?ProcessItem@ImportHelp@@QAEHPAD@Z		; ImportHelp::ProcessItem
PUBLIC	?text@CTextBlock@@QAEAAV?$CStringT@GV?$StrTraitMFC@GV?$ChTraitsCRT@G@ATL@@@@@ATL@@XZ ; CTextBlock::text
PUBLIC	??0CTextBlockAry@@QAE@HH@Z			; CTextBlockAry::CTextBlockAry
PUBLIC	?next@CTextBlockAry@@QAEPAVCTextBlock@@XZ	; CTextBlockAry::next
PUBLIC	??_GCTextBlockAry@@QAEPAXI@Z			; CTextBlockAry::`scalar deleting destructor'
PUBLIC	??_C@_0EJ@MFCPJIHN@select?5?$CK?5from?5helptext?5where?5tex@ ; `string'
PUBLIC	??_C@_01KICIPPFI@?2?$AA@			; `string'
PUBLIC	??_C@_04NJFCGDBK@?4ast?$AA@			; `string'
PUBLIC	?__LINE__Var@?1??ProcessItem@ImportHelp@@QAEHPAD@Z@4JA ; `ImportHelp::ProcessItem'::`2'::__LINE__Var
PUBLIC	??_R0PAVCDaoException@@@8			; CDaoException * `RTTI Type Descriptor'
PUBLIC	??_C@_1CE@OOAKNAGM@?$AAE?$AAr?$AAr?$AAo?$AAr?$AA?5?$AAo?$AAn?$AA?5?$AAD?$AAa?$AAt?$AAa?$AAb?$AAa?$AAs?$AAe?$AA?$AA@ ; `string'
PUBLIC	??B?$CSimpleStringT@G$0A@@ATL@@QBEPBGXZ		; ATL::CSimpleStringT<unsigned short,0>::operator unsigned short const *
PUBLIC	?GetLength@?$CSimpleStringT@G$0A@@ATL@@QBEHXZ	; ATL::CSimpleStringT<unsigned short,0>::GetLength
PUBLIC	??0?$CStringT@GV?$StrTraitMFC@GV?$ChTraitsCRT@G@ATL@@@@@ATL@@QAE@ABV01@@Z ; ATL::CStringT<unsigned short,StrTraitMFC<unsigned short,ATL::ChTraitsCRT<unsigned short> > >::CStringT<unsigned short,StrTraitMFC<unsigned short,ATL::ChTraitsCRT<unsigned short> > >
PUBLIC	??0?$CStringT@GV?$StrTraitMFC@GV?$ChTraitsCRT@G@ATL@@@@@ATL@@QAE@PBD@Z ; ATL::CStringT<unsigned short,StrTraitMFC<unsigned short,ATL::ChTraitsCRT<unsigned short> > >::CStringT<unsigned short,StrTraitMFC<unsigned short,ATL::ChTraitsCRT<unsigned short> > >
PUBLIC	??4?$CStringT@GV?$StrTraitMFC@GV?$ChTraitsCRT@G@ATL@@@@@ATL@@QAEAAV01@ABV01@@Z ; ATL::CStringT<unsigned short,StrTraitMFC<unsigned short,ATL::ChTraitsCRT<unsigned short> > >::operator=
PUBLIC	??4?$CStringT@GV?$StrTraitMFC@GV?$ChTraitsCRT@G@ATL@@@@@ATL@@QAEAAV01@PBD@Z ; ATL::CStringT<unsigned short,StrTraitMFC<unsigned short,ATL::ChTraitsCRT<unsigned short> > >::operator=
EXTRN	??2@YAPAXIPBDH@Z:NEAR				; operator new
EXTRN	??3@YAXPAXPBDH@Z:NEAR				; operator delete
EXTRN	?GetCurLanguage@@YAAAV?$CStringT@GV?$StrTraitMFC@GV?$ChTraitsCRT@G@ATL@@@@@ATL@@XZ:NEAR ; GetCurLanguage
EXTRN	??_7type_info@@6B@:DWORD			; type_info::`vftable'
EXTRN	?Load@CTextBlockAry@@QAEHPADH@Z:NEAR		; CTextBlockAry::Load
EXTRN	?alert_box@@YAHPAGPBGZZ:NEAR			; alert_box
EXTRN	?IsOpen@CDaoRecordset@@QBEHXZ:NEAR		; CDaoRecordset::IsOpen
EXTRN	?IsBOF@CDaoRecordset@@QBEHXZ:NEAR		; CDaoRecordset::IsBOF
EXTRN	?IsEOF@CDaoRecordset@@QBEHXZ:NEAR		; CDaoRecordset::IsEOF
EXTRN	?MoveNext@CDaoRecordset@@QAEXXZ:NEAR		; CDaoRecordset::MoveNext
EXTRN	@_RTC_Check_4_to_2@4:NEAR
EXTRN	__except_list:DWORD
EXTRN	___security_cookie:DWORD
EXTRN	@_RTC_CheckStackVars@8:NEAR
EXTRN	@__security_check_cookie@4:NEAR
EXTRN	___CxxFrameHandler:NEAR
EXTRN	_sprintf:NEAR
EXTRN	_memset:NEAR
EXTRN	_strcpy:NEAR
EXTRN	_strcat:NEAR
EXTRN	_strlen:NEAR
EXTRN	__strupr:NEAR
EXTRN	?SetFile@CProgress@@QAEXAAV?$CStringT@GV?$StrTraitMFC@GV?$ChTraitsCRT@G@ATL@@@@@ATL@@@Z:NEAR ; CProgress::SetFile
EXTRN	?IncProgress@CProgress@@QAEXXZ:NEAR		; CProgress::IncProgress
EXTRN	_wcstombs:NEAR
EXTRN	?ToReplacements@CStrTransform@@QAEAAV?$CStringT@GV?$StrTraitMFC@GV?$ChTraitsCRT@G@ATL@@@@@ATL@@AAV23@@Z:NEAR ; CStrTransform::ToReplacements
EXTRN	?pTransformers@@3PAVCStrTransform@@A:DWORD	; pTransformers
;	COMDAT xdata$x
; File c:\astrow32dev\tbt32\importhelp.cpp
xdata$x	SEGMENT
__unwindtable$?ProcessItem@ImportHelp@@QAEHPAD@Z DD 0ffffffffH
	DD	00H
	DD	00H
	DD	FLAT:__unwindfunclet$?ProcessItem@ImportHelp@@QAEHPAD@Z$2
	DD	00H
	DD	FLAT:__unwindfunclet$?ProcessItem@ImportHelp@@QAEHPAD@Z$3
	DD	02H
	DD	FLAT:__unwindfunclet$?ProcessItem@ImportHelp@@QAEHPAD@Z$4
	DD	02H
	DD	FLAT:__unwindfunclet$?ProcessItem@ImportHelp@@QAEHPAD@Z$5
	DD	0ffffffffH
	DD	00H
__catchsym$?ProcessItem@ImportHelp@@QAEHPAD@Z$6 DD 00H
	DD	FLAT:??_R0PAVCDaoException@@@8
	DD	0fffffa04H
	DD	FLAT:__catch$?ProcessItem@ImportHelp@@QAEHPAD@Z$0
__tryblocktable$?ProcessItem@ImportHelp@@QAEHPAD@Z DD 00H
	DD	04H
	DD	05H
	DD	01H
	DD	FLAT:__catchsym$?ProcessItem@ImportHelp@@QAEHPAD@Z$6
__ehfuncinfo$?ProcessItem@ImportHelp@@QAEHPAD@Z DD 019930520H
	DD	06H
	DD	FLAT:__unwindtable$?ProcessItem@ImportHelp@@QAEHPAD@Z
	DD	01H
	DD	FLAT:__tryblocktable$?ProcessItem@ImportHelp@@QAEHPAD@Z
	DD	2 DUP(00H)
xdata$x	ENDS
;	COMDAT ??_C@_0EJ@MFCPJIHN@select?5?$CK?5from?5helptext?5where?5tex@
CONST	SEGMENT
??_C@_0EJ@MFCPJIHN@select?5?$CK?5from?5helptext?5where?5tex@ DB 'select *'
	DB	' from helptext where texttype=''%s'' and Lang=''%s'' order by'
	DB	' iChunk', 00H				; `string'
CONST	ENDS
;	COMDAT ??_C@_01KICIPPFI@?2?$AA@
CONST	SEGMENT
??_C@_01KICIPPFI@?2?$AA@ DB '\', 00H			; `string'
CONST	ENDS
;	COMDAT ??_C@_04NJFCGDBK@?4ast?$AA@
CONST	SEGMENT
??_C@_04NJFCGDBK@?4ast?$AA@ DB '.ast', 00H		; `string'
CONST	ENDS
;	COMDAT ?__LINE__Var@?1??ProcessItem@ImportHelp@@QAEHPAD@Z@4JA
_DATA	SEGMENT
?__LINE__Var@?1??ProcessItem@ImportHelp@@QAEHPAD@Z@4JA DD 020H ; `ImportHelp::ProcessItem'::`2'::__LINE__Var
_DATA	ENDS
;	COMDAT ??_C@_1CE@OOAKNAGM@?$AAE?$AAr?$AAr?$AAo?$AAr?$AA?5?$AAo?$AAn?$AA?5?$AAD?$AAa?$AAt?$AAa?$AAb?$AAa?$AAs?$AAe?$AA?$AA@
CONST	SEGMENT
??_C@_1CE@OOAKNAGM@?$AAE?$AAr?$AAr?$AAo?$AAr?$AA?5?$AAo?$AAn?$AA?5?$AAD?$AAa?$AAt?$AAa?$AAb?$AAa?$AAs?$AAe?$AA?$AA@ DB 'E'
	DB	00H, 'r', 00H, 'r', 00H, 'o', 00H, 'r', 00H, ' ', 00H, 'o', 00H
	DB	'n', 00H, ' ', 00H, 'D', 00H, 'a', 00H, 't', 00H, 'a', 00H, 'b'
	DB	00H, 'a', 00H, 's', 00H, 'e', 00H, 00H, 00H	; `string'
CONST	ENDS
;	COMDAT ??_R0PAVCDaoException@@@8
_DATA	SEGMENT
??_R0PAVCDaoException@@@8 DD FLAT:??_7type_info@@6B@	; CDaoException * `RTTI Type Descriptor'
	DD	00H
	DB	'.PAVCDaoException@@', 00H
; Function compile flags: /Odt /RTCcsu /ZI
_DATA	ENDS
;	COMDAT ?ProcessItem@ImportHelp@@QAEHPAD@Z
_TEXT	SEGMENT
tv198 = -1860						; size = 4
tv308 = -1856						; size = 4
tv302 = -1856						; size = 4
tv293 = -1856						; size = 4
tv290 = -1856						; size = 4
tv280 = -1856						; size = 4
tv207 = -1856						; size = 4
tv317 = -1852						; size = 4
tv316 = -1852						; size = 4
tv315 = -1852						; size = 4
tv314 = -1852						; size = 4
tv313 = -1852						; size = 4
tv312 = -1852						; size = 4
tv311 = -1852						; size = 4
tv310 = -1852						; size = 4
tv309 = -1852						; size = 4
tv305 = -1852						; size = 4
tv304 = -1852						; size = 4
tv303 = -1852						; size = 4
tv301 = -1852						; size = 4
tv300 = -1852						; size = 4
$T93781 = -1844						; size = 4
$T93782 = -1832						; size = 4
$T93783 = -1820						; size = 4
$T93784 = -1808						; size = 4
$T93787 = -1796						; size = 4
$T93788 = -1784						; size = 4
$T93791 = -1772						; size = 4
$T93792 = -1760						; size = 4
$T93793 = -1748						; size = 4
$T93796 = -1736						; size = 4
_e$93619 = -1532					; size = 4
_pBlk$93609 = -1520					; size = 4
_pAr$93597 = -1508					; size = 4
_Lang$93589 = -1496					; size = 4
_id$ = -1484						; size = 4
_alang$ = -1460						; size = 11
_sqlbuf$ = -1440					; size = 100
_path$ = -1332						; size = 250
_buf$ = -1072						; size = 25
_errbuf$ = -1036					; size = 1000
_this$ = -28						; size = 4
__$ArrayPad$ = -20					; size = 4
__$EHRec$ = -16						; size = 16
__$ReturnAddr$ = 4					; size = 4
_item$ = 8						; size = 4
?ProcessItem@ImportHelp@@QAEHPAD@Z PROC NEAR		; ImportHelp::ProcessItem, COMDAT
; _this$ = ecx

; 32   : {

	push	ebp
	mov	ebp, esp
	push	-1
	push	__ehhandler$?ProcessItem@ImportHelp@@QAEHPAD@Z
	mov	eax, DWORD PTR fs:__except_list
	push	eax
	mov	DWORD PTR fs:__except_list, esp
	push	ecx
	sub	esp, 1844				; 00000734H
	push	ebx
	push	esi
	push	edi
	push	ecx
	lea	edi, DWORD PTR [ebp-1860]
	mov	ecx, 461				; 000001cdH
	mov	eax, -858993460				; ccccccccH
	rep stosd
	pop	ecx
	mov	eax, DWORD PTR ___security_cookie
	mov	DWORD PTR __$ArrayPad$[ebp], eax
	mov	DWORD PTR __$EHRec$[ebp], esp
	mov	DWORD PTR _this$[ebp], ecx

; 33   :   TCHAR errbuf[500];
; 34   :   char buf[25], path[250], sqlbuf[100], alang[11];
; 35   :   int len, id;
; 36   :   try {

	mov	DWORD PTR __$EHRec$[ebp+12], 0

; 37   : 	  m_pProg->SetFile(CString(item));

	mov	eax, DWORD PTR _item$[ebp]
	push	eax
	lea	ecx, DWORD PTR $T93781[ebp]
	call	??0?$CStringT@GV?$StrTraitMFC@GV?$ChTraitsCRT@G@ATL@@@@@ATL@@QAE@PBD@Z ; ATL::CStringT<unsigned short,StrTraitMFC<unsigned short,ATL::ChTraitsCRT<unsigned short> > >::CStringT<unsigned short,StrTraitMFC<unsigned short,ATL::ChTraitsCRT<unsigned short> > >
	mov	DWORD PTR tv300[ebp], eax
	mov	ecx, DWORD PTR tv300[ebp]
	mov	DWORD PTR tv290[ebp], ecx
	mov	BYTE PTR __$EHRec$[ebp+12], 1
	mov	edx, DWORD PTR tv290[ebp]
	push	edx
	mov	eax, DWORD PTR _this$[ebp]
	mov	ecx, DWORD PTR [eax+176]
	call	?SetFile@CProgress@@QAEXAAV?$CStringT@GV?$StrTraitMFC@GV?$ChTraitsCRT@G@ATL@@@@@ATL@@@Z ; CProgress::SetFile
	mov	BYTE PTR __$EHRec$[ebp+12], 0
	lea	ecx, DWORD PTR $T93781[ebp]
	call	??1?$CStringT@GV?$StrTraitMFC@GV?$ChTraitsCRT@G@ATL@@@@@ATL@@QAE@XZ ; ATL::CStringT<unsigned short,StrTraitMFC<unsigned short,ATL::ChTraitsCRT<unsigned short> > >::~CStringT<unsigned short,StrTraitMFC<unsigned short,ATL::ChTraitsCRT<unsigned short> > >

; 38   : 	  m_pProg->IncProgress();

	mov	eax, DWORD PTR _this$[ebp]
	mov	ecx, DWORD PTR [eax+176]
	call	?IncProgress@CProgress@@QAEXXZ		; CProgress::IncProgress

; 39   : 	  strcpy(buf, _strupr(item));

	mov	eax, DWORD PTR _item$[ebp]
	push	eax
	call	__strupr
	add	esp, 4
	push	eax
	lea	ecx, DWORD PTR _buf$[ebp]
	push	ecx
	call	_strcpy
	add	esp, 8

; 40   :       CString Lang = GetCurLanguage();

	call	?GetCurLanguage@@YAAAV?$CStringT@GV?$StrTraitMFC@GV?$ChTraitsCRT@G@ATL@@@@@ATL@@XZ ; GetCurLanguage
	mov	DWORD PTR tv301[ebp], eax
	mov	eax, DWORD PTR tv301[ebp]
	push	eax
	lea	ecx, DWORD PTR _Lang$93589[ebp]
	call	??0?$CStringT@GV?$StrTraitMFC@GV?$ChTraitsCRT@G@ATL@@@@@ATL@@QAE@ABV01@@Z ; ATL::CStringT<unsigned short,StrTraitMFC<unsigned short,ATL::ChTraitsCRT<unsigned short> > >::CStringT<unsigned short,StrTraitMFC<unsigned short,ATL::ChTraitsCRT<unsigned short> > >
	mov	DWORD PTR tv302[ebp], eax
	mov	BYTE PTR __$EHRec$[ebp+12], 2

; 41   :       memset(alang,0,11);

	push	11					; 0000000bH
	push	0
	lea	eax, DWORD PTR _alang$[ebp]
	push	eax
	call	_memset
	add	esp, 12					; 0000000cH

; 42   : #ifdef _UNICODE
; 43   : 	  wcstombs(alang, (LPCTSTR)Lang, Lang.GetLength());

	lea	ecx, DWORD PTR _Lang$93589[ebp]
	call	?GetLength@?$CSimpleStringT@G$0A@@ATL@@QBEHXZ ; ATL::CSimpleStringT<unsigned short,0>::GetLength
	push	eax
	lea	ecx, DWORD PTR _Lang$93589[ebp]
	call	??B?$CSimpleStringT@G$0A@@ATL@@QBEPBGXZ	; ATL::CSimpleStringT<unsigned short,0>::operator unsigned short const *
	push	eax
	lea	eax, DWORD PTR _alang$[ebp]
	push	eax
	call	_wcstombs
	add	esp, 12					; 0000000cH

; 44   : 	  sprintf( sqlbuf, "select * from helptext where texttype='%s' and Lang='%s' order by iChunk", buf, alang );

	lea	eax, DWORD PTR _alang$[ebp]
	push	eax
	lea	ecx, DWORD PTR _buf$[ebp]
	push	ecx
	push	OFFSET FLAT:??_C@_0EJ@MFCPJIHN@select?5?$CK?5from?5helptext?5where?5tex@
	lea	edx, DWORD PTR _sqlbuf$[ebp]
	push	edx
	call	_sprintf
	add	esp, 16					; 00000010H

; 45   : #else
; 46   : 	  sprintf( sqlbuf, "select * from helptext where texttype='%s' order by iChunk", buf);
; 47   : #endif
; 48   :       if ( set.IsOpen() )

	mov	ecx, DWORD PTR _this$[ebp]
	add	ecx, 4
	call	?IsOpen@CDaoRecordset@@QBEHXZ		; CDaoRecordset::IsOpen
	mov	DWORD PTR tv303[ebp], eax
	cmp	DWORD PTR tv303[ebp], 0
	je	SHORT $L93592

; 49   : 		  set.Close();

	mov	ecx, DWORD PTR _this$[ebp]
	add	ecx, 4
	mov	esi, esp
	mov	eax, DWORD PTR _this$[ebp]
	mov	edx, DWORD PTR [eax+4]
	call	DWORD PTR [edx+32]
	cmp	esi, esp
	call	__RTC_CheckEsp
$L93592:

; 50   : 	  set.Open(dbOpenDynaset,CString(sqlbuf));

	lea	eax, DWORD PTR _sqlbuf$[ebp]
	push	eax
	lea	ecx, DWORD PTR $T93782[ebp]
	call	??0?$CStringT@GV?$StrTraitMFC@GV?$ChTraitsCRT@G@ATL@@@@@ATL@@QAE@PBD@Z ; ATL::CStringT<unsigned short,StrTraitMFC<unsigned short,ATL::ChTraitsCRT<unsigned short> > >::CStringT<unsigned short,StrTraitMFC<unsigned short,ATL::ChTraitsCRT<unsigned short> > >
	mov	DWORD PTR tv304[ebp], eax
	mov	ecx, DWORD PTR tv304[ebp]
	mov	DWORD PTR tv293[ebp], ecx
	mov	BYTE PTR __$EHRec$[ebp+12], 3
	mov	esi, esp
	push	0
	mov	ecx, DWORD PTR tv293[ebp]
	call	??B?$CSimpleStringT@G$0A@@ATL@@QBEPBGXZ	; ATL::CSimpleStringT<unsigned short,0>::operator unsigned short const *
	push	eax
	push	2
	mov	ecx, DWORD PTR _this$[ebp]
	add	ecx, 4
	mov	edx, DWORD PTR _this$[ebp]
	mov	eax, DWORD PTR [edx+4]
	call	DWORD PTR [eax+28]
	cmp	esi, esp
	call	__RTC_CheckEsp
	mov	BYTE PTR __$EHRec$[ebp+12], 2
	lea	ecx, DWORD PTR $T93782[ebp]
	call	??1?$CStringT@GV?$StrTraitMFC@GV?$ChTraitsCRT@G@ATL@@@@@ATL@@QAE@XZ ; ATL::CStringT<unsigned short,StrTraitMFC<unsigned short,ATL::ChTraitsCRT<unsigned short> > >::~CStringT<unsigned short,StrTraitMFC<unsigned short,ATL::ChTraitsCRT<unsigned short> > >

; 51   : #ifndef _UNICODE	  
; 52   : 	  strcpy( path, dir );
; 53   : #else
; 54   :       memset(path,0,250);

	push	250					; 000000faH
	push	0
	lea	eax, DWORD PTR _path$[ebp]
	push	eax
	call	_memset
	add	esp, 12					; 0000000cH

; 55   : 	  wcstombs(path, dir,dir.GetLength());

	mov	ecx, DWORD PTR _this$[ebp]
	add	ecx, 172				; 000000acH
	call	?GetLength@?$CSimpleStringT@G$0A@@ATL@@QBEHXZ ; ATL::CSimpleStringT<unsigned short,0>::GetLength
	push	eax
	mov	ecx, DWORD PTR _this$[ebp]
	add	ecx, 172				; 000000acH
	call	??B?$CSimpleStringT@G$0A@@ATL@@QBEPBGXZ	; ATL::CSimpleStringT<unsigned short,0>::operator unsigned short const *
	push	eax
	lea	eax, DWORD PTR _path$[ebp]
	push	eax
	call	_wcstombs
	add	esp, 12					; 0000000cH

; 56   : #endif
; 57   : 	  if ( path[strlen(path)-1]!='\\' )

	lea	eax, DWORD PTR _path$[ebp]
	push	eax
	call	_strlen
	add	esp, 4
	movsx	ecx, BYTE PTR _path$[ebp+eax-1]
	cmp	ecx, 92					; 0000005cH
	je	SHORT $L93594

; 58   : 		  strcat( path, "\\" );

	push	OFFSET FLAT:??_C@_01KICIPPFI@?2?$AA@
	lea	eax, DWORD PTR _path$[ebp]
	push	eax
	call	_strcat
	add	esp, 8
$L93594:

; 59   : 	  strcat(path, item );

	mov	eax, DWORD PTR _item$[ebp]
	push	eax
	lea	ecx, DWORD PTR _path$[ebp]
	push	ecx
	call	_strcat
	add	esp, 8

; 60   : 	  strcat(path, ".ast");

	push	OFFSET FLAT:??_C@_04NJFCGDBK@?4ast?$AA@
	lea	eax, DWORD PTR _path$[ebp]
	push	eax
	call	_strcat
	add	esp, 8

; 61   : 	  CTextBlockAry *pAr= new CTextBlockAry(2,15);

	mov	eax, DWORD PTR ?__LINE__Var@?1??ProcessItem@ImportHelp@@QAEHPAD@Z@4JA
	add	eax, 29					; 0000001dH
	push	eax
	push	OFFSET FLAT:_THIS_FILE
	push	24					; 00000018H
	call	??2@YAPAXIPBDH@Z			; operator new
	add	esp, 12					; 0000000cH
	mov	DWORD PTR tv305[ebp], eax
	mov	ecx, DWORD PTR tv305[ebp]
	mov	DWORD PTR $T93784[ebp], ecx
	mov	BYTE PTR __$EHRec$[ebp+12], 4
	cmp	DWORD PTR $T93784[ebp], 0
	je	SHORT $L93785
	push	15					; 0000000fH
	push	2
	mov	ecx, DWORD PTR $T93784[ebp]
	call	??0CTextBlockAry@@QAE@HH@Z		; CTextBlockAry::CTextBlockAry
	mov	DWORD PTR tv308[ebp], eax
	mov	edx, DWORD PTR tv308[ebp]
	mov	DWORD PTR tv198[ebp], edx
	jmp	SHORT $L93786
$L93785:
	mov	DWORD PTR tv198[ebp], 0
$L93786:
	mov	eax, DWORD PTR tv198[ebp]
	mov	DWORD PTR $T93783[ebp], eax
	mov	BYTE PTR __$EHRec$[ebp+12], 2
	mov	ecx, DWORD PTR $T93783[ebp]
	mov	DWORD PTR _pAr$93597[ebp], ecx

; 62   :       if ( !pAr->Load(path, 1) ) {

	push	1
	lea	eax, DWORD PTR _path$[ebp]
	push	eax
	mov	ecx, DWORD PTR _pAr$93597[ebp]
	call	?Load@CTextBlockAry@@QAEHPADH@Z		; CTextBlockAry::Load
	mov	DWORD PTR tv309[ebp], eax
	cmp	DWORD PTR tv309[ebp], 0
	jne	SHORT $L93605

; 63   : 		  delete pAr;

	mov	eax, DWORD PTR _pAr$93597[ebp]
	mov	DWORD PTR $T93788[ebp], eax
	mov	ecx, DWORD PTR $T93788[ebp]
	mov	DWORD PTR $T93787[ebp], ecx
	cmp	DWORD PTR $T93787[ebp], 0
	je	SHORT $L93789
	push	1
	mov	ecx, DWORD PTR $T93787[ebp]
	call	??_GCTextBlockAry@@QAEPAXI@Z
	mov	DWORD PTR tv310[ebp], eax
	mov	edx, DWORD PTR tv310[ebp]
	mov	DWORD PTR tv207[ebp], edx
	jmp	SHORT $L93790
$L93789:
	mov	DWORD PTR tv207[ebp], 0
$L93790:

; 64   : 		  return ( 0 );

	mov	DWORD PTR $T93791[ebp], 0
	mov	BYTE PTR __$EHRec$[ebp+12], 0
	lea	ecx, DWORD PTR _Lang$93589[ebp]
	call	??1?$CStringT@GV?$StrTraitMFC@GV?$ChTraitsCRT@G@ATL@@@@@ATL@@QAE@XZ ; ATL::CStringT<unsigned short,StrTraitMFC<unsigned short,ATL::ChTraitsCRT<unsigned short> > >::~CStringT<unsigned short,StrTraitMFC<unsigned short,ATL::ChTraitsCRT<unsigned short> > >
	mov	eax, DWORD PTR $T93791[ebp]
	jmp	$L93579
$L93605:

; 65   : 	  }
; 66   : 	  id = 0;

	mov	DWORD PTR _id$[ebp], 0
$L93611:

; 67   : 	  CTextBlock *pBlk;
; 68   : 	  while ((pBlk = pAr->next()) != NULL ) {	     

	mov	ecx, DWORD PTR _pAr$93597[ebp]
	call	?next@CTextBlockAry@@QAEPAVCTextBlock@@XZ ; CTextBlockAry::next
	mov	DWORD PTR tv311[ebp], eax
	mov	eax, DWORD PTR tv311[ebp]
	mov	DWORD PTR _pBlk$93609[ebp], eax
	cmp	DWORD PTR _pBlk$93609[ebp], 0
	je	$L93612

; 69   : 	     pTransformers->ToReplacements(set.m_Text);

	mov	eax, DWORD PTR _this$[ebp]
	add	eax, 160				; 000000a0H
	push	eax
	mov	ecx, DWORD PTR ?pTransformers@@3PAVCStrTransform@@A ; pTransformers
	call	?ToReplacements@CStrTransform@@QAEAAV?$CStringT@GV?$StrTraitMFC@GV?$ChTraitsCRT@G@ATL@@@@@ATL@@AAV23@@Z ; CStrTransform::ToReplacements

; 70   : 	     if ( set.IsBOF() || set.IsEOF() )

	mov	ecx, DWORD PTR _this$[ebp]
	add	ecx, 4
	call	?IsBOF@CDaoRecordset@@QBEHXZ		; CDaoRecordset::IsBOF
	mov	DWORD PTR tv312[ebp], eax
	cmp	DWORD PTR tv312[ebp], 0
	jne	SHORT $L93614
	mov	ecx, DWORD PTR _this$[ebp]
	add	ecx, 4
	call	?IsEOF@CDaoRecordset@@QBEHXZ		; CDaoRecordset::IsEOF
	mov	DWORD PTR tv313[ebp], eax
	cmp	DWORD PTR tv313[ebp], 0
	je	SHORT $L93613
$L93614:

; 71   : 		    set.AddNew();

	mov	ecx, DWORD PTR _this$[ebp]
	add	ecx, 4
	mov	esi, esp
	mov	eax, DWORD PTR _this$[ebp]
	mov	edx, DWORD PTR [eax+4]
	call	DWORD PTR [edx+44]
	cmp	esi, esp
	call	__RTC_CheckEsp

; 72   : 	     else

	jmp	SHORT $L93615
$L93613:

; 73   : 		    set.Edit();

	mov	ecx, DWORD PTR _this$[ebp]
	add	ecx, 4
	mov	esi, esp
	mov	eax, DWORD PTR _this$[ebp]
	mov	edx, DWORD PTR [eax+4]
	call	DWORD PTR [edx+48]
	cmp	esi, esp
	call	__RTC_CheckEsp
$L93615:

; 74   : 	     set.m_Text = pBlk->text();

	mov	ecx, DWORD PTR _pBlk$93609[ebp]
	call	?text@CTextBlock@@QAEAAV?$CStringT@GV?$StrTraitMFC@GV?$ChTraitsCRT@G@ATL@@@@@ATL@@XZ ; CTextBlock::text
	mov	DWORD PTR tv314[ebp], eax
	mov	eax, DWORD PTR tv314[ebp]
	push	eax
	mov	ecx, DWORD PTR _this$[ebp]
	add	ecx, 160				; 000000a0H
	call	??4?$CStringT@GV?$StrTraitMFC@GV?$ChTraitsCRT@G@ATL@@@@@ATL@@QAEAAV01@ABV01@@Z ; ATL::CStringT<unsigned short,StrTraitMFC<unsigned short,ATL::ChTraitsCRT<unsigned short> > >::operator=

; 75   : 	     set.m_texttype = buf;

	lea	eax, DWORD PTR _buf$[ebp]
	push	eax
	mov	ecx, DWORD PTR _this$[ebp]
	add	ecx, 156				; 0000009cH
	call	??4?$CStringT@GV?$StrTraitMFC@GV?$ChTraitsCRT@G@ATL@@@@@ATL@@QAEAAV01@PBD@Z ; ATL::CStringT<unsigned short,StrTraitMFC<unsigned short,ATL::ChTraitsCRT<unsigned short> > >::operator=

; 76   : 	     set.m_iChunk = id++;

	mov	ecx, DWORD PTR _id$[ebp]
	call	@_RTC_Check_4_to_2@4
	mov	ecx, DWORD PTR _this$[ebp]
	mov	WORD PTR [ecx+164], ax
	mov	edx, DWORD PTR _id$[ebp]
	add	edx, 1
	mov	DWORD PTR _id$[ebp], edx

; 77   : 	     set.Update();

	mov	ecx, DWORD PTR _this$[ebp]
	add	ecx, 4
	mov	esi, esp
	mov	eax, DWORD PTR _this$[ebp]
	mov	edx, DWORD PTR [eax+4]
	call	DWORD PTR [edx+52]
	cmp	esi, esp
	call	__RTC_CheckEsp

; 78   : 		 if ( !set.IsBOF() && !set.IsEOF() )

	mov	ecx, DWORD PTR _this$[ebp]
	add	ecx, 4
	call	?IsBOF@CDaoRecordset@@QBEHXZ		; CDaoRecordset::IsBOF
	mov	DWORD PTR tv315[ebp], eax
	cmp	DWORD PTR tv315[ebp], 0
	jne	SHORT $L93616
	mov	ecx, DWORD PTR _this$[ebp]
	add	ecx, 4
	call	?IsEOF@CDaoRecordset@@QBEHXZ		; CDaoRecordset::IsEOF
	mov	DWORD PTR tv316[ebp], eax
	cmp	DWORD PTR tv316[ebp], 0
	jne	SHORT $L93616

; 79   : 		    set.MoveNext();

	mov	ecx, DWORD PTR _this$[ebp]
	add	ecx, 4
	call	?MoveNext@CDaoRecordset@@QAEXXZ		; CDaoRecordset::MoveNext
$L93616:

; 80   : 	  }

	jmp	$L93611
$L93612:

; 81   :       set.Close();

	mov	ecx, DWORD PTR _this$[ebp]
	add	ecx, 4
	mov	esi, esp
	mov	eax, DWORD PTR _this$[ebp]
	mov	edx, DWORD PTR [eax+4]
	call	DWORD PTR [edx+32]
	cmp	esi, esp
	call	__RTC_CheckEsp

; 82   : 	  delete pAr;

	mov	eax, DWORD PTR _pAr$93597[ebp]
	mov	DWORD PTR $T93793[ebp], eax
	mov	ecx, DWORD PTR $T93793[ebp]
	mov	DWORD PTR $T93792[ebp], ecx
	cmp	DWORD PTR $T93792[ebp], 0
	je	SHORT $L93794
	push	1
	mov	ecx, DWORD PTR $T93792[ebp]
	call	??_GCTextBlockAry@@QAEPAXI@Z
	mov	DWORD PTR tv317[ebp], eax
	mov	edx, DWORD PTR tv317[ebp]
	mov	DWORD PTR tv280[ebp], edx
	jmp	SHORT $L93795
$L93794:
	mov	DWORD PTR tv280[ebp], 0
$L93795:

; 83   : 	  
; 84   :   }

	mov	BYTE PTR __$EHRec$[ebp+12], 0
	lea	ecx, DWORD PTR _Lang$93589[ebp]
	call	??1?$CStringT@GV?$StrTraitMFC@GV?$ChTraitsCRT@G@ATL@@@@@ATL@@QAE@XZ ; ATL::CStringT<unsigned short,StrTraitMFC<unsigned short,ATL::ChTraitsCRT<unsigned short> > >::~CStringT<unsigned short,StrTraitMFC<unsigned short,ATL::ChTraitsCRT<unsigned short> > >
	jmp	SHORT $L93797
__catch$?ProcessItem@ImportHelp@@QAEHPAD@Z$0:

; 85   :   catch ( CDaoException *e ) {
; 86   :      e->GetErrorMessage(errbuf,499);

	mov	esi, esp
	push	0
	push	499					; 000001f3H
	lea	eax, DWORD PTR _errbuf$[ebp]
	push	eax
	mov	ecx, DWORD PTR _e$93619[ebp]
	mov	edx, DWORD PTR [ecx]
	mov	ecx, DWORD PTR _e$93619[ebp]
	call	DWORD PTR [edx+20]
	cmp	esi, esp
	call	__RTC_CheckEsp

; 87   : 	 alert_box(_T("Error on Database"), errbuf );

	lea	eax, DWORD PTR _errbuf$[ebp]
	push	eax
	push	OFFSET FLAT:??_C@_1CE@OOAKNAGM@?$AAE?$AAr?$AAr?$AAo?$AAr?$AA?5?$AAo?$AAn?$AA?5?$AAD?$AAa?$AAt?$AAa?$AAb?$AAa?$AAs?$AAe?$AA?$AA@
	call	?alert_box@@YAHPAGPBGZZ			; alert_box
	add	esp, 8

; 88   : 	 return ( 0 );

	mov	DWORD PTR $T93796[ebp], 0
	mov	eax, $L93804
	ret	0
$L93797:

; 89   :   }

	mov	DWORD PTR __$EHRec$[ebp+12], -1

; 88   : 	 return ( 0 );

	jmp	SHORT __tryend$?ProcessItem@ImportHelp@@QAEHPAD@Z$1
$L93804:
	mov	eax, DWORD PTR $T93796[ebp]
	jmp	SHORT $L93579
__tryend$?ProcessItem@ImportHelp@@QAEHPAD@Z$1:

; 90   :  
; 91   :   return( 1 );

	mov	eax, 1
$L93579:

; 92   : }

	push	edx
	mov	ecx, ebp
	push	eax
	lea	edx, DWORD PTR $L93822
	call	@_RTC_CheckStackVars@8
	pop	eax
	pop	edx
	mov	ecx, DWORD PTR __$EHRec$[ebp+4]
	mov	DWORD PTR fs:__except_list, ecx
	mov	ecx, DWORD PTR __$ArrayPad$[ebp]
	call	@__security_check_cookie@4
	pop	edi
	pop	esi
	pop	ebx
	add	esp, 1860				; 00000744H
	cmp	ebp, esp
	call	__RTC_CheckEsp
	mov	esp, ebp
	pop	ebp
	ret	4
$L93822:
	DD	7
	DD	$L93821
$L93821:
	DD	-1036					; fffffbf4H
	DD	1000					; 000003e8H
	DD	$L93810
	DD	-1072					; fffffbd0H
	DD	25					; 00000019H
	DD	$L93811
	DD	-1332					; fffffaccH
	DD	250					; 000000faH
	DD	$L93812
	DD	-1440					; fffffa60H
	DD	100					; 00000064H
	DD	$L93813
	DD	-1460					; fffffa4cH
	DD	11					; 0000000bH
	DD	$L93814
	DD	-1496					; fffffa28H
	DD	4
	DD	$L93815
	DD	-1532					; fffffa04H
	DD	4
	DD	$L93816
$L93816:
	DB	101					; 00000065H
	DB	0
$L93815:
	DB	76					; 0000004cH
	DB	97					; 00000061H
	DB	110					; 0000006eH
	DB	103					; 00000067H
	DB	0
$L93814:
	DB	97					; 00000061H
	DB	108					; 0000006cH
	DB	97					; 00000061H
	DB	110					; 0000006eH
	DB	103					; 00000067H
	DB	0
$L93813:
	DB	115					; 00000073H
	DB	113					; 00000071H
	DB	108					; 0000006cH
	DB	98					; 00000062H
	DB	117					; 00000075H
	DB	102					; 00000066H
	DB	0
$L93812:
	DB	112					; 00000070H
	DB	97					; 00000061H
	DB	116					; 00000074H
	DB	104					; 00000068H
	DB	0
$L93811:
	DB	98					; 00000062H
	DB	117					; 00000075H
	DB	102					; 00000066H
	DB	0
$L93810:
	DB	101					; 00000065H
	DB	114					; 00000072H
	DB	114					; 00000072H
	DB	98					; 00000062H
	DB	117					; 00000075H
	DB	102					; 00000066H
	DB	0
_TEXT	ENDS
;	COMDAT text$x
text$x	SEGMENT
__unwindfunclet$?ProcessItem@ImportHelp@@QAEHPAD@Z$2:
	lea	ecx, DWORD PTR $T93781[ebp]
	jmp	??1?$CStringT@GV?$StrTraitMFC@GV?$ChTraitsCRT@G@ATL@@@@@ATL@@QAE@XZ ; ATL::CStringT<unsigned short,StrTraitMFC<unsigned short,ATL::ChTraitsCRT<unsigned short> > >::~CStringT<unsigned short,StrTraitMFC<unsigned short,ATL::ChTraitsCRT<unsigned short> > >
__unwindfunclet$?ProcessItem@ImportHelp@@QAEHPAD@Z$3:
	lea	ecx, DWORD PTR _Lang$93589[ebp]
	jmp	??1?$CStringT@GV?$StrTraitMFC@GV?$ChTraitsCRT@G@ATL@@@@@ATL@@QAE@XZ ; ATL::CStringT<unsigned short,StrTraitMFC<unsigned short,ATL::ChTraitsCRT<unsigned short> > >::~CStringT<unsigned short,StrTraitMFC<unsigned short,ATL::ChTraitsCRT<unsigned short> > >
__unwindfunclet$?ProcessItem@ImportHelp@@QAEHPAD@Z$4:
	lea	ecx, DWORD PTR $T93782[ebp]
	jmp	??1?$CStringT@GV?$StrTraitMFC@GV?$ChTraitsCRT@G@ATL@@@@@ATL@@QAE@XZ ; ATL::CStringT<unsigned short,StrTraitMFC<unsigned short,ATL::ChTraitsCRT<unsigned short> > >::~CStringT<unsigned short,StrTraitMFC<unsigned short,ATL::ChTraitsCRT<unsigned short> > >
__unwindfunclet$?ProcessItem@ImportHelp@@QAEHPAD@Z$5:
	mov	eax, DWORD PTR ?__LINE__Var@?1??ProcessItem@ImportHelp@@QAEHPAD@Z@4JA
	add	eax, 29					; 0000001dH
	push	eax
	push	OFFSET FLAT:_THIS_FILE
	mov	ecx, DWORD PTR $T93784[ebp]
	push	ecx
	call	??3@YAXPAXPBDH@Z			; operator delete
	add	esp, 12					; 0000000cH
	ret	0
__ehhandler$?ProcessItem@ImportHelp@@QAEHPAD@Z:
	mov	eax, OFFSET FLAT:__ehfuncinfo$?ProcessItem@ImportHelp@@QAEHPAD@Z
	jmp	___CxxFrameHandler
text$x	ENDS
?ProcessItem@ImportHelp@@QAEHPAD@Z ENDP			; ImportHelp::ProcessItem
; Function compile flags: /Odt /RTCcsu /ZI
; File c:\astrow32dev\tbt32\textbloc.hpp
;	COMDAT ?text@CTextBlock@@QAEAAV?$CStringT@GV?$StrTraitMFC@GV?$ChTraitsCRT@G@ATL@@@@@ATL@@XZ
_TEXT	SEGMENT
_this$ = -8						; size = 4
?text@CTextBlock@@QAEAAV?$CStringT@GV?$StrTraitMFC@GV?$ChTraitsCRT@G@ATL@@@@@ATL@@XZ PROC NEAR ; CTextBlock::text, COMDAT
; _this$ = ecx

; 13   :    CString &text() { return _text;  }

	push	ebp
	mov	ebp, esp
	sub	esp, 204				; 000000ccH
	push	ebx
	push	esi
	push	edi
	push	ecx
	lea	edi, DWORD PTR [ebp-204]
	mov	ecx, 51					; 00000033H
	mov	eax, -858993460				; ccccccccH
	rep stosd
	pop	ecx
	mov	DWORD PTR _this$[ebp], ecx
	mov	eax, DWORD PTR _this$[ebp]
	add	eax, 140				; 0000008cH
	pop	edi
	pop	esi
	pop	ebx
	mov	esp, ebp
	pop	ebp
	ret	0
?text@CTextBlock@@QAEAAV?$CStringT@GV?$StrTraitMFC@GV?$ChTraitsCRT@G@ATL@@@@@ATL@@XZ ENDP ; CTextBlock::text
_TEXT	ENDS
PUBLIC	??0CTextBlock@@QAE@XZ				; CTextBlock::CTextBlock
EXTRN	??_L@YGXPAXIHP6EX0@Z1@Z:NEAR			; `eh vector constructor iterator'
EXTRN	??_U@YAPAXI@Z:NEAR				; operator new[]
;	COMDAT xdata$x
xdata$x	SEGMENT
__unwindtable$??0CTextBlockAry@@QAE@HH@Z DD 0ffffffffH
	DD	FLAT:__unwindfunclet$??0CTextBlockAry@@QAE@HH@Z$0
__ehfuncinfo$??0CTextBlockAry@@QAE@HH@Z DD 019930520H
	DD	01H
	DD	FLAT:__unwindtable$??0CTextBlockAry@@QAE@HH@Z
	DD	2 DUP(00H)
	DD	2 DUP(00H)
; Function compile flags: /Odt /RTCcsu /ZI
xdata$x	ENDS
;	COMDAT ??0CTextBlockAry@@QAE@HH@Z
_TEXT	SEGMENT
tv83 = -256						; size = 4
$T93835 = -248						; size = 4
$T93836 = -236						; size = 4
$T93837 = -224						; size = 4
_this$ = -20						; size = 4
__$EHRec$ = -12						; size = 12
_tp$ = 8						; size = 4
_size$ = 12						; size = 4
??0CTextBlockAry@@QAE@HH@Z PROC NEAR			; CTextBlockAry::CTextBlockAry, COMDAT
; _this$ = ecx

; 43   : 	CTextBlockAry(int tp, int size) { _type = tp; _bDirty = 0; _nElements = 0; _nAlloc = size; _iEle = 0; _array = new CTextBlock[size]; }

	push	ebp
	mov	ebp, esp
	push	-1
	push	__ehhandler$??0CTextBlockAry@@QAE@HH@Z
	mov	eax, DWORD PTR fs:__except_list
	push	eax
	mov	DWORD PTR fs:__except_list, esp
	sub	esp, 244				; 000000f4H
	push	ebx
	push	esi
	push	edi
	push	ecx
	lea	edi, DWORD PTR [ebp-256]
	mov	ecx, 61					; 0000003dH
	mov	eax, -858993460				; ccccccccH
	rep stosd
	pop	ecx
	mov	DWORD PTR _this$[ebp], ecx
	mov	eax, DWORD PTR _this$[ebp]
	mov	ecx, DWORD PTR _tp$[ebp]
	mov	DWORD PTR [eax], ecx
	mov	eax, DWORD PTR _this$[ebp]
	mov	DWORD PTR [eax+4], 0
	mov	eax, DWORD PTR _this$[ebp]
	mov	DWORD PTR [eax+8], 0
	mov	eax, DWORD PTR _this$[ebp]
	mov	ecx, DWORD PTR _size$[ebp]
	mov	DWORD PTR [eax+12], ecx
	mov	eax, DWORD PTR _this$[ebp]
	mov	DWORD PTR [eax+16], 0
	mov	eax, DWORD PTR _size$[ebp]
	mov	DWORD PTR $T93835[ebp], eax
	mov	ecx, DWORD PTR $T93835[ebp]
	imul	ecx, 144				; 00000090H
	add	ecx, 4
	push	ecx
	call	??_U@YAPAXI@Z				; operator new[]
	add	esp, 4
	mov	DWORD PTR $T93837[ebp], eax
	mov	DWORD PTR __$EHRec$[ebp+8], 0
	cmp	DWORD PTR $T93837[ebp], 0
	je	SHORT $L93838
	mov	edx, DWORD PTR $T93837[ebp]
	mov	eax, DWORD PTR $T93835[ebp]
	mov	DWORD PTR [edx], eax
	push	OFFSET FLAT:??1CTextBlock@@QAE@XZ	; CTextBlock::~CTextBlock
	push	OFFSET FLAT:??0CTextBlock@@QAE@XZ	; CTextBlock::CTextBlock
	mov	ecx, DWORD PTR $T93835[ebp]
	push	ecx
	push	144					; 00000090H
	mov	edx, DWORD PTR $T93837[ebp]
	add	edx, 4
	push	edx
	call	??_L@YGXPAXIHP6EX0@Z1@Z
	mov	eax, DWORD PTR $T93837[ebp]
	add	eax, 4
	mov	DWORD PTR tv83[ebp], eax
	jmp	SHORT $L93839
$L93838:
	mov	DWORD PTR tv83[ebp], 0
$L93839:
	mov	ecx, DWORD PTR tv83[ebp]
	mov	DWORD PTR $T93836[ebp], ecx
	mov	DWORD PTR __$EHRec$[ebp+8], -1
	mov	edx, DWORD PTR _this$[ebp]
	mov	eax, DWORD PTR $T93836[ebp]
	mov	DWORD PTR [edx+20], eax
	mov	eax, DWORD PTR _this$[ebp]
	mov	ecx, DWORD PTR __$EHRec$[ebp]
	mov	DWORD PTR fs:__except_list, ecx
	pop	edi
	pop	esi
	pop	ebx
	add	esp, 256				; 00000100H
	cmp	ebp, esp
	call	__RTC_CheckEsp
	mov	esp, ebp
	pop	ebp
	ret	8
_TEXT	ENDS
;	COMDAT text$x
text$x	SEGMENT
__unwindfunclet$??0CTextBlockAry@@QAE@HH@Z$0:
	mov	eax, DWORD PTR $T93837[ebp]
	push	eax
	call	??_V@YAXPAX@Z				; operator delete[]
	pop	ecx
	ret	0
__ehhandler$??0CTextBlockAry@@QAE@HH@Z:
	mov	eax, OFFSET FLAT:__ehfuncinfo$??0CTextBlockAry@@QAE@HH@Z
	jmp	___CxxFrameHandler
text$x	ENDS
??0CTextBlockAry@@QAE@HH@Z ENDP				; CTextBlockAry::CTextBlockAry
PUBLIC	??0?$CStringT@GV?$StrTraitMFC@GV?$ChTraitsCRT@G@ATL@@@@@ATL@@QAE@XZ ; ATL::CStringT<unsigned short,StrTraitMFC<unsigned short,ATL::ChTraitsCRT<unsigned short> > >::CStringT<unsigned short,StrTraitMFC<unsigned short,ATL::ChTraitsCRT<unsigned short> > >
; Function compile flags: /Odt /RTCcsu /ZI
;	COMDAT ??0CTextBlock@@QAE@XZ
_TEXT	SEGMENT
_this$ = -8						; size = 4
??0CTextBlock@@QAE@XZ PROC NEAR				; CTextBlock::CTextBlock, COMDAT
; _this$ = ecx

; 8    :    CTextBlock() {}

	push	ebp
	mov	ebp, esp
	sub	esp, 204				; 000000ccH
	push	ebx
	push	esi
	push	edi
	push	ecx
	lea	edi, DWORD PTR [ebp-204]
	mov	ecx, 51					; 00000033H
	mov	eax, -858993460				; ccccccccH
	rep stosd
	pop	ecx
	mov	DWORD PTR _this$[ebp], ecx
	mov	ecx, DWORD PTR _this$[ebp]
	add	ecx, 140				; 0000008cH
	call	??0?$CStringT@GV?$StrTraitMFC@GV?$ChTraitsCRT@G@ATL@@@@@ATL@@QAE@XZ ; ATL::CStringT<unsigned short,StrTraitMFC<unsigned short,ATL::ChTraitsCRT<unsigned short> > >::CStringT<unsigned short,StrTraitMFC<unsigned short,ATL::ChTraitsCRT<unsigned short> > >
	mov	eax, DWORD PTR _this$[ebp]
	pop	edi
	pop	esi
	pop	ebx
	add	esp, 204				; 000000ccH
	cmp	ebp, esp
	call	__RTC_CheckEsp
	mov	esp, ebp
	pop	ebp
	ret	0
??0CTextBlock@@QAE@XZ ENDP				; CTextBlock::CTextBlock
; Function compile flags: /Odt /RTCcsu /ZI
_TEXT	ENDS
;	COMDAT ?next@CTextBlockAry@@QAEPAVCTextBlock@@XZ
_TEXT	SEGMENT
tv74 = -208						; size = 4
_this$ = -8						; size = 4
?next@CTextBlockAry@@QAEPAVCTextBlock@@XZ PROC NEAR	; CTextBlockAry::next, COMDAT
; _this$ = ecx

; 54   : 	CTextBlock *next() { if ( _iEle >= _nElements ) return NULL; else return _array+_iEle++; }

	push	ebp
	mov	ebp, esp
	sub	esp, 208				; 000000d0H
	push	ebx
	push	esi
	push	edi
	push	ecx
	lea	edi, DWORD PTR [ebp-208]
	mov	ecx, 52					; 00000034H
	mov	eax, -858993460				; ccccccccH
	rep stosd
	pop	ecx
	mov	DWORD PTR _this$[ebp], ecx
	mov	eax, DWORD PTR _this$[ebp]
	mov	ecx, DWORD PTR _this$[ebp]
	mov	edx, DWORD PTR [eax+16]
	cmp	edx, DWORD PTR [ecx+8]
	jl	SHORT $L93496
	xor	eax, eax
	jmp	SHORT $L93495
$L93496:
	mov	eax, DWORD PTR _this$[ebp]
	mov	ecx, DWORD PTR [eax+16]
	imul	ecx, 144				; 00000090H
	mov	edx, DWORD PTR _this$[ebp]
	add	ecx, DWORD PTR [edx+20]
	mov	DWORD PTR tv74[ebp], ecx
	mov	eax, DWORD PTR _this$[ebp]
	mov	ecx, DWORD PTR [eax+16]
	add	ecx, 1
	mov	edx, DWORD PTR _this$[ebp]
	mov	DWORD PTR [edx+16], ecx
	mov	eax, DWORD PTR tv74[ebp]
$L93495:
	pop	edi
	pop	esi
	pop	ebx
	mov	esp, ebp
	pop	ebp
	ret	0
?next@CTextBlockAry@@QAEPAVCTextBlock@@XZ ENDP		; CTextBlockAry::next
_TEXT	ENDS
PUBLIC	??1CTextBlockAry@@QAE@XZ			; CTextBlockAry::~CTextBlockAry
; Function compile flags: /Odt /RTCcsu /ZI
;	COMDAT ??_GCTextBlockAry@@QAEPAXI@Z
_TEXT	SEGMENT
_this$ = -8						; size = 4
___flags$ = 8						; size = 4
??_GCTextBlockAry@@QAEPAXI@Z PROC NEAR			; CTextBlockAry::`scalar deleting destructor', COMDAT
; _this$ = ecx
	push	ebp
	mov	ebp, esp
	sub	esp, 204				; 000000ccH
	push	ebx
	push	esi
	push	edi
	push	ecx
	lea	edi, DWORD PTR [ebp-204]
	mov	ecx, 51					; 00000033H
	mov	eax, -858993460				; ccccccccH
	rep stosd
	pop	ecx
	mov	DWORD PTR _this$[ebp], ecx
	mov	ecx, DWORD PTR _this$[ebp]
	call	??1CTextBlockAry@@QAE@XZ		; CTextBlockAry::~CTextBlockAry
	mov	eax, DWORD PTR ___flags$[ebp]
	and	eax, 1
	je	SHORT $L93626
	mov	eax, DWORD PTR _this$[ebp]
	push	eax
	call	??3@YAXPAX@Z				; operator delete
	add	esp, 4
$L93626:
	mov	eax, DWORD PTR _this$[ebp]
	pop	edi
	pop	esi
	pop	ebx
	add	esp, 204				; 000000ccH
	cmp	ebp, esp
	call	__RTC_CheckEsp
	mov	esp, ebp
	pop	ebp
	ret	4
??_GCTextBlockAry@@QAEPAXI@Z ENDP			; CTextBlockAry::`scalar deleting destructor'
; Function compile flags: /Odt /RTCcsu /ZI
_TEXT	ENDS
;	COMDAT ??1CTextBlockAry@@QAE@XZ
_TEXT	SEGMENT
tv69 = -232						; size = 4
$T93856 = -224						; size = 4
$T93857 = -212						; size = 4
_this$ = -8						; size = 4
??1CTextBlockAry@@QAE@XZ PROC NEAR			; CTextBlockAry::~CTextBlockAry, COMDAT
; _this$ = ecx

; 44   :     ~CTextBlockAry() { delete[] _array; _array = NULL;}

	push	ebp
	mov	ebp, esp
	sub	esp, 232				; 000000e8H
	push	ebx
	push	esi
	push	edi
	push	ecx
	lea	edi, DWORD PTR [ebp-232]
	mov	ecx, 58					; 0000003aH
	mov	eax, -858993460				; ccccccccH
	rep stosd
	pop	ecx
	mov	DWORD PTR _this$[ebp], ecx
	mov	eax, DWORD PTR _this$[ebp]
	mov	ecx, DWORD PTR [eax+20]
	mov	DWORD PTR $T93857[ebp], ecx
	mov	edx, DWORD PTR $T93857[ebp]
	mov	DWORD PTR $T93856[ebp], edx
	cmp	DWORD PTR $T93856[ebp], 0
	je	SHORT $L93858
	push	3
	mov	ecx, DWORD PTR $T93856[ebp]
	call	??_ECTextBlock@@QAEPAXI@Z
	mov	DWORD PTR tv69[ebp], eax
	jmp	SHORT $L93859
$L93858:
	mov	DWORD PTR tv69[ebp], 0
$L93859:
	mov	eax, DWORD PTR _this$[ebp]
	mov	DWORD PTR [eax+20], 0
	pop	edi
	pop	esi
	pop	ebx
	add	esp, 232				; 000000e8H
	cmp	ebp, esp
	call	__RTC_CheckEsp
	mov	esp, ebp
	pop	ebp
	ret	0
??1CTextBlockAry@@QAE@XZ ENDP				; CTextBlockAry::~CTextBlockAry
_TEXT	ENDS
PUBLIC	?nElements@CAsFileAry@@QAEAAIXZ			; CAsFileAry::nElements
PUBLIC	?array@CAsFileAry@@QAEPAVCAsFile@@XZ		; CAsFileAry::array
PUBLIC	?Process@ImportHelp@@QAEXXZ			; ImportHelp::Process
PUBLIC	?type@CAsFile@@QAEHXZ				; CAsFile::type
PUBLIC	?name@CAsFile@@QAEPADXZ				; CAsFile::name
EXTRN	?getCount@CAsFileAry@@QAEHH@Z:NEAR		; CAsFileAry::getCount
EXTRN	?pFileList@@3PAVCAsFileAry@@A:DWORD		; pFileList
EXTRN	?GetSrcDir@@YA?AV?$CStringT@GV?$StrTraitMFC@GV?$ChTraitsCRT@G@ATL@@@@@ATL@@XZ:NEAR ; GetSrcDir
EXTRN	?SetMax@CProgress@@QAEXH@Z:NEAR			; CProgress::SetMax
;	COMDAT xdata$x
; File c:\astrow32dev\tbt32\importhelp.cpp
xdata$x	SEGMENT
__unwindtable$?Process@ImportHelp@@QAEXXZ DD 0ffffffffH
	DD	FLAT:__unwindfunclet$?Process@ImportHelp@@QAEXXZ$0
__ehfuncinfo$?Process@ImportHelp@@QAEXXZ DD 019930520H
	DD	01H
	DD	FLAT:__unwindtable$?Process@ImportHelp@@QAEXXZ
	DD	2 DUP(00H)
	DD	2 DUP(00H)
; Function compile flags: /Odt /RTCcsu /ZI
xdata$x	ENDS
;	COMDAT ?Process@ImportHelp@@QAEXXZ
_TEXT	SEGMENT
tv95 = -272						; size = 4
tv128 = -268						; size = 4
$T93862 = -260						; size = 4
_i$93633 = -56						; size = 4
_cnt$ = -44						; size = 4
_pFile$ = -32						; size = 4
_this$ = -20						; size = 4
__$EHRec$ = -12						; size = 12
?Process@ImportHelp@@QAEXXZ PROC NEAR			; ImportHelp::Process, COMDAT
; _this$ = ecx

; 97   : {

	push	ebp
	mov	ebp, esp
	push	-1
	push	__ehhandler$?Process@ImportHelp@@QAEXXZ
	mov	eax, DWORD PTR fs:__except_list
	push	eax
	mov	DWORD PTR fs:__except_list, esp
	sub	esp, 260				; 00000104H
	push	ebx
	push	esi
	push	edi
	push	ecx
	lea	edi, DWORD PTR [ebp-272]
	mov	ecx, 65					; 00000041H
	mov	eax, -858993460				; ccccccccH
	rep stosd
	pop	ecx
	mov	DWORD PTR _this$[ebp], ecx

; 98   : 	CAsFile *pFile=pFileList->array();

	mov	ecx, DWORD PTR ?pFileList@@3PAVCAsFileAry@@A ; pFileList
	call	?array@CAsFileAry@@QAEPAVCAsFile@@XZ	; CAsFileAry::array
	mov	DWORD PTR _pFile$[ebp], eax

; 99   : 	dir = GetSrcDir();

	lea	eax, DWORD PTR $T93862[ebp]
	push	eax
	call	?GetSrcDir@@YA?AV?$CStringT@GV?$StrTraitMFC@GV?$ChTraitsCRT@G@ATL@@@@@ATL@@XZ ; GetSrcDir
	add	esp, 4
	mov	DWORD PTR tv128[ebp], eax
	mov	ecx, DWORD PTR tv128[ebp]
	mov	DWORD PTR tv95[ebp], ecx
	mov	DWORD PTR __$EHRec$[ebp+8], 0
	mov	edx, DWORD PTR tv95[ebp]
	push	edx
	mov	ecx, DWORD PTR _this$[ebp]
	add	ecx, 172				; 000000acH
	call	??4?$CStringT@GV?$StrTraitMFC@GV?$ChTraitsCRT@G@ATL@@@@@ATL@@QAEAAV01@ABV01@@Z ; ATL::CStringT<unsigned short,StrTraitMFC<unsigned short,ATL::ChTraitsCRT<unsigned short> > >::operator=
	mov	DWORD PTR __$EHRec$[ebp+8], -1
	lea	ecx, DWORD PTR $T93862[ebp]
	call	??1?$CStringT@GV?$StrTraitMFC@GV?$ChTraitsCRT@G@ATL@@@@@ATL@@QAE@XZ ; ATL::CStringT<unsigned short,StrTraitMFC<unsigned short,ATL::ChTraitsCRT<unsigned short> > >::~CStringT<unsigned short,StrTraitMFC<unsigned short,ATL::ChTraitsCRT<unsigned short> > >

; 100  : 	int cnt = pFileList->getCount(0);

	push	0
	mov	ecx, DWORD PTR ?pFileList@@3PAVCAsFileAry@@A ; pFileList
	call	?getCount@CAsFileAry@@QAEHH@Z		; CAsFileAry::getCount
	mov	DWORD PTR _cnt$[ebp], eax

; 101  : 	m_pProg->SetMax(cnt);

	mov	eax, DWORD PTR _cnt$[ebp]
	push	eax
	mov	ecx, DWORD PTR _this$[ebp]
	mov	ecx, DWORD PTR [ecx+176]
	call	?SetMax@CProgress@@QAEXH@Z		; CProgress::SetMax

; 102  : 	for ( int i = 0; i < pFileList->nElements(); i++, pFile++ ) {

	mov	DWORD PTR _i$93633[ebp], 0
	jmp	SHORT $L93634
$L93635:
	mov	eax, DWORD PTR _i$93633[ebp]
	add	eax, 1
	mov	DWORD PTR _i$93633[ebp], eax
	mov	ecx, DWORD PTR _pFile$[ebp]
	add	ecx, 156				; 0000009cH
	mov	DWORD PTR _pFile$[ebp], ecx
$L93634:
	mov	ecx, DWORD PTR ?pFileList@@3PAVCAsFileAry@@A ; pFileList
	call	?nElements@CAsFileAry@@QAEAAIXZ		; CAsFileAry::nElements
	mov	ecx, DWORD PTR _i$93633[ebp]
	cmp	ecx, DWORD PTR [eax]
	jae	SHORT $L93629

; 103  : 	    if ( !pFile->type()	)

	mov	ecx, DWORD PTR _pFile$[ebp]
	call	?type@CAsFile@@QAEHXZ			; CAsFile::type
	test	eax, eax
	jne	SHORT $L93637

; 104  : 			if ( !ProcessItem(pFile->name()) )

	mov	ecx, DWORD PTR _pFile$[ebp]
	call	?name@CAsFile@@QAEPADXZ			; CAsFile::name
	push	eax
	mov	ecx, DWORD PTR _this$[ebp]
	call	?ProcessItem@ImportHelp@@QAEHPAD@Z	; ImportHelp::ProcessItem
	test	eax, eax
	jne	SHORT $L93637

; 105  : 				return;

	jmp	SHORT $L93629
$L93637:

; 106  : 	}

	jmp	SHORT $L93635
$L93629:

; 107  : 
; 108  : }

	mov	ecx, DWORD PTR __$EHRec$[ebp]
	mov	DWORD PTR fs:__except_list, ecx
	pop	edi
	pop	esi
	pop	ebx
	add	esp, 272				; 00000110H
	cmp	ebp, esp
	call	__RTC_CheckEsp
	mov	esp, ebp
	pop	ebp
	ret	0
_TEXT	ENDS
;	COMDAT text$x
text$x	SEGMENT
__unwindfunclet$?Process@ImportHelp@@QAEXXZ$0:
	lea	ecx, DWORD PTR $T93862[ebp]
	jmp	??1?$CStringT@GV?$StrTraitMFC@GV?$ChTraitsCRT@G@ATL@@@@@ATL@@QAE@XZ ; ATL::CStringT<unsigned short,StrTraitMFC<unsigned short,ATL::ChTraitsCRT<unsigned short> > >::~CStringT<unsigned short,StrTraitMFC<unsigned short,ATL::ChTraitsCRT<unsigned short> > >
__ehhandler$?Process@ImportHelp@@QAEXXZ:
	mov	eax, OFFSET FLAT:__ehfuncinfo$?Process@ImportHelp@@QAEXXZ
	jmp	___CxxFrameHandler
text$x	ENDS
?Process@ImportHelp@@QAEXXZ ENDP			; ImportHelp::Process
; Function compile flags: /Odt /RTCcsu /ZI
; File c:\astrow32dev\tbt32\fileary.hpp
;	COMDAT ?type@CAsFile@@QAEHXZ
_TEXT	SEGMENT
_this$ = -8						; size = 4
?type@CAsFile@@QAEHXZ PROC NEAR				; CAsFile::type, COMDAT
; _this$ = ecx

; 17   :     int type() { return _type; }

	push	ebp
	mov	ebp, esp
	sub	esp, 204				; 000000ccH
	push	ebx
	push	esi
	push	edi
	push	ecx
	lea	edi, DWORD PTR [ebp-204]
	mov	ecx, 51					; 00000033H
	mov	eax, -858993460				; ccccccccH
	rep stosd
	pop	ecx
	mov	DWORD PTR _this$[ebp], ecx
	mov	eax, DWORD PTR _this$[ebp]
	mov	eax, DWORD PTR [eax]
	pop	edi
	pop	esi
	pop	ebx
	mov	esp, ebp
	pop	ebp
	ret	0
?type@CAsFile@@QAEHXZ ENDP				; CAsFile::type
; Function compile flags: /Odt /RTCcsu /ZI
_TEXT	ENDS
;	COMDAT ?name@CAsFile@@QAEPADXZ
_TEXT	SEGMENT
_this$ = -8						; size = 4
?name@CAsFile@@QAEPADXZ PROC NEAR			; CAsFile::name, COMDAT
; _this$ = ecx

; 19   :     char *name() { return _name; }

	push	ebp
	mov	ebp, esp
	sub	esp, 204				; 000000ccH
	push	ebx
	push	esi
	push	edi
	push	ecx
	lea	edi, DWORD PTR [ebp-204]
	mov	ecx, 51					; 00000033H
	mov	eax, -858993460				; ccccccccH
	rep stosd
	pop	ecx
	mov	DWORD PTR _this$[ebp], ecx
	mov	eax, DWORD PTR _this$[ebp]
	add	eax, 79					; 0000004fH
	pop	edi
	pop	esi
	pop	ebx
	mov	esp, ebp
	pop	ebp
	ret	0
?name@CAsFile@@QAEPADXZ ENDP				; CAsFile::name
; Function compile flags: /Odt /RTCcsu /ZI
_TEXT	ENDS
;	COMDAT ?nElements@CAsFileAry@@QAEAAIXZ
_TEXT	SEGMENT
_this$ = -8						; size = 4
?nElements@CAsFileAry@@QAEAAIXZ PROC NEAR		; CAsFileAry::nElements, COMDAT
; _this$ = ecx

; 33   :     unsigned int &nElements() { return _nElements; }

	push	ebp
	mov	ebp, esp
	sub	esp, 204				; 000000ccH
	push	ebx
	push	esi
	push	edi
	push	ecx
	lea	edi, DWORD PTR [ebp-204]
	mov	ecx, 51					; 00000033H
	mov	eax, -858993460				; ccccccccH
	rep stosd
	pop	ecx
	mov	DWORD PTR _this$[ebp], ecx
	mov	eax, DWORD PTR _this$[ebp]
	pop	edi
	pop	esi
	pop	ebx
	mov	esp, ebp
	pop	ebp
	ret	0
?nElements@CAsFileAry@@QAEAAIXZ ENDP			; CAsFileAry::nElements
; Function compile flags: /Odt /RTCcsu /ZI
_TEXT	ENDS
;	COMDAT ?array@CAsFileAry@@QAEPAVCAsFile@@XZ
_TEXT	SEGMENT
_this$ = -8						; size = 4
?array@CAsFileAry@@QAEPAVCAsFile@@XZ PROC NEAR		; CAsFileAry::array, COMDAT
; _this$ = ecx

; 36   :     CAsFile *array() { return _array; }

	push	ebp
	mov	ebp, esp
	sub	esp, 204				; 000000ccH
	push	ebx
	push	esi
	push	edi
	push	ecx
	lea	edi, DWORD PTR [ebp-204]
	mov	ecx, 51					; 00000033H
	mov	eax, -858993460				; ccccccccH
	rep stosd
	pop	ecx
	mov	DWORD PTR _this$[ebp], ecx
	mov	eax, DWORD PTR _this$[ebp]
	mov	eax, DWORD PTR [eax+12]
	pop	edi
	pop	esi
	pop	ebx
	mov	esp, ebp
	pop	ebp
	ret	0
?array@CAsFileAry@@QAEPAVCAsFile@@XZ ENDP		; CAsFileAry::array
_TEXT	ENDS
PUBLIC	??4?$CSimpleStringT@G$0A@@ATL@@QAEAAV01@ABV01@@Z ; ATL::CSimpleStringT<unsigned short,0>::operator=
; Function compile flags: /Odt /RTCcsu /ZI
; File c:\program files\microsoft visual studio .net 2003\vc7\atlmfc\include\cstringt.h
;	COMDAT ??4?$CStringT@GV?$StrTraitMFC@GV?$ChTraitsCRT@G@ATL@@@@@ATL@@QAEAAV01@ABV01@@Z
_TEXT	SEGMENT
_this$ = -8						; size = 4
_strSrc$ = 8						; size = 4
??4?$CStringT@GV?$StrTraitMFC@GV?$ChTraitsCRT@G@ATL@@@@@ATL@@QAEAAV01@ABV01@@Z PROC NEAR ; ATL::CStringT<unsigned short,StrTraitMFC<unsigned short,ATL::ChTraitsCRT<unsigned short> > >::operator=, COMDAT
; _this$ = ecx

; 967  : 	{

	push	ebp
	mov	ebp, esp
	sub	esp, 204				; 000000ccH
	push	ebx
	push	esi
	push	edi
	push	ecx
	lea	edi, DWORD PTR [ebp-204]
	mov	ecx, 51					; 00000033H
	mov	eax, -858993460				; ccccccccH
	rep stosd
	pop	ecx
	mov	DWORD PTR _this$[ebp], ecx

; 968  : 		CThisSimpleString::operator=( strSrc );

	mov	eax, DWORD PTR _strSrc$[ebp]
	push	eax
	mov	ecx, DWORD PTR _this$[ebp]
	call	??4?$CSimpleStringT@G$0A@@ATL@@QAEAAV01@ABV01@@Z ; ATL::CSimpleStringT<unsigned short,0>::operator=

; 969  : 
; 970  : 		return( *this );

	mov	eax, DWORD PTR _this$[ebp]

; 971  : 	}

	pop	edi
	pop	esi
	pop	ebx
	add	esp, 204				; 000000ccH
	cmp	ebp, esp
	call	__RTC_CheckEsp
	mov	esp, ebp
	pop	ebp
	ret	4
??4?$CStringT@GV?$StrTraitMFC@GV?$ChTraitsCRT@G@ATL@@@@@ATL@@QAEAAV01@ABV01@@Z ENDP ; ATL::CStringT<unsigned short,StrTraitMFC<unsigned short,ATL::ChTraitsCRT<unsigned short> > >::operator=
_TEXT	ENDS
PUBLIC	?IsLocked@CStringData@ATL@@QBE_NXZ		; ATL::CStringData::IsLocked
PUBLIC	?Release@CStringData@ATL@@QAEXXZ		; ATL::CStringData::Release
PUBLIC	?GetString@?$CSimpleStringT@G$0A@@ATL@@QBEPBGXZ	; ATL::CSimpleStringT<unsigned short,0>::GetString
PUBLIC	?SetString@?$CSimpleStringT@G$0A@@ATL@@QAEXPBGH@Z ; ATL::CSimpleStringT<unsigned short,0>::SetString
PUBLIC	?Attach@?$CSimpleStringT@G$0A@@ATL@@AAEXPAUCStringData@2@@Z ; ATL::CSimpleStringT<unsigned short,0>::Attach
PUBLIC	?GetData@?$CSimpleStringT@G$0A@@ATL@@ABEPAUCStringData@2@XZ ; ATL::CSimpleStringT<unsigned short,0>::GetData
PUBLIC	?CloneData@?$CSimpleStringT@G$0A@@ATL@@CAPAUCStringData@2@PAU32@@Z ; ATL::CSimpleStringT<unsigned short,0>::CloneData
; Function compile flags: /Odt /RTCcsu /ZI
; File c:\program files\microsoft visual studio .net 2003\vc7\atlmfc\include\atlsimpstr.h
;	COMDAT ??4?$CSimpleStringT@G$0A@@ATL@@QAEAAV01@ABV01@@Z
_TEXT	SEGMENT
_pNewData$93649 = -44					; size = 4
_pOldData$ = -32					; size = 4
_pSrcData$ = -20					; size = 4
_this$ = -8						; size = 4
_strSrc$ = 8						; size = 4
??4?$CSimpleStringT@G$0A@@ATL@@QAEAAV01@ABV01@@Z PROC NEAR ; ATL::CSimpleStringT<unsigned short,0>::operator=, COMDAT
; _this$ = ecx

; 273  : 	{

	push	ebp
	mov	ebp, esp
	sub	esp, 240				; 000000f0H
	push	ebx
	push	esi
	push	edi
	push	ecx
	lea	edi, DWORD PTR [ebp-240]
	mov	ecx, 60					; 0000003cH
	mov	eax, -858993460				; ccccccccH
	rep stosd
	pop	ecx
	mov	DWORD PTR _this$[ebp], ecx

; 274  : 		CStringData* pSrcData = strSrc.GetData();

	mov	ecx, DWORD PTR _strSrc$[ebp]
	call	?GetData@?$CSimpleStringT@G$0A@@ATL@@ABEPAUCStringData@2@XZ ; ATL::CSimpleStringT<unsigned short,0>::GetData
	mov	DWORD PTR _pSrcData$[ebp], eax

; 275  : 		CStringData* pOldData = GetData();

	mov	ecx, DWORD PTR _this$[ebp]
	call	?GetData@?$CSimpleStringT@G$0A@@ATL@@ABEPAUCStringData@2@XZ ; ATL::CSimpleStringT<unsigned short,0>::GetData
	mov	DWORD PTR _pOldData$[ebp], eax

; 276  : 		if( pSrcData != pOldData)

	mov	eax, DWORD PTR _pSrcData$[ebp]
	cmp	eax, DWORD PTR _pOldData$[ebp]
	je	SHORT $L93645

; 277  : 		{
; 278  : 			if( pOldData->IsLocked() || pSrcData->pStringMgr != pOldData->pStringMgr )

	mov	ecx, DWORD PTR _pOldData$[ebp]
	call	?IsLocked@CStringData@ATL@@QBE_NXZ	; ATL::CStringData::IsLocked
	movzx	eax, al
	test	eax, eax
	jne	SHORT $L93647
	mov	eax, DWORD PTR _pSrcData$[ebp]
	mov	ecx, DWORD PTR _pOldData$[ebp]
	mov	edx, DWORD PTR [eax]
	cmp	edx, DWORD PTR [ecx]
	je	SHORT $L93646
$L93647:

; 279  : 			{
; 280  : 				SetString( strSrc.GetString(), strSrc.GetLength() );

	mov	ecx, DWORD PTR _strSrc$[ebp]
	call	?GetLength@?$CSimpleStringT@G$0A@@ATL@@QBEHXZ ; ATL::CSimpleStringT<unsigned short,0>::GetLength
	push	eax
	mov	ecx, DWORD PTR _strSrc$[ebp]
	call	?GetString@?$CSimpleStringT@G$0A@@ATL@@QBEPBGXZ ; ATL::CSimpleStringT<unsigned short,0>::GetString
	push	eax
	mov	ecx, DWORD PTR _this$[ebp]
	call	?SetString@?$CSimpleStringT@G$0A@@ATL@@QAEXPBGH@Z ; ATL::CSimpleStringT<unsigned short,0>::SetString

; 281  : 			}
; 282  : 			else

	jmp	SHORT $L93645
$L93646:

; 283  : 			{
; 284  : 				CStringData* pNewData = CloneData( pSrcData );

	mov	eax, DWORD PTR _pSrcData$[ebp]
	push	eax
	call	?CloneData@?$CSimpleStringT@G$0A@@ATL@@CAPAUCStringData@2@PAU32@@Z ; ATL::CSimpleStringT<unsigned short,0>::CloneData
	add	esp, 4
	mov	DWORD PTR _pNewData$93649[ebp], eax

; 285  : 				pOldData->Release();

	mov	ecx, DWORD PTR _pOldData$[ebp]
	call	?Release@CStringData@ATL@@QAEXXZ	; ATL::CStringData::Release

; 286  : 				Attach( pNewData );

	mov	eax, DWORD PTR _pNewData$93649[ebp]
	push	eax
	mov	ecx, DWORD PTR _this$[ebp]
	call	?Attach@?$CSimpleStringT@G$0A@@ATL@@AAEXPAUCStringData@2@@Z ; ATL::CSimpleStringT<unsigned short,0>::Attach
$L93645:

; 287  : 			}
; 288  : 		}
; 289  : 
; 290  : 		return( *this );

	mov	eax, DWORD PTR _this$[ebp]

; 291  : 	}

	pop	edi
	pop	esi
	pop	ebx
	add	esp, 240				; 000000f0H
	cmp	ebp, esp
	call	__RTC_CheckEsp
	mov	esp, ebp
	pop	ebp
	ret	4
??4?$CSimpleStringT@G$0A@@ATL@@QAEAAV01@ABV01@@Z ENDP	; ATL::CSimpleStringT<unsigned short,0>::operator=
_TEXT	ENDS
PUBLIC	?InterlockedExchangePointer@@YGPAXPAPAXPAX@Z	; InterlockedExchangePointer
PUBLIC	?_AtlGetThreadACPFake@ATL@@YGIXZ		; ATL::_AtlGetThreadACPFake
PUBLIC	?_AtlGetThreadACPReal@ATL@@YGIXZ		; ATL::_AtlGetThreadACPReal
EXTRN	__imp__GetVersionExW@4:NEAR
; Function compile flags: /Odt /RTCcsu /ZI
; File c:\program files\microsoft visual studio .net 2003\vc7\atlmfc\include\atlconv.h
;	COMDAT ?_AtlGetThreadACPThunk@ATL@@YGIXZ
_TEXT	SEGMENT
_pfnGetThreadACP$ = -296				; size = 4
_ver$ = -284						; size = 276
__$ArrayPad$ = -4					; size = 4
__$ReturnAddr$ = 4					; size = 4
?_AtlGetThreadACPThunk@ATL@@YGIXZ PROC NEAR		; ATL::_AtlGetThreadACPThunk, COMDAT

; 134  : {

	push	ebp
	mov	ebp, esp
	sub	esp, 492				; 000001ecH
	push	ebx
	push	esi
	push	edi
	lea	edi, DWORD PTR [ebp-492]
	mov	ecx, 123				; 0000007bH
	mov	eax, -858993460				; ccccccccH
	rep stosd
	mov	eax, DWORD PTR ___security_cookie
	mov	DWORD PTR __$ArrayPad$[ebp], eax

; 135  : 	OSVERSIONINFO ver;
; 136  : 	ATLGETTHREADACP pfnGetThreadACP;
; 137  : 
; 138  : 	ver.dwOSVersionInfoSize = sizeof( ver );

	mov	DWORD PTR _ver$[ebp], 276		; 00000114H

; 139  : 	::GetVersionEx( &ver );

	mov	esi, esp
	lea	eax, DWORD PTR _ver$[ebp]
	push	eax
	call	DWORD PTR __imp__GetVersionExW@4
	cmp	esi, esp
	call	__RTC_CheckEsp

; 140  : 	if( (ver.dwPlatformId == VER_PLATFORM_WIN32_NT) && (ver.dwMajorVersion >= 5) )

	cmp	DWORD PTR _ver$[ebp+16], 2
	jne	SHORT $L24087
	cmp	DWORD PTR _ver$[ebp+4], 5
	jb	SHORT $L24087

; 141  : 	{
; 142  : 		// On Win2K, CP_THREAD_ACP is supported
; 143  : 		pfnGetThreadACP = _AtlGetThreadACPReal;

	mov	DWORD PTR _pfnGetThreadACP$[ebp], OFFSET FLAT:?_AtlGetThreadACPReal@ATL@@YGIXZ ; ATL::_AtlGetThreadACPReal

; 144  : 	}
; 145  : 	else

	jmp	SHORT $L24088
$L24087:

; 146  : 	{
; 147  : 		pfnGetThreadACP = _AtlGetThreadACPFake;

	mov	DWORD PTR _pfnGetThreadACP$[ebp], OFFSET FLAT:?_AtlGetThreadACPFake@ATL@@YGIXZ ; ATL::_AtlGetThreadACPFake
$L24088:

; 148  : 	}
; 149  : 	InterlockedExchangePointer( reinterpret_cast< void** >(&g_pfnGetThreadACP), pfnGetThreadACP );

	mov	eax, DWORD PTR _pfnGetThreadACP$[ebp]
	push	eax
	push	OFFSET FLAT:?g_pfnGetThreadACP@ATL@@3P6GIXZA ; ATL::g_pfnGetThreadACP
	call	?InterlockedExchangePointer@@YGPAXPAPAXPAX@Z ; InterlockedExchangePointer

; 150  : 
; 151  : 	return( g_pfnGetThreadACP() );

	mov	esi, esp
	call	DWORD PTR ?g_pfnGetThreadACP@ATL@@3P6GIXZA ; ATL::g_pfnGetThreadACP
	cmp	esi, esp
	call	__RTC_CheckEsp

; 152  : }

	push	edx
	mov	ecx, ebp
	push	eax
	lea	edx, DWORD PTR $L93888
	call	@_RTC_CheckStackVars@8
	pop	eax
	pop	edx
	mov	ecx, DWORD PTR __$ArrayPad$[ebp]
	call	@__security_check_cookie@4
	pop	edi
	pop	esi
	pop	ebx
	add	esp, 492				; 000001ecH
	cmp	ebp, esp
	call	__RTC_CheckEsp
	mov	esp, ebp
	pop	ebp
	ret	0
$L93888:
	DD	1
	DD	$L93887
$L93887:
	DD	-284					; fffffee4H
	DD	276					; 00000114H
	DD	$L93885
$L93885:
	DB	118					; 00000076H
	DB	101					; 00000065H
	DB	114					; 00000072H
	DB	0
?_AtlGetThreadACPThunk@ATL@@YGIXZ ENDP			; ATL::_AtlGetThreadACPThunk
_TEXT	ENDS
EXTRN	__imp__InterlockedExchange@8:NEAR
; Function compile flags: /Odt /RTCcsu /ZI
;	COMDAT ?InterlockedExchangePointer@@YGPAXPAPAXPAX@Z
_TEXT	SEGMENT
_pp$ = 8						; size = 4
_pNew$ = 12						; size = 4
?InterlockedExchangePointer@@YGPAXPAPAXPAX@Z PROC NEAR	; InterlockedExchangePointer, COMDAT

; 91   : {

	push	ebp
	mov	ebp, esp
	sub	esp, 192				; 000000c0H
	push	ebx
	push	esi
	push	edi
	lea	edi, DWORD PTR [ebp-192]
	mov	ecx, 48					; 00000030H
	mov	eax, -858993460				; ccccccccH
	rep stosd

; 92   : 	return( reinterpret_cast<void*>(static_cast<LONG_PTR>(::InterlockedExchange(reinterpret_cast<LONG*>(pp), static_cast<LONG>(reinterpret_cast<LONG_PTR>(pNew))))) );

	mov	esi, esp
	mov	eax, DWORD PTR _pNew$[ebp]
	push	eax
	mov	ecx, DWORD PTR _pp$[ebp]
	push	ecx
	call	DWORD PTR __imp__InterlockedExchange@8
	cmp	esi, esp
	call	__RTC_CheckEsp

; 93   : }

	pop	edi
	pop	esi
	pop	ebx
	add	esp, 192				; 000000c0H
	cmp	ebp, esp
	call	__RTC_CheckEsp
	mov	esp, ebp
	pop	ebp
	ret	8
?InterlockedExchangePointer@@YGPAXPAPAXPAX@Z ENDP	; InterlockedExchangePointer
_TEXT	ENDS
EXTRN	__imp__GetACP@0:NEAR
EXTRN	__imp__GetLocaleInfoA@16:NEAR
EXTRN	__imp__GetThreadLocale@0:NEAR
; Function compile flags: /Odt /RTCcsu /ZI
;	COMDAT ?_AtlGetThreadACPFake@ATL@@YGIXZ
_TEXT	SEGMENT
_pch$24075 = -52					; size = 4
_szACP$ = -40						; size = 7
_lcidThread$ = -24					; size = 4
_nACP$ = -12						; size = 4
__$ArrayPad$ = -4					; size = 4
__$ReturnAddr$ = 4					; size = 4
?_AtlGetThreadACPFake@ATL@@YGIXZ PROC NEAR		; ATL::_AtlGetThreadACPFake, COMDAT

; 101  : {

	push	ebp
	mov	ebp, esp
	sub	esp, 248				; 000000f8H
	push	ebx
	push	esi
	push	edi
	lea	edi, DWORD PTR [ebp-248]
	mov	ecx, 62					; 0000003eH
	mov	eax, -858993460				; ccccccccH
	rep stosd
	mov	eax, DWORD PTR ___security_cookie
	mov	DWORD PTR __$ArrayPad$[ebp], eax

; 102  : 	UINT nACP = 0;

	mov	DWORD PTR _nACP$[ebp], 0

; 103  : 
; 104  : 	LCID lcidThread = ::GetThreadLocale();

	mov	esi, esp
	call	DWORD PTR __imp__GetThreadLocale@0
	cmp	esi, esp
	call	__RTC_CheckEsp
	mov	DWORD PTR _lcidThread$[ebp], eax

; 105  : 
; 106  : 	char szACP[7];
; 107  : 	// GetLocaleInfoA will fail for a Unicode-only LCID, but those are only supported on 
; 108  : 	// Windows 2000.  Since Windows 2000 supports CP_THREAD_ACP, this code path is never
; 109  : 	// executed on Windows 2000.
; 110  : 	if (::GetLocaleInfoA(lcidThread, LOCALE_IDEFAULTANSICODEPAGE, szACP, 7) != 0)

	mov	esi, esp
	push	7
	lea	eax, DWORD PTR _szACP$[ebp]
	push	eax
	push	4100					; 00001004H
	mov	ecx, DWORD PTR _lcidThread$[ebp]
	push	ecx
	call	DWORD PTR __imp__GetLocaleInfoA@16
	cmp	esi, esp
	call	__RTC_CheckEsp
	test	eax, eax
	je	SHORT $L24074

; 111  : 	{
; 112  : 		char* pch = szACP;

	lea	eax, DWORD PTR _szACP$[ebp]
	mov	DWORD PTR _pch$24075[ebp], eax
$L24077:

; 113  : 		while (*pch != '\0')

	mov	eax, DWORD PTR _pch$24075[ebp]
	movsx	ecx, BYTE PTR [eax]
	test	ecx, ecx
	je	SHORT $L24074

; 114  : 		{
; 115  : 			nACP *= 10;

	mov	eax, DWORD PTR _nACP$[ebp]
	imul	eax, 10					; 0000000aH
	mov	DWORD PTR _nACP$[ebp], eax

; 116  : 			nACP += *pch++ - '0';

	mov	eax, DWORD PTR _pch$24075[ebp]
	movsx	ecx, BYTE PTR [eax]
	mov	edx, DWORD PTR _nACP$[ebp]
	lea	eax, DWORD PTR [edx+ecx-48]
	mov	DWORD PTR _nACP$[ebp], eax
	mov	ecx, DWORD PTR _pch$24075[ebp]
	add	ecx, 1
	mov	DWORD PTR _pch$24075[ebp], ecx

; 117  : 		}

	jmp	SHORT $L24077
$L24074:

; 118  : 	}
; 119  : 	// Use the Default ANSI Code Page if we were unable to get the thread ACP or if one does not exist.
; 120  : 	if (nACP == 0)

	cmp	DWORD PTR _nACP$[ebp], 0
	jne	SHORT $L24079

; 121  : 		nACP = ::GetACP();

	mov	esi, esp
	call	DWORD PTR __imp__GetACP@0
	cmp	esi, esp
	call	__RTC_CheckEsp
	mov	DWORD PTR _nACP$[ebp], eax
$L24079:

; 122  : 
; 123  : 	return nACP;

	mov	eax, DWORD PTR _nACP$[ebp]

; 124  : }

	push	edx
	mov	ecx, ebp
	push	eax
	lea	edx, DWORD PTR $L93897
	call	@_RTC_CheckStackVars@8
	pop	eax
	pop	edx
	mov	ecx, DWORD PTR __$ArrayPad$[ebp]
	call	@__security_check_cookie@4
	pop	edi
	pop	esi
	pop	ebx
	add	esp, 248				; 000000f8H
	cmp	ebp, esp
	call	__RTC_CheckEsp
	mov	esp, ebp
	pop	ebp
	ret	0
$L93897:
	DD	1
	DD	$L93896
$L93896:
	DD	-40					; ffffffd8H
	DD	7
	DD	$L93894
$L93894:
	DB	115					; 00000073H
	DB	122					; 0000007aH
	DB	65					; 00000041H
	DB	67					; 00000043H
	DB	80					; 00000050H
	DB	0
?_AtlGetThreadACPFake@ATL@@YGIXZ ENDP			; ATL::_AtlGetThreadACPFake
; Function compile flags: /Odt /RTCcsu /ZI
_TEXT	ENDS
;	COMDAT ?_AtlGetThreadACPReal@ATL@@YGIXZ
_TEXT	SEGMENT
?_AtlGetThreadACPReal@ATL@@YGIXZ PROC NEAR		; ATL::_AtlGetThreadACPReal, COMDAT

; 127  : {

	push	ebp
	mov	ebp, esp
	sub	esp, 192				; 000000c0H
	push	ebx
	push	esi
	push	edi
	lea	edi, DWORD PTR [ebp-192]
	mov	ecx, 48					; 00000030H
	mov	eax, -858993460				; ccccccccH
	rep stosd

; 128  : 	return( CP_THREAD_ACP );

	mov	eax, 3

; 129  : }

	pop	edi
	pop	esi
	pop	ebx
	mov	esp, ebp
	pop	ebp
	ret	0
?_AtlGetThreadACPReal@ATL@@YGIXZ ENDP			; ATL::_AtlGetThreadACPReal
_TEXT	ENDS
EXTRN	@_RTC_Check_4_to_1@4:NEAR
; Function compile flags: /Odt /RTCcsu /ZI
; File c:\program files\microsoft visual studio .net 2003\vc7\atlmfc\include\atlsimpstr.h
;	COMDAT ?IsLocked@CStringData@ATL@@QBE_NXZ
_TEXT	SEGMENT
_this$ = -8						; size = 4
?IsLocked@CStringData@ATL@@QBE_NXZ PROC NEAR		; ATL::CStringData::IsLocked, COMDAT
; _this$ = ecx

; 75   : 	{

	push	ebp
	mov	ebp, esp
	sub	esp, 204				; 000000ccH
	push	ebx
	push	esi
	push	edi
	push	ecx
	lea	edi, DWORD PTR [ebp-204]
	mov	ecx, 51					; 00000033H
	mov	eax, -858993460				; ccccccccH
	rep stosd
	pop	ecx
	mov	DWORD PTR _this$[ebp], ecx

; 76   : 		return nRefs < 0;

	mov	eax, DWORD PTR _this$[ebp]
	xor	ecx, ecx
	cmp	DWORD PTR [eax+12], 0
	setl	cl
	call	@_RTC_Check_4_to_1@4

; 77   : 	}

	pop	edi
	pop	esi
	pop	ebx
	add	esp, 204				; 000000ccH
	cmp	ebp, esp
	call	__RTC_CheckEsp
	mov	esp, ebp
	pop	ebp
	ret	0
?IsLocked@CStringData@ATL@@QBE_NXZ ENDP			; ATL::CStringData::IsLocked
_TEXT	ENDS
PUBLIC	??_C@_0FD@JDCNPMMG@c?3?2program?5files?2microsoft?5visua@ ; `string'
PUBLIC	??_C@_0L@OIIMFBNE@nRefs?5?$CB?$DN?50?$AA@	; `string'
EXTRN	__CrtDbgReport:NEAR
;	COMDAT ??_C@_0L@OIIMFBNE@nRefs?5?$CB?$DN?50?$AA@
CONST	SEGMENT
??_C@_0L@OIIMFBNE@nRefs?5?$CB?$DN?50?$AA@ DB 'nRefs != 0', 00H ; `string'
CONST	ENDS
;	COMDAT ??_C@_0FD@JDCNPMMG@c?3?2program?5files?2microsoft?5visua@
CONST	SEGMENT
??_C@_0FD@JDCNPMMG@c?3?2program?5files?2microsoft?5visua@ DB 'c:\program '
	DB	'files\microsoft visual studio .net 2003\vc7\atlmfc\include\at'
	DB	'lsimpstr.h', 00H				; `string'
; Function compile flags: /Odt /RTCcsu /ZI
CONST	ENDS
;	COMDAT ?Release@CStringData@ATL@@QAEXXZ
_TEXT	SEGMENT
_this$ = -8						; size = 4
?Release@CStringData@ATL@@QAEXXZ PROC NEAR		; ATL::CStringData::Release, COMDAT
; _this$ = ecx

; 92   : 	{

	push	ebp
	mov	ebp, esp
	sub	esp, 204				; 000000ccH
	push	ebx
	push	esi
	push	edi
	push	ecx
	lea	edi, DWORD PTR [ebp-204]
	mov	ecx, 51					; 00000033H
	mov	eax, -858993460				; ccccccccH
	rep stosd
	pop	ecx
	mov	DWORD PTR _this$[ebp], ecx

; 93   : 		ATLASSERT( nRefs != 0 );

	mov	eax, DWORD PTR _this$[ebp]
	cmp	DWORD PTR [eax+12], 0
	jne	SHORT $L93905
	push	OFFSET FLAT:??_C@_0L@OIIMFBNE@nRefs?5?$CB?$DN?50?$AA@
	push	0
	push	93					; 0000005dH
	push	OFFSET FLAT:??_C@_0FD@JDCNPMMG@c?3?2program?5files?2microsoft?5visua@
	push	2
	call	__CrtDbgReport
	add	esp, 20					; 00000014H
	cmp	eax, 1
	jne	SHORT $L93905
	int	3
$L93905:

; 94   : 
; 95   : 		if( _InterlockedDecrement( &nRefs ) <= 0 )

	mov	eax, DWORD PTR _this$[ebp]
	add	eax, 12					; 0000000cH
	or	ecx, -1
	lock	 xadd	 DWORD PTR [eax], ecx
	dec	ecx
	test	ecx, ecx
	jg	SHORT $L26116

; 96   : 		{
; 97   : 			pStringMgr->Free( this );

	mov	esi, esp
	mov	eax, DWORD PTR _this$[ebp]
	push	eax
	mov	ecx, DWORD PTR _this$[ebp]
	mov	edx, DWORD PTR [ecx]
	mov	eax, DWORD PTR _this$[ebp]
	mov	ecx, DWORD PTR [eax]
	mov	edx, DWORD PTR [edx]
	call	DWORD PTR [edx+4]
	cmp	esi, esp
	call	__RTC_CheckEsp
$L26116:

; 98   : 		}
; 99   : 	}

	pop	edi
	pop	esi
	pop	ebx
	add	esp, 204				; 000000ccH
	cmp	ebp, esp
	call	__RTC_CheckEsp
	mov	esp, ebp
	pop	ebp
	ret	0
?Release@CStringData@ATL@@QAEXXZ ENDP			; ATL::CStringData::Release
_TEXT	ENDS
PUBLIC	??0?$CSimpleStringT@G$0A@@ATL@@QAE@PAUIAtlStringMgr@1@@Z ; ATL::CSimpleStringT<unsigned short,0>::CSimpleStringT<unsigned short,0>
PUBLIC	?GetDefaultManager@?$StrTraitMFC@GV?$ChTraitsCRT@G@ATL@@@@SAPAUIAtlStringMgr@ATL@@XZ ; StrTraitMFC<unsigned short,ATL::ChTraitsCRT<unsigned short> >::GetDefaultManager
; Function compile flags: /Odt /RTCcsu /ZI
; File c:\program files\microsoft visual studio .net 2003\vc7\atlmfc\include\cstringt.h
;	COMDAT ??0?$CStringT@GV?$StrTraitMFC@GV?$ChTraitsCRT@G@ATL@@@@@ATL@@QAE@XZ
_TEXT	SEGMENT
_this$ = -8						; size = 4
??0?$CStringT@GV?$StrTraitMFC@GV?$ChTraitsCRT@G@ATL@@@@@ATL@@QAE@XZ PROC NEAR ; ATL::CStringT<unsigned short,StrTraitMFC<unsigned short,ATL::ChTraitsCRT<unsigned short> > >::CStringT<unsigned short,StrTraitMFC<unsigned short,ATL::ChTraitsCRT<unsigned short> > >, COMDAT
; _this$ = ecx

; 796  : 	{

	push	ebp
	mov	ebp, esp
	sub	esp, 204				; 000000ccH
	push	ebx
	push	esi
	push	edi
	push	ecx
	lea	edi, DWORD PTR [ebp-204]
	mov	ecx, 51					; 00000033H
	mov	eax, -858993460				; ccccccccH
	rep stosd
	pop	ecx
	mov	DWORD PTR _this$[ebp], ecx
	call	?GetDefaultManager@?$StrTraitMFC@GV?$ChTraitsCRT@G@ATL@@@@SAPAUIAtlStringMgr@ATL@@XZ ; StrTraitMFC<unsigned short,ATL::ChTraitsCRT<unsigned short> >::GetDefaultManager
	push	eax
	mov	ecx, DWORD PTR _this$[ebp]
	call	??0?$CSimpleStringT@G$0A@@ATL@@QAE@PAUIAtlStringMgr@1@@Z ; ATL::CSimpleStringT<unsigned short,0>::CSimpleStringT<unsigned short,0>

; 797  : 	}

	mov	eax, DWORD PTR _this$[ebp]
	pop	edi
	pop	esi
	pop	ebx
	add	esp, 204				; 000000ccH
	cmp	ebp, esp
	call	__RTC_CheckEsp
	mov	esp, ebp
	pop	ebp
	ret	0
??0?$CStringT@GV?$StrTraitMFC@GV?$ChTraitsCRT@G@ATL@@@@@ATL@@QAE@XZ ENDP ; ATL::CStringT<unsigned short,StrTraitMFC<unsigned short,ATL::ChTraitsCRT<unsigned short> > >::CStringT<unsigned short,StrTraitMFC<unsigned short,ATL::ChTraitsCRT<unsigned short> > >
_TEXT	ENDS
PUBLIC	??0?$CSimpleStringT@G$0A@@ATL@@QAE@ABV01@@Z	; ATL::CSimpleStringT<unsigned short,0>::CSimpleStringT<unsigned short,0>
; Function compile flags: /Odt /RTCcsu /ZI
;	COMDAT ??0?$CStringT@GV?$StrTraitMFC@GV?$ChTraitsCRT@G@ATL@@@@@ATL@@QAE@ABV01@@Z
_TEXT	SEGMENT
_this$ = -8						; size = 4
_strSrc$ = 8						; size = 4
??0?$CStringT@GV?$StrTraitMFC@GV?$ChTraitsCRT@G@ATL@@@@@ATL@@QAE@ABV01@@Z PROC NEAR ; ATL::CStringT<unsigned short,StrTraitMFC<unsigned short,ATL::ChTraitsCRT<unsigned short> > >::CStringT<unsigned short,StrTraitMFC<unsigned short,ATL::ChTraitsCRT<unsigned short> > >, COMDAT
; _this$ = ecx

; 814  : 	{

	push	ebp
	mov	ebp, esp
	sub	esp, 204				; 000000ccH
	push	ebx
	push	esi
	push	edi
	push	ecx
	lea	edi, DWORD PTR [ebp-204]
	mov	ecx, 51					; 00000033H
	mov	eax, -858993460				; ccccccccH
	rep stosd
	pop	ecx
	mov	DWORD PTR _this$[ebp], ecx
	mov	eax, DWORD PTR _strSrc$[ebp]
	push	eax
	mov	ecx, DWORD PTR _this$[ebp]
	call	??0?$CSimpleStringT@G$0A@@ATL@@QAE@ABV01@@Z ; ATL::CSimpleStringT<unsigned short,0>::CSimpleStringT<unsigned short,0>

; 815  : 	}

	mov	eax, DWORD PTR _this$[ebp]
	pop	edi
	pop	esi
	pop	ebx
	add	esp, 204				; 000000ccH
	cmp	ebp, esp
	call	__RTC_CheckEsp
	mov	esp, ebp
	pop	ebp
	ret	4
??0?$CStringT@GV?$StrTraitMFC@GV?$ChTraitsCRT@G@ATL@@@@@ATL@@QAE@ABV01@@Z ENDP ; ATL::CStringT<unsigned short,StrTraitMFC<unsigned short,ATL::ChTraitsCRT<unsigned short> > >::CStringT<unsigned short,StrTraitMFC<unsigned short,ATL::ChTraitsCRT<unsigned short> > >
_TEXT	ENDS
PUBLIC	?CheckImplicitLoad@?$CStringT@GV?$StrTraitMFC@GV?$ChTraitsCRT@G@ATL@@@@@ATL@@AAE_NPBX@Z ; ATL::CStringT<unsigned short,StrTraitMFC<unsigned short,ATL::ChTraitsCRT<unsigned short> > >::CheckImplicitLoad
PUBLIC	??1?$CSimpleStringT@G$0A@@ATL@@QAE@XZ		; ATL::CSimpleStringT<unsigned short,0>::~CSimpleStringT<unsigned short,0>
;	COMDAT xdata$x
xdata$x	SEGMENT
__unwindtable$??0?$CStringT@GV?$StrTraitMFC@GV?$ChTraitsCRT@G@ATL@@@@@ATL@@QAE@PBD@Z DD 0ffffffffH
	DD	FLAT:__unwindfunclet$??0?$CStringT@GV?$StrTraitMFC@GV?$ChTraitsCRT@G@ATL@@@@@ATL@@QAE@PBD@Z$0
__ehfuncinfo$??0?$CStringT@GV?$StrTraitMFC@GV?$ChTraitsCRT@G@ATL@@@@@ATL@@QAE@PBD@Z DD 019930520H
	DD	01H
	DD	FLAT:__unwindtable$??0?$CStringT@GV?$StrTraitMFC@GV?$ChTraitsCRT@G@ATL@@@@@ATL@@QAE@PBD@Z
	DD	2 DUP(00H)
	DD	2 DUP(00H)
; Function compile flags: /Odt /RTCcsu /ZI
xdata$x	ENDS
;	COMDAT ??0?$CStringT@GV?$StrTraitMFC@GV?$ChTraitsCRT@G@ATL@@@@@ATL@@QAE@PBD@Z
_TEXT	SEGMENT
_this$ = -20						; size = 4
__$EHRec$ = -12						; size = 12
_pszSrc$ = 8						; size = 4
??0?$CStringT@GV?$StrTraitMFC@GV?$ChTraitsCRT@G@ATL@@@@@ATL@@QAE@PBD@Z PROC NEAR ; ATL::CStringT<unsigned short,StrTraitMFC<unsigned short,ATL::ChTraitsCRT<unsigned short> > >::CStringT<unsigned short,StrTraitMFC<unsigned short,ATL::ChTraitsCRT<unsigned short> > >, COMDAT
; _this$ = ecx

; 850  : 	{

	push	ebp
	mov	ebp, esp
	push	-1
	push	__ehhandler$??0?$CStringT@GV?$StrTraitMFC@GV?$ChTraitsCRT@G@ATL@@@@@ATL@@QAE@PBD@Z
	mov	eax, DWORD PTR fs:__except_list
	push	eax
	mov	DWORD PTR fs:__except_list, esp
	sub	esp, 204				; 000000ccH
	push	ebx
	push	esi
	push	edi
	push	ecx
	lea	edi, DWORD PTR [ebp-216]
	mov	ecx, 51					; 00000033H
	mov	eax, -858993460				; ccccccccH
	rep stosd
	pop	ecx
	mov	DWORD PTR _this$[ebp], ecx
	call	?GetDefaultManager@?$StrTraitMFC@GV?$ChTraitsCRT@G@ATL@@@@SAPAUIAtlStringMgr@ATL@@XZ ; StrTraitMFC<unsigned short,ATL::ChTraitsCRT<unsigned short> >::GetDefaultManager
	push	eax
	mov	ecx, DWORD PTR _this$[ebp]
	call	??0?$CSimpleStringT@G$0A@@ATL@@QAE@PAUIAtlStringMgr@1@@Z ; ATL::CSimpleStringT<unsigned short,0>::CSimpleStringT<unsigned short,0>
	mov	DWORD PTR __$EHRec$[ebp+8], 0

; 851  : 		if( !CheckImplicitLoad( pszSrc ) )

	mov	eax, DWORD PTR _pszSrc$[ebp]
	push	eax
	mov	ecx, DWORD PTR _this$[ebp]
	call	?CheckImplicitLoad@?$CStringT@GV?$StrTraitMFC@GV?$ChTraitsCRT@G@ATL@@@@@ATL@@AAE_NPBX@Z ; ATL::CStringT<unsigned short,StrTraitMFC<unsigned short,ATL::ChTraitsCRT<unsigned short> > >::CheckImplicitLoad
	movzx	ecx, al
	test	ecx, ecx
	jne	SHORT $L92626

; 852  : 		{
; 853  : 			*this = pszSrc;

	mov	eax, DWORD PTR _pszSrc$[ebp]
	push	eax
	mov	ecx, DWORD PTR _this$[ebp]
	call	??4?$CStringT@GV?$StrTraitMFC@GV?$ChTraitsCRT@G@ATL@@@@@ATL@@QAEAAV01@PBD@Z ; ATL::CStringT<unsigned short,StrTraitMFC<unsigned short,ATL::ChTraitsCRT<unsigned short> > >::operator=
$L92626:

; 854  : 		}
; 855  : 	}

	mov	DWORD PTR __$EHRec$[ebp+8], -1
	mov	eax, DWORD PTR _this$[ebp]
	mov	ecx, DWORD PTR __$EHRec$[ebp]
	mov	DWORD PTR fs:__except_list, ecx
	pop	edi
	pop	esi
	pop	ebx
	add	esp, 216				; 000000d8H
	cmp	ebp, esp
	call	__RTC_CheckEsp
	mov	esp, ebp
	pop	ebp
	ret	4
_TEXT	ENDS
;	COMDAT text$x
text$x	SEGMENT
__unwindfunclet$??0?$CStringT@GV?$StrTraitMFC@GV?$ChTraitsCRT@G@ATL@@@@@ATL@@QAE@PBD@Z$0:
	mov	ecx, DWORD PTR _this$[ebp]
	jmp	??1?$CSimpleStringT@G$0A@@ATL@@QAE@XZ	; ATL::CSimpleStringT<unsigned short,0>::~CSimpleStringT<unsigned short,0>
__ehhandler$??0?$CStringT@GV?$StrTraitMFC@GV?$ChTraitsCRT@G@ATL@@@@@ATL@@QAE@PBD@Z:
	mov	eax, OFFSET FLAT:__ehfuncinfo$??0?$CStringT@GV?$StrTraitMFC@GV?$ChTraitsCRT@G@ATL@@@@@ATL@@QAE@PBD@Z
	jmp	___CxxFrameHandler
text$x	ENDS
??0?$CStringT@GV?$StrTraitMFC@GV?$ChTraitsCRT@G@ATL@@@@@ATL@@QAE@PBD@Z ENDP ; ATL::CStringT<unsigned short,StrTraitMFC<unsigned short,ATL::ChTraitsCRT<unsigned short> > >::CStringT<unsigned short,StrTraitMFC<unsigned short,ATL::ChTraitsCRT<unsigned short> > >
; Function compile flags: /Odt /RTCcsu /ZI
;	COMDAT ??1?$CStringT@GV?$StrTraitMFC@GV?$ChTraitsCRT@G@ATL@@@@@ATL@@QAE@XZ
_TEXT	SEGMENT
_this$ = -8						; size = 4
??1?$CStringT@GV?$StrTraitMFC@GV?$ChTraitsCRT@G@ATL@@@@@ATL@@QAE@XZ PROC NEAR ; ATL::CStringT<unsigned short,StrTraitMFC<unsigned short,ATL::ChTraitsCRT<unsigned short> > >::~CStringT<unsigned short,StrTraitMFC<unsigned short,ATL::ChTraitsCRT<unsigned short> > >, COMDAT
; _this$ = ecx

; 962  : 	{

	push	ebp
	mov	ebp, esp
	sub	esp, 204				; 000000ccH
	push	ebx
	push	esi
	push	edi
	push	ecx
	lea	edi, DWORD PTR [ebp-204]
	mov	ecx, 51					; 00000033H
	mov	eax, -858993460				; ccccccccH
	rep stosd
	pop	ecx
	mov	DWORD PTR _this$[ebp], ecx

; 963  : 	}

	mov	ecx, DWORD PTR _this$[ebp]
	call	??1?$CSimpleStringT@G$0A@@ATL@@QAE@XZ	; ATL::CSimpleStringT<unsigned short,0>::~CSimpleStringT<unsigned short,0>
	pop	edi
	pop	esi
	pop	ebx
	add	esp, 204				; 000000ccH
	cmp	ebp, esp
	call	__RTC_CheckEsp
	mov	esp, ebp
	pop	ebp
	ret	0
??1?$CStringT@GV?$StrTraitMFC@GV?$ChTraitsCRT@G@ATL@@@@@ATL@@QAE@XZ ENDP ; ATL::CStringT<unsigned short,StrTraitMFC<unsigned short,ATL::ChTraitsCRT<unsigned short> > >::~CStringT<unsigned short,StrTraitMFC<unsigned short,ATL::ChTraitsCRT<unsigned short> > >
; Function compile flags: /Odt /RTCcsu /ZI
; File c:\program files\microsoft visual studio .net 2003\vc7\atlmfc\include\atlsimpstr.h
_TEXT	ENDS
;	COMDAT ??B?$CSimpleStringT@G$0A@@ATL@@QBEPBGXZ
_TEXT	SEGMENT
_this$ = -8						; size = 4
??B?$CSimpleStringT@G$0A@@ATL@@QBEPBGXZ PROC NEAR	; ATL::CSimpleStringT<unsigned short,0>::operator unsigned short const *, COMDAT
; _this$ = ecx

; 378  : 	{

	push	ebp
	mov	ebp, esp
	sub	esp, 204				; 000000ccH
	push	ebx
	push	esi
	push	edi
	push	ecx
	lea	edi, DWORD PTR [ebp-204]
	mov	ecx, 51					; 00000033H
	mov	eax, -858993460				; ccccccccH
	rep stosd
	pop	ecx
	mov	DWORD PTR _this$[ebp], ecx

; 379  : 		return( m_pszData );

	mov	eax, DWORD PTR _this$[ebp]
	mov	eax, DWORD PTR [eax]

; 380  : 	}

	pop	edi
	pop	esi
	pop	ebx
	mov	esp, ebp
	pop	ebp
	ret	0
??B?$CSimpleStringT@G$0A@@ATL@@QBEPBGXZ ENDP		; ATL::CSimpleStringT<unsigned short,0>::operator unsigned short const *
; Function compile flags: /Odt /RTCcsu /ZI
_TEXT	ENDS
;	COMDAT ?GetLength@?$CSimpleStringT@G$0A@@ATL@@QBEHXZ
_TEXT	SEGMENT
_this$ = -8						; size = 4
?GetLength@?$CSimpleStringT@G$0A@@ATL@@QBEHXZ PROC NEAR	; ATL::CSimpleStringT<unsigned short,0>::GetLength, COMDAT
; _this$ = ecx

; 500  : 	{

	push	ebp
	mov	ebp, esp
	sub	esp, 204				; 000000ccH
	push	ebx
	push	esi
	push	edi
	push	ecx
	lea	edi, DWORD PTR [ebp-204]
	mov	ecx, 51					; 00000033H
	mov	eax, -858993460				; ccccccccH
	rep stosd
	pop	ecx
	mov	DWORD PTR _this$[ebp], ecx

; 501  : 		return( GetData()->nDataLength );

	mov	ecx, DWORD PTR _this$[ebp]
	call	?GetData@?$CSimpleStringT@G$0A@@ATL@@ABEPAUCStringData@2@XZ ; ATL::CSimpleStringT<unsigned short,0>::GetData
	mov	eax, DWORD PTR [eax+4]

; 502  : 	}

	pop	edi
	pop	esi
	pop	ebx
	add	esp, 204				; 000000ccH
	cmp	ebp, esp
	call	__RTC_CheckEsp
	mov	esp, ebp
	pop	ebp
	ret	0
?GetLength@?$CSimpleStringT@G$0A@@ATL@@QBEHXZ ENDP	; ATL::CSimpleStringT<unsigned short,0>::GetLength
_TEXT	ENDS
PUBLIC	?Empty@?$CSimpleStringT@G$0A@@ATL@@QAEXXZ	; ATL::CSimpleStringT<unsigned short,0>::Empty
PUBLIC	?GetBuffer@?$CSimpleStringT@G$0A@@ATL@@QAEPAGH@Z ; ATL::CSimpleStringT<unsigned short,0>::GetBuffer
PUBLIC	?ReleaseBufferSetLength@?$CSimpleStringT@G$0A@@ATL@@QAEXH@Z ; ATL::CSimpleStringT<unsigned short,0>::ReleaseBufferSetLength
PUBLIC	?GetBaseTypeLength@?$ChTraitsCRT@G@ATL@@SAHPBD@Z ; ATL::ChTraitsCRT<unsigned short>::GetBaseTypeLength
PUBLIC	?ConvertToBaseType@?$ChTraitsCRT@G@ATL@@SAXPAGHPBDH@Z ; ATL::ChTraitsCRT<unsigned short>::ConvertToBaseType
; Function compile flags: /Odt /RTCcsu /ZI
; File c:\program files\microsoft visual studio .net 2003\vc7\atlmfc\include\cstringt.h
;	COMDAT ??4?$CStringT@GV?$StrTraitMFC@GV?$ChTraitsCRT@G@ATL@@@@@ATL@@QAEAAV01@PBD@Z
_TEXT	SEGMENT
tv67 = -232						; size = 4
_pszBuffer$92707 = -32					; size = 4
_nDestLength$ = -20					; size = 4
_this$ = -8						; size = 4
_pszSrc$ = 8						; size = 4
??4?$CStringT@GV?$StrTraitMFC@GV?$ChTraitsCRT@G@ATL@@@@@ATL@@QAEAAV01@PBD@Z PROC NEAR ; ATL::CStringT<unsigned short,StrTraitMFC<unsigned short,ATL::ChTraitsCRT<unsigned short> > >::operator=, COMDAT
; _this$ = ecx

; 989  : 	{

	push	ebp
	mov	ebp, esp
	sub	esp, 232				; 000000e8H
	push	ebx
	push	esi
	push	edi
	push	ecx
	lea	edi, DWORD PTR [ebp-232]
	mov	ecx, 58					; 0000003aH
	mov	eax, -858993460				; ccccccccH
	rep stosd
	pop	ecx
	mov	DWORD PTR _this$[ebp], ecx

; 990  : 		// nDestLength is in XCHARs
; 991  : 		int nDestLength = (pszSrc != NULL) ? StringTraits::GetBaseTypeLength( pszSrc ) : 0;

	cmp	DWORD PTR _pszSrc$[ebp], 0
	je	SHORT $L93928
	mov	eax, DWORD PTR _pszSrc$[ebp]
	push	eax
	call	?GetBaseTypeLength@?$ChTraitsCRT@G@ATL@@SAHPBD@Z ; ATL::ChTraitsCRT<unsigned short>::GetBaseTypeLength
	add	esp, 4
	mov	DWORD PTR tv67[ebp], eax
	jmp	SHORT $L93929
$L93928:
	mov	DWORD PTR tv67[ebp], 0
$L93929:
	mov	ecx, DWORD PTR tv67[ebp]
	mov	DWORD PTR _nDestLength$[ebp], ecx

; 992  : 		if( nDestLength > 0 )

	cmp	DWORD PTR _nDestLength$[ebp], 0
	jle	SHORT $L92706

; 993  : 		{
; 994  : 			PXSTR pszBuffer = GetBuffer( nDestLength );

	mov	eax, DWORD PTR _nDestLength$[ebp]
	push	eax
	mov	ecx, DWORD PTR _this$[ebp]
	call	?GetBuffer@?$CSimpleStringT@G$0A@@ATL@@QAEPAGH@Z ; ATL::CSimpleStringT<unsigned short,0>::GetBuffer
	mov	DWORD PTR _pszBuffer$92707[ebp], eax

; 995  : 			StringTraits::ConvertToBaseType( pszBuffer, nDestLength, pszSrc );

	push	-1
	mov	eax, DWORD PTR _pszSrc$[ebp]
	push	eax
	mov	ecx, DWORD PTR _nDestLength$[ebp]
	push	ecx
	mov	edx, DWORD PTR _pszBuffer$92707[ebp]
	push	edx
	call	?ConvertToBaseType@?$ChTraitsCRT@G@ATL@@SAXPAGHPBDH@Z ; ATL::ChTraitsCRT<unsigned short>::ConvertToBaseType
	add	esp, 16					; 00000010H

; 996  : 			ReleaseBufferSetLength( nDestLength );

	mov	eax, DWORD PTR _nDestLength$[ebp]
	push	eax
	mov	ecx, DWORD PTR _this$[ebp]
	call	?ReleaseBufferSetLength@?$CSimpleStringT@G$0A@@ATL@@QAEXH@Z ; ATL::CSimpleStringT<unsigned short,0>::ReleaseBufferSetLength

; 997  : 		}
; 998  : 		else

	jmp	SHORT $L92708
$L92706:

; 999  : 		{
; 1000 : 			Empty();

	mov	ecx, DWORD PTR _this$[ebp]
	call	?Empty@?$CSimpleStringT@G$0A@@ATL@@QAEXXZ ; ATL::CSimpleStringT<unsigned short,0>::Empty
$L92708:

; 1001 : 		}
; 1002 : 
; 1003 : 		return( *this );

	mov	eax, DWORD PTR _this$[ebp]

; 1004 : 	}

	pop	edi
	pop	esi
	pop	ebx
	add	esp, 232				; 000000e8H
	cmp	ebp, esp
	call	__RTC_CheckEsp
	mov	esp, ebp
	pop	ebp
	ret	4
??4?$CStringT@GV?$StrTraitMFC@GV?$ChTraitsCRT@G@ATL@@@@@ATL@@QAEAAV01@PBD@Z ENDP ; ATL::CStringT<unsigned short,StrTraitMFC<unsigned short,ATL::ChTraitsCRT<unsigned short> > >::operator=
_TEXT	ENDS
PUBLIC	?_AtlGetConversionACP@ATL@@YGIXZ		; ATL::_AtlGetConversionACP
EXTRN	__imp__MultiByteToWideChar@24:NEAR
; Function compile flags: /Odt /RTCcsu /ZI
;	COMDAT ?GetBaseTypeLength@?$ChTraitsCRT@G@ATL@@SAHPBD@Z
_TEXT	SEGMENT
_pszSrc$ = 8						; size = 4
?GetBaseTypeLength@?$ChTraitsCRT@G@ATL@@SAHPBD@Z PROC NEAR ; ATL::ChTraitsCRT<unsigned short>::GetBaseTypeLength, COMDAT

; 653  : 	{

	push	ebp
	mov	ebp, esp
	sub	esp, 192				; 000000c0H
	push	ebx
	push	esi
	push	edi
	lea	edi, DWORD PTR [ebp-192]
	mov	ecx, 48					; 00000030H
	mov	eax, -858993460				; ccccccccH
	rep stosd

; 654  : 		// Returns required buffer size in wchar_ts
; 655  : 		return ::MultiByteToWideChar( _AtlGetConversionACP(), 0, pszSrc, -1, NULL, 0 )-1;

	mov	esi, esp
	push	0
	push	0
	push	-1
	mov	eax, DWORD PTR _pszSrc$[ebp]
	push	eax
	push	0
	call	?_AtlGetConversionACP@ATL@@YGIXZ	; ATL::_AtlGetConversionACP
	push	eax
	call	DWORD PTR __imp__MultiByteToWideChar@24
	cmp	esi, esp
	call	__RTC_CheckEsp
	sub	eax, 1

; 656  : 	}

	pop	edi
	pop	esi
	pop	ebx
	add	esp, 192				; 000000c0H
	cmp	ebp, esp
	call	__RTC_CheckEsp
	mov	esp, ebp
	pop	ebp
	ret	0
?GetBaseTypeLength@?$ChTraitsCRT@G@ATL@@SAHPBD@Z ENDP	; ATL::ChTraitsCRT<unsigned short>::GetBaseTypeLength
; Function compile flags: /Odt /RTCcsu /ZI
; File c:\program files\microsoft visual studio .net 2003\vc7\atlmfc\include\atlconv.h
_TEXT	ENDS
;	COMDAT ?_AtlGetConversionACP@ATL@@YGIXZ
_TEXT	SEGMENT
?_AtlGetConversionACP@ATL@@YGIXZ PROC NEAR		; ATL::_AtlGetConversionACP, COMDAT

; 157  : {

	push	ebp
	mov	ebp, esp
	sub	esp, 192				; 000000c0H
	push	ebx
	push	esi
	push	edi
	lea	edi, DWORD PTR [ebp-192]
	mov	ecx, 48					; 00000030H
	mov	eax, -858993460				; ccccccccH
	rep stosd

; 158  : 	return( g_pfnGetThreadACP() );

	mov	esi, esp
	call	DWORD PTR ?g_pfnGetThreadACP@ATL@@3P6GIXZA ; ATL::g_pfnGetThreadACP
	cmp	esi, esp
	call	__RTC_CheckEsp

; 159  : }

	pop	edi
	pop	esi
	pop	ebx
	add	esp, 192				; 000000c0H
	cmp	ebp, esp
	call	__RTC_CheckEsp
	mov	esp, ebp
	pop	ebp
	ret	0
?_AtlGetConversionACP@ATL@@YGIXZ ENDP			; ATL::_AtlGetConversionACP
; Function compile flags: /Odt /RTCcsu /ZI
; File c:\program files\microsoft visual studio .net 2003\vc7\atlmfc\include\cstringt.h
_TEXT	ENDS
;	COMDAT ?ConvertToBaseType@?$ChTraitsCRT@G@ATL@@SAXPAGHPBDH@Z
_TEXT	SEGMENT
_pszDest$ = 8						; size = 4
_nDestLength$ = 12					; size = 4
_pszSrc$ = 16						; size = 4
_nSrcLength$ = 20					; size = 4
?ConvertToBaseType@?$ChTraitsCRT@G@ATL@@SAXPAGHPBDH@Z PROC NEAR ; ATL::ChTraitsCRT<unsigned short>::ConvertToBaseType, COMDAT

; 679  : 	{

	push	ebp
	mov	ebp, esp
	sub	esp, 192				; 000000c0H
	push	ebx
	push	esi
	push	edi
	lea	edi, DWORD PTR [ebp-192]
	mov	ecx, 48					; 00000030H
	mov	eax, -858993460				; ccccccccH
	rep stosd

; 680  : 		// nLen is in wchar_ts
; 681  : 		::MultiByteToWideChar( _AtlGetConversionACP(), 0, pszSrc, nSrcLength, pszDest, nDestLength );

	mov	esi, esp
	mov	eax, DWORD PTR _nDestLength$[ebp]
	push	eax
	mov	ecx, DWORD PTR _pszDest$[ebp]
	push	ecx
	mov	edx, DWORD PTR _nSrcLength$[ebp]
	push	edx
	mov	eax, DWORD PTR _pszSrc$[ebp]
	push	eax
	push	0
	call	?_AtlGetConversionACP@ATL@@YGIXZ	; ATL::_AtlGetConversionACP
	push	eax
	call	DWORD PTR __imp__MultiByteToWideChar@24
	cmp	esi, esp
	call	__RTC_CheckEsp

; 682  : 	}

	pop	edi
	pop	esi
	pop	ebx
	add	esp, 192				; 000000c0H
	cmp	ebp, esp
	call	__RTC_CheckEsp
	mov	esp, ebp
	pop	ebp
	ret	0
?ConvertToBaseType@?$ChTraitsCRT@G@ATL@@SAXPAGHPBDH@Z ENDP ; ATL::ChTraitsCRT<unsigned short>::ConvertToBaseType
_TEXT	ENDS
PUBLIC	?LoadStringW@?$CStringT@GV?$StrTraitMFC@GV?$ChTraitsCRT@G@ATL@@@@@ATL@@QAEHI@Z ; ATL::CStringT<unsigned short,StrTraitMFC<unsigned short,ATL::ChTraitsCRT<unsigned short> > >::LoadStringW
PUBLIC	??BCTraceCategory@ATL@@QBEKXZ			; ATL::CTraceCategory::operator unsigned long
PUBLIC	??0CTraceFileAndLineInfo@ATL@@QAE@PBDH@Z	; ATL::CTraceFileAndLineInfo::CTraceFileAndLineInfo
PUBLIC	??RCTraceFileAndLineInfo@ATL@@QBAXKIPBGZZ	; ATL::CTraceFileAndLineInfo::operator()
PUBLIC	??_C@_1FC@BMOLDHIO@?$AAW?$AAa?$AAr?$AAn?$AAi?$AAn?$AAg?$AA?3?$AA?5?$AAi?$AAm?$AAp?$AAl?$AAi?$AAc?$AAi?$AAt?$AA?5?$AAL?$AAo@ ; `string'
PUBLIC	??_C@_0FB@BCKJDECD@c?3?2program?5files?2microsoft?5visua@ ; `string'
EXTRN	?atlTraceString@ATL@@3VCTraceCategory@1@A:DWORD	; ATL::atlTraceString
;	COMDAT ??_C@_1FC@BMOLDHIO@?$AAW?$AAa?$AAr?$AAn?$AAi?$AAn?$AAg?$AA?3?$AA?5?$AAi?$AAm?$AAp?$AAl?$AAi?$AAc?$AAi?$AAt?$AA?5?$AAL?$AAo@
CONST	SEGMENT
??_C@_1FC@BMOLDHIO@?$AAW?$AAa?$AAr?$AAn?$AAi?$AAn?$AAg?$AA?3?$AA?5?$AAi?$AAm?$AAp?$AAl?$AAi?$AAc?$AAi?$AAt?$AA?5?$AAL?$AAo@ DB 'W'
	DB	00H, 'a', 00H, 'r', 00H, 'n', 00H, 'i', 00H, 'n', 00H, 'g', 00H
	DB	':', 00H, ' ', 00H, 'i', 00H, 'm', 00H, 'p', 00H, 'l', 00H, 'i'
	DB	00H, 'c', 00H, 'i', 00H, 't', 00H, ' ', 00H, 'L', 00H, 'o', 00H
	DB	'a', 00H, 'd', 00H, 'S', 00H, 't', 00H, 'r', 00H, 'i', 00H, 'n'
	DB	00H, 'g', 00H, '(', 00H, '%', 00H, 'u', 00H, ')', 00H, ' ', 00H
	DB	'f', 00H, 'a', 00H, 'i', 00H, 'l', 00H, 'e', 00H, 'd', 00H, 0aH
	DB	00H, 00H, 00H				; `string'
CONST	ENDS
;	COMDAT ??_C@_0FB@BCKJDECD@c?3?2program?5files?2microsoft?5visua@
CONST	SEGMENT
??_C@_0FB@BCKJDECD@c?3?2program?5files?2microsoft?5visua@ DB 'c:\program '
	DB	'files\microsoft visual studio .net 2003\vc7\atlmfc\include\cs'
	DB	'tringt.h', 00H				; `string'
; Function compile flags: /Odt /RTCcsu /ZI
CONST	ENDS
;	COMDAT ?CheckImplicitLoad@?$CStringT@GV?$StrTraitMFC@GV?$ChTraitsCRT@G@ATL@@@@@ATL@@AAE_NPBX@Z
_TEXT	SEGMENT
$T93938 = -240						; size = 8
_nID$92726 = -32					; size = 4
_bRet$ = -17						; size = 1
_this$ = -8						; size = 4
_pv$ = 8						; size = 4
?CheckImplicitLoad@?$CStringT@GV?$StrTraitMFC@GV?$ChTraitsCRT@G@ATL@@@@@ATL@@AAE_NPBX@Z PROC NEAR ; ATL::CStringT<unsigned short,StrTraitMFC<unsigned short,ATL::ChTraitsCRT<unsigned short> > >::CheckImplicitLoad, COMDAT
; _this$ = ecx

; 2229 : 	{

	push	ebp
	mov	ebp, esp
	sub	esp, 244				; 000000f4H
	push	ebx
	push	esi
	push	edi
	push	ecx
	lea	edi, DWORD PTR [ebp-244]
	mov	ecx, 61					; 0000003dH
	mov	eax, -858993460				; ccccccccH
	rep stosd
	pop	ecx
	mov	DWORD PTR _this$[ebp], ecx

; 2230 : 		bool bRet = false;

	mov	BYTE PTR _bRet$[ebp], 0

; 2231 : 
; 2232 : 		if( (pv != NULL) && IS_INTRESOURCE( pv ) )

	cmp	DWORD PTR _pv$[ebp], 0
	je	SHORT $L92725
	mov	eax, DWORD PTR _pv$[ebp]
	shr	eax, 16					; 00000010H
	test	eax, eax
	jne	SHORT $L92725

; 2233 : 		{
; 2234 : 			UINT nID = LOWORD( reinterpret_cast< DWORD_PTR >( pv ) );

	mov	ecx, DWORD PTR _pv$[ebp]
	and	ecx, 65535				; 0000ffffH
	call	@_RTC_Check_4_to_2@4
	movzx	eax, ax
	mov	DWORD PTR _nID$92726[ebp], eax

; 2235 : 			if( !LoadString( nID ) )

	mov	eax, DWORD PTR _nID$92726[ebp]
	push	eax
	mov	ecx, DWORD PTR _this$[ebp]
	call	?LoadStringW@?$CStringT@GV?$StrTraitMFC@GV?$ChTraitsCRT@G@ATL@@@@@ATL@@QAEHI@Z ; ATL::CStringT<unsigned short,StrTraitMFC<unsigned short,ATL::ChTraitsCRT<unsigned short> > >::LoadStringW
	test	eax, eax
	jne	SHORT $L92730

; 2236 : 			{
; 2237 : 				ATLTRACE( atlTraceString, 2, _T( "Warning: implicit LoadString(%u) failed\n" ), nID );

	mov	eax, DWORD PTR _nID$92726[ebp]
	push	eax
	push	OFFSET FLAT:??_C@_1FC@BMOLDHIO@?$AAW?$AAa?$AAr?$AAn?$AAi?$AAn?$AAg?$AA?3?$AA?5?$AAi?$AAm?$AAp?$AAl?$AAi?$AAc?$AAi?$AAt?$AA?5?$AAL?$AAo@
	push	2
	mov	ecx, OFFSET FLAT:?atlTraceString@ATL@@3VCTraceCategory@1@A ; ATL::atlTraceString
	call	??BCTraceCategory@ATL@@QBEKXZ		; ATL::CTraceCategory::operator unsigned long
	push	eax
	push	2237					; 000008bdH
	push	OFFSET FLAT:??_C@_0FB@BCKJDECD@c?3?2program?5files?2microsoft?5visua@
	lea	ecx, DWORD PTR $T93938[ebp]
	call	??0CTraceFileAndLineInfo@ATL@@QAE@PBDH@Z ; ATL::CTraceFileAndLineInfo::CTraceFileAndLineInfo
	push	eax
	call	??RCTraceFileAndLineInfo@ATL@@QBAXKIPBGZZ ; ATL::CTraceFileAndLineInfo::operator()
	add	esp, 20					; 00000014H
$L92730:

; 2238 : 			}
; 2239 : 			bRet = true;

	mov	BYTE PTR _bRet$[ebp], 1
$L92725:

; 2240 : 		}
; 2241 : 
; 2242 : 		return( bRet );

	mov	al, BYTE PTR _bRet$[ebp]

; 2243 : 	}

	pop	edi
	pop	esi
	pop	ebx
	add	esp, 244				; 000000f4H
	cmp	ebp, esp
	call	__RTC_CheckEsp
	mov	esp, ebp
	pop	ebp
	ret	4
?CheckImplicitLoad@?$CStringT@GV?$StrTraitMFC@GV?$ChTraitsCRT@G@ATL@@@@@ATL@@AAE_NPBX@Z ENDP ; ATL::CStringT<unsigned short,StrTraitMFC<unsigned short,ATL::ChTraitsCRT<unsigned short> > >::CheckImplicitLoad
; Function compile flags: /Odt /RTCcsu /ZI
; File c:\program files\microsoft visual studio .net 2003\vc7\atlmfc\include\atltrace.h
_TEXT	ENDS
;	COMDAT ??0CTraceFileAndLineInfo@ATL@@QAE@PBDH@Z
_TEXT	SEGMENT
_this$ = -8						; size = 4
_pszFileName$ = 8					; size = 4
_nLineNo$ = 12						; size = 4
??0CTraceFileAndLineInfo@ATL@@QAE@PBDH@Z PROC NEAR	; ATL::CTraceFileAndLineInfo::CTraceFileAndLineInfo, COMDAT
; _this$ = ecx

; 158  : 	{}

	push	ebp
	mov	ebp, esp
	sub	esp, 204				; 000000ccH
	push	ebx
	push	esi
	push	edi
	push	ecx
	lea	edi, DWORD PTR [ebp-204]
	mov	ecx, 51					; 00000033H
	mov	eax, -858993460				; ccccccccH
	rep stosd
	pop	ecx
	mov	DWORD PTR _this$[ebp], ecx
	mov	eax, DWORD PTR _this$[ebp]
	mov	ecx, DWORD PTR _pszFileName$[ebp]
	mov	DWORD PTR [eax], ecx
	mov	eax, DWORD PTR _this$[ebp]
	mov	ecx, DWORD PTR _nLineNo$[ebp]
	mov	DWORD PTR [eax+4], ecx
	mov	eax, DWORD PTR _this$[ebp]
	pop	edi
	pop	esi
	pop	ebx
	mov	esp, ebp
	pop	ebp
	ret	8
??0CTraceFileAndLineInfo@ATL@@QAE@PBDH@Z ENDP		; ATL::CTraceFileAndLineInfo::CTraceFileAndLineInfo
_TEXT	ENDS
PUBLIC	?TraceV@CTrace@ATL@@QBAXPBDHKIPBGPAD@Z		; ATL::CTrace::TraceV
EXTRN	?s_trace@CTrace@ATL@@2V12@A:QWORD		; ATL::CTrace::s_trace
; Function compile flags: /Odt /RTCcsu /ZI
;	COMDAT ??RCTraceFileAndLineInfo@ATL@@QBAXKIPBGZZ
_TEXT	SEGMENT
_ptr$ = -8						; size = 4
_this$ = 8						; size = 4
_dwCategory$ = 12					; size = 4
_nLevel$ = 16						; size = 4
_pszFmt$ = 20						; size = 4
??RCTraceFileAndLineInfo@ATL@@QBAXKIPBGZZ PROC NEAR	; ATL::CTraceFileAndLineInfo::operator(), COMDAT

; 167  : 	{

	push	ebp
	mov	ebp, esp
	sub	esp, 204				; 000000ccH
	push	ebx
	push	esi
	push	edi
	lea	edi, DWORD PTR [ebp-204]
	mov	ecx, 51					; 00000033H
	mov	eax, -858993460				; ccccccccH
	rep stosd

; 168  : 		va_list ptr; va_start(ptr, pszFmt);

	lea	eax, DWORD PTR _pszFmt$[ebp+4]
	mov	DWORD PTR _ptr$[ebp], eax

; 169  : 		ATL::CTrace::s_trace.TraceV(m_pszFileName, m_nLineNo, dwCategory, nLevel, pszFmt, ptr);

	mov	eax, DWORD PTR _ptr$[ebp]
	push	eax
	mov	ecx, DWORD PTR _pszFmt$[ebp]
	push	ecx
	mov	edx, DWORD PTR _nLevel$[ebp]
	push	edx
	mov	eax, DWORD PTR _dwCategory$[ebp]
	push	eax
	mov	ecx, DWORD PTR _this$[ebp]
	mov	edx, DWORD PTR [ecx+4]
	push	edx
	mov	eax, DWORD PTR _this$[ebp]
	mov	ecx, DWORD PTR [eax]
	push	ecx
	push	OFFSET FLAT:?s_trace@CTrace@ATL@@2V12@A
	call	?TraceV@CTrace@ATL@@QBAXPBDHKIPBGPAD@Z	; ATL::CTrace::TraceV
	add	esp, 28					; 0000001cH

; 170  : 		va_end(ptr);

	mov	DWORD PTR _ptr$[ebp], 0

; 171  : 	}

	pop	edi
	pop	esi
	pop	ebx
	add	esp, 204				; 000000ccH
	cmp	ebp, esp
	call	__RTC_CheckEsp
	mov	esp, ebp
	pop	ebp
	ret	0
??RCTraceFileAndLineInfo@ATL@@QBAXKIPBGZZ ENDP		; ATL::CTraceFileAndLineInfo::operator()
_TEXT	ENDS
EXTRN	_AtlTraceVU:NEAR
; Function compile flags: /Odt /RTCcsu /ZI
;	COMDAT ?TraceV@CTrace@ATL@@QBAXPBDHKIPBGPAD@Z
_TEXT	SEGMENT
_this$ = 8						; size = 4
_pszFileName$ = 12					; size = 4
_nLine$ = 16						; size = 4
_dwCategory$ = 20					; size = 4
_nLevel$ = 24						; size = 4
_pszFmt$ = 28						; size = 4
_args$ = 32						; size = 4
?TraceV@CTrace@ATL@@QBAXPBDHKIPBGPAD@Z PROC NEAR	; ATL::CTrace::TraceV, COMDAT

; 126  : 	{

	push	ebp
	mov	ebp, esp
	sub	esp, 192				; 000000c0H
	push	ebx
	push	esi
	push	edi
	lea	edi, DWORD PTR [ebp-192]
	mov	ecx, 48					; 00000030H
	mov	eax, -858993460				; ccccccccH
	rep stosd

; 127  : 		AtlTraceVU(m_dwModule, pszFileName, nLine, dwCategory, nLevel, pszFmt, args);

	mov	eax, DWORD PTR _args$[ebp]
	push	eax
	mov	ecx, DWORD PTR _pszFmt$[ebp]
	push	ecx
	mov	edx, DWORD PTR _nLevel$[ebp]
	push	edx
	mov	eax, DWORD PTR _dwCategory$[ebp]
	push	eax
	mov	ecx, DWORD PTR _nLine$[ebp]
	push	ecx
	mov	edx, DWORD PTR _pszFileName$[ebp]
	push	edx
	mov	eax, DWORD PTR _this$[ebp]
	mov	ecx, DWORD PTR [eax+4]
	push	ecx
	call	_AtlTraceVU
	add	esp, 28					; 0000001cH

; 128  : 	}

	pop	edi
	pop	esi
	pop	ebx
	add	esp, 192				; 000000c0H
	cmp	ebp, esp
	call	__RTC_CheckEsp
	mov	esp, ebp
	pop	ebp
	ret	0
?TraceV@CTrace@ATL@@QBAXPBDHKIPBGPAD@Z ENDP		; ATL::CTrace::TraceV
; Function compile flags: /Odt /RTCcsu /ZI
_TEXT	ENDS
;	COMDAT ??BCTraceCategory@ATL@@QBEKXZ
_TEXT	SEGMENT
_this$ = -8						; size = 4
??BCTraceCategory@ATL@@QBEKXZ PROC NEAR			; ATL::CTraceCategory::operator unsigned long, COMDAT
; _this$ = ecx

; 202  : {

	push	ebp
	mov	ebp, esp
	sub	esp, 204				; 000000ccH
	push	ebx
	push	esi
	push	edi
	push	ecx
	lea	edi, DWORD PTR [ebp-204]
	mov	ecx, 51					; 00000033H
	mov	eax, -858993460				; ccccccccH
	rep stosd
	pop	ecx
	mov	DWORD PTR _this$[ebp], ecx

; 203  : 	return( m_dwCategory );

	mov	eax, DWORD PTR _this$[ebp]
	mov	eax, DWORD PTR [eax]

; 204  : }

	pop	edi
	pop	esi
	pop	ebx
	mov	esp, ebp
	pop	ebp
	ret	0
??BCTraceCategory@ATL@@QBEKXZ ENDP			; ATL::CTraceCategory::operator unsigned long
_TEXT	ENDS
PUBLIC	?LoadStringW@?$CStringT@GV?$StrTraitMFC@GV?$ChTraitsCRT@G@ATL@@@@@ATL@@QAEHPAUHINSTANCE__@@I@Z ; ATL::CStringT<unsigned short,StrTraitMFC<unsigned short,ATL::ChTraitsCRT<unsigned short> > >::LoadStringW
PUBLIC	?FindStringResourceInstance@?$StrTraitMFC@GV?$ChTraitsCRT@G@ATL@@@@SAPAUHINSTANCE__@@I@Z ; StrTraitMFC<unsigned short,ATL::ChTraitsCRT<unsigned short> >::FindStringResourceInstance
; Function compile flags: /Odt /RTCcsu /ZI
; File c:\program files\microsoft visual studio .net 2003\vc7\atlmfc\include\cstringt.h
;	COMDAT ?LoadStringW@?$CStringT@GV?$StrTraitMFC@GV?$ChTraitsCRT@G@ATL@@@@@ATL@@QAEHI@Z
_TEXT	SEGMENT
_hInst$ = -20						; size = 4
_this$ = -8						; size = 4
_nID$ = 8						; size = 4
?LoadStringW@?$CStringT@GV?$StrTraitMFC@GV?$ChTraitsCRT@G@ATL@@@@@ATL@@QAEHI@Z PROC NEAR ; ATL::CStringT<unsigned short,StrTraitMFC<unsigned short,ATL::ChTraitsCRT<unsigned short> > >::LoadStringW, COMDAT
; _this$ = ecx

; 1969 : 	{

	push	ebp
	mov	ebp, esp
	sub	esp, 216				; 000000d8H
	push	ebx
	push	esi
	push	edi
	push	ecx
	lea	edi, DWORD PTR [ebp-216]
	mov	ecx, 54					; 00000036H
	mov	eax, -858993460				; ccccccccH
	rep stosd
	pop	ecx
	mov	DWORD PTR _this$[ebp], ecx

; 1970 : 		HINSTANCE hInst = StringTraits::FindStringResourceInstance( nID );

	mov	eax, DWORD PTR _nID$[ebp]
	push	eax
	call	?FindStringResourceInstance@?$StrTraitMFC@GV?$ChTraitsCRT@G@ATL@@@@SAPAUHINSTANCE__@@I@Z ; StrTraitMFC<unsigned short,ATL::ChTraitsCRT<unsigned short> >::FindStringResourceInstance
	add	esp, 4
	mov	DWORD PTR _hInst$[ebp], eax

; 1971 : 		if( hInst == NULL )

	cmp	DWORD PTR _hInst$[ebp], 0
	jne	SHORT $L92647

; 1972 : 		{
; 1973 : 			return( FALSE );

	xor	eax, eax
	jmp	SHORT $L92645
$L92647:

; 1974 : 		}
; 1975 : 
; 1976 : 		return( LoadString( hInst, nID ) );		

	mov	eax, DWORD PTR _nID$[ebp]
	push	eax
	mov	ecx, DWORD PTR _hInst$[ebp]
	push	ecx
	mov	ecx, DWORD PTR _this$[ebp]
	call	?LoadStringW@?$CStringT@GV?$StrTraitMFC@GV?$ChTraitsCRT@G@ATL@@@@@ATL@@QAEHPAUHINSTANCE__@@I@Z ; ATL::CStringT<unsigned short,StrTraitMFC<unsigned short,ATL::ChTraitsCRT<unsigned short> > >::LoadStringW
$L92645:

; 1977 : 	}

	pop	edi
	pop	esi
	pop	ebx
	add	esp, 216				; 000000d8H
	cmp	ebp, esp
	call	__RTC_CheckEsp
	mov	esp, ebp
	pop	ebp
	ret	4
?LoadStringW@?$CStringT@GV?$StrTraitMFC@GV?$ChTraitsCRT@G@ATL@@@@@ATL@@QAEHI@Z ENDP ; ATL::CStringT<unsigned short,StrTraitMFC<unsigned short,ATL::ChTraitsCRT<unsigned short> > >::LoadStringW
_TEXT	ENDS
PUBLIC	?AtlGetStringResourceImage@ATL@@YAPBUATLSTRINGRESOURCEIMAGE@1@PAUHINSTANCE__@@I@Z ; ATL::AtlGetStringResourceImage
PUBLIC	?GetBaseTypeLength@?$ChTraitsCRT@G@ATL@@SAHPBGH@Z ; ATL::ChTraitsCRT<unsigned short>::GetBaseTypeLength
PUBLIC	?ConvertToBaseType@?$ChTraitsCRT@G@ATL@@SAXPAGHPBGH@Z ; ATL::ChTraitsCRT<unsigned short>::ConvertToBaseType
; Function compile flags: /Odt /RTCcsu /ZI
;	COMDAT ?LoadStringW@?$CStringT@GV?$StrTraitMFC@GV?$ChTraitsCRT@G@ATL@@@@@ATL@@QAEHPAUHINSTANCE__@@I@Z
_TEXT	SEGMENT
_pszBuffer$ = -44					; size = 4
_nLength$ = -32						; size = 4
_pImage$ = -20						; size = 4
_this$ = -8						; size = 4
_hInstance$ = 8						; size = 4
_nID$ = 12						; size = 4
?LoadStringW@?$CStringT@GV?$StrTraitMFC@GV?$ChTraitsCRT@G@ATL@@@@@ATL@@QAEHPAUHINSTANCE__@@I@Z PROC NEAR ; ATL::CStringT<unsigned short,StrTraitMFC<unsigned short,ATL::ChTraitsCRT<unsigned short> > >::LoadStringW, COMDAT
; _this$ = ecx

; 1981 : 	{

	push	ebp
	mov	ebp, esp
	sub	esp, 240				; 000000f0H
	push	ebx
	push	esi
	push	edi
	push	ecx
	lea	edi, DWORD PTR [ebp-240]
	mov	ecx, 60					; 0000003cH
	mov	eax, -858993460				; ccccccccH
	rep stosd
	pop	ecx
	mov	DWORD PTR _this$[ebp], ecx

; 1982 : 		const ATLSTRINGRESOURCEIMAGE* pImage = AtlGetStringResourceImage( hInstance, nID );

	mov	eax, DWORD PTR _nID$[ebp]
	push	eax
	mov	ecx, DWORD PTR _hInstance$[ebp]
	push	ecx
	call	?AtlGetStringResourceImage@ATL@@YAPBUATLSTRINGRESOURCEIMAGE@1@PAUHINSTANCE__@@I@Z ; ATL::AtlGetStringResourceImage
	add	esp, 8
	mov	DWORD PTR _pImage$[ebp], eax

; 1983 : 		if( pImage == NULL )

	cmp	DWORD PTR _pImage$[ebp], 0
	jne	SHORT $L92718

; 1984 : 		{
; 1985 : 			return( FALSE );

	xor	eax, eax
	jmp	SHORT $L92716
$L92718:

; 1986 : 		}
; 1987 : 
; 1988 : 		int nLength = StringTraits::GetBaseTypeLength( pImage->achString, pImage->nLength );

	mov	eax, DWORD PTR _pImage$[ebp]
	movzx	ecx, WORD PTR [eax]
	push	ecx
	mov	edx, DWORD PTR _pImage$[ebp]
	add	edx, 2
	push	edx
	call	?GetBaseTypeLength@?$ChTraitsCRT@G@ATL@@SAHPBGH@Z ; ATL::ChTraitsCRT<unsigned short>::GetBaseTypeLength
	add	esp, 8
	mov	DWORD PTR _nLength$[ebp], eax

; 1989 : 		PXSTR pszBuffer = GetBuffer( nLength );

	mov	eax, DWORD PTR _nLength$[ebp]
	push	eax
	mov	ecx, DWORD PTR _this$[ebp]
	call	?GetBuffer@?$CSimpleStringT@G$0A@@ATL@@QAEPAGH@Z ; ATL::CSimpleStringT<unsigned short,0>::GetBuffer
	mov	DWORD PTR _pszBuffer$[ebp], eax

; 1990 : 		StringTraits::ConvertToBaseType( pszBuffer, nLength, pImage->achString, pImage->nLength );

	mov	eax, DWORD PTR _pImage$[ebp]
	movzx	ecx, WORD PTR [eax]
	push	ecx
	mov	edx, DWORD PTR _pImage$[ebp]
	add	edx, 2
	push	edx
	mov	eax, DWORD PTR _nLength$[ebp]
	push	eax
	mov	ecx, DWORD PTR _pszBuffer$[ebp]
	push	ecx
	call	?ConvertToBaseType@?$ChTraitsCRT@G@ATL@@SAXPAGHPBGH@Z ; ATL::ChTraitsCRT<unsigned short>::ConvertToBaseType
	add	esp, 16					; 00000010H

; 1991 : 		ReleaseBufferSetLength( nLength );

	mov	eax, DWORD PTR _nLength$[ebp]
	push	eax
	mov	ecx, DWORD PTR _this$[ebp]
	call	?ReleaseBufferSetLength@?$CSimpleStringT@G$0A@@ATL@@QAEXH@Z ; ATL::CSimpleStringT<unsigned short,0>::ReleaseBufferSetLength

; 1992 : 
; 1993 : 		return( TRUE );

	mov	eax, 1
$L92716:

; 1994 : 	}

	pop	edi
	pop	esi
	pop	ebx
	add	esp, 240				; 000000f0H
	cmp	ebp, esp
	call	__RTC_CheckEsp
	mov	esp, ebp
	pop	ebp
	ret	8
?LoadStringW@?$CStringT@GV?$StrTraitMFC@GV?$ChTraitsCRT@G@ATL@@@@@ATL@@QAEHPAUHINSTANCE__@@I@Z ENDP ; ATL::CStringT<unsigned short,StrTraitMFC<unsigned short,ATL::ChTraitsCRT<unsigned short> > >::LoadStringW
_TEXT	ENDS
PUBLIC	?_AtlGetStringResourceImage@ATL@@YAPBUATLSTRINGRESOURCEIMAGE@1@PAUHINSTANCE__@@PAUHRSRC__@@I@Z ; ATL::_AtlGetStringResourceImage
EXTRN	__imp__FindResourceW@12:NEAR
; Function compile flags: /Odt /RTCcsu /ZI
; File c:\program files\microsoft visual studio .net 2003\vc7\atlmfc\include\atlcore.h
;	COMDAT ?AtlGetStringResourceImage@ATL@@YAPBUATLSTRINGRESOURCEIMAGE@1@PAUHINSTANCE__@@I@Z
_TEXT	SEGMENT
_hResource$ = -8					; size = 4
_hInstance$ = 8						; size = 4
_id$ = 12						; size = 4
?AtlGetStringResourceImage@ATL@@YAPBUATLSTRINGRESOURCEIMAGE@1@PAUHINSTANCE__@@I@Z PROC NEAR ; ATL::AtlGetStringResourceImage, COMDAT

; 280  : {

	push	ebp
	mov	ebp, esp
	sub	esp, 204				; 000000ccH
	push	ebx
	push	esi
	push	edi
	lea	edi, DWORD PTR [ebp-204]
	mov	ecx, 51					; 00000033H
	mov	eax, -858993460				; ccccccccH
	rep stosd

; 281  : 	HRSRC hResource;
; 282  : 
; 283  : 	hResource = ::FindResource( hInstance, MAKEINTRESOURCE( ((id>>4)+1) ), RT_STRING );

	mov	esi, esp
	push	6
	mov	ecx, DWORD PTR _id$[ebp]
	shr	ecx, 4
	add	ecx, 1
	call	@_RTC_Check_4_to_2@4
	movzx	eax, ax
	push	eax
	mov	ecx, DWORD PTR _hInstance$[ebp]
	push	ecx
	call	DWORD PTR __imp__FindResourceW@12
	cmp	esi, esp
	call	__RTC_CheckEsp
	mov	DWORD PTR _hResource$[ebp], eax

; 284  : 	if( hResource == NULL )

	cmp	DWORD PTR _hResource$[ebp], 0
	jne	SHORT $L25769

; 285  : 	{
; 286  : 		return( NULL );

	xor	eax, eax
	jmp	SHORT $L25761
$L25769:

; 287  : 	}
; 288  : 
; 289  : 	return _AtlGetStringResourceImage( hInstance, hResource, id );

	mov	eax, DWORD PTR _id$[ebp]
	push	eax
	mov	ecx, DWORD PTR _hResource$[ebp]
	push	ecx
	mov	edx, DWORD PTR _hInstance$[ebp]
	push	edx
	call	?_AtlGetStringResourceImage@ATL@@YAPBUATLSTRINGRESOURCEIMAGE@1@PAUHINSTANCE__@@PAUHRSRC__@@I@Z ; ATL::_AtlGetStringResourceImage
	add	esp, 12					; 0000000cH
$L25761:

; 290  : }

	pop	edi
	pop	esi
	pop	ebx
	add	esp, 204				; 000000ccH
	cmp	ebp, esp
	call	__RTC_CheckEsp
	mov	esp, ebp
	pop	ebp
	ret	0
?AtlGetStringResourceImage@ATL@@YAPBUATLSTRINGRESOURCEIMAGE@1@PAUHINSTANCE__@@I@Z ENDP ; ATL::AtlGetStringResourceImage
_TEXT	ENDS
EXTRN	__imp__LockResource@4:NEAR
EXTRN	__imp__LoadResource@8:NEAR
EXTRN	__imp__SizeofResource@8:NEAR
; Function compile flags: /Odt /RTCcsu /ZI
;	COMDAT ?_AtlGetStringResourceImage@ATL@@YAPBUATLSTRINGRESOURCEIMAGE@1@PAUHINSTANCE__@@PAUHRSRC__@@I@Z
_TEXT	SEGMENT
_iIndex$ = -56						; size = 4
_hGlobal$ = -44						; size = 4
_nResourceSize$ = -32					; size = 4
_pImageEnd$ = -20					; size = 4
_pImage$ = -8						; size = 4
_hInstance$ = 8						; size = 4
_hResource$ = 12					; size = 4
_id$ = 16						; size = 4
?_AtlGetStringResourceImage@ATL@@YAPBUATLSTRINGRESOURCEIMAGE@1@PAUHINSTANCE__@@PAUHRSRC__@@I@Z PROC NEAR ; ATL::_AtlGetStringResourceImage, COMDAT

; 239  : {

	push	ebp
	mov	ebp, esp
	sub	esp, 252				; 000000fcH
	push	ebx
	push	esi
	push	edi
	lea	edi, DWORD PTR [ebp-252]
	mov	ecx, 63					; 0000003fH
	mov	eax, -858993460				; ccccccccH
	rep stosd

; 240  : 	const ATLSTRINGRESOURCEIMAGE* pImage;
; 241  : 	const ATLSTRINGRESOURCEIMAGE* pImageEnd;
; 242  : 	ULONG nResourceSize;
; 243  : 	HGLOBAL hGlobal;
; 244  : 	UINT iIndex;
; 245  : 
; 246  : 	hGlobal = ::LoadResource( hInstance, hResource );

	mov	esi, esp
	mov	eax, DWORD PTR _hResource$[ebp]
	push	eax
	mov	ecx, DWORD PTR _hInstance$[ebp]
	push	ecx
	call	DWORD PTR __imp__LoadResource@8
	cmp	esi, esp
	call	__RTC_CheckEsp
	mov	DWORD PTR _hGlobal$[ebp], eax

; 247  : 	if( hGlobal == NULL )

	cmp	DWORD PTR _hGlobal$[ebp], 0
	jne	SHORT $L25746

; 248  : 	{
; 249  : 		return( NULL );

	xor	eax, eax
	jmp	$L25740
$L25746:

; 250  : 	}
; 251  : 
; 252  : 	pImage = (const ATLSTRINGRESOURCEIMAGE*)::LockResource( hGlobal );

	mov	esi, esp
	mov	eax, DWORD PTR _hGlobal$[ebp]
	push	eax
	call	DWORD PTR __imp__LockResource@4
	cmp	esi, esp
	call	__RTC_CheckEsp
	mov	DWORD PTR _pImage$[ebp], eax

; 253  : 	if( pImage == NULL )

	cmp	DWORD PTR _pImage$[ebp], 0
	jne	SHORT $L25748

; 254  : 	{
; 255  : 		return( NULL );

	xor	eax, eax
	jmp	SHORT $L25740
$L25748:

; 256  : 	}
; 257  : 
; 258  : 	nResourceSize = ::SizeofResource( hInstance, hResource );

	mov	esi, esp
	mov	eax, DWORD PTR _hResource$[ebp]
	push	eax
	mov	ecx, DWORD PTR _hInstance$[ebp]
	push	ecx
	call	DWORD PTR __imp__SizeofResource@8
	cmp	esi, esp
	call	__RTC_CheckEsp
	mov	DWORD PTR _nResourceSize$[ebp], eax

; 259  : 	pImageEnd = (const ATLSTRINGRESOURCEIMAGE*)(LPBYTE( pImage )+nResourceSize);

	mov	eax, DWORD PTR _pImage$[ebp]
	add	eax, DWORD PTR _nResourceSize$[ebp]
	mov	DWORD PTR _pImageEnd$[ebp], eax

; 260  : 	iIndex = id&0x000f;

	mov	eax, DWORD PTR _id$[ebp]
	and	eax, 15					; 0000000fH
	mov	DWORD PTR _iIndex$[ebp], eax
$L25751:

; 261  : 
; 262  : 	while( (iIndex > 0) && (pImage < pImageEnd) )

	cmp	DWORD PTR _iIndex$[ebp], 0
	jbe	SHORT $L25752
	mov	eax, DWORD PTR _pImage$[ebp]
	cmp	eax, DWORD PTR _pImageEnd$[ebp]
	jae	SHORT $L25752

; 263  : 	{
; 264  : 		pImage = (const ATLSTRINGRESOURCEIMAGE*)(LPBYTE( pImage )+(sizeof( ATLSTRINGRESOURCEIMAGE )+(pImage->nLength*sizeof( WCHAR ))));

	mov	eax, DWORD PTR _pImage$[ebp]
	movzx	ecx, WORD PTR [eax]
	mov	edx, DWORD PTR _pImage$[ebp]
	lea	eax, DWORD PTR [edx+ecx*2+2]
	mov	DWORD PTR _pImage$[ebp], eax

; 265  : 		iIndex--;

	mov	eax, DWORD PTR _iIndex$[ebp]
	sub	eax, 1
	mov	DWORD PTR _iIndex$[ebp], eax

; 266  : 	}

	jmp	SHORT $L25751
$L25752:

; 267  : 	if( pImage >= pImageEnd )

	mov	eax, DWORD PTR _pImage$[ebp]
	cmp	eax, DWORD PTR _pImageEnd$[ebp]
	jb	SHORT $L25756

; 268  : 	{
; 269  : 		return( NULL );

	xor	eax, eax
	jmp	SHORT $L25740
$L25756:

; 270  : 	}
; 271  : 	if( pImage->nLength == 0 )

	mov	eax, DWORD PTR _pImage$[ebp]
	movzx	ecx, WORD PTR [eax]
	test	ecx, ecx
	jne	SHORT $L25757

; 272  : 	{
; 273  : 		return( NULL );

	xor	eax, eax
	jmp	SHORT $L25740
$L25757:

; 274  : 	}
; 275  : 
; 276  : 	return( pImage );

	mov	eax, DWORD PTR _pImage$[ebp]
$L25740:

; 277  : }

	pop	edi
	pop	esi
	pop	ebx
	add	esp, 252				; 000000fcH
	cmp	ebp, esp
	call	__RTC_CheckEsp
	mov	esp, ebp
	pop	ebp
	ret	0
?_AtlGetStringResourceImage@ATL@@YAPBUATLSTRINGRESOURCEIMAGE@1@PAUHINSTANCE__@@PAUHRSRC__@@I@Z ENDP ; ATL::_AtlGetStringResourceImage
; Function compile flags: /Odt /RTCcsu /ZI
; File c:\program files\microsoft visual studio .net 2003\vc7\atlmfc\include\cstringt.h
_TEXT	ENDS
;	COMDAT ?GetBaseTypeLength@?$ChTraitsCRT@G@ATL@@SAHPBGH@Z
_TEXT	SEGMENT
_pszSrc$ = 8						; size = 4
_nLength$ = 12						; size = 4
?GetBaseTypeLength@?$ChTraitsCRT@G@ATL@@SAHPBGH@Z PROC NEAR ; ATL::ChTraitsCRT<unsigned short>::GetBaseTypeLength, COMDAT

; 671  : 	{

	push	ebp
	mov	ebp, esp
	sub	esp, 192				; 000000c0H
	push	ebx
	push	esi
	push	edi
	lea	edi, DWORD PTR [ebp-192]
	mov	ecx, 48					; 00000030H
	mov	eax, -858993460				; ccccccccH
	rep stosd

; 672  : 		(void)pszSrc;
; 673  : 		// Returns required buffer size in wchar_ts
; 674  : 		return nLength;

	mov	eax, DWORD PTR _nLength$[ebp]

; 675  : 	}

	pop	edi
	pop	esi
	pop	ebx
	mov	esp, ebp
	pop	ebp
	ret	0
?GetBaseTypeLength@?$ChTraitsCRT@G@ATL@@SAHPBGH@Z ENDP	; ATL::ChTraitsCRT<unsigned short>::GetBaseTypeLength
_TEXT	ENDS
EXTRN	_memcpy:NEAR
; Function compile flags: /Odt /RTCcsu /ZI
;	COMDAT ?ConvertToBaseType@?$ChTraitsCRT@G@ATL@@SAXPAGHPBGH@Z
_TEXT	SEGMENT
_pszDest$ = 8						; size = 4
_nDestLength$ = 12					; size = 4
_pszSrc$ = 16						; size = 4
_nSrcLength$ = 20					; size = 4
?ConvertToBaseType@?$ChTraitsCRT@G@ATL@@SAXPAGHPBGH@Z PROC NEAR ; ATL::ChTraitsCRT<unsigned short>::ConvertToBaseType, COMDAT

; 686  : 	{

	push	ebp
	mov	ebp, esp
	sub	esp, 192				; 000000c0H
	push	ebx
	push	esi
	push	edi
	lea	edi, DWORD PTR [ebp-192]
	mov	ecx, 48					; 00000030H
	mov	eax, -858993460				; ccccccccH
	rep stosd

; 687  : 		(void)nSrcLength;
; 688  : 		// nLen is in wchar_ts
; 689  : 		memcpy( pszDest, pszSrc, nDestLength*sizeof( wchar_t ) );

	mov	eax, DWORD PTR _nDestLength$[ebp]
	shl	eax, 1
	push	eax
	mov	ecx, DWORD PTR _pszSrc$[ebp]
	push	ecx
	mov	edx, DWORD PTR _pszDest$[ebp]
	push	edx
	call	_memcpy
	add	esp, 12					; 0000000cH

; 690  : 	}

	pop	edi
	pop	esi
	pop	ebx
	add	esp, 192				; 000000c0H
	cmp	ebp, esp
	call	__RTC_CheckEsp
	mov	esp, ebp
	pop	ebp
	ret	0
?ConvertToBaseType@?$ChTraitsCRT@G@ATL@@SAXPAGHPBGH@Z ENDP ; ATL::ChTraitsCRT<unsigned short>::ConvertToBaseType
_TEXT	ENDS
PUBLIC	??_C@_0BA@GOIMFHNK@pStringMgr?5?$CB?$DN?50?$AA@	; `string'
;	COMDAT ??_C@_0BA@GOIMFHNK@pStringMgr?5?$CB?$DN?50?$AA@
; File c:\program files\microsoft visual studio .net 2003\vc7\atlmfc\include\atlsimpstr.h
CONST	SEGMENT
??_C@_0BA@GOIMFHNK@pStringMgr?5?$CB?$DN?50?$AA@ DB 'pStringMgr != 0', 00H ; `string'
; Function compile flags: /Odt /RTCcsu /ZI
CONST	ENDS
;	COMDAT ??0?$CSimpleStringT@G$0A@@ATL@@QAE@PAUIAtlStringMgr@1@@Z
_TEXT	SEGMENT
_pData$ = -20						; size = 4
_this$ = -8						; size = 4
_pStringMgr$ = 8					; size = 4
??0?$CSimpleStringT@G$0A@@ATL@@QAE@PAUIAtlStringMgr@1@@Z PROC NEAR ; ATL::CSimpleStringT<unsigned short,0>::CSimpleStringT<unsigned short,0>, COMDAT
; _this$ = ecx

; 210  : 	explicit CSimpleStringT( IAtlStringMgr* pStringMgr ) throw()

	push	ebp
	mov	ebp, esp
	sub	esp, 216				; 000000d8H
	push	ebx
	push	esi
	push	edi
	push	ecx
	lea	edi, DWORD PTR [ebp-216]
	mov	ecx, 54					; 00000036H
	mov	eax, -858993460				; ccccccccH
	rep stosd
	pop	ecx
	mov	DWORD PTR _this$[ebp], ecx

; 211  : 	{
; 212  : 		ATLASSERT( pStringMgr != NULL );

	cmp	DWORD PTR _pStringMgr$[ebp], 0
	jne	SHORT $L93961
	push	OFFSET FLAT:??_C@_0BA@GOIMFHNK@pStringMgr?5?$CB?$DN?50?$AA@
	push	0
	push	212					; 000000d4H
	push	OFFSET FLAT:??_C@_0FD@JDCNPMMG@c?3?2program?5files?2microsoft?5visua@
	push	2
	call	__CrtDbgReport
	add	esp, 20					; 00000014H
	cmp	eax, 1
	jne	SHORT $L93961
	int	3
$L93961:

; 213  : 		CStringData* pData = pStringMgr->GetNilString();

	mov	eax, DWORD PTR _pStringMgr$[ebp]
	mov	edx, DWORD PTR [eax]
	mov	esi, esp
	mov	ecx, DWORD PTR _pStringMgr$[ebp]
	call	DWORD PTR [edx+12]
	cmp	esi, esp
	call	__RTC_CheckEsp
	mov	DWORD PTR _pData$[ebp], eax

; 214  : 		Attach( pData );

	mov	eax, DWORD PTR _pData$[ebp]
	push	eax
	mov	ecx, DWORD PTR _this$[ebp]
	call	?Attach@?$CSimpleStringT@G$0A@@ATL@@AAEXPAUCStringData@2@@Z ; ATL::CSimpleStringT<unsigned short,0>::Attach

; 215  : 	}

	mov	eax, DWORD PTR _this$[ebp]
	pop	edi
	pop	esi
	pop	ebx
	add	esp, 216				; 000000d8H
	cmp	ebp, esp
	call	__RTC_CheckEsp
	mov	esp, ebp
	pop	ebp
	ret	4
??0?$CSimpleStringT@G$0A@@ATL@@QAE@PAUIAtlStringMgr@1@@Z ENDP ; ATL::CSimpleStringT<unsigned short,0>::CSimpleStringT<unsigned short,0>
; Function compile flags: /Odt /RTCcsu /ZI
_TEXT	ENDS
;	COMDAT ??0?$CSimpleStringT@G$0A@@ATL@@QAE@ABV01@@Z
_TEXT	SEGMENT
_pNewData$ = -32					; size = 4
_pSrcData$ = -20					; size = 4
_this$ = -8						; size = 4
_strSrc$ = 8						; size = 4
??0?$CSimpleStringT@G$0A@@ATL@@QAE@ABV01@@Z PROC NEAR	; ATL::CSimpleStringT<unsigned short,0>::CSimpleStringT<unsigned short,0>, COMDAT
; _this$ = ecx

; 217  : 	CSimpleStringT( const CSimpleStringT& strSrc )

	push	ebp
	mov	ebp, esp
	sub	esp, 228				; 000000e4H
	push	ebx
	push	esi
	push	edi
	push	ecx
	lea	edi, DWORD PTR [ebp-228]
	mov	ecx, 57					; 00000039H
	mov	eax, -858993460				; ccccccccH
	rep stosd
	pop	ecx
	mov	DWORD PTR _this$[ebp], ecx

; 218  : 	{
; 219  : 		CStringData* pSrcData = strSrc.GetData();

	mov	ecx, DWORD PTR _strSrc$[ebp]
	call	?GetData@?$CSimpleStringT@G$0A@@ATL@@ABEPAUCStringData@2@XZ ; ATL::CSimpleStringT<unsigned short,0>::GetData
	mov	DWORD PTR _pSrcData$[ebp], eax

; 220  : 		CStringData* pNewData = CloneData( pSrcData );

	mov	eax, DWORD PTR _pSrcData$[ebp]
	push	eax
	call	?CloneData@?$CSimpleStringT@G$0A@@ATL@@CAPAUCStringData@2@PAU32@@Z ; ATL::CSimpleStringT<unsigned short,0>::CloneData
	add	esp, 4
	mov	DWORD PTR _pNewData$[ebp], eax

; 221  : 		Attach( pNewData );

	mov	eax, DWORD PTR _pNewData$[ebp]
	push	eax
	mov	ecx, DWORD PTR _this$[ebp]
	call	?Attach@?$CSimpleStringT@G$0A@@ATL@@AAEXPAUCStringData@2@@Z ; ATL::CSimpleStringT<unsigned short,0>::Attach

; 222  : 	}

	mov	eax, DWORD PTR _this$[ebp]
	pop	edi
	pop	esi
	pop	ebx
	add	esp, 228				; 000000e4H
	cmp	ebp, esp
	call	__RTC_CheckEsp
	mov	esp, ebp
	pop	ebp
	ret	4
??0?$CSimpleStringT@G$0A@@ATL@@QAE@ABV01@@Z ENDP	; ATL::CSimpleStringT<unsigned short,0>::CSimpleStringT<unsigned short,0>
; Function compile flags: /Odt /RTCcsu /ZI
_TEXT	ENDS
;	COMDAT ??1?$CSimpleStringT@G$0A@@ATL@@QAE@XZ
_TEXT	SEGMENT
_pData$ = -20						; size = 4
_this$ = -8						; size = 4
??1?$CSimpleStringT@G$0A@@ATL@@QAE@XZ PROC NEAR		; ATL::CSimpleStringT<unsigned short,0>::~CSimpleStringT<unsigned short,0>, COMDAT
; _this$ = ecx

; 262  : 	{

	push	ebp
	mov	ebp, esp
	sub	esp, 216				; 000000d8H
	push	ebx
	push	esi
	push	edi
	push	ecx
	lea	edi, DWORD PTR [ebp-216]
	mov	ecx, 54					; 00000036H
	mov	eax, -858993460				; ccccccccH
	rep stosd
	pop	ecx
	mov	DWORD PTR _this$[ebp], ecx

; 263  : 		CStringData* pData = GetData();

	mov	ecx, DWORD PTR _this$[ebp]
	call	?GetData@?$CSimpleStringT@G$0A@@ATL@@ABEPAUCStringData@2@XZ ; ATL::CSimpleStringT<unsigned short,0>::GetData
	mov	DWORD PTR _pData$[ebp], eax

; 264  : 		pData->Release();

	mov	ecx, DWORD PTR _pData$[ebp]
	call	?Release@CStringData@ATL@@QAEXXZ	; ATL::CStringData::Release

; 265  : 	}

	pop	edi
	pop	esi
	pop	ebx
	add	esp, 216				; 000000d8H
	cmp	ebp, esp
	call	__RTC_CheckEsp
	mov	esp, ebp
	pop	ebp
	ret	0
??1?$CSimpleStringT@G$0A@@ATL@@QAE@XZ ENDP		; ATL::CSimpleStringT<unsigned short,0>::~CSimpleStringT<unsigned short,0>
_TEXT	ENDS
PUBLIC	?PrepareWrite@?$CSimpleStringT@G$0A@@ATL@@AAEPAGH@Z ; ATL::CSimpleStringT<unsigned short,0>::PrepareWrite
; Function compile flags: /Odt /RTCcsu /ZI
;	COMDAT ?GetBuffer@?$CSimpleStringT@G$0A@@ATL@@QAEPAGH@Z
_TEXT	SEGMENT
_this$ = -8						; size = 4
_nMinBufferLength$ = 8					; size = 4
?GetBuffer@?$CSimpleStringT@G$0A@@ATL@@QAEPAGH@Z PROC NEAR ; ATL::CSimpleStringT<unsigned short,0>::GetBuffer, COMDAT
; _this$ = ecx

; 489  : 	{

	push	ebp
	mov	ebp, esp
	sub	esp, 204				; 000000ccH
	push	ebx
	push	esi
	push	edi
	push	ecx
	lea	edi, DWORD PTR [ebp-204]
	mov	ecx, 51					; 00000033H
	mov	eax, -858993460				; ccccccccH
	rep stosd
	pop	ecx
	mov	DWORD PTR _this$[ebp], ecx

; 490  : 		return( PrepareWrite( nMinBufferLength ) );

	mov	eax, DWORD PTR _nMinBufferLength$[ebp]
	push	eax
	mov	ecx, DWORD PTR _this$[ebp]
	call	?PrepareWrite@?$CSimpleStringT@G$0A@@ATL@@AAEPAGH@Z ; ATL::CSimpleStringT<unsigned short,0>::PrepareWrite

; 491  : 	}

	pop	edi
	pop	esi
	pop	ebx
	add	esp, 204				; 000000ccH
	cmp	ebp, esp
	call	__RTC_CheckEsp
	mov	esp, ebp
	pop	ebp
	ret	4
?GetBuffer@?$CSimpleStringT@G$0A@@ATL@@QAEPAGH@Z ENDP	; ATL::CSimpleStringT<unsigned short,0>::GetBuffer
; Function compile flags: /Odt /RTCcsu /ZI
_TEXT	ENDS
;	COMDAT ?GetData@?$CSimpleStringT@G$0A@@ATL@@ABEPAUCStringData@2@XZ
_TEXT	SEGMENT
_this$ = -8						; size = 4
?GetData@?$CSimpleStringT@G$0A@@ATL@@ABEPAUCStringData@2@XZ PROC NEAR ; ATL::CSimpleStringT<unsigned short,0>::GetData, COMDAT
; _this$ = ecx

; 730  : 	{

	push	ebp
	mov	ebp, esp
	sub	esp, 204				; 000000ccH
	push	ebx
	push	esi
	push	edi
	push	ecx
	lea	edi, DWORD PTR [ebp-204]
	mov	ecx, 51					; 00000033H
	mov	eax, -858993460				; ccccccccH
	rep stosd
	pop	ecx
	mov	DWORD PTR _this$[ebp], ecx

; 731  : 		return( reinterpret_cast< CStringData* >( m_pszData )-1 );

	mov	eax, DWORD PTR _this$[ebp]
	mov	eax, DWORD PTR [eax]
	sub	eax, 16					; 00000010H

; 732  : 	}

	pop	edi
	pop	esi
	pop	ebx
	mov	esp, ebp
	pop	ebp
	ret	0
?GetData@?$CSimpleStringT@G$0A@@ATL@@ABEPAUCStringData@2@XZ ENDP ; ATL::CSimpleStringT<unsigned short,0>::GetData
_TEXT	ENDS
PUBLIC	?PrepareWrite2@?$CSimpleStringT@G$0A@@ATL@@AAEXH@Z ; ATL::CSimpleStringT<unsigned short,0>::PrepareWrite2
; Function compile flags: /Odt /RTCcsu /ZI
;	COMDAT ?PrepareWrite@?$CSimpleStringT@G$0A@@ATL@@AAEPAGH@Z
_TEXT	SEGMENT
_nTooShort$ = -44					; size = 4
_nShared$ = -32						; size = 4
_pOldData$ = -20					; size = 4
_this$ = -8						; size = 4
_nLength$ = 8						; size = 4
?PrepareWrite@?$CSimpleStringT@G$0A@@ATL@@AAEPAGH@Z PROC NEAR ; ATL::CSimpleStringT<unsigned short,0>::PrepareWrite, COMDAT
; _this$ = ecx

; 734  : 	{

	push	ebp
	mov	ebp, esp
	sub	esp, 240				; 000000f0H
	push	ebx
	push	esi
	push	edi
	push	ecx
	lea	edi, DWORD PTR [ebp-240]
	mov	ecx, 60					; 0000003cH
	mov	eax, -858993460				; ccccccccH
	rep stosd
	pop	ecx
	mov	DWORD PTR _this$[ebp], ecx

; 735  : 		CStringData* pOldData = GetData();

	mov	ecx, DWORD PTR _this$[ebp]
	call	?GetData@?$CSimpleStringT@G$0A@@ATL@@ABEPAUCStringData@2@XZ ; ATL::CSimpleStringT<unsigned short,0>::GetData
	mov	DWORD PTR _pOldData$[ebp], eax

; 736  : 		int nShared = 1-pOldData->nRefs;  // nShared < 0 means true, >= 0 means false

	mov	eax, DWORD PTR _pOldData$[ebp]
	mov	ecx, 1
	sub	ecx, DWORD PTR [eax+12]
	mov	DWORD PTR _nShared$[ebp], ecx

; 737  : 		int nTooShort = pOldData->nAllocLength-nLength;  // nTooShort < 0 means true, >= 0 means false

	mov	eax, DWORD PTR _pOldData$[ebp]
	mov	ecx, DWORD PTR [eax+8]
	sub	ecx, DWORD PTR _nLength$[ebp]
	mov	DWORD PTR _nTooShort$[ebp], ecx

; 738  : 		if( (nShared|nTooShort) < 0 )  // If either sign bit is set (i.e. either is less than zero), we need to copy data

	mov	eax, DWORD PTR _nShared$[ebp]
	or	eax, DWORD PTR _nTooShort$[ebp]
	jge	SHORT $L92761

; 739  : 		{
; 740  : 			PrepareWrite2( nLength );

	mov	eax, DWORD PTR _nLength$[ebp]
	push	eax
	mov	ecx, DWORD PTR _this$[ebp]
	call	?PrepareWrite2@?$CSimpleStringT@G$0A@@ATL@@AAEXH@Z ; ATL::CSimpleStringT<unsigned short,0>::PrepareWrite2
$L92761:

; 741  : 		}
; 742  : 
; 743  : 		return( m_pszData );

	mov	eax, DWORD PTR _this$[ebp]
	mov	eax, DWORD PTR [eax]

; 744  : 	}

	pop	edi
	pop	esi
	pop	ebx
	add	esp, 240				; 000000f0H
	cmp	ebp, esp
	call	__RTC_CheckEsp
	mov	esp, ebp
	pop	ebp
	ret	4
?PrepareWrite@?$CSimpleStringT@G$0A@@ATL@@AAEPAGH@Z ENDP ; ATL::CSimpleStringT<unsigned short,0>::PrepareWrite
_TEXT	ENDS
EXTRN	?AfxFindStringResourceHandle@@YGPAUHINSTANCE__@@I@Z:NEAR ; AfxFindStringResourceHandle
; Function compile flags: /Odt /RTCcsu /ZI
; File c:\program files\microsoft visual studio .net 2003\vc7\atlmfc\include\afxstr.h
;	COMDAT ?FindStringResourceInstance@?$StrTraitMFC@GV?$ChTraitsCRT@G@ATL@@@@SAPAUHINSTANCE__@@I@Z
_TEXT	SEGMENT
_nID$ = 8						; size = 4
?FindStringResourceInstance@?$StrTraitMFC@GV?$ChTraitsCRT@G@ATL@@@@SAPAUHINSTANCE__@@I@Z PROC NEAR ; StrTraitMFC<unsigned short,ATL::ChTraitsCRT<unsigned short> >::FindStringResourceInstance, COMDAT

; 44   : 	{

	push	ebp
	mov	ebp, esp
	sub	esp, 192				; 000000c0H
	push	ebx
	push	esi
	push	edi
	lea	edi, DWORD PTR [ebp-192]
	mov	ecx, 48					; 00000030H
	mov	eax, -858993460				; ccccccccH
	rep stosd

; 45   : 		return( AfxFindStringResourceHandle( nID ) );

	mov	eax, DWORD PTR _nID$[ebp]
	push	eax
	call	?AfxFindStringResourceHandle@@YGPAUHINSTANCE__@@I@Z ; AfxFindStringResourceHandle

; 46   : 	}

	pop	edi
	pop	esi
	pop	ebx
	add	esp, 192				; 000000c0H
	cmp	ebp, esp
	call	__RTC_CheckEsp
	mov	esp, ebp
	pop	ebp
	ret	0
?FindStringResourceInstance@?$StrTraitMFC@GV?$ChTraitsCRT@G@ATL@@@@SAPAUHINSTANCE__@@I@Z ENDP ; StrTraitMFC<unsigned short,ATL::ChTraitsCRT<unsigned short> >::FindStringResourceInstance
_TEXT	ENDS
EXTRN	?AfxGetStringManager@@YGPAUIAtlStringMgr@ATL@@XZ:NEAR ; AfxGetStringManager
; Function compile flags: /Odt /RTCcsu /ZI
;	COMDAT ?GetDefaultManager@?$StrTraitMFC@GV?$ChTraitsCRT@G@ATL@@@@SAPAUIAtlStringMgr@ATL@@XZ
_TEXT	SEGMENT
?GetDefaultManager@?$StrTraitMFC@GV?$ChTraitsCRT@G@ATL@@@@SAPAUIAtlStringMgr@ATL@@XZ PROC NEAR ; StrTraitMFC<unsigned short,ATL::ChTraitsCRT<unsigned short> >::GetDefaultManager, COMDAT

; 49   : 	{

	push	ebp
	mov	ebp, esp
	sub	esp, 192				; 000000c0H
	push	ebx
	push	esi
	push	edi
	lea	edi, DWORD PTR [ebp-192]
	mov	ecx, 48					; 00000030H
	mov	eax, -858993460				; ccccccccH
	rep stosd

; 50   : 		return( AfxGetStringManager() );

	call	?AfxGetStringManager@@YGPAUIAtlStringMgr@ATL@@XZ ; AfxGetStringManager

; 51   : 	}

	pop	edi
	pop	esi
	pop	ebx
	add	esp, 192				; 000000c0H
	cmp	ebp, esp
	call	__RTC_CheckEsp
	mov	esp, ebp
	pop	ebp
	ret	0
?GetDefaultManager@?$StrTraitMFC@GV?$ChTraitsCRT@G@ATL@@@@SAPAUIAtlStringMgr@ATL@@XZ ENDP ; StrTraitMFC<unsigned short,ATL::ChTraitsCRT<unsigned short> >::GetDefaultManager
_TEXT	ENDS
PUBLIC	?SetLength@?$CSimpleStringT@G$0A@@ATL@@AAEXH@Z	; ATL::CSimpleStringT<unsigned short,0>::SetLength
; Function compile flags: /Odt /RTCcsu /ZI
; File c:\program files\microsoft visual studio .net 2003\vc7\atlmfc\include\atlsimpstr.h
;	COMDAT ?Empty@?$CSimpleStringT@G$0A@@ATL@@QAEXXZ
_TEXT	SEGMENT
_pNewData$92796 = -44					; size = 4
_pStringMgr$ = -32					; size = 4
_pOldData$ = -20					; size = 4
_this$ = -8						; size = 4
?Empty@?$CSimpleStringT@G$0A@@ATL@@QAEXXZ PROC NEAR	; ATL::CSimpleStringT<unsigned short,0>::Empty, COMDAT
; _this$ = ecx

; 421  : 	{

	push	ebp
	mov	ebp, esp
	sub	esp, 240				; 000000f0H
	push	ebx
	push	esi
	push	edi
	push	ecx
	lea	edi, DWORD PTR [ebp-240]
	mov	ecx, 60					; 0000003cH
	mov	eax, -858993460				; ccccccccH
	rep stosd
	pop	ecx
	mov	DWORD PTR _this$[ebp], ecx

; 422  : 		CStringData* pOldData = GetData();

	mov	ecx, DWORD PTR _this$[ebp]
	call	?GetData@?$CSimpleStringT@G$0A@@ATL@@ABEPAUCStringData@2@XZ ; ATL::CSimpleStringT<unsigned short,0>::GetData
	mov	DWORD PTR _pOldData$[ebp], eax

; 423  : 		IAtlStringMgr* pStringMgr = pOldData->pStringMgr;

	mov	eax, DWORD PTR _pOldData$[ebp]
	mov	ecx, DWORD PTR [eax]
	mov	DWORD PTR _pStringMgr$[ebp], ecx

; 424  : 		if( pOldData->nDataLength == 0 )

	mov	eax, DWORD PTR _pOldData$[ebp]
	cmp	DWORD PTR [eax+4], 0
	jne	SHORT $L92793

; 425  : 		{
; 426  : 			return;

	jmp	SHORT $L92790
$L92793:

; 427  : 		}
; 428  : 
; 429  : 		if( pOldData->IsLocked() )

	mov	ecx, DWORD PTR _pOldData$[ebp]
	call	?IsLocked@CStringData@ATL@@QBE_NXZ	; ATL::CStringData::IsLocked
	movzx	eax, al
	test	eax, eax
	je	SHORT $L92794

; 430  : 		{
; 431  : 			// Don't reallocate a locked buffer that's shrinking
; 432  : 			SetLength( 0 );

	push	0
	mov	ecx, DWORD PTR _this$[ebp]
	call	?SetLength@?$CSimpleStringT@G$0A@@ATL@@AAEXH@Z ; ATL::CSimpleStringT<unsigned short,0>::SetLength

; 433  : 		}
; 434  : 		else

	jmp	SHORT $L92790
$L92794:

; 435  : 		{
; 436  : 			pOldData->Release();

	mov	ecx, DWORD PTR _pOldData$[ebp]
	call	?Release@CStringData@ATL@@QAEXXZ	; ATL::CStringData::Release

; 437  : 			CStringData* pNewData = pStringMgr->GetNilString();

	mov	eax, DWORD PTR _pStringMgr$[ebp]
	mov	edx, DWORD PTR [eax]
	mov	esi, esp
	mov	ecx, DWORD PTR _pStringMgr$[ebp]
	call	DWORD PTR [edx+12]
	cmp	esi, esp
	call	__RTC_CheckEsp
	mov	DWORD PTR _pNewData$92796[ebp], eax

; 438  : 			Attach( pNewData );

	mov	eax, DWORD PTR _pNewData$92796[ebp]
	push	eax
	mov	ecx, DWORD PTR _this$[ebp]
	call	?Attach@?$CSimpleStringT@G$0A@@ATL@@AAEXPAUCStringData@2@@Z ; ATL::CSimpleStringT<unsigned short,0>::Attach
$L92790:

; 439  : 		}
; 440  : 	}

	pop	edi
	pop	esi
	pop	ebx
	add	esp, 240				; 000000f0H
	cmp	ebp, esp
	call	__RTC_CheckEsp
	mov	esp, ebp
	pop	ebp
	ret	0
?Empty@?$CSimpleStringT@G$0A@@ATL@@QAEXXZ ENDP		; ATL::CSimpleStringT<unsigned short,0>::Empty
_TEXT	ENDS
PUBLIC	??_C@_0N@ILOMLJGA@nLength?5?$DO?$DN?50?$AA@	; `string'
PUBLIC	??_C@_0CD@EEFFJEGJ@nLength?5?$DM?$DN?5GetData?$CI?$CJ?9?$DOnAllocLeng@ ; `string'
PUBLIC	?AtlThrow@ATL@@YGXJ@Z				; ATL::AtlThrow
;	COMDAT ??_C@_0N@ILOMLJGA@nLength?5?$DO?$DN?50?$AA@
CONST	SEGMENT
??_C@_0N@ILOMLJGA@nLength?5?$DO?$DN?50?$AA@ DB 'nLength >= 0', 00H ; `string'
CONST	ENDS
;	COMDAT ??_C@_0CD@EEFFJEGJ@nLength?5?$DM?$DN?5GetData?$CI?$CJ?9?$DOnAllocLeng@
CONST	SEGMENT
??_C@_0CD@EEFFJEGJ@nLength?5?$DM?$DN?5GetData?$CI?$CJ?9?$DOnAllocLeng@ DB 'n'
	DB	'Length <= GetData()->nAllocLength', 00H	; `string'
; Function compile flags: /Odt /RTCcsu /ZI
CONST	ENDS
;	COMDAT ?SetLength@?$CSimpleStringT@G$0A@@ATL@@AAEXH@Z
_TEXT	SEGMENT
_this$ = -8						; size = 4
_nLength$ = 8						; size = 4
?SetLength@?$CSimpleStringT@G$0A@@ATL@@AAEXH@Z PROC NEAR ; ATL::CSimpleStringT<unsigned short,0>::SetLength, COMDAT
; _this$ = ecx

; 789  : 	{

	push	ebp
	mov	ebp, esp
	sub	esp, 204				; 000000ccH
	push	ebx
	push	esi
	push	edi
	push	ecx
	lea	edi, DWORD PTR [ebp-204]
	mov	ecx, 51					; 00000033H
	mov	eax, -858993460				; ccccccccH
	rep stosd
	pop	ecx
	mov	DWORD PTR _this$[ebp], ecx

; 790  : 		ATLASSERT( nLength >= 0 );

	cmp	DWORD PTR _nLength$[ebp], 0
	jge	SHORT $L93980
	push	OFFSET FLAT:??_C@_0N@ILOMLJGA@nLength?5?$DO?$DN?50?$AA@
	push	0
	push	790					; 00000316H
	push	OFFSET FLAT:??_C@_0FD@JDCNPMMG@c?3?2program?5files?2microsoft?5visua@
	push	2
	call	__CrtDbgReport
	add	esp, 20					; 00000014H
	cmp	eax, 1
	jne	SHORT $L93980
	int	3
$L93980:

; 791  : 		ATLASSERT( nLength <= GetData()->nAllocLength );

	mov	ecx, DWORD PTR _this$[ebp]
	call	?GetData@?$CSimpleStringT@G$0A@@ATL@@ABEPAUCStringData@2@XZ ; ATL::CSimpleStringT<unsigned short,0>::GetData
	mov	ecx, DWORD PTR _nLength$[ebp]
	cmp	ecx, DWORD PTR [eax+8]
	jle	SHORT $L93981
	push	OFFSET FLAT:??_C@_0CD@EEFFJEGJ@nLength?5?$DM?$DN?5GetData?$CI?$CJ?9?$DOnAllocLeng@
	push	0
	push	791					; 00000317H
	push	OFFSET FLAT:??_C@_0FD@JDCNPMMG@c?3?2program?5files?2microsoft?5visua@
	push	2
	call	__CrtDbgReport
	add	esp, 20					; 00000014H
	cmp	eax, 1
	jne	SHORT $L93981
	int	3
$L93981:

; 792  : 
; 793  : 		if( nLength < 0 || nLength > GetData()->nAllocLength)

	cmp	DWORD PTR _nLength$[ebp], 0
	jl	SHORT $L92769
	mov	ecx, DWORD PTR _this$[ebp]
	call	?GetData@?$CSimpleStringT@G$0A@@ATL@@ABEPAUCStringData@2@XZ ; ATL::CSimpleStringT<unsigned short,0>::GetData
	mov	ecx, DWORD PTR _nLength$[ebp]
	cmp	ecx, DWORD PTR [eax+8]
	jle	SHORT $L92768
$L92769:

; 794  : 			AtlThrow(E_INVALIDARG);

	push	-2147024809				; 80070057H
	call	?AtlThrow@ATL@@YGXJ@Z			; ATL::AtlThrow
$L92768:

; 795  : 			
; 796  : 		GetData()->nDataLength = nLength;

	mov	ecx, DWORD PTR _this$[ebp]
	call	?GetData@?$CSimpleStringT@G$0A@@ATL@@ABEPAUCStringData@2@XZ ; ATL::CSimpleStringT<unsigned short,0>::GetData
	mov	ecx, DWORD PTR _nLength$[ebp]
	mov	DWORD PTR [eax+4], ecx

; 797  : 		m_pszData[nLength] = 0;

	mov	eax, DWORD PTR _this$[ebp]
	mov	ecx, DWORD PTR [eax]
	mov	edx, DWORD PTR _nLength$[ebp]
	mov	WORD PTR [ecx+edx*2], 0
$L93979:

; 798  : 	}

	pop	edi
	pop	esi
	pop	ebx
	add	esp, 204				; 000000ccH
	cmp	ebp, esp
	call	__RTC_CheckEsp
	mov	esp, ebp
	pop	ebp
	ret	4
?SetLength@?$CSimpleStringT@G$0A@@ATL@@AAEXH@Z ENDP	; ATL::CSimpleStringT<unsigned short,0>::SetLength
_TEXT	ENDS
PUBLIC	?__LINE__Var@?1??AtlThrow@ATL@@YGXJ@Z@4JA	; `ATL::AtlThrow'::`2'::__LINE__Var
PUBLIC	??_C@_0FC@IPKABFFL@c?3?2program?5files?2microsoft?5visua@ ; `string'
PUBLIC	??_C@_1CK@DFMKPFAK@?$AAA?$AAt?$AAl?$AAT?$AAh?$AAr?$AAo?$AAw?$AA?3?$AA?5?$AAh?$AAr?$AA?5?$AA?$DN?$AA?5?$AA0?$AAx?$AA?$CF?$AAx?$AA?6@ ; `string'
EXTRN	?atlTraceException@ATL@@3VCTraceCategory@1@A:DWORD ; ATL::atlTraceException
EXTRN	?AfxThrowMemoryException@@YGXXZ:NEAR		; AfxThrowMemoryException
EXTRN	?AfxThrowOleException@@YGXJ@Z:NEAR		; AfxThrowOleException
;	COMDAT ??_C@_1CK@DFMKPFAK@?$AAA?$AAt?$AAl?$AAT?$AAh?$AAr?$AAo?$AAw?$AA?3?$AA?5?$AAh?$AAr?$AA?5?$AA?$DN?$AA?5?$AA0?$AAx?$AA?$CF?$AAx?$AA?6@
; File c:\program files\microsoft visual studio .net 2003\vc7\atlmfc\include\atlexcept.h
CONST	SEGMENT
??_C@_1CK@DFMKPFAK@?$AAA?$AAt?$AAl?$AAT?$AAh?$AAr?$AAo?$AAw?$AA?3?$AA?5?$AAh?$AAr?$AA?5?$AA?$DN?$AA?5?$AA0?$AAx?$AA?$CF?$AAx?$AA?6@ DB 'A'
	DB	00H, 't', 00H, 'l', 00H, 'T', 00H, 'h', 00H, 'r', 00H, 'o', 00H
	DB	'w', 00H, ':', 00H, ' ', 00H, 'h', 00H, 'r', 00H, ' ', 00H, '='
	DB	00H, ' ', 00H, '0', 00H, 'x', 00H, '%', 00H, 'x', 00H, 0aH, 00H
	DB	00H, 00H					; `string'
CONST	ENDS
;	COMDAT ?__LINE__Var@?1??AtlThrow@ATL@@YGXJ@Z@4JA
_DATA	SEGMENT
?__LINE__Var@?1??AtlThrow@ATL@@YGXJ@Z@4JA DD 03dH	; `ATL::AtlThrow'::`2'::__LINE__Var
_DATA	ENDS
;	COMDAT ??_C@_0FC@IPKABFFL@c?3?2program?5files?2microsoft?5visua@
CONST	SEGMENT
??_C@_0FC@IPKABFFL@c?3?2program?5files?2microsoft?5visua@ DB 'c:\program '
	DB	'files\microsoft visual studio .net 2003\vc7\atlmfc\include\at'
	DB	'lexcept.h', 00H				; `string'
; Function compile flags: /Odt /RTCcsu /ZI
CONST	ENDS
;	COMDAT ?AtlThrow@ATL@@YGXJ@Z
_TEXT	SEGMENT
$T93984 = -204						; size = 8
_hr$ = 8						; size = 4
?AtlThrow@ATL@@YGXJ@Z PROC NEAR				; ATL::AtlThrow, COMDAT

; 61   : {

	push	ebp
	mov	ebp, esp
	sub	esp, 208				; 000000d0H
	push	ebx
	push	esi
	push	edi
	lea	edi, DWORD PTR [ebp-208]
	mov	ecx, 52					; 00000034H
	mov	eax, -858993460				; ccccccccH
	rep stosd

; 62   : 	ATLTRACE(atlTraceException, 0, _T("AtlThrow: hr = 0x%x\n"), hr );

	mov	eax, DWORD PTR _hr$[ebp]
	push	eax
	push	OFFSET FLAT:??_C@_1CK@DFMKPFAK@?$AAA?$AAt?$AAl?$AAT?$AAh?$AAr?$AAo?$AAw?$AA?3?$AA?5?$AAh?$AAr?$AA?5?$AA?$DN?$AA?5?$AA0?$AAx?$AA?$CF?$AAx?$AA?6@
	push	0
	mov	ecx, OFFSET FLAT:?atlTraceException@ATL@@3VCTraceCategory@1@A ; ATL::atlTraceException
	call	??BCTraceCategory@ATL@@QBEKXZ		; ATL::CTraceCategory::operator unsigned long
	push	eax
	mov	ecx, DWORD PTR ?__LINE__Var@?1??AtlThrow@ATL@@YGXJ@Z@4JA
	add	ecx, 1
	push	ecx
	push	OFFSET FLAT:??_C@_0FC@IPKABFFL@c?3?2program?5files?2microsoft?5visua@
	lea	ecx, DWORD PTR $T93984[ebp]
	call	??0CTraceFileAndLineInfo@ATL@@QAE@PBDH@Z ; ATL::CTraceFileAndLineInfo::CTraceFileAndLineInfo
	push	eax
	call	??RCTraceFileAndLineInfo@ATL@@QBAXKIPBGZZ ; ATL::CTraceFileAndLineInfo::operator()
	add	esp, 20					; 00000014H

; 63   : #ifdef _AFX
; 64   : 	if( hr == E_OUTOFMEMORY )

	cmp	DWORD PTR _hr$[ebp], -2147024882	; 8007000eH
	jne	SHORT $L25398

; 65   : 	{
; 66   : 		AfxThrowMemoryException();

	call	?AfxThrowMemoryException@@YGXXZ		; AfxThrowMemoryException
$L25398:

; 67   : 	}
; 68   : 	else
; 69   : 	{
; 70   : 		AfxThrowOleException( hr );

	mov	eax, DWORD PTR _hr$[ebp]
	push	eax
	call	?AfxThrowOleException@@YGXJ@Z		; AfxThrowOleException
$L93983:

; 71   : 	}
; 72   : #else
; 73   : 	throw CAtlException( hr );
; 74   : #endif
; 75   : };

	pop	edi
	pop	esi
	pop	ebx
	add	esp, 208				; 000000d0H
	cmp	ebp, esp
	call	__RTC_CheckEsp
	mov	esp, ebp
	pop	ebp
	ret	4
?AtlThrow@ATL@@YGXJ@Z ENDP				; ATL::AtlThrow
_TEXT	ENDS
PUBLIC	??_C@_0BA@GNIEOBOF@nNewLength?5?$DO?$DN?50?$AA@	; `string'
;	COMDAT ??_C@_0BA@GNIEOBOF@nNewLength?5?$DO?$DN?50?$AA@
; File c:\program files\microsoft visual studio .net 2003\vc7\atlmfc\include\atlsimpstr.h
CONST	SEGMENT
??_C@_0BA@GNIEOBOF@nNewLength?5?$DO?$DN?50?$AA@ DB 'nNewLength >= 0', 00H ; `string'
; Function compile flags: /Odt /RTCcsu /ZI
CONST	ENDS
;	COMDAT ?ReleaseBufferSetLength@?$CSimpleStringT@G$0A@@ATL@@QAEXH@Z
_TEXT	SEGMENT
_this$ = -8						; size = 4
_nNewLength$ = 8					; size = 4
?ReleaseBufferSetLength@?$CSimpleStringT@G$0A@@ATL@@QAEXH@Z PROC NEAR ; ATL::CSimpleStringT<unsigned short,0>::ReleaseBufferSetLength, COMDAT
; _this$ = ecx

; 546  : 	{

	push	ebp
	mov	ebp, esp
	sub	esp, 204				; 000000ccH
	push	ebx
	push	esi
	push	edi
	push	ecx
	lea	edi, DWORD PTR [ebp-204]
	mov	ecx, 51					; 00000033H
	mov	eax, -858993460				; ccccccccH
	rep stosd
	pop	ecx
	mov	DWORD PTR _this$[ebp], ecx

; 547  : 		ATLASSERT( nNewLength >= 0 );

	cmp	DWORD PTR _nNewLength$[ebp], 0
	jge	SHORT $L93987
	push	OFFSET FLAT:??_C@_0BA@GNIEOBOF@nNewLength?5?$DO?$DN?50?$AA@
	push	0
	push	547					; 00000223H
	push	OFFSET FLAT:??_C@_0FD@JDCNPMMG@c?3?2program?5files?2microsoft?5visua@
	push	2
	call	__CrtDbgReport
	add	esp, 20					; 00000014H
	cmp	eax, 1
	jne	SHORT $L93987
	int	3
$L93987:

; 548  : 		SetLength( nNewLength );

	mov	eax, DWORD PTR _nNewLength$[ebp]
	push	eax
	mov	ecx, DWORD PTR _this$[ebp]
	call	?SetLength@?$CSimpleStringT@G$0A@@ATL@@AAEXH@Z ; ATL::CSimpleStringT<unsigned short,0>::SetLength

; 549  : 	}

	pop	edi
	pop	esi
	pop	ebx
	add	esp, 204				; 000000ccH
	cmp	ebp, esp
	call	__RTC_CheckEsp
	mov	esp, ebp
	pop	ebp
	ret	4
?ReleaseBufferSetLength@?$CSimpleStringT@G$0A@@ATL@@QAEXH@Z ENDP ; ATL::CSimpleStringT<unsigned short,0>::ReleaseBufferSetLength
_TEXT	ENDS
PUBLIC	?data@CStringData@ATL@@QAEPAXXZ			; ATL::CStringData::data
; Function compile flags: /Odt /RTCcsu /ZI
;	COMDAT ?Attach@?$CSimpleStringT@G$0A@@ATL@@AAEXPAUCStringData@2@@Z
_TEXT	SEGMENT
_this$ = -8						; size = 4
_pData$ = 8						; size = 4
?Attach@?$CSimpleStringT@G$0A@@ATL@@AAEXPAUCStringData@2@@Z PROC NEAR ; ATL::CSimpleStringT<unsigned short,0>::Attach, COMDAT
; _this$ = ecx

; 711  : 	{

	push	ebp
	mov	ebp, esp
	sub	esp, 204				; 000000ccH
	push	ebx
	push	esi
	push	edi
	push	ecx
	lea	edi, DWORD PTR [ebp-204]
	mov	ecx, 51					; 00000033H
	mov	eax, -858993460				; ccccccccH
	rep stosd
	pop	ecx
	mov	DWORD PTR _this$[ebp], ecx

; 712  : 		m_pszData = static_cast< PXSTR >( pData->data() );

	mov	ecx, DWORD PTR _pData$[ebp]
	call	?data@CStringData@ATL@@QAEPAXXZ		; ATL::CStringData::data
	mov	ecx, DWORD PTR _this$[ebp]
	mov	DWORD PTR [ecx], eax

; 713  : 	}

	pop	edi
	pop	esi
	pop	ebx
	add	esp, 204				; 000000ccH
	cmp	ebp, esp
	call	__RTC_CheckEsp
	mov	esp, ebp
	pop	ebp
	ret	4
?Attach@?$CSimpleStringT@G$0A@@ATL@@AAEXPAUCStringData@2@@Z ENDP ; ATL::CSimpleStringT<unsigned short,0>::Attach
; Function compile flags: /Odt /RTCcsu /ZI
_TEXT	ENDS
;	COMDAT ?data@CStringData@ATL@@QAEPAXXZ
_TEXT	SEGMENT
_this$ = -8						; size = 4
?data@CStringData@ATL@@QAEPAXXZ PROC NEAR		; ATL::CStringData::data, COMDAT
; _this$ = ecx

; 65   : 	{

	push	ebp
	mov	ebp, esp
	sub	esp, 204				; 000000ccH
	push	ebx
	push	esi
	push	edi
	push	ecx
	lea	edi, DWORD PTR [ebp-204]
	mov	ecx, 51					; 00000033H
	mov	eax, -858993460				; ccccccccH
	rep stosd
	pop	ecx
	mov	DWORD PTR _this$[ebp], ecx

; 66   : 		return (this+1);

	mov	eax, DWORD PTR _this$[ebp]
	add	eax, 16					; 00000010H

; 67   : 	}

	pop	edi
	pop	esi
	pop	ebx
	mov	esp, ebp
	pop	ebp
	ret	0
?data@CStringData@ATL@@QAEPAXXZ ENDP			; ATL::CStringData::data
_TEXT	ENDS
PUBLIC	?IsShared@CStringData@ATL@@QBE_NXZ		; ATL::CStringData::IsShared
PUBLIC	?Fork@?$CSimpleStringT@G$0A@@ATL@@AAEXH@Z	; ATL::CSimpleStringT<unsigned short,0>::Fork
PUBLIC	?Reallocate@?$CSimpleStringT@G$0A@@ATL@@AAEXH@Z	; ATL::CSimpleStringT<unsigned short,0>::Reallocate
; Function compile flags: /Odt /RTCcsu /ZI
;	COMDAT ?PrepareWrite2@?$CSimpleStringT@G$0A@@ATL@@AAEXH@Z
_TEXT	SEGMENT
_nNewLength$92813 = -32					; size = 4
_pOldData$ = -20					; size = 4
_this$ = -8						; size = 4
_nLength$ = 8						; size = 4
?PrepareWrite2@?$CSimpleStringT@G$0A@@ATL@@AAEXH@Z PROC NEAR ; ATL::CSimpleStringT<unsigned short,0>::PrepareWrite2, COMDAT
; _this$ = ecx

; 746  : 	{

	push	ebp
	mov	ebp, esp
	sub	esp, 228				; 000000e4H
	push	ebx
	push	esi
	push	edi
	push	ecx
	lea	edi, DWORD PTR [ebp-228]
	mov	ecx, 57					; 00000039H
	mov	eax, -858993460				; ccccccccH
	rep stosd
	pop	ecx
	mov	DWORD PTR _this$[ebp], ecx

; 747  : 		CStringData* pOldData = GetData();

	mov	ecx, DWORD PTR _this$[ebp]
	call	?GetData@?$CSimpleStringT@G$0A@@ATL@@ABEPAUCStringData@2@XZ ; ATL::CSimpleStringT<unsigned short,0>::GetData
	mov	DWORD PTR _pOldData$[ebp], eax

; 748  : 		if( pOldData->nDataLength > nLength )

	mov	eax, DWORD PTR _pOldData$[ebp]
	mov	ecx, DWORD PTR [eax+4]
	cmp	ecx, DWORD PTR _nLength$[ebp]
	jle	SHORT $L92809

; 749  : 		{
; 750  : 			nLength = pOldData->nDataLength;

	mov	eax, DWORD PTR _pOldData$[ebp]
	mov	ecx, DWORD PTR [eax+4]
	mov	DWORD PTR _nLength$[ebp], ecx
$L92809:

; 751  : 		}
; 752  : 		if( pOldData->IsShared() )

	mov	ecx, DWORD PTR _pOldData$[ebp]
	call	?IsShared@CStringData@ATL@@QBE_NXZ	; ATL::CStringData::IsShared
	movzx	eax, al
	test	eax, eax
	je	SHORT $L92810

; 753  : 		{
; 754  : 			Fork( nLength );

	mov	eax, DWORD PTR _nLength$[ebp]
	push	eax
	mov	ecx, DWORD PTR _this$[ebp]
	call	?Fork@?$CSimpleStringT@G$0A@@ATL@@AAEXH@Z ; ATL::CSimpleStringT<unsigned short,0>::Fork

; 755  : 		}
; 756  : 		else if( pOldData->nAllocLength < nLength )

	jmp	SHORT $L92807
$L92810:
	mov	eax, DWORD PTR _pOldData$[ebp]
	mov	ecx, DWORD PTR [eax+8]
	cmp	ecx, DWORD PTR _nLength$[ebp]
	jge	SHORT $L92807

; 757  : 		{
; 758  : 			// Grow exponentially, until we hit 1K.
; 759  : 			int nNewLength = pOldData->nAllocLength;

	mov	eax, DWORD PTR _pOldData$[ebp]
	mov	ecx, DWORD PTR [eax+8]
	mov	DWORD PTR _nNewLength$92813[ebp], ecx

; 760  : 			if( nNewLength > 1024 )

	cmp	DWORD PTR _nNewLength$92813[ebp], 1024	; 00000400H
	jle	SHORT $L92814

; 761  : 			{
; 762  : 				nNewLength += 1024;

	mov	eax, DWORD PTR _nNewLength$92813[ebp]
	add	eax, 1024				; 00000400H
	mov	DWORD PTR _nNewLength$92813[ebp], eax

; 763  : 			}
; 764  : 			else

	jmp	SHORT $L92815
$L92814:

; 765  : 			{
; 766  : 				nNewLength *= 2;

	mov	eax, DWORD PTR _nNewLength$92813[ebp]
	shl	eax, 1
	mov	DWORD PTR _nNewLength$92813[ebp], eax
$L92815:

; 767  : 			}
; 768  : 			if( nNewLength < nLength )

	mov	eax, DWORD PTR _nNewLength$92813[ebp]
	cmp	eax, DWORD PTR _nLength$[ebp]
	jge	SHORT $L92816

; 769  : 			{
; 770  : 				nNewLength = nLength;

	mov	eax, DWORD PTR _nLength$[ebp]
	mov	DWORD PTR _nNewLength$92813[ebp], eax
$L92816:

; 771  : 			}
; 772  : 			Reallocate( nNewLength );

	mov	eax, DWORD PTR _nNewLength$92813[ebp]
	push	eax
	mov	ecx, DWORD PTR _this$[ebp]
	call	?Reallocate@?$CSimpleStringT@G$0A@@ATL@@AAEXH@Z ; ATL::CSimpleStringT<unsigned short,0>::Reallocate
$L92807:

; 773  : 		}
; 774  : 	}

	pop	edi
	pop	esi
	pop	ebx
	add	esp, 228				; 000000e4H
	cmp	ebp, esp
	call	__RTC_CheckEsp
	mov	esp, ebp
	pop	ebp
	ret	4
?PrepareWrite2@?$CSimpleStringT@G$0A@@ATL@@AAEXH@Z ENDP	; ATL::CSimpleStringT<unsigned short,0>::PrepareWrite2
; Function compile flags: /Odt /RTCcsu /ZI
_TEXT	ENDS
;	COMDAT ?IsShared@CStringData@ATL@@QBE_NXZ
_TEXT	SEGMENT
_this$ = -8						; size = 4
?IsShared@CStringData@ATL@@QBE_NXZ PROC NEAR		; ATL::CStringData::IsShared, COMDAT
; _this$ = ecx

; 79   : 	{

	push	ebp
	mov	ebp, esp
	sub	esp, 204				; 000000ccH
	push	ebx
	push	esi
	push	edi
	push	ecx
	lea	edi, DWORD PTR [ebp-204]
	mov	ecx, 51					; 00000033H
	mov	eax, -858993460				; ccccccccH
	rep stosd
	pop	ecx
	mov	DWORD PTR _this$[ebp], ecx

; 80   : 		return( nRefs > 1 ); 

	mov	eax, DWORD PTR _this$[ebp]
	xor	ecx, ecx
	cmp	DWORD PTR [eax+12], 1
	setg	cl
	call	@_RTC_Check_4_to_1@4

; 81   : 	}

	pop	edi
	pop	esi
	pop	ebx
	add	esp, 204				; 000000ccH
	cmp	ebp, esp
	call	__RTC_CheckEsp
	mov	esp, ebp
	pop	ebp
	ret	0
?IsShared@CStringData@ATL@@QBE_NXZ ENDP			; ATL::CStringData::IsShared
_TEXT	ENDS
PUBLIC	?AddRef@CStringData@ATL@@QAEXXZ			; ATL::CStringData::AddRef
PUBLIC	?CopyChars@?$CSimpleStringT@G$0A@@ATL@@SAXPAGPBGH@Z ; ATL::CSimpleStringT<unsigned short,0>::CopyChars
PUBLIC	?ThrowMemoryException@?$CSimpleStringT@G$0A@@ATL@@KAXXZ ; ATL::CSimpleStringT<unsigned short,0>::ThrowMemoryException
; Function compile flags: /Odt /RTCcsu /ZI
;	COMDAT ?CloneData@?$CSimpleStringT@G$0A@@ATL@@CAPAUCStringData@2@PAU32@@Z
_TEXT	SEGMENT
_pNewStringMgr$ = -20					; size = 4
_pNewData$ = -8						; size = 4
_pData$ = 8						; size = 4
?CloneData@?$CSimpleStringT@G$0A@@ATL@@CAPAUCStringData@2@PAU32@@Z PROC NEAR ; ATL::CSimpleStringT<unsigned short,0>::CloneData, COMDAT

; 801  : 	{

	push	ebp
	mov	ebp, esp
	sub	esp, 216				; 000000d8H
	push	ebx
	push	esi
	push	edi
	lea	edi, DWORD PTR [ebp-216]
	mov	ecx, 54					; 00000036H
	mov	eax, -858993460				; ccccccccH
	rep stosd

; 802  : 		CStringData* pNewData = NULL;

	mov	DWORD PTR _pNewData$[ebp], 0

; 803  : 
; 804  : 		IAtlStringMgr* pNewStringMgr = pData->pStringMgr->Clone();

	mov	eax, DWORD PTR _pData$[ebp]
	mov	ecx, DWORD PTR [eax]
	mov	edx, DWORD PTR _pData$[ebp]
	mov	eax, DWORD PTR [edx]
	mov	edx, DWORD PTR [ecx]
	mov	esi, esp
	mov	ecx, eax
	call	DWORD PTR [edx+16]
	cmp	esi, esp
	call	__RTC_CheckEsp
	mov	DWORD PTR _pNewStringMgr$[ebp], eax

; 805  : 		if( !pData->IsLocked() && (pNewStringMgr == pData->pStringMgr) )

	mov	ecx, DWORD PTR _pData$[ebp]
	call	?IsLocked@CStringData@ATL@@QBE_NXZ	; ATL::CStringData::IsLocked
	movzx	eax, al
	test	eax, eax
	jne	SHORT $L92820
	mov	eax, DWORD PTR _pData$[ebp]
	mov	ecx, DWORD PTR _pNewStringMgr$[ebp]
	cmp	ecx, DWORD PTR [eax]
	jne	SHORT $L92820

; 806  : 		{
; 807  : 			pNewData = pData;

	mov	eax, DWORD PTR _pData$[ebp]
	mov	DWORD PTR _pNewData$[ebp], eax

; 808  : 			pNewData->AddRef();

	mov	ecx, DWORD PTR _pNewData$[ebp]
	call	?AddRef@CStringData@ATL@@QAEXXZ		; ATL::CStringData::AddRef

; 809  : 		}
; 810  : 		else

	jmp	SHORT $L92821
$L92820:

; 811  : 		{
; 812  : 			pNewData = pNewStringMgr->Allocate( pData->nDataLength, sizeof( XCHAR ) );

	mov	esi, esp
	push	2
	mov	eax, DWORD PTR _pData$[ebp]
	mov	ecx, DWORD PTR [eax+4]
	push	ecx
	mov	edx, DWORD PTR _pNewStringMgr$[ebp]
	mov	eax, DWORD PTR [edx]
	mov	ecx, DWORD PTR _pNewStringMgr$[ebp]
	call	DWORD PTR [eax]
	cmp	esi, esp
	call	__RTC_CheckEsp
	mov	DWORD PTR _pNewData$[ebp], eax

; 813  : 			if( pNewData == NULL )

	cmp	DWORD PTR _pNewData$[ebp], 0
	jne	SHORT $L92823

; 814  : 			{
; 815  : 				ThrowMemoryException();

	call	?ThrowMemoryException@?$CSimpleStringT@G$0A@@ATL@@KAXXZ ; ATL::CSimpleStringT<unsigned short,0>::ThrowMemoryException
$L92823:

; 816  : 			}
; 817  : 			pNewData->nDataLength = pData->nDataLength;

	mov	eax, DWORD PTR _pNewData$[ebp]
	mov	ecx, DWORD PTR _pData$[ebp]
	mov	edx, DWORD PTR [ecx+4]
	mov	DWORD PTR [eax+4], edx

; 818  : 			CopyChars( PXSTR( pNewData->data() ), PCXSTR( pData->data() ), pData->nDataLength+1 );  // Copy '\0'

	mov	eax, DWORD PTR _pData$[ebp]
	mov	ecx, DWORD PTR [eax+4]
	add	ecx, 1
	push	ecx
	mov	ecx, DWORD PTR _pData$[ebp]
	call	?data@CStringData@ATL@@QAEPAXXZ		; ATL::CStringData::data
	push	eax
	mov	ecx, DWORD PTR _pNewData$[ebp]
	call	?data@CStringData@ATL@@QAEPAXXZ		; ATL::CStringData::data
	push	eax
	call	?CopyChars@?$CSimpleStringT@G$0A@@ATL@@SAXPAGPBGH@Z ; ATL::CSimpleStringT<unsigned short,0>::CopyChars
	add	esp, 12					; 0000000cH
$L92821:

; 819  : 		}
; 820  : 
; 821  : 		return( pNewData );

	mov	eax, DWORD PTR _pNewData$[ebp]
$L93997:

; 822  : 	}

	pop	edi
	pop	esi
	pop	ebx
	add	esp, 216				; 000000d8H
	cmp	ebp, esp
	call	__RTC_CheckEsp
	mov	esp, ebp
	pop	ebp
	ret	0
?CloneData@?$CSimpleStringT@G$0A@@ATL@@CAPAUCStringData@2@PAU32@@Z ENDP ; ATL::CSimpleStringT<unsigned short,0>::CloneData
_TEXT	ENDS
PUBLIC	??_C@_09EEBKLCFA@nRefs?5?$DO?50?$AA@		; `string'
;	COMDAT ??_C@_09EEBKLCFA@nRefs?5?$DO?50?$AA@
CONST	SEGMENT
??_C@_09EEBKLCFA@nRefs?5?$DO?50?$AA@ DB 'nRefs > 0', 00H ; `string'
; Function compile flags: /Odt /RTCcsu /ZI
CONST	ENDS
;	COMDAT ?AddRef@CStringData@ATL@@QAEXXZ
_TEXT	SEGMENT
_this$ = -8						; size = 4
?AddRef@CStringData@ATL@@QAEXXZ PROC NEAR		; ATL::CStringData::AddRef, COMDAT
; _this$ = ecx

; 70   : 	{

	push	ebp
	mov	ebp, esp
	sub	esp, 204				; 000000ccH
	push	ebx
	push	esi
	push	edi
	push	ecx
	lea	edi, DWORD PTR [ebp-204]
	mov	ecx, 51					; 00000033H
	mov	eax, -858993460				; ccccccccH
	rep stosd
	pop	ecx
	mov	DWORD PTR _this$[ebp], ecx

; 71   : 		ATLASSERT(nRefs > 0);

	mov	eax, DWORD PTR _this$[ebp]
	cmp	DWORD PTR [eax+12], 0
	jg	SHORT $L94000
	push	OFFSET FLAT:??_C@_09EEBKLCFA@nRefs?5?$DO?50?$AA@
	push	0
	push	71					; 00000047H
	push	OFFSET FLAT:??_C@_0FD@JDCNPMMG@c?3?2program?5files?2microsoft?5visua@
	push	2
	call	__CrtDbgReport
	add	esp, 20					; 00000014H
	cmp	eax, 1
	jne	SHORT $L94000
	int	3
$L94000:

; 72   : 		_InterlockedIncrement(&nRefs);

	mov	eax, DWORD PTR _this$[ebp]
	add	eax, 12					; 0000000cH
	mov	ecx, 1
	lock	 xadd	 DWORD PTR [eax], ecx

; 73   : 	}

	pop	edi
	pop	esi
	pop	ebx
	add	esp, 204				; 000000ccH
	cmp	ebp, esp
	call	__RTC_CheckEsp
	mov	esp, ebp
	pop	ebp
	ret	0
?AddRef@CStringData@ATL@@QAEXXZ ENDP			; ATL::CStringData::AddRef
_TEXT	ENDS
PUBLIC	?CopyCharsOverlapped@?$CSimpleStringT@G$0A@@ATL@@SAXPAGPBGH@Z ; ATL::CSimpleStringT<unsigned short,0>::CopyCharsOverlapped
; Function compile flags: /Odt /RTCcsu /ZI
;	COMDAT ?SetString@?$CSimpleStringT@G$0A@@ATL@@QAEXPBGH@Z
_TEXT	SEGMENT
_pszBuffer$92832 = -44					; size = 4
_nOffset$92831 = -32					; size = 4
_nOldLength$92830 = -20					; size = 4
_this$ = -8						; size = 4
_pszSrc$ = 8						; size = 4
_nLength$ = 12						; size = 4
?SetString@?$CSimpleStringT@G$0A@@ATL@@QAEXPBGH@Z PROC NEAR ; ATL::CSimpleStringT<unsigned short,0>::SetString, COMDAT
; _this$ = ecx

; 583  : 	{

	push	ebp
	mov	ebp, esp
	sub	esp, 240				; 000000f0H
	push	ebx
	push	esi
	push	edi
	push	ecx
	lea	edi, DWORD PTR [ebp-240]
	mov	ecx, 60					; 0000003cH
	mov	eax, -858993460				; ccccccccH
	rep stosd
	pop	ecx
	mov	DWORD PTR _this$[ebp], ecx

; 584  : 		if( nLength == 0 )

	cmp	DWORD PTR _nLength$[ebp], 0
	jne	SHORT $L92826

; 585  : 		{
; 586  : 			Empty();

	mov	ecx, DWORD PTR _this$[ebp]
	call	?Empty@?$CSimpleStringT@G$0A@@ATL@@QAEXXZ ; ATL::CSimpleStringT<unsigned short,0>::Empty

; 587  : 		}
; 588  : 		else

	jmp	$L94002
$L92826:

; 589  : 		{
; 590  : 			// It is possible that pszSrc points to a location inside of our 
; 591  : 			// buffer.  GetBuffer() might change m_pszData if (1) the buffer 
; 592  : 			// is shared or (2) the buffer is too small to hold the new 
; 593  : 			// string.  We detect this aliasing, and modify pszSrc to point
; 594  : 			// into the newly allocated buffer instead.
; 595  : 			
; 596  : 			if(pszSrc == NULL)

	cmp	DWORD PTR _pszSrc$[ebp], 0
	jne	SHORT $L92828

; 597  : 				AtlThrow(E_INVALIDARG);			

	push	-2147024809				; 80070057H
	call	?AtlThrow@ATL@@YGXJ@Z			; ATL::AtlThrow
$L92828:

; 598  : 				
; 599  : 			UINT nOldLength = GetLength();

	mov	ecx, DWORD PTR _this$[ebp]
	call	?GetLength@?$CSimpleStringT@G$0A@@ATL@@QBEHXZ ; ATL::CSimpleStringT<unsigned short,0>::GetLength
	mov	DWORD PTR _nOldLength$92830[ebp], eax

; 600  : 			UINT_PTR nOffset = pszSrc-GetString();

	mov	ecx, DWORD PTR _this$[ebp]
	call	?GetString@?$CSimpleStringT@G$0A@@ATL@@QBEPBGXZ ; ATL::CSimpleStringT<unsigned short,0>::GetString
	mov	ecx, DWORD PTR _pszSrc$[ebp]
	sub	ecx, eax
	sar	ecx, 1
	mov	DWORD PTR _nOffset$92831[ebp], ecx

; 601  : 			// If 0 <= nOffset <= nOldLength, then pszSrc points into our 
; 602  : 			// buffer
; 603  : 
; 604  : 			PXSTR pszBuffer = GetBuffer( nLength );

	mov	eax, DWORD PTR _nLength$[ebp]
	push	eax
	mov	ecx, DWORD PTR _this$[ebp]
	call	?GetBuffer@?$CSimpleStringT@G$0A@@ATL@@QAEPAGH@Z ; ATL::CSimpleStringT<unsigned short,0>::GetBuffer
	mov	DWORD PTR _pszBuffer$92832[ebp], eax

; 605  : 			if( nOffset <= nOldLength )

	mov	eax, DWORD PTR _nOffset$92831[ebp]
	cmp	eax, DWORD PTR _nOldLength$92830[ebp]
	ja	SHORT $L92833

; 606  : 			{
; 607  : 				CopyCharsOverlapped( pszBuffer, pszBuffer+nOffset, nLength );

	mov	eax, DWORD PTR _nLength$[ebp]
	push	eax
	mov	ecx, DWORD PTR _nOffset$92831[ebp]
	mov	edx, DWORD PTR _pszBuffer$92832[ebp]
	lea	eax, DWORD PTR [edx+ecx*2]
	push	eax
	mov	ecx, DWORD PTR _pszBuffer$92832[ebp]
	push	ecx
	call	?CopyCharsOverlapped@?$CSimpleStringT@G$0A@@ATL@@SAXPAGPBGH@Z ; ATL::CSimpleStringT<unsigned short,0>::CopyCharsOverlapped
	add	esp, 12					; 0000000cH

; 608  : 			}
; 609  : 			else

	jmp	SHORT $L92834
$L92833:

; 610  : 			{
; 611  : 				CopyChars( pszBuffer, pszSrc, nLength );

	mov	eax, DWORD PTR _nLength$[ebp]
	push	eax
	mov	ecx, DWORD PTR _pszSrc$[ebp]
	push	ecx
	mov	edx, DWORD PTR _pszBuffer$92832[ebp]
	push	edx
	call	?CopyChars@?$CSimpleStringT@G$0A@@ATL@@SAXPAGPBGH@Z ; ATL::CSimpleStringT<unsigned short,0>::CopyChars
	add	esp, 12					; 0000000cH
$L92834:

; 612  : 			}
; 613  : 			ReleaseBufferSetLength( nLength );

	mov	eax, DWORD PTR _nLength$[ebp]
	push	eax
	mov	ecx, DWORD PTR _this$[ebp]
	call	?ReleaseBufferSetLength@?$CSimpleStringT@G$0A@@ATL@@QAEXH@Z ; ATL::CSimpleStringT<unsigned short,0>::ReleaseBufferSetLength
$L94002:

; 614  : 		}
; 615  : 	}

	pop	edi
	pop	esi
	pop	ebx
	add	esp, 240				; 000000f0H
	cmp	ebp, esp
	call	__RTC_CheckEsp
	mov	esp, ebp
	pop	ebp
	ret	8
?SetString@?$CSimpleStringT@G$0A@@ATL@@QAEXPBGH@Z ENDP	; ATL::CSimpleStringT<unsigned short,0>::SetString
; Function compile flags: /Odt /RTCcsu /ZI
_TEXT	ENDS
;	COMDAT ?CopyChars@?$CSimpleStringT@G$0A@@ATL@@SAXPAGPBGH@Z
_TEXT	SEGMENT
_pchDest$ = 8						; size = 4
_pchSrc$ = 12						; size = 4
_nChars$ = 16						; size = 4
?CopyChars@?$CSimpleStringT@G$0A@@ATL@@SAXPAGPBGH@Z PROC NEAR ; ATL::CSimpleStringT<unsigned short,0>::CopyChars, COMDAT

; 652  : 	{

	push	ebp
	mov	ebp, esp
	sub	esp, 192				; 000000c0H
	push	ebx
	push	esi
	push	edi
	lea	edi, DWORD PTR [ebp-192]
	mov	ecx, 48					; 00000030H
	mov	eax, -858993460				; ccccccccH
	rep stosd

; 653  : 		memcpy( pchDest, pchSrc, nChars*sizeof( XCHAR ) );

	mov	eax, DWORD PTR _nChars$[ebp]
	shl	eax, 1
	push	eax
	mov	ecx, DWORD PTR _pchSrc$[ebp]
	push	ecx
	mov	edx, DWORD PTR _pchDest$[ebp]
	push	edx
	call	_memcpy
	add	esp, 12					; 0000000cH

; 654  : 	}

	pop	edi
	pop	esi
	pop	ebx
	add	esp, 192				; 000000c0H
	cmp	ebp, esp
	call	__RTC_CheckEsp
	mov	esp, ebp
	pop	ebp
	ret	0
?CopyChars@?$CSimpleStringT@G$0A@@ATL@@SAXPAGPBGH@Z ENDP ; ATL::CSimpleStringT<unsigned short,0>::CopyChars
; Function compile flags: /Odt /RTCcsu /ZI
_TEXT	ENDS
;	COMDAT ?ThrowMemoryException@?$CSimpleStringT@G$0A@@ATL@@KAXXZ
_TEXT	SEGMENT
?ThrowMemoryException@?$CSimpleStringT@G$0A@@ATL@@KAXXZ PROC NEAR ; ATL::CSimpleStringT<unsigned short,0>::ThrowMemoryException, COMDAT

; 704  : 	{

	push	ebp
	mov	ebp, esp
	sub	esp, 192				; 000000c0H
	push	ebx
	push	esi
	push	edi
	lea	edi, DWORD PTR [ebp-192]
	mov	ecx, 48					; 00000030H
	mov	eax, -858993460				; ccccccccH
	rep stosd

; 705  : 		AtlThrow( E_OUTOFMEMORY );

	push	-2147024882				; 8007000eH
	call	?AtlThrow@ATL@@YGXJ@Z			; ATL::AtlThrow
$L94006:

; 706  : 	}

	pop	edi
	pop	esi
	pop	ebx
	add	esp, 192				; 000000c0H
	cmp	ebp, esp
	call	__RTC_CheckEsp
	mov	esp, ebp
	pop	ebp
	ret	0
?ThrowMemoryException@?$CSimpleStringT@G$0A@@ATL@@KAXXZ ENDP ; ATL::CSimpleStringT<unsigned short,0>::ThrowMemoryException
; Function compile flags: /Odt /RTCcsu /ZI
_TEXT	ENDS
;	COMDAT ?Fork@?$CSimpleStringT@G$0A@@ATL@@AAEXH@Z
_TEXT	SEGMENT
tv82 = -256						; size = 4
tv74 = -256						; size = 4
_nCharsToCopy$ = -56					; size = 4
_pNewData$ = -44					; size = 4
_nOldLength$ = -32					; size = 4
_pOldData$ = -20					; size = 4
_this$ = -8						; size = 4
_nLength$ = 8						; size = 4
?Fork@?$CSimpleStringT@G$0A@@ATL@@AAEXH@Z PROC NEAR	; ATL::CSimpleStringT<unsigned short,0>::Fork, COMDAT
; _this$ = ecx

; 715  : 	{

	push	ebp
	mov	ebp, esp
	sub	esp, 256				; 00000100H
	push	ebx
	push	esi
	push	edi
	push	ecx
	lea	edi, DWORD PTR [ebp-256]
	mov	ecx, 64					; 00000040H
	mov	eax, -858993460				; ccccccccH
	rep stosd
	pop	ecx
	mov	DWORD PTR _this$[ebp], ecx

; 716  : 		CStringData* pOldData = GetData();

	mov	ecx, DWORD PTR _this$[ebp]
	call	?GetData@?$CSimpleStringT@G$0A@@ATL@@ABEPAUCStringData@2@XZ ; ATL::CSimpleStringT<unsigned short,0>::GetData
	mov	DWORD PTR _pOldData$[ebp], eax

; 717  : 		int nOldLength = pOldData->nDataLength;

	mov	eax, DWORD PTR _pOldData$[ebp]
	mov	ecx, DWORD PTR [eax+4]
	mov	DWORD PTR _nOldLength$[ebp], ecx

; 718  : 		CStringData* pNewData = pOldData->pStringMgr->Clone()->Allocate( nLength, sizeof( XCHAR ) );

	mov	eax, DWORD PTR _pOldData$[ebp]
	mov	ecx, DWORD PTR [eax]
	mov	edx, DWORD PTR _pOldData$[ebp]
	mov	eax, DWORD PTR [edx]
	mov	edx, DWORD PTR [ecx]
	mov	esi, esp
	mov	ecx, eax
	call	DWORD PTR [edx+16]
	cmp	esi, esp
	call	__RTC_CheckEsp
	mov	DWORD PTR tv74[ebp], eax
	mov	esi, esp
	push	2
	mov	eax, DWORD PTR _nLength$[ebp]
	push	eax
	mov	ecx, DWORD PTR tv74[ebp]
	mov	edx, DWORD PTR [ecx]
	mov	ecx, DWORD PTR tv74[ebp]
	call	DWORD PTR [edx]
	cmp	esi, esp
	call	__RTC_CheckEsp
	mov	DWORD PTR _pNewData$[ebp], eax

; 719  : 		if( pNewData == NULL )

	cmp	DWORD PTR _pNewData$[ebp], 0
	jne	SHORT $L92845

; 720  : 		{
; 721  : 			ThrowMemoryException();

	call	?ThrowMemoryException@?$CSimpleStringT@G$0A@@ATL@@KAXXZ ; ATL::CSimpleStringT<unsigned short,0>::ThrowMemoryException
$L92845:

; 722  : 		}
; 723  : 		int nCharsToCopy = ((nOldLength < nLength) ? nOldLength : nLength)+1;  // Copy '\0'

	mov	eax, DWORD PTR _nOldLength$[ebp]
	cmp	eax, DWORD PTR _nLength$[ebp]
	jge	SHORT $L94009
	mov	ecx, DWORD PTR _nOldLength$[ebp]
	mov	DWORD PTR tv82[ebp], ecx
	jmp	SHORT $L94010
$L94009:
	mov	edx, DWORD PTR _nLength$[ebp]
	mov	DWORD PTR tv82[ebp], edx
$L94010:
	mov	eax, DWORD PTR tv82[ebp]
	add	eax, 1
	mov	DWORD PTR _nCharsToCopy$[ebp], eax

; 724  : 		CopyChars( PXSTR( pNewData->data() ), PCXSTR( pOldData->data() ), nCharsToCopy );

	mov	eax, DWORD PTR _nCharsToCopy$[ebp]
	push	eax
	mov	ecx, DWORD PTR _pOldData$[ebp]
	call	?data@CStringData@ATL@@QAEPAXXZ		; ATL::CStringData::data
	push	eax
	mov	ecx, DWORD PTR _pNewData$[ebp]
	call	?data@CStringData@ATL@@QAEPAXXZ		; ATL::CStringData::data
	push	eax
	call	?CopyChars@?$CSimpleStringT@G$0A@@ATL@@SAXPAGPBGH@Z ; ATL::CSimpleStringT<unsigned short,0>::CopyChars
	add	esp, 12					; 0000000cH

; 725  : 		pNewData->nDataLength = nOldLength;

	mov	eax, DWORD PTR _pNewData$[ebp]
	mov	ecx, DWORD PTR _nOldLength$[ebp]
	mov	DWORD PTR [eax+4], ecx

; 726  : 		pOldData->Release();

	mov	ecx, DWORD PTR _pOldData$[ebp]
	call	?Release@CStringData@ATL@@QAEXXZ	; ATL::CStringData::Release

; 727  : 		Attach( pNewData );

	mov	eax, DWORD PTR _pNewData$[ebp]
	push	eax
	mov	ecx, DWORD PTR _this$[ebp]
	call	?Attach@?$CSimpleStringT@G$0A@@ATL@@AAEXPAUCStringData@2@@Z ; ATL::CSimpleStringT<unsigned short,0>::Attach
$L94008:

; 728  : 	}

	pop	edi
	pop	esi
	pop	ebx
	add	esp, 256				; 00000100H
	cmp	ebp, esp
	call	__RTC_CheckEsp
	mov	esp, ebp
	pop	ebp
	ret	4
?Fork@?$CSimpleStringT@G$0A@@ATL@@AAEXH@Z ENDP		; ATL::CSimpleStringT<unsigned short,0>::Fork
_TEXT	ENDS
PUBLIC	??_C@_0CB@GFHAPKDK@pOldData?9?$DOnAllocLength?5?$DM?5nLength@ ; `string'
;	COMDAT ??_C@_0CB@GFHAPKDK@pOldData?9?$DOnAllocLength?5?$DM?5nLength@
CONST	SEGMENT
??_C@_0CB@GFHAPKDK@pOldData?9?$DOnAllocLength?5?$DM?5nLength@ DB 'pOldDat'
	DB	'a->nAllocLength < nLength', 00H		; `string'
; Function compile flags: /Odt /RTCcsu /ZI
CONST	ENDS
;	COMDAT ?Reallocate@?$CSimpleStringT@G$0A@@ATL@@AAEXH@Z
_TEXT	SEGMENT
_pNewData$ = -44					; size = 4
_pStringMgr$ = -32					; size = 4
_pOldData$ = -20					; size = 4
_this$ = -8						; size = 4
_nLength$ = 8						; size = 4
?Reallocate@?$CSimpleStringT@G$0A@@ATL@@AAEXH@Z PROC NEAR ; ATL::CSimpleStringT<unsigned short,0>::Reallocate, COMDAT
; _this$ = ecx

; 776  : 	{

	push	ebp
	mov	ebp, esp
	sub	esp, 240				; 000000f0H
	push	ebx
	push	esi
	push	edi
	push	ecx
	lea	edi, DWORD PTR [ebp-240]
	mov	ecx, 60					; 0000003cH
	mov	eax, -858993460				; ccccccccH
	rep stosd
	pop	ecx
	mov	DWORD PTR _this$[ebp], ecx

; 777  : 		CStringData* pOldData = GetData();

	mov	ecx, DWORD PTR _this$[ebp]
	call	?GetData@?$CSimpleStringT@G$0A@@ATL@@ABEPAUCStringData@2@XZ ; ATL::CSimpleStringT<unsigned short,0>::GetData
	mov	DWORD PTR _pOldData$[ebp], eax

; 778  : 		ATLASSERT( pOldData->nAllocLength < nLength );

	mov	eax, DWORD PTR _pOldData$[ebp]
	mov	ecx, DWORD PTR [eax+8]
	cmp	ecx, DWORD PTR _nLength$[ebp]
	jl	SHORT $L94013
	push	OFFSET FLAT:??_C@_0CB@GFHAPKDK@pOldData?9?$DOnAllocLength?5?$DM?5nLength@
	push	0
	push	778					; 0000030aH
	push	OFFSET FLAT:??_C@_0FD@JDCNPMMG@c?3?2program?5files?2microsoft?5visua@
	push	2
	call	__CrtDbgReport
	add	esp, 20					; 00000014H
	cmp	eax, 1
	jne	SHORT $L94013
	int	3
$L94013:

; 779  : 		IAtlStringMgr* pStringMgr = pOldData->pStringMgr;

	mov	eax, DWORD PTR _pOldData$[ebp]
	mov	ecx, DWORD PTR [eax]
	mov	DWORD PTR _pStringMgr$[ebp], ecx

; 780  : 		CStringData* pNewData = pStringMgr->Reallocate( pOldData, nLength, sizeof( XCHAR ) );

	mov	esi, esp
	push	2
	mov	eax, DWORD PTR _nLength$[ebp]
	push	eax
	mov	ecx, DWORD PTR _pOldData$[ebp]
	push	ecx
	mov	edx, DWORD PTR _pStringMgr$[ebp]
	mov	eax, DWORD PTR [edx]
	mov	ecx, DWORD PTR _pStringMgr$[ebp]
	call	DWORD PTR [eax+8]
	cmp	esi, esp
	call	__RTC_CheckEsp
	mov	DWORD PTR _pNewData$[ebp], eax

; 781  : 		if( pNewData == NULL )

	cmp	DWORD PTR _pNewData$[ebp], 0
	jne	SHORT $L92855

; 782  : 		{
; 783  : 			ThrowMemoryException();

	call	?ThrowMemoryException@?$CSimpleStringT@G$0A@@ATL@@KAXXZ ; ATL::CSimpleStringT<unsigned short,0>::ThrowMemoryException
$L92855:

; 784  : 		}
; 785  : 		Attach( pNewData );

	mov	eax, DWORD PTR _pNewData$[ebp]
	push	eax
	mov	ecx, DWORD PTR _this$[ebp]
	call	?Attach@?$CSimpleStringT@G$0A@@ATL@@AAEXPAUCStringData@2@@Z ; ATL::CSimpleStringT<unsigned short,0>::Attach
$L94012:

; 786  : 	}

	pop	edi
	pop	esi
	pop	ebx
	add	esp, 240				; 000000f0H
	cmp	ebp, esp
	call	__RTC_CheckEsp
	mov	esp, ebp
	pop	ebp
	ret	4
?Reallocate@?$CSimpleStringT@G$0A@@ATL@@AAEXH@Z ENDP	; ATL::CSimpleStringT<unsigned short,0>::Reallocate
; Function compile flags: /Odt /RTCcsu /ZI
_TEXT	ENDS
;	COMDAT ?GetString@?$CSimpleStringT@G$0A@@ATL@@QBEPBGXZ
_TEXT	SEGMENT
_this$ = -8						; size = 4
?GetString@?$CSimpleStringT@G$0A@@ATL@@QBEPBGXZ PROC NEAR ; ATL::CSimpleStringT<unsigned short,0>::GetString, COMDAT
; _this$ = ecx

; 509  : 	{

	push	ebp
	mov	ebp, esp
	sub	esp, 204				; 000000ccH
	push	ebx
	push	esi
	push	edi
	push	ecx
	lea	edi, DWORD PTR [ebp-204]
	mov	ecx, 51					; 00000033H
	mov	eax, -858993460				; ccccccccH
	rep stosd
	pop	ecx
	mov	DWORD PTR _this$[ebp], ecx

; 510  : 		return( m_pszData );

	mov	eax, DWORD PTR _this$[ebp]
	mov	eax, DWORD PTR [eax]

; 511  : 	}

	pop	edi
	pop	esi
	pop	ebx
	mov	esp, ebp
	pop	ebp
	ret	0
?GetString@?$CSimpleStringT@G$0A@@ATL@@QBEPBGXZ ENDP	; ATL::CSimpleStringT<unsigned short,0>::GetString
_TEXT	ENDS
EXTRN	_memmove:NEAR
; Function compile flags: /Odt /RTCcsu /ZI
;	COMDAT ?CopyCharsOverlapped@?$CSimpleStringT@G$0A@@ATL@@SAXPAGPBGH@Z
_TEXT	SEGMENT
_pchDest$ = 8						; size = 4
_pchSrc$ = 12						; size = 4
_nChars$ = 16						; size = 4
?CopyCharsOverlapped@?$CSimpleStringT@G$0A@@ATL@@SAXPAGPBGH@Z PROC NEAR ; ATL::CSimpleStringT<unsigned short,0>::CopyCharsOverlapped, COMDAT

; 656  : 	{

	push	ebp
	mov	ebp, esp
	sub	esp, 192				; 000000c0H
	push	ebx
	push	esi
	push	edi
	lea	edi, DWORD PTR [ebp-192]
	mov	ecx, 48					; 00000030H
	mov	eax, -858993460				; ccccccccH
	rep stosd

; 657  : 		memmove( pchDest, pchSrc, nChars*sizeof( XCHAR ) );

	mov	eax, DWORD PTR _nChars$[ebp]
	shl	eax, 1
	push	eax
	mov	ecx, DWORD PTR _pchSrc$[ebp]
	push	ecx
	mov	edx, DWORD PTR _pchDest$[ebp]
	push	edx
	call	_memmove
	add	esp, 12					; 0000000cH

; 658  : 	}

	pop	edi
	pop	esi
	pop	ebx
	add	esp, 192				; 000000c0H
	cmp	ebp, esp
	call	__RTC_CheckEsp
	mov	esp, ebp
	pop	ebp
	ret	0
?CopyCharsOverlapped@?$CSimpleStringT@G$0A@@ATL@@SAXPAGPBGH@Z ENDP ; ATL::CSimpleStringT<unsigned short,0>::CopyCharsOverlapped
_TEXT	ENDS
END
