; Listing generated by Microsoft (R) Optimizing Compiler Version 13.10.3077 

	TITLE	.\RegTextEdit.cpp
	.386P
include listing.inc
if @Version gt 510
.model FLAT
else
_TEXT	SEGMENT PARA USE32 PUBLIC 'CODE'
_TEXT	ENDS
_DATA	SEGMENT DWORD USE32 PUBLIC 'DATA'
_DATA	ENDS
CONST	SEGMENT DWORD USE32 PUBLIC 'CONST'
CONST	ENDS
_BSS	SEGMENT DWORD USE32 PUBLIC 'BSS'
_BSS	ENDS
$$SYMBOLS	SEGMENT BYTE USE32 'DEBSYM'
$$SYMBOLS	ENDS
$$TYPES	SEGMENT BYTE USE32 'DEBTYP'
$$TYPES	ENDS
_TLS	SEGMENT DWORD USE32 PUBLIC 'TLS'
_TLS	ENDS
;	COMDAT ??_C@_00CNPNBAHC@?$AA@
CONST	SEGMENT DWORD USE32 PUBLIC 'CONST'
CONST	ENDS
;	COMDAT ??_C@_1CG@MLINDNFI@?$AAR?$AAe?$AAc?$AAo?$AAr?$AAd?$AA?5?$AAi?$AAs?$AA?5?$AAM?$AAo?$AAd?$AAi?$AAf?$AAi?$AAe?$AAd?$AA?$AA@
CONST	SEGMENT DWORD USE32 PUBLIC 'CONST'
CONST	ENDS
;	COMDAT ??_C@_1EA@ECMOPAHL@?$AAD?$AAo?$AA?5?$AAY?$AAo?$AAu?$AA?5?$AAW?$AAa?$AAn?$AAt?$AA?5?$AAt?$AAo?$AA?5?$AAS?$AAa?$AAv?$AAe?$AA?5@
CONST	SEGMENT DWORD USE32 PUBLIC 'CONST'
CONST	ENDS
;	COMDAT ??_C@_09IEFEJGJD@?$CF?$FL?$FO?$HM?$FN?$CFc?$CFs?$AA@
CONST	SEGMENT DWORD USE32 PUBLIC 'CONST'
CONST	ENDS
;	COMDAT ??_C@_1O@MJNGOMNI@?$AA?$CF?$AAl?$AA?$FL?$AA?$FO?$AA?9?$AA?$FN?$AA?$AA@
CONST	SEGMENT DWORD USE32 PUBLIC 'CONST'
CONST	ENDS
;	COMDAT ??_C@_1LI@ONJLPHCF@?$AAs?$AAe?$AAl?$AAe?$AAc?$AAt?$AA?5?$AA?$CK?$AA?5?$AAf?$AAr?$AAo?$AAm?$AA?5?$AAR?$AAe?$AAg?$AAu?$AAl?$AAa@
CONST	SEGMENT DWORD USE32 PUBLIC 'CONST'
CONST	ENDS
;	COMDAT ??_C@_1CE@OOAKNAGM@?$AAE?$AAr?$AAr?$AAo?$AAr?$AA?5?$AAo?$AAn?$AA?5?$AAD?$AAa?$AAt?$AAa?$AAb?$AAa?$AAs?$AAe?$AA?$AA@
CONST	SEGMENT DWORD USE32 PUBLIC 'CONST'
CONST	ENDS
;	COMDAT ??_C@_1CK@CLAGECII@?$AAC?$AAa?$AAn?$AA?8?$AAt?$AA?5?$AAF?$AAi?$AAn?$AAd?$AA?5?$AAS?$AAy?$AAm?$AAb?$AAo?$AAl?$AA?5?$AA?$CF?$AAs@
CONST	SEGMENT DWORD USE32 PUBLIC 'CONST'
CONST	ENDS
;	COMDAT ??_C@_1BG@NOPLIDDJ@?$AAB?$AAa?$AAd?$AA?5?$AAS?$AAy?$AAm?$AAb?$AAo?$AAl?$AA?$AA@
CONST	SEGMENT DWORD USE32 PUBLIC 'CONST'
CONST	ENDS
;	COMDAT ?GetClsid@CWSpell@@QAEABU_GUID@@XZ
_TEXT	SEGMENT PARA USE32 PUBLIC 'CODE'
_TEXT	ENDS
;	COMDAT ?Create@CWSpell@@UAEHPBG0KABUtagRECT@@PAVCWnd@@IPAUCCreateContext@@@Z
_TEXT	SEGMENT PARA USE32 PUBLIC 'CODE'
_TEXT	ENDS
;	COMDAT ?GetCtrl@RTFFuncs@@AAEPAVCRichEditCtrl@@H@Z
_TEXT	SEGMENT PARA USE32 PUBLIC 'CODE'
_TEXT	ENDS
;	COMDAT ??0RTFFuncs@@QAE@PAVCDialog@@@Z
_TEXT	SEGMENT PARA USE32 PUBLIC 'CODE'
_TEXT	ENDS
;	COMDAT ?Cut@RTFFuncs@@QAEXH@Z
_TEXT	SEGMENT PARA USE32 PUBLIC 'CODE'
_TEXT	ENDS
;	COMDAT ?Paste@RTFFuncs@@QAEXH@Z
_TEXT	SEGMENT PARA USE32 PUBLIC 'CODE'
_TEXT	ENDS
;	COMDAT ?Copy@RTFFuncs@@QAEXH@Z
_TEXT	SEGMENT PARA USE32 PUBLIC 'CODE'
_TEXT	ENDS
;	COMDAT ?Undo@RTFFuncs@@QAEXH@Z
_TEXT	SEGMENT PARA USE32 PUBLIC 'CODE'
_TEXT	ENDS
;	COMDAT ?Clear@RTFFuncs@@QAEXH@Z
_TEXT	SEGMENT PARA USE32 PUBLIC 'CODE'
_TEXT	ENDS
;	COMDAT ?Modified@RTFFuncs@@QAEHH@Z
_TEXT	SEGMENT PARA USE32 PUBLIC 'CODE'
_TEXT	ENDS
;	COMDAT ?GetTabString@RTFFuncs@@QAEAAV?$CStringT@GV?$StrTraitMFC@GV?$ChTraitsCRT@G@ATL@@@@@ATL@@XZ
_TEXT	SEGMENT PARA USE32 PUBLIC 'CODE'
_TEXT	ENDS
;	COMDAT ??1RTFFuncs@@UAE@XZ
_TEXT	SEGMENT PARA USE32 PUBLIC 'CODE'
_TEXT	ENDS
;	COMDAT ?getBasicString@RTFFuncs@@QAEAAV?$CStringT@GV?$StrTraitMFC@GV?$ChTraitsCRT@G@ATL@@@@@ATL@@XZ
_TEXT	SEGMENT PARA USE32 PUBLIC 'CODE'
_TEXT	ENDS
;	COMDAT ??_GRTFFuncs@@UAEPAXI@Z
_TEXT	SEGMENT PARA USE32 PUBLIC 'CODE'
_TEXT	ENDS
;	COMDAT ??0CSymbol@@QAE@XZ
_TEXT	SEGMENT PARA USE32 PUBLIC 'CODE'
_TEXT	ENDS
;	COMDAT ??1CSymbol@@QAE@XZ
_TEXT	SEGMENT PARA USE32 PUBLIC 'CODE'
_TEXT	ENDS
;	COMDAT ?value@CSymbol@@QAEAAHXZ
_TEXT	SEGMENT PARA USE32 PUBLIC 'CODE'
_TEXT	ENDS
;	COMDAT ??0CRSymbol@@QAE@XZ
_TEXT	SEGMENT PARA USE32 PUBLIC 'CODE'
_TEXT	ENDS
;	COMDAT ??1CRSymbol@@QAE@XZ
_TEXT	SEGMENT PARA USE32 PUBLIC 'CODE'
_TEXT	ENDS
;	COMDAT ??0CSymbolAry@@QAE@H@Z
_TEXT	SEGMENT PARA USE32 PUBLIC 'CODE'
_TEXT	ENDS
;	COMDAT ??1CSymbolAry@@QAE@XZ
_TEXT	SEGMENT PARA USE32 PUBLIC 'CODE'
_TEXT	ENDS
;	COMDAT ??_ECSymbol@@QAEPAXI@Z
_TEXT	SEGMENT PARA USE32 PUBLIC 'CODE'
_TEXT	ENDS
;	COMDAT ??_ECRSymbol@@QAEPAXI@Z
_TEXT	SEGMENT PARA USE32 PUBLIC 'CODE'
_TEXT	ENDS
;	COMDAT ??0CATextType@@QAE@XZ
_TEXT	SEGMENT PARA USE32 PUBLIC 'CODE'
_TEXT	ENDS
;	COMDAT ??1CATextType@@QAE@XZ
_TEXT	SEGMENT PARA USE32 PUBLIC 'CODE'
_TEXT	ENDS
;	COMDAT ?type@CATextType@@QAEAAHXZ
_TEXT	SEGMENT PARA USE32 PUBLIC 'CODE'
_TEXT	ENDS
;	COMDAT ?symtypes@CATextType@@QAEPADXZ
_TEXT	SEGMENT PARA USE32 PUBLIC 'CODE'
_TEXT	ENDS
;	COMDAT ?toSymType@CATextTypeAry@@QAEPADAAV?$CStringT@GV?$StrTraitMFC@GV?$ChTraitsCRT@G@ATL@@@@@ATL@@H@Z
_TEXT	SEGMENT PARA USE32 PUBLIC 'CODE'
_TEXT	ENDS
;	COMDAT ??_ECATextType@@QAEPAXI@Z
_TEXT	SEGMENT PARA USE32 PUBLIC 'CODE'
_TEXT	ENDS
;	COMDAT ??0CRegTextEdit@@QAE@PAVCWnd@@@Z
_TEXT	SEGMENT PARA USE32 PUBLIC 'CODE'
_TEXT	ENDS
;	COMDAT ??_GCRegTextEdit@@UAEPAXI@Z
_TEXT	SEGMENT PARA USE32 PUBLIC 'CODE'
_TEXT	ENDS
;	COMDAT ??0CWSpell@@QAE@XZ
_TEXT	SEGMENT PARA USE32 PUBLIC 'CODE'
_TEXT	ENDS
;	COMDAT ??1CWSpell@@UAE@XZ
_TEXT	SEGMENT PARA USE32 PUBLIC 'CODE'
_TEXT	ENDS
;	COMDAT ??1CDregText@@UAE@XZ
_TEXT	SEGMENT PARA USE32 PUBLIC 'CODE'
_TEXT	ENDS
;	COMDAT ??1CRegTextEdit@@UAE@XZ
_TEXT	SEGMENT PARA USE32 PUBLIC 'CODE'
_TEXT	ENDS
;	COMDAT ??_GCWSpell@@UAEPAXI@Z
_TEXT	SEGMENT PARA USE32 PUBLIC 'CODE'
_TEXT	ENDS
;	COMDAT ?DoDataExchange@CRegTextEdit@@MAEXPAVCDataExchange@@@Z
_TEXT	SEGMENT PARA USE32 PUBLIC 'CODE'
_TEXT	ENDS
;	COMDAT ?GetMessageMap@CRegTextEdit@@MBEPBUAFX_MSGMAP@@XZ
_TEXT	SEGMENT PARA USE32 PUBLIC 'CODE'
_TEXT	ENDS
;	COMDAT ?OnOK@CRegTextEdit@@MAEXXZ
_TEXT	SEGMENT PARA USE32 PUBLIC 'CODE'
_TEXT	ENDS
;	COMDAT ?OnCancel@CRegTextEdit@@MAEXXZ
_TEXT	SEGMENT PARA USE32 PUBLIC 'CODE'
_TEXT	ENDS
;	COMDAT ?OnSelchangeKey1@CRegTextEdit@@IAEXXZ
_TEXT	SEGMENT PARA USE32 PUBLIC 'CODE'
_TEXT	ENDS
;	COMDAT ?OnSelchangeKey2@CRegTextEdit@@IAEXXZ
_TEXT	SEGMENT PARA USE32 PUBLIC 'CODE'
_TEXT	ENDS
;	COMDAT ?OnClear@CRegTextEdit@@IAEXXZ
_TEXT	SEGMENT PARA USE32 PUBLIC 'CODE'
_TEXT	ENDS
;	COMDAT ?OnUpdateClear@CRegTextEdit@@IAEXPAVCCmdUI@@@Z
_TEXT	SEGMENT PARA USE32 PUBLIC 'CODE'
_TEXT	ENDS
;	COMDAT ?OnCopy@CRegTextEdit@@IAEXXZ
_TEXT	SEGMENT PARA USE32 PUBLIC 'CODE'
_TEXT	ENDS
;	COMDAT ?OnUpdateCopy@CRegTextEdit@@IAEXPAVCCmdUI@@@Z
_TEXT	SEGMENT PARA USE32 PUBLIC 'CODE'
_TEXT	ENDS
;	COMDAT ?OnCut@CRegTextEdit@@IAEXXZ
_TEXT	SEGMENT PARA USE32 PUBLIC 'CODE'
_TEXT	ENDS
;	COMDAT ?OnUpdateCut@CRegTextEdit@@IAEXPAVCCmdUI@@@Z
_TEXT	SEGMENT PARA USE32 PUBLIC 'CODE'
_TEXT	ENDS
;	COMDAT ?OnPaste@CRegTextEdit@@IAEXXZ
_TEXT	SEGMENT PARA USE32 PUBLIC 'CODE'
_TEXT	ENDS
;	COMDAT ?OnUpdatePaste@CRegTextEdit@@IAEXPAVCCmdUI@@@Z
_TEXT	SEGMENT PARA USE32 PUBLIC 'CODE'
_TEXT	ENDS
;	COMDAT ?OnInitDialog@CRegTextEdit@@MAEHXZ
_TEXT	SEGMENT PARA USE32 PUBLIC 'CODE'
_TEXT	ENDS
;	COMDAT ?OnChangeText@CRegTextEdit@@IAEXXZ
_TEXT	SEGMENT PARA USE32 PUBLIC 'CODE'
_TEXT	ENDS
;	COMDAT ?OnUndo@CRegTextEdit@@IAEXXZ
_TEXT	SEGMENT PARA USE32 PUBLIC 'CODE'
_TEXT	ENDS
;	COMDAT ?OnUpdateUndo@CRegTextEdit@@IAEXPAVCCmdUI@@@Z
_TEXT	SEGMENT PARA USE32 PUBLIC 'CODE'
_TEXT	ENDS
;	COMDAT ?OnUpdateText@CRegTextEdit@@IAEXXZ
_TEXT	SEGMENT PARA USE32 PUBLIC 'CODE'
_TEXT	ENDS
;	COMDAT ?OnBold@CRegTextEdit@@IAEXXZ
_TEXT	SEGMENT PARA USE32 PUBLIC 'CODE'
_TEXT	ENDS
;	COMDAT ?OnUpdateBold@CRegTextEdit@@IAEXPAVCCmdUI@@@Z
_TEXT	SEGMENT PARA USE32 PUBLIC 'CODE'
_TEXT	ENDS
;	COMDAT ?OnHead@CRegTextEdit@@IAEXXZ
_TEXT	SEGMENT PARA USE32 PUBLIC 'CODE'
_TEXT	ENDS
;	COMDAT ?OnUpdateHead@CRegTextEdit@@IAEXPAVCCmdUI@@@Z
_TEXT	SEGMENT PARA USE32 PUBLIC 'CODE'
_TEXT	ENDS
;	COMDAT ?OnItal@CRegTextEdit@@IAEXXZ
_TEXT	SEGMENT PARA USE32 PUBLIC 'CODE'
_TEXT	ENDS
;	COMDAT ?OnUpdateItal@CRegTextEdit@@IAEXPAVCCmdUI@@@Z
_TEXT	SEGMENT PARA USE32 PUBLIC 'CODE'
_TEXT	ENDS
;	COMDAT ?OnUnbold@CRegTextEdit@@IAEXXZ
_TEXT	SEGMENT PARA USE32 PUBLIC 'CODE'
_TEXT	ENDS
;	COMDAT ?OnUpdateUnbold@CRegTextEdit@@IAEXPAVCCmdUI@@@Z
_TEXT	SEGMENT PARA USE32 PUBLIC 'CODE'
_TEXT	ENDS
;	COMDAT ?OnUnheading@CRegTextEdit@@IAEXXZ
_TEXT	SEGMENT PARA USE32 PUBLIC 'CODE'
_TEXT	ENDS
;	COMDAT ?OnUpdateUnheading@CRegTextEdit@@IAEXPAVCCmdUI@@@Z
_TEXT	SEGMENT PARA USE32 PUBLIC 'CODE'
_TEXT	ENDS
;	COMDAT ?OnUnitalic@CRegTextEdit@@IAEXXZ
_TEXT	SEGMENT PARA USE32 PUBLIC 'CODE'
_TEXT	ENDS
;	COMDAT ?OnUpdateUnitalic@CRegTextEdit@@IAEXPAVCCmdUI@@@Z
_TEXT	SEGMENT PARA USE32 PUBLIC 'CODE'
_TEXT	ENDS
;	COMDAT ?Find@CRegTextEdit@@IAEHXZ
_TEXT	SEGMENT PARA USE32 PUBLIC 'CODE'
_TEXT	ENDS
;	COMDAT ?Save@CRegTextEdit@@IAEHXZ
_TEXT	SEGMENT PARA USE32 PUBLIC 'CODE'
_TEXT	ENDS
;	COMDAT ?OnSpell@CRegTextEdit@@IAEXXZ
_TEXT	SEGMENT PARA USE32 PUBLIC 'CODE'
_TEXT	ENDS
;	COMDAT ?OnUpdateSpell@CRegTextEdit@@IAEXPAVCCmdUI@@@Z
_TEXT	SEGMENT PARA USE32 PUBLIC 'CODE'
_TEXT	ENDS
;	COMDAT ?DestroyWindow@CRegTextEdit@@UAEHXZ
_TEXT	SEGMENT PARA USE32 PUBLIC 'CODE'
_TEXT	ENDS
;	COMDAT ??4?$CStringT@GV?$StrTraitMFC@GV?$ChTraitsCRT@G@ATL@@@@@ATL@@QAEAAV01@ABV01@@Z
_TEXT	SEGMENT PARA USE32 PUBLIC 'CODE'
_TEXT	ENDS
;	COMDAT ??Y?$CStringT@GV?$StrTraitMFC@GV?$ChTraitsCRT@G@ATL@@@@@ATL@@QAEAAV01@ABV?$CSimpleStringT@G$0A@@1@@Z
_TEXT	SEGMENT PARA USE32 PUBLIC 'CODE'
_TEXT	ENDS
;	COMDAT ??4?$CSimpleStringT@G$0A@@ATL@@QAEAAV01@ABV01@@Z
_TEXT	SEGMENT PARA USE32 PUBLIC 'CODE'
_TEXT	ENDS
;	COMDAT ??Y?$CSimpleStringT@G$0A@@ATL@@QAEAAV01@ABV01@@Z
_TEXT	SEGMENT PARA USE32 PUBLIC 'CODE'
_TEXT	ENDS
;	COMDAT ?Append@?$CSimpleStringT@G$0A@@ATL@@QAEXABV12@@Z
_TEXT	SEGMENT PARA USE32 PUBLIC 'CODE'
_TEXT	ENDS
;	COMDAT ?Append@?$CSimpleStringT@G$0A@@ATL@@QAEXPBGH@Z
_TEXT	SEGMENT PARA USE32 PUBLIC 'CODE'
_TEXT	ENDS
;	COMDAT ?ReleaseBufferSetLength@?$CSimpleStringT@G$0A@@ATL@@QAEXH@Z
_TEXT	SEGMENT PARA USE32 PUBLIC 'CODE'
_TEXT	ENDS
;	COMDAT ??_C@_0BA@GNIEOBOF@nNewLength?5?$DO?$DN?50?$AA@
CONST	SEGMENT DWORD USE32 PUBLIC 'CONST'
CONST	ENDS
;	COMDAT ??_C@_0FD@JDCNPMMG@c?3?2program?5files?2microsoft?5visua@
CONST	SEGMENT DWORD USE32 PUBLIC 'CONST'
CONST	ENDS
;	COMDAT ?SetLength@?$CSimpleStringT@G$0A@@ATL@@AAEXH@Z
_TEXT	SEGMENT PARA USE32 PUBLIC 'CODE'
_TEXT	ENDS
;	COMDAT ??_C@_0N@ILOMLJGA@nLength?5?$DO?$DN?50?$AA@
CONST	SEGMENT DWORD USE32 PUBLIC 'CONST'
CONST	ENDS
;	COMDAT ??_C@_0CD@EEFFJEGJ@nLength?5?$DM?$DN?5GetData?$CI?$CJ?9?$DOnAllocLeng@
CONST	SEGMENT DWORD USE32 PUBLIC 'CONST'
CONST	ENDS
;	COMDAT ?AtlThrow@ATL@@YGXJ@Z
_TEXT	SEGMENT PARA USE32 PUBLIC 'CODE'
_TEXT	ENDS
;	COMDAT ??RCTraceFileAndLineInfo@ATL@@QBAXKIPBGZZ
_TEXT	SEGMENT PARA USE32 PUBLIC 'CODE'
_TEXT	ENDS
;	COMDAT ?TraceV@CTrace@ATL@@QBAXPBDHKIPBGPAD@Z
_TEXT	SEGMENT PARA USE32 PUBLIC 'CODE'
_TEXT	ENDS
;	COMDAT ??0CTraceFileAndLineInfo@ATL@@QAE@PBDH@Z
_TEXT	SEGMENT PARA USE32 PUBLIC 'CODE'
_TEXT	ENDS
;	COMDAT ?__LINE__Var@?1??AtlThrow@ATL@@YGXJ@Z@4JA
_DATA	SEGMENT DWORD USE32 PUBLIC 'DATA'
_DATA	ENDS
;	COMDAT ??_C@_0FC@IPKABFFL@c?3?2program?5files?2microsoft?5visua@
CONST	SEGMENT DWORD USE32 PUBLIC 'CONST'
CONST	ENDS
;	COMDAT ??_C@_1CK@DFMKPFAK@?$AAA?$AAt?$AAl?$AAT?$AAh?$AAr?$AAo?$AAw?$AA?3?$AA?5?$AAh?$AAr?$AA?5?$AA?$DN?$AA?5?$AA0?$AAx?$AA?$CF?$AAx?$AA?6@
CONST	SEGMENT DWORD USE32 PUBLIC 'CONST'
CONST	ENDS
;	COMDAT ??BCTraceCategory@ATL@@QBEKXZ
_TEXT	SEGMENT PARA USE32 PUBLIC 'CODE'
_TEXT	ENDS
;	COMDAT ?CopyChars@?$CSimpleStringT@G$0A@@ATL@@SAXPAGPBGH@Z
_TEXT	SEGMENT PARA USE32 PUBLIC 'CODE'
_TEXT	ENDS
;	COMDAT ?GetBuffer@?$CSimpleStringT@G$0A@@ATL@@QAEPAGH@Z
_TEXT	SEGMENT PARA USE32 PUBLIC 'CODE'
_TEXT	ENDS
;	COMDAT ?PrepareWrite@?$CSimpleStringT@G$0A@@ATL@@AAEPAGH@Z
_TEXT	SEGMENT PARA USE32 PUBLIC 'CODE'
_TEXT	ENDS
;	COMDAT ?PrepareWrite2@?$CSimpleStringT@G$0A@@ATL@@AAEXH@Z
_TEXT	SEGMENT PARA USE32 PUBLIC 'CODE'
_TEXT	ENDS
;	COMDAT ?IsShared@CStringData@ATL@@QBE_NXZ
_TEXT	SEGMENT PARA USE32 PUBLIC 'CODE'
_TEXT	ENDS
;	COMDAT ?Fork@?$CSimpleStringT@G$0A@@ATL@@AAEXH@Z
_TEXT	SEGMENT PARA USE32 PUBLIC 'CODE'
_TEXT	ENDS
;	COMDAT ?ThrowMemoryException@?$CSimpleStringT@G$0A@@ATL@@KAXXZ
_TEXT	SEGMENT PARA USE32 PUBLIC 'CODE'
_TEXT	ENDS
;	COMDAT ?data@CStringData@ATL@@QAEPAXXZ
_TEXT	SEGMENT PARA USE32 PUBLIC 'CODE'
_TEXT	ENDS
;	COMDAT ?Reallocate@?$CSimpleStringT@G$0A@@ATL@@AAEXH@Z
_TEXT	SEGMENT PARA USE32 PUBLIC 'CODE'
_TEXT	ENDS
;	COMDAT ??_C@_0CB@GFHAPKDK@pOldData?9?$DOnAllocLength?5?$DM?5nLength@
CONST	SEGMENT DWORD USE32 PUBLIC 'CONST'
CONST	ENDS
;	COMDAT ?Attach@?$CSimpleStringT@G$0A@@ATL@@AAEXPAUCStringData@2@@Z
_TEXT	SEGMENT PARA USE32 PUBLIC 'CODE'
_TEXT	ENDS
;	COMDAT ?Release@CStringData@ATL@@QAEXXZ
_TEXT	SEGMENT PARA USE32 PUBLIC 'CODE'
_TEXT	ENDS
;	COMDAT ??_C@_0L@OIIMFBNE@nRefs?5?$CB?$DN?50?$AA@
CONST	SEGMENT DWORD USE32 PUBLIC 'CONST'
CONST	ENDS
;	COMDAT ?CloneData@?$CSimpleStringT@G$0A@@ATL@@CAPAUCStringData@2@PAU32@@Z
_TEXT	SEGMENT PARA USE32 PUBLIC 'CODE'
_TEXT	ENDS
;	COMDAT ?AddRef@CStringData@ATL@@QAEXXZ
_TEXT	SEGMENT PARA USE32 PUBLIC 'CODE'
_TEXT	ENDS
;	COMDAT ??_C@_09EEBKLCFA@nRefs?5?$DO?50?$AA@
CONST	SEGMENT DWORD USE32 PUBLIC 'CONST'
CONST	ENDS
;	COMDAT ?GetString@?$CSimpleStringT@G$0A@@ATL@@QBEPBGXZ
_TEXT	SEGMENT PARA USE32 PUBLIC 'CODE'
_TEXT	ENDS
;	COMDAT ?SetString@?$CSimpleStringT@G$0A@@ATL@@QAEXPBGH@Z
_TEXT	SEGMENT PARA USE32 PUBLIC 'CODE'
_TEXT	ENDS
;	COMDAT ?Empty@?$CSimpleStringT@G$0A@@ATL@@QAEXXZ
_TEXT	SEGMENT PARA USE32 PUBLIC 'CODE'
_TEXT	ENDS
;	COMDAT ?CopyCharsOverlapped@?$CSimpleStringT@G$0A@@ATL@@SAXPAGPBGH@Z
_TEXT	SEGMENT PARA USE32 PUBLIC 'CODE'
_TEXT	ENDS
;	COMDAT ?IsLocked@CStringData@ATL@@QBE_NXZ
_TEXT	SEGMENT PARA USE32 PUBLIC 'CODE'
_TEXT	ENDS
;	COMDAT ?GetData@?$CSimpleStringT@G$0A@@ATL@@ABEPAUCStringData@2@XZ
_TEXT	SEGMENT PARA USE32 PUBLIC 'CODE'
_TEXT	ENDS
;	COMDAT ??4?$CStringT@GV?$StrTraitMFC@GV?$ChTraitsCRT@G@ATL@@@@@ATL@@QAEAAV01@PBG@Z
_TEXT	SEGMENT PARA USE32 PUBLIC 'CODE'
_TEXT	ENDS
;	COMDAT ??4?$CSimpleStringT@G$0A@@ATL@@QAEAAV01@PBG@Z
_TEXT	SEGMENT PARA USE32 PUBLIC 'CODE'
_TEXT	ENDS
;	COMDAT ?SetString@?$CSimpleStringT@G$0A@@ATL@@QAEXPBG@Z
_TEXT	SEGMENT PARA USE32 PUBLIC 'CODE'
_TEXT	ENDS
;	COMDAT ?StringLength@?$CSimpleStringT@G$0A@@ATL@@SAHPBG@Z
_TEXT	SEGMENT PARA USE32 PUBLIC 'CODE'
_TEXT	ENDS
;	COMDAT ??_R0PAVCDaoException@@@8
_DATA	SEGMENT DWORD USE32 PUBLIC 'DATA'
_DATA	ENDS
;	COMDAT ??B?$CSimpleStringT@G$0A@@ATL@@QBEPBGXZ
_TEXT	SEGMENT PARA USE32 PUBLIC 'CODE'
_TEXT	ENDS
;	COMDAT ??0?$CStringT@GV?$StrTraitMFC@GV?$ChTraitsCRT@G@ATL@@@@@ATL@@QAE@ABV01@@Z
_TEXT	SEGMENT PARA USE32 PUBLIC 'CODE'
_TEXT	ENDS
;	COMDAT ??0?$CSimpleStringT@G$0A@@ATL@@QAE@ABV01@@Z
_TEXT	SEGMENT PARA USE32 PUBLIC 'CODE'
_TEXT	ENDS
;	COMDAT ??1?$CSimpleStringT@G$0A@@ATL@@QAE@XZ
_TEXT	SEGMENT PARA USE32 PUBLIC 'CODE'
_TEXT	ENDS
;	COMDAT ?GetLength@?$CSimpleStringT@G$0A@@ATL@@QBEHXZ
_TEXT	SEGMENT PARA USE32 PUBLIC 'CODE'
_TEXT	ENDS
;	COMDAT ?_messageEntries@CRegTextEdit@@0QBUAFX_MSGMAP_ENTRY@@B
CONST	SEGMENT DWORD USE32 PUBLIC 'CONST'
CONST	ENDS
;	COMDAT ?messageMap@CRegTextEdit@@1UAFX_MSGMAP@@B
CONST	SEGMENT DWORD USE32 PUBLIC 'CONST'
CONST	ENDS
;	COMDAT ??_7CWSpell@@6B@
CONST	SEGMENT DWORD USE32 PUBLIC 'CONST'
CONST	ENDS
;	COMDAT ?__LINE__Var@?1???0CRegTextEdit@@QAE@PAVCWnd@@@Z@4JA
_DATA	SEGMENT DWORD USE32 PUBLIC 'DATA'
_DATA	ENDS
;	COMDAT ??4?$CStringT@GV?$StrTraitMFC@GV?$ChTraitsCRT@G@ATL@@@@@ATL@@QAEAAV01@PBD@Z
_TEXT	SEGMENT PARA USE32 PUBLIC 'CODE'
_TEXT	ENDS
;	COMDAT ?GetBaseTypeLength@?$ChTraitsCRT@G@ATL@@SAHPBD@Z
_TEXT	SEGMENT PARA USE32 PUBLIC 'CODE'
_TEXT	ENDS
;	COMDAT ?_AtlGetConversionACP@ATL@@YGIXZ
_TEXT	SEGMENT PARA USE32 PUBLIC 'CODE'
_TEXT	ENDS
;	COMDAT ?g_pfnGetThreadACP@ATL@@3P6GIXZA
_DATA	SEGMENT DWORD USE32 PUBLIC 'DATA'
_DATA	ENDS
;	COMDAT ?_AtlGetThreadACPThunk@ATL@@YGIXZ
_TEXT	SEGMENT PARA USE32 PUBLIC 'CODE'
_TEXT	ENDS
;	COMDAT ?_AtlGetThreadACPReal@ATL@@YGIXZ
_TEXT	SEGMENT PARA USE32 PUBLIC 'CODE'
_TEXT	ENDS
;	COMDAT ?_AtlGetThreadACPFake@ATL@@YGIXZ
_TEXT	SEGMENT PARA USE32 PUBLIC 'CODE'
_TEXT	ENDS
;	COMDAT ?InterlockedExchangePointer@@YGPAXPAPAXPAX@Z
_TEXT	SEGMENT PARA USE32 PUBLIC 'CODE'
_TEXT	ENDS
;	COMDAT ?ConvertToBaseType@?$ChTraitsCRT@G@ATL@@SAXPAGHPBDH@Z
_TEXT	SEGMENT PARA USE32 PUBLIC 'CODE'
_TEXT	ENDS
;	COMDAT ??_7CRegTextEdit@@6B@
CONST	SEGMENT DWORD USE32 PUBLIC 'CONST'
CONST	ENDS
;	COMDAT ??_7CRSymbol@@6B@
CONST	SEGMENT DWORD USE32 PUBLIC 'CONST'
CONST	ENDS
;	COMDAT ??_7CSymbol@@6B@
CONST	SEGMENT DWORD USE32 PUBLIC 'CONST'
CONST	ENDS
;	COMDAT ??1?$CStringT@GV?$StrTraitMFC@GV?$ChTraitsCRT@G@ATL@@@@@ATL@@QAE@XZ
_TEXT	SEGMENT PARA USE32 PUBLIC 'CODE'
_TEXT	ENDS
;	COMDAT ??0?$CStringT@GV?$StrTraitMFC@GV?$ChTraitsCRT@G@ATL@@@@@ATL@@QAE@XZ
_TEXT	SEGMENT PARA USE32 PUBLIC 'CODE'
_TEXT	ENDS
;	COMDAT ??0?$CSimpleStringT@G$0A@@ATL@@QAE@PAUIAtlStringMgr@1@@Z
_TEXT	SEGMENT PARA USE32 PUBLIC 'CODE'
_TEXT	ENDS
;	COMDAT ??_C@_0BA@GOIMFHNK@pStringMgr?5?$CB?$DN?50?$AA@
CONST	SEGMENT DWORD USE32 PUBLIC 'CONST'
CONST	ENDS
;	COMDAT ?GetDefaultManager@?$StrTraitMFC@GV?$ChTraitsCRT@G@ATL@@@@SAPAUIAtlStringMgr@ATL@@XZ
_TEXT	SEGMENT PARA USE32 PUBLIC 'CODE'
_TEXT	ENDS
;	COMDAT ??_7RTFFuncs@@6B@
CONST	SEGMENT DWORD USE32 PUBLIC 'CONST'
CONST	ENDS
;	COMDAT ?clsid@?1??GetClsid@CWSpell@@QAEABU_GUID@@XZ@4U3@B
CONST	SEGMENT DWORD USE32 PUBLIC 'CONST'
CONST	ENDS
sxdata	SEGMENT DWORD USE32 'SXDATA'
sxdata	ENDS
FLAT	GROUP _DATA, CONST, _BSS
	ASSUME	CS: FLAT, DS: FLAT, SS: FLAT
endif

INCLUDELIB LIBCMTD
INCLUDELIB OLDNAMES

PUBLIC	?OnSelchangeKey1@CRegTextEdit@@IAEXXZ		; CRegTextEdit::OnSelchangeKey1
PUBLIC	?OnSelchangeKey2@CRegTextEdit@@IAEXXZ		; CRegTextEdit::OnSelchangeKey2
PUBLIC	?OnClear@CRegTextEdit@@IAEXXZ			; CRegTextEdit::OnClear
PUBLIC	?OnUpdateClear@CRegTextEdit@@IAEXPAVCCmdUI@@@Z	; CRegTextEdit::OnUpdateClear
PUBLIC	?OnCopy@CRegTextEdit@@IAEXXZ			; CRegTextEdit::OnCopy
PUBLIC	?OnUpdateCopy@CRegTextEdit@@IAEXPAVCCmdUI@@@Z	; CRegTextEdit::OnUpdateCopy
PUBLIC	?OnCut@CRegTextEdit@@IAEXXZ			; CRegTextEdit::OnCut
PUBLIC	?OnUpdateCut@CRegTextEdit@@IAEXPAVCCmdUI@@@Z	; CRegTextEdit::OnUpdateCut
PUBLIC	?OnPaste@CRegTextEdit@@IAEXXZ			; CRegTextEdit::OnPaste
PUBLIC	?OnUpdatePaste@CRegTextEdit@@IAEXPAVCCmdUI@@@Z	; CRegTextEdit::OnUpdatePaste
PUBLIC	?OnChangeText@CRegTextEdit@@IAEXXZ		; CRegTextEdit::OnChangeText
PUBLIC	?OnUndo@CRegTextEdit@@IAEXXZ			; CRegTextEdit::OnUndo
PUBLIC	?OnUpdateUndo@CRegTextEdit@@IAEXPAVCCmdUI@@@Z	; CRegTextEdit::OnUpdateUndo
PUBLIC	?OnUpdateText@CRegTextEdit@@IAEXXZ		; CRegTextEdit::OnUpdateText
PUBLIC	?OnBold@CRegTextEdit@@IAEXXZ			; CRegTextEdit::OnBold
PUBLIC	?OnUpdateBold@CRegTextEdit@@IAEXPAVCCmdUI@@@Z	; CRegTextEdit::OnUpdateBold
PUBLIC	?OnHead@CRegTextEdit@@IAEXXZ			; CRegTextEdit::OnHead
PUBLIC	?OnUpdateHead@CRegTextEdit@@IAEXPAVCCmdUI@@@Z	; CRegTextEdit::OnUpdateHead
PUBLIC	?OnItal@CRegTextEdit@@IAEXXZ			; CRegTextEdit::OnItal
PUBLIC	?OnUpdateItal@CRegTextEdit@@IAEXPAVCCmdUI@@@Z	; CRegTextEdit::OnUpdateItal
PUBLIC	?OnUnbold@CRegTextEdit@@IAEXXZ			; CRegTextEdit::OnUnbold
PUBLIC	?OnUpdateUnbold@CRegTextEdit@@IAEXPAVCCmdUI@@@Z	; CRegTextEdit::OnUpdateUnbold
PUBLIC	?OnUnheading@CRegTextEdit@@IAEXXZ		; CRegTextEdit::OnUnheading
PUBLIC	?OnUpdateUnheading@CRegTextEdit@@IAEXPAVCCmdUI@@@Z ; CRegTextEdit::OnUpdateUnheading
PUBLIC	?OnUnitalic@CRegTextEdit@@IAEXXZ		; CRegTextEdit::OnUnitalic
PUBLIC	?OnUpdateUnitalic@CRegTextEdit@@IAEXPAVCCmdUI@@@Z ; CRegTextEdit::OnUpdateUnitalic
PUBLIC	?OnSpell@CRegTextEdit@@IAEXXZ			; CRegTextEdit::OnSpell
PUBLIC	?OnUpdateSpell@CRegTextEdit@@IAEXPAVCCmdUI@@@Z	; CRegTextEdit::OnUpdateSpell
PUBLIC	?_messageEntries@CRegTextEdit@@0QBUAFX_MSGMAP_ENTRY@@B ; CRegTextEdit::_messageEntries
PUBLIC	?messageMap@CRegTextEdit@@1UAFX_MSGMAP@@B	; CRegTextEdit::messageMap
PUBLIC	?g_pfnGetThreadACP@ATL@@3P6GIXZA		; ATL::g_pfnGetThreadACP
PUBLIC	?_AtlGetThreadACPThunk@ATL@@YGIXZ		; ATL::_AtlGetThreadACPThunk
EXTRN	?messageMap@CDialog@@1UAFX_MSGMAP@@B:QWORD	; CDialog::messageMap
_DATA	SEGMENT
_THIS_FILE DB	'c:\astrow32dev\tbt32\regtextedit.cpp', 00H
_DATA	ENDS
;	COMDAT ?_messageEntries@CRegTextEdit@@0QBUAFX_MSGMAP_ENTRY@@B
CONST	SEGMENT
?_messageEntries@CRegTextEdit@@0QBUAFX_MSGMAP_ENTRY@@B DD 0111H ; CRegTextEdit::_messageEntries
	DD	01H
	DD	03eaH
	DD	03eaH
	DD	035H
	DD	FLAT:?OnSelchangeKey1@CRegTextEdit@@IAEXXZ
	DD	0111H
	DD	01H
	DD	03ebH
	DD	03ebH
	DD	035H
	DD	FLAT:?OnSelchangeKey2@CRegTextEdit@@IAEXXZ
	DD	0111H
	DD	00H
	DD	0800dH
	DD	0800dH
	DD	035H
	DD	FLAT:?OnClear@CRegTextEdit@@IAEXXZ
	DD	0111H
	DD	0ffffffffH
	DD	0800dH
	DD	0800dH
	DD	03dH
	DD	FLAT:?OnUpdateClear@CRegTextEdit@@IAEXPAVCCmdUI@@@Z
	DD	0111H
	DD	00H
	DD	0800aH
	DD	0800aH
	DD	035H
	DD	FLAT:?OnCopy@CRegTextEdit@@IAEXXZ
	DD	0111H
	DD	0ffffffffH
	DD	0800aH
	DD	0800aH
	DD	03dH
	DD	FLAT:?OnUpdateCopy@CRegTextEdit@@IAEXPAVCCmdUI@@@Z
	DD	0111H
	DD	00H
	DD	0800cH
	DD	0800cH
	DD	035H
	DD	FLAT:?OnCut@CRegTextEdit@@IAEXXZ
	DD	0111H
	DD	0ffffffffH
	DD	0800cH
	DD	0800cH
	DD	03dH
	DD	FLAT:?OnUpdateCut@CRegTextEdit@@IAEXPAVCCmdUI@@@Z
	DD	0111H
	DD	00H
	DD	0800bH
	DD	0800bH
	DD	035H
	DD	FLAT:?OnPaste@CRegTextEdit@@IAEXXZ
	DD	0111H
	DD	0ffffffffH
	DD	0800bH
	DD	0800bH
	DD	03dH
	DD	FLAT:?OnUpdatePaste@CRegTextEdit@@IAEXPAVCCmdUI@@@Z
	DD	0111H
	DD	0300H
	DD	03ecH
	DD	03ecH
	DD	035H
	DD	FLAT:?OnChangeText@CRegTextEdit@@IAEXXZ
	DD	0111H
	DD	00H
	DD	08010H
	DD	08010H
	DD	035H
	DD	FLAT:?OnUndo@CRegTextEdit@@IAEXXZ
	DD	0111H
	DD	0ffffffffH
	DD	08010H
	DD	08010H
	DD	03dH
	DD	FLAT:?OnUpdateUndo@CRegTextEdit@@IAEXPAVCCmdUI@@@Z
	DD	0111H
	DD	0400H
	DD	03ecH
	DD	03ecH
	DD	035H
	DD	FLAT:?OnUpdateText@CRegTextEdit@@IAEXXZ
	DD	0111H
	DD	00H
	DD	08012H
	DD	08012H
	DD	035H
	DD	FLAT:?OnBold@CRegTextEdit@@IAEXXZ
	DD	0111H
	DD	0ffffffffH
	DD	08012H
	DD	08012H
	DD	03dH
	DD	FLAT:?OnUpdateBold@CRegTextEdit@@IAEXPAVCCmdUI@@@Z
	DD	0111H
	DD	00H
	DD	08014H
	DD	08014H
	DD	035H
	DD	FLAT:?OnHead@CRegTextEdit@@IAEXXZ
	DD	0111H
	DD	0ffffffffH
	DD	08014H
	DD	08014H
	DD	03dH
	DD	FLAT:?OnUpdateHead@CRegTextEdit@@IAEXPAVCCmdUI@@@Z
	DD	0111H
	DD	00H
	DD	08013H
	DD	08013H
	DD	035H
	DD	FLAT:?OnItal@CRegTextEdit@@IAEXXZ
	DD	0111H
	DD	0ffffffffH
	DD	08013H
	DD	08013H
	DD	03dH
	DD	FLAT:?OnUpdateItal@CRegTextEdit@@IAEXPAVCCmdUI@@@Z
	DD	0111H
	DD	00H
	DD	08016H
	DD	08016H
	DD	035H
	DD	FLAT:?OnUnbold@CRegTextEdit@@IAEXXZ
	DD	0111H
	DD	0ffffffffH
	DD	08016H
	DD	08016H
	DD	03dH
	DD	FLAT:?OnUpdateUnbold@CRegTextEdit@@IAEXPAVCCmdUI@@@Z
	DD	0111H
	DD	00H
	DD	08015H
	DD	08015H
	DD	035H
	DD	FLAT:?OnUnheading@CRegTextEdit@@IAEXXZ
	DD	0111H
	DD	0ffffffffH
	DD	08015H
	DD	08015H
	DD	03dH
	DD	FLAT:?OnUpdateUnheading@CRegTextEdit@@IAEXPAVCCmdUI@@@Z
	DD	0111H
	DD	00H
	DD	08017H
	DD	08017H
	DD	035H
	DD	FLAT:?OnUnitalic@CRegTextEdit@@IAEXXZ
	DD	0111H
	DD	0ffffffffH
	DD	08017H
	DD	08017H
	DD	03dH
	DD	FLAT:?OnUpdateUnitalic@CRegTextEdit@@IAEXPAVCCmdUI@@@Z
	DD	0111H
	DD	00H
	DD	08018H
	DD	08018H
	DD	035H
	DD	FLAT:?OnSpell@CRegTextEdit@@IAEXXZ
	DD	0111H
	DD	0ffffffffH
	DD	08018H
	DD	08018H
	DD	03dH
	DD	FLAT:?OnUpdateSpell@CRegTextEdit@@IAEXPAVCCmdUI@@@Z
	DD	00H
	DD	00H
	DD	00H
	DD	00H
	DD	00H
	DD	00H
CONST	ENDS
;	COMDAT ?messageMap@CRegTextEdit@@1UAFX_MSGMAP@@B
CONST	SEGMENT
?messageMap@CRegTextEdit@@1UAFX_MSGMAP@@B DD FLAT:?messageMap@CDialog@@1UAFX_MSGMAP@@B ; CRegTextEdit::messageMap
	DD	FLAT:?_messageEntries@CRegTextEdit@@0QBUAFX_MSGMAP_ENTRY@@B
CONST	ENDS
;	COMDAT ?g_pfnGetThreadACP@ATL@@3P6GIXZA
_DATA	SEGMENT
?g_pfnGetThreadACP@ATL@@3P6GIXZA DD FLAT:?_AtlGetThreadACPThunk@ATL@@YGIXZ ; ATL::g_pfnGetThreadACP
_DATA	ENDS
PUBLIC	??1CSymbol@@QAE@XZ				; CSymbol::~CSymbol
PUBLIC	??_ECSymbol@@QAEPAXI@Z				; CSymbol::`vector deleting destructor'
EXTRN	__RTC_InitBase:NEAR
EXTRN	__RTC_Shutdown:NEAR
EXTRN	__RTC_CheckEsp:NEAR
EXTRN	??_M@YGXPAXIHP6EX0@Z@Z:NEAR			; `eh vector destructor iterator'
EXTRN	??3@YAXPAX@Z:NEAR				; operator delete
EXTRN	??_V@YAXPAX@Z:NEAR				; operator delete[]
;	COMDAT rtc$IMZ
rtc$IMZ	SEGMENT
__RTC_InitBase.rtc$IMZ DD FLAT:__RTC_InitBase
rtc$IMZ	ENDS
;	COMDAT rtc$TMZ
rtc$TMZ	SEGMENT
__RTC_Shutdown.rtc$TMZ DD FLAT:__RTC_Shutdown
; Function compile flags: /Odt /RTCcsu /ZI
rtc$TMZ	ENDS
;	COMDAT ??_ECSymbol@@QAEPAXI@Z
_TEXT	SEGMENT
_this$ = -8						; size = 4
___flags$ = 8						; size = 4
??_ECSymbol@@QAEPAXI@Z PROC NEAR			; CSymbol::`vector deleting destructor', COMDAT
; _this$ = ecx
	push	ebp
	mov	ebp, esp
	sub	esp, 204				; 000000ccH
	push	ebx
	push	esi
	push	edi
	push	ecx
	lea	edi, DWORD PTR [ebp-204]
	mov	ecx, 51					; 00000033H
	mov	eax, -858993460				; ccccccccH
	rep stosd
	pop	ecx
	mov	DWORD PTR _this$[ebp], ecx
	mov	eax, DWORD PTR ___flags$[ebp]
	and	eax, 2
	je	SHORT $L93484
	push	OFFSET FLAT:??1CSymbol@@QAE@XZ		; CSymbol::~CSymbol
	mov	eax, DWORD PTR _this$[ebp]
	mov	ecx, DWORD PTR [eax-4]
	push	ecx
	push	164					; 000000a4H
	mov	edx, DWORD PTR _this$[ebp]
	push	edx
	call	??_M@YGXPAXIHP6EX0@Z@Z
	mov	eax, DWORD PTR ___flags$[ebp]
	and	eax, 1
	je	SHORT $L93485
	mov	eax, DWORD PTR _this$[ebp]
	sub	eax, 4
	push	eax
	call	??_V@YAXPAX@Z				; operator delete[]
	add	esp, 4
$L93485:
	mov	eax, DWORD PTR _this$[ebp]
	sub	eax, 4
	jmp	SHORT $L93483
$L93484:
	mov	ecx, DWORD PTR _this$[ebp]
	call	??1CSymbol@@QAE@XZ			; CSymbol::~CSymbol
	mov	eax, DWORD PTR ___flags$[ebp]
	and	eax, 1
	je	SHORT $L93487
	mov	eax, DWORD PTR _this$[ebp]
	push	eax
	call	??3@YAXPAX@Z				; operator delete
	add	esp, 4
$L93487:
	mov	eax, DWORD PTR _this$[ebp]
$L93483:
	pop	edi
	pop	esi
	pop	ebx
	add	esp, 204				; 000000ccH
	cmp	ebp, esp
	call	__RTC_CheckEsp
	mov	esp, ebp
	pop	ebp
	ret	4
??_ECSymbol@@QAEPAXI@Z ENDP				; CSymbol::`vector deleting destructor'
_TEXT	ENDS
PUBLIC	??_7CSymbol@@6B@				; CSymbol::`vftable'
EXTRN	?Read@CSymbol@@UAEHPAU_iobuf@@@Z:NEAR		; CSymbol::Read
;	COMDAT ??_7CSymbol@@6B@
; File c:\astrow32dev\tbt32\symbol.hpp
CONST	SEGMENT
??_7CSymbol@@6B@ DD FLAT:?Read@CSymbol@@UAEHPAU_iobuf@@@Z ; CSymbol::`vftable'
; Function compile flags: /Odt /RTCcsu /ZI
CONST	ENDS
;	COMDAT ??1CSymbol@@QAE@XZ
_TEXT	SEGMENT
_this$ = -8						; size = 4
??1CSymbol@@QAE@XZ PROC NEAR				; CSymbol::~CSymbol, COMDAT
; _this$ = ecx

; 14   : 	~CSymbol() {}

	push	ebp
	mov	ebp, esp
	sub	esp, 204				; 000000ccH
	push	ebx
	push	esi
	push	edi
	push	ecx
	lea	edi, DWORD PTR [ebp-204]
	mov	ecx, 51					; 00000033H
	mov	eax, -858993460				; ccccccccH
	rep stosd
	pop	ecx
	mov	DWORD PTR _this$[ebp], ecx
	mov	eax, DWORD PTR _this$[ebp]
	mov	DWORD PTR [eax], OFFSET FLAT:??_7CSymbol@@6B@
	pop	edi
	pop	esi
	pop	ebx
	mov	esp, ebp
	pop	ebp
	ret	0
??1CSymbol@@QAE@XZ ENDP					; CSymbol::~CSymbol
_TEXT	ENDS
PUBLIC	??1CRSymbol@@QAE@XZ				; CRSymbol::~CRSymbol
PUBLIC	??_ECRSymbol@@QAEPAXI@Z				; CRSymbol::`vector deleting destructor'
; Function compile flags: /Odt /RTCcsu /ZI
;	COMDAT ??_ECRSymbol@@QAEPAXI@Z
_TEXT	SEGMENT
_this$ = -8						; size = 4
___flags$ = 8						; size = 4
??_ECRSymbol@@QAEPAXI@Z PROC NEAR			; CRSymbol::`vector deleting destructor', COMDAT
; _this$ = ecx
	push	ebp
	mov	ebp, esp
	sub	esp, 204				; 000000ccH
	push	ebx
	push	esi
	push	edi
	push	ecx
	lea	edi, DWORD PTR [ebp-204]
	mov	ecx, 51					; 00000033H
	mov	eax, -858993460				; ccccccccH
	rep stosd
	pop	ecx
	mov	DWORD PTR _this$[ebp], ecx
	mov	eax, DWORD PTR ___flags$[ebp]
	and	eax, 2
	je	SHORT $L93535
	push	OFFSET FLAT:??1CRSymbol@@QAE@XZ		; CRSymbol::~CRSymbol
	mov	eax, DWORD PTR _this$[ebp]
	mov	ecx, DWORD PTR [eax-4]
	push	ecx
	push	164					; 000000a4H
	mov	edx, DWORD PTR _this$[ebp]
	push	edx
	call	??_M@YGXPAXIHP6EX0@Z@Z
	mov	eax, DWORD PTR ___flags$[ebp]
	and	eax, 1
	je	SHORT $L93536
	mov	eax, DWORD PTR _this$[ebp]
	sub	eax, 4
	push	eax
	call	??_V@YAXPAX@Z				; operator delete[]
	add	esp, 4
$L93536:
	mov	eax, DWORD PTR _this$[ebp]
	sub	eax, 4
	jmp	SHORT $L93534
$L93535:
	mov	ecx, DWORD PTR _this$[ebp]
	call	??1CRSymbol@@QAE@XZ			; CRSymbol::~CRSymbol
	mov	eax, DWORD PTR ___flags$[ebp]
	and	eax, 1
	je	SHORT $L93538
	mov	eax, DWORD PTR _this$[ebp]
	push	eax
	call	??3@YAXPAX@Z				; operator delete
	add	esp, 4
$L93538:
	mov	eax, DWORD PTR _this$[ebp]
$L93534:
	pop	edi
	pop	esi
	pop	ebx
	add	esp, 204				; 000000ccH
	cmp	ebp, esp
	call	__RTC_CheckEsp
	mov	esp, ebp
	pop	ebp
	ret	4
??_ECRSymbol@@QAEPAXI@Z ENDP				; CRSymbol::`vector deleting destructor'
_TEXT	ENDS
PUBLIC	??_7CRSymbol@@6B@				; CRSymbol::`vftable'
EXTRN	?Read@CRSymbol@@UAEHPAU_iobuf@@@Z:NEAR		; CRSymbol::Read
;	COMDAT ??_7CRSymbol@@6B@
CONST	SEGMENT
??_7CRSymbol@@6B@ DD FLAT:?Read@CRSymbol@@UAEHPAU_iobuf@@@Z ; CRSymbol::`vftable'
; Function compile flags: /Odt /RTCcsu /ZI
CONST	ENDS
;	COMDAT ??1CRSymbol@@QAE@XZ
_TEXT	SEGMENT
_this$ = -8						; size = 4
??1CRSymbol@@QAE@XZ PROC NEAR				; CRSymbol::~CRSymbol, COMDAT
; _this$ = ecx

; 28   : 	~CRSymbol() {}

	push	ebp
	mov	ebp, esp
	sub	esp, 204				; 000000ccH
	push	ebx
	push	esi
	push	edi
	push	ecx
	lea	edi, DWORD PTR [ebp-204]
	mov	ecx, 51					; 00000033H
	mov	eax, -858993460				; ccccccccH
	rep stosd
	pop	ecx
	mov	DWORD PTR _this$[ebp], ecx
	mov	eax, DWORD PTR _this$[ebp]
	mov	DWORD PTR [eax], OFFSET FLAT:??_7CRSymbol@@6B@
	mov	ecx, DWORD PTR _this$[ebp]
	call	??1CSymbol@@QAE@XZ			; CSymbol::~CSymbol
	pop	edi
	pop	esi
	pop	ebx
	add	esp, 204				; 000000ccH
	cmp	ebp, esp
	call	__RTC_CheckEsp
	mov	esp, ebp
	pop	ebp
	ret	0
??1CRSymbol@@QAE@XZ ENDP				; CRSymbol::~CRSymbol
_TEXT	ENDS
PUBLIC	??1CATextType@@QAE@XZ				; CATextType::~CATextType
PUBLIC	??_ECATextType@@QAEPAXI@Z			; CATextType::`vector deleting destructor'
; Function compile flags: /Odt /RTCcsu /ZI
;	COMDAT ??_ECATextType@@QAEPAXI@Z
_TEXT	SEGMENT
_this$ = -8						; size = 4
___flags$ = 8						; size = 4
??_ECATextType@@QAEPAXI@Z PROC NEAR			; CATextType::`vector deleting destructor', COMDAT
; _this$ = ecx
	push	ebp
	mov	ebp, esp
	sub	esp, 204				; 000000ccH
	push	ebx
	push	esi
	push	edi
	push	ecx
	lea	edi, DWORD PTR [ebp-204]
	mov	ecx, 51					; 00000033H
	mov	eax, -858993460				; ccccccccH
	rep stosd
	pop	ecx
	mov	DWORD PTR _this$[ebp], ecx
	mov	eax, DWORD PTR ___flags$[ebp]
	and	eax, 2
	je	SHORT $L93656
	push	OFFSET FLAT:??1CATextType@@QAE@XZ	; CATextType::~CATextType
	mov	eax, DWORD PTR _this$[ebp]
	mov	ecx, DWORD PTR [eax-4]
	push	ecx
	push	160					; 000000a0H
	mov	edx, DWORD PTR _this$[ebp]
	push	edx
	call	??_M@YGXPAXIHP6EX0@Z@Z
	mov	eax, DWORD PTR ___flags$[ebp]
	and	eax, 1
	je	SHORT $L93657
	mov	eax, DWORD PTR _this$[ebp]
	sub	eax, 4
	push	eax
	call	??_V@YAXPAX@Z				; operator delete[]
	add	esp, 4
$L93657:
	mov	eax, DWORD PTR _this$[ebp]
	sub	eax, 4
	jmp	SHORT $L93655
$L93656:
	mov	ecx, DWORD PTR _this$[ebp]
	call	??1CATextType@@QAE@XZ			; CATextType::~CATextType
	mov	eax, DWORD PTR ___flags$[ebp]
	and	eax, 1
	je	SHORT $L93659
	mov	eax, DWORD PTR _this$[ebp]
	push	eax
	call	??3@YAXPAX@Z				; operator delete
	add	esp, 4
$L93659:
	mov	eax, DWORD PTR _this$[ebp]
$L93655:
	pop	edi
	pop	esi
	pop	ebx
	add	esp, 204				; 000000ccH
	cmp	ebp, esp
	call	__RTC_CheckEsp
	mov	esp, ebp
	pop	ebp
	ret	4
??_ECATextType@@QAEPAXI@Z ENDP				; CATextType::`vector deleting destructor'
; Function compile flags: /Odt /RTCcsu /ZI
; File c:\astrow32dev\tbt32\texttypeary.hpp
_TEXT	ENDS
;	COMDAT ??1CATextType@@QAE@XZ
_TEXT	SEGMENT
_this$ = -8						; size = 4
??1CATextType@@QAE@XZ PROC NEAR				; CATextType::~CATextType, COMDAT
; _this$ = ecx

; 16   :     ~CATextType() {}

	push	ebp
	mov	ebp, esp
	sub	esp, 204				; 000000ccH
	push	ebx
	push	esi
	push	edi
	push	ecx
	lea	edi, DWORD PTR [ebp-204]
	mov	ecx, 51					; 00000033H
	mov	eax, -858993460				; ccccccccH
	rep stosd
	pop	ecx
	mov	DWORD PTR _this$[ebp], ecx
	pop	edi
	pop	esi
	pop	ebx
	mov	esp, ebp
	pop	ebp
	ret	0
??1CATextType@@QAE@XZ ENDP				; CATextType::~CATextType
_TEXT	ENDS
PUBLIC	??1CDregText@@UAE@XZ				; CDregText::~CDregText
PUBLIC	??0RTFFuncs@@QAE@PAVCDialog@@@Z			; RTFFuncs::RTFFuncs
PUBLIC	??0CRegTextEdit@@QAE@PAVCWnd@@@Z		; CRegTextEdit::CRegTextEdit
PUBLIC	?DoDataExchange@CRegTextEdit@@MAEXPAVCDataExchange@@@Z ; CRegTextEdit::DoDataExchange
PUBLIC	?OnOK@CRegTextEdit@@MAEXXZ			; CRegTextEdit::OnOK
PUBLIC	?OnCancel@CRegTextEdit@@MAEXXZ			; CRegTextEdit::OnCancel
PUBLIC	?OnInitDialog@CRegTextEdit@@MAEHXZ		; CRegTextEdit::OnInitDialog
PUBLIC	?GetMessageMap@CRegTextEdit@@MBEPBUAFX_MSGMAP@@XZ ; CRegTextEdit::GetMessageMap
PUBLIC	?DestroyWindow@CRegTextEdit@@UAEHXZ		; CRegTextEdit::DestroyWindow
PUBLIC	??_7CRegTextEdit@@6B@				; CRegTextEdit::`vftable'
PUBLIC	??_GCRegTextEdit@@UAEPAXI@Z			; CRegTextEdit::`scalar deleting destructor'
PUBLIC	??_C@_00CNPNBAHC@?$AA@				; `string'
PUBLIC	?__LINE__Var@?1???0CRegTextEdit@@QAE@PAVCWnd@@@Z@4JA ; `CRegTextEdit::CRegTextEdit'::`2'::__LINE__Var
PUBLIC	??0?$CStringT@GV?$StrTraitMFC@GV?$ChTraitsCRT@G@ATL@@@@@ATL@@QAE@XZ ; ATL::CStringT<unsigned short,StrTraitMFC<unsigned short,ATL::ChTraitsCRT<unsigned short> > >::CStringT<unsigned short,StrTraitMFC<unsigned short,ATL::ChTraitsCRT<unsigned short> > >
PUBLIC	??1?$CStringT@GV?$StrTraitMFC@GV?$ChTraitsCRT@G@ATL@@@@@ATL@@QAE@XZ ; ATL::CStringT<unsigned short,StrTraitMFC<unsigned short,ATL::ChTraitsCRT<unsigned short> > >::~CStringT<unsigned short,StrTraitMFC<unsigned short,ATL::ChTraitsCRT<unsigned short> > >
PUBLIC	??4?$CStringT@GV?$StrTraitMFC@GV?$ChTraitsCRT@G@ATL@@@@@ATL@@QAEAAV01@PBD@Z ; ATL::CStringT<unsigned short,StrTraitMFC<unsigned short,ATL::ChTraitsCRT<unsigned short> > >::operator=
PUBLIC	??0CWSpell@@QAE@XZ				; CWSpell::CWSpell
PUBLIC	??1CWSpell@@UAE@XZ				; CWSpell::~CWSpell
EXTRN	?GetRuntimeClass@CDialog@@UBEPAUCRuntimeClass@@XZ:NEAR ; CDialog::GetRuntimeClass
EXTRN	?Create@CDialog@@UAEHPBGPAVCWnd@@@Z:NEAR	; CDialog::Create
EXTRN	?Create@CDialog@@UAEHIPAVCWnd@@@Z:NEAR		; CDialog::Create
EXTRN	?CreateIndirect@CDialog@@UAEHPBUDLGTEMPLATE@@PAVCWnd@@PAX@Z:NEAR ; CDialog::CreateIndirect
EXTRN	?CreateIndirect@CDialog@@UAEHPAXPAVCWnd@@@Z:NEAR ; CDialog::CreateIndirect
EXTRN	?OnToolHitTest@CWnd@@UBEHVCPoint@@PAUtagTOOLINFOW@@@Z:NEAR ; CWnd::OnToolHitTest
EXTRN	??0CDialog@@QAE@IPAVCWnd@@@Z:NEAR		; CDialog::CDialog
EXTRN	?DoModal@CDialog@@UAEHXZ:NEAR			; CDialog::DoModal
EXTRN	?OnSetFont@CDialog@@UAEXPAVCFont@@@Z:NEAR	; CDialog::OnSetFont
EXTRN	??1CDialog@@UAE@XZ:NEAR				; CDialog::~CDialog
EXTRN	?AssertValid@CDialog@@UBEXXZ:NEAR		; CDialog::AssertValid
EXTRN	?Dump@CDialog@@UBEXAAVCDumpContext@@@Z:NEAR	; CDialog::Dump
EXTRN	?PreTranslateMessage@CDialog@@UAEHPAUtagMSG@@@Z:NEAR ; CDialog::PreTranslateMessage
EXTRN	?OnCmdMsg@CDialog@@UAEHIHPAXPAUAFX_CMDHANDLERINFO@@@Z:NEAR ; CDialog::OnCmdMsg
EXTRN	?CheckAutoCenter@CDialog@@UAEHXZ:NEAR		; CDialog::CheckAutoCenter
EXTRN	??2@YAPAXIPBDH@Z:NEAR				; operator new
EXTRN	?SetOccDialogInfo@CDialog@@MAEHPAU_AFX_OCC_DIALOG_INFO@@@Z:NEAR ; CDialog::SetOccDialogInfo
EXTRN	?PreInitDialog@CDialog@@MAEXXZ:NEAR		; CDialog::PreInitDialog
EXTRN	??3@YAXPAXPBDH@Z:NEAR				; operator delete
EXTRN	__except_list:DWORD
EXTRN	___CxxFrameHandler:NEAR
EXTRN	?GetScrollBarCtrl@CWnd@@UBEPAVCScrollBar@@H@Z:NEAR ; CWnd::GetScrollBarCtrl
EXTRN	??_ECRegTextEdit@@UAEPAXI@Z:NEAR		; CRegTextEdit::`vector deleting destructor'
EXTRN	?WinHelpW@CWnd@@UAEXKI@Z:NEAR			; CWnd::WinHelpW
EXTRN	?HtmlHelpW@CWnd@@UAEXKI@Z:NEAR			; CWnd::HtmlHelpW
EXTRN	?WinHelpInternal@CWnd@@UAEXKI@Z:NEAR		; CWnd::WinHelpInternal
EXTRN	?ContinueModal@CWnd@@UAEHXZ:NEAR		; CWnd::ContinueModal
EXTRN	?EndModalLoop@CWnd@@UAEXH@Z:NEAR		; CWnd::EndModalLoop
EXTRN	?GetInterfaceMap@CWnd@@MBEPBUAFX_INTERFACEMAP@@XZ:NEAR ; CWnd::GetInterfaceMap
EXTRN	?EnsureStdObj@CWnd@@UAEJXZ:NEAR			; CWnd::EnsureStdObj
EXTRN	?get_accParent@CWnd@@UAEJPAPAUIDispatch@@@Z:NEAR ; CWnd::get_accParent
EXTRN	?get_accChildCount@CWnd@@UAEJPAJ@Z:NEAR		; CWnd::get_accChildCount
EXTRN	?get_accChild@CWnd@@UAEJUtagVARIANT@@PAPAUIDispatch@@@Z:NEAR ; CWnd::get_accChild
EXTRN	?get_accName@CWnd@@UAEJUtagVARIANT@@PAPAG@Z:NEAR ; CWnd::get_accName
EXTRN	?get_accValue@CWnd@@UAEJUtagVARIANT@@PAPAG@Z:NEAR ; CWnd::get_accValue
EXTRN	?get_accDescription@CWnd@@UAEJUtagVARIANT@@PAPAG@Z:NEAR ; CWnd::get_accDescription
EXTRN	?IsInvokeAllowed@CCmdTarget@@UAEHJ@Z:NEAR	; CCmdTarget::IsInvokeAllowed
EXTRN	?get_accRole@CWnd@@UAEJUtagVARIANT@@PAU2@@Z:NEAR ; CWnd::get_accRole
EXTRN	?get_accState@CWnd@@UAEJUtagVARIANT@@PAU2@@Z:NEAR ; CWnd::get_accState
EXTRN	?get_accHelp@CWnd@@UAEJUtagVARIANT@@PAPAG@Z:NEAR ; CWnd::get_accHelp
EXTRN	?GetDispatchIID@CCmdTarget@@UAEHPAU_GUID@@@Z:NEAR ; CCmdTarget::GetDispatchIID
EXTRN	?GetTypeInfoCount@CCmdTarget@@UAEIXZ:NEAR	; CCmdTarget::GetTypeInfoCount
EXTRN	?GetTypeLibCache@CCmdTarget@@UAEPAVCTypeLibCache@@XZ:NEAR ; CCmdTarget::GetTypeLibCache
EXTRN	?get_accHelpTopic@CWnd@@UAEJPAPAGUtagVARIANT@@PAJ@Z:NEAR ; CWnd::get_accHelpTopic
EXTRN	?GetTypeLib@CCmdTarget@@UAEJKPAPAUITypeLib@@@Z:NEAR ; CCmdTarget::GetTypeLib
EXTRN	?get_accKeyboardShortcut@CWnd@@UAEJUtagVARIANT@@PAPAG@Z:NEAR ; CWnd::get_accKeyboardShortcut
EXTRN	?get_accFocus@CWnd@@UAEJPAUtagVARIANT@@@Z:NEAR	; CWnd::get_accFocus
EXTRN	?get_accSelection@CWnd@@UAEJPAUtagVARIANT@@@Z:NEAR ; CWnd::get_accSelection
EXTRN	?get_accDefaultAction@CWnd@@UAEJUtagVARIANT@@PAPAG@Z:NEAR ; CWnd::get_accDefaultAction
EXTRN	?accSelect@CWnd@@UAEJJUtagVARIANT@@@Z:NEAR	; CWnd::accSelect
EXTRN	?accLocation@CWnd@@UAEJPAJ000UtagVARIANT@@@Z:NEAR ; CWnd::accLocation
EXTRN	?GetCommandMap@CCmdTarget@@MBEPBUAFX_OLECMDMAP@@XZ:NEAR ; CCmdTarget::GetCommandMap
EXTRN	?accNavigate@CWnd@@UAEJJUtagVARIANT@@PAU2@@Z:NEAR ; CWnd::accNavigate
EXTRN	?accHitTest@CWnd@@UAEJJJPAUtagVARIANT@@@Z:NEAR	; CWnd::accHitTest
EXTRN	?accDoDefaultAction@CWnd@@UAEJUtagVARIANT@@@Z:NEAR ; CWnd::accDoDefaultAction
EXTRN	?GetDispatchMap@CCmdTarget@@MBEPBUAFX_DISPMAP@@XZ:NEAR ; CCmdTarget::GetDispatchMap
EXTRN	?put_accName@CWnd@@UAEJUtagVARIANT@@PAG@Z:NEAR	; CWnd::put_accName
EXTRN	?put_accValue@CWnd@@UAEJUtagVARIANT@@PAG@Z:NEAR	; CWnd::put_accValue
EXTRN	?GetConnectionMap@CCmdTarget@@MBEPBUAFX_CONNECTIONMAP@@XZ:NEAR ; CCmdTarget::GetConnectionMap
EXTRN	?SetProxy@CWnd@@UAEJPAUIAccessibleProxy@@@Z:NEAR ; CWnd::SetProxy
EXTRN	?CreateAccessibleProxy@CWnd@@UAEJIJPAJ@Z:NEAR	; CWnd::CreateAccessibleProxy
EXTRN	?GetEventSinkMap@CCmdTarget@@MBEPBUAFX_EVENTSINKMAP@@XZ:NEAR ; CCmdTarget::GetEventSinkMap
EXTRN	?OnCommand@CWnd@@MAEHIJ@Z:NEAR			; CWnd::OnCommand
EXTRN	?Serialize@CObject@@UAEXAAVCArchive@@@Z:NEAR	; CObject::Serialize
EXTRN	?OnNotify@CWnd@@MAEHIJPAJ@Z:NEAR		; CWnd::OnNotify
EXTRN	?OnCreateAggregates@CCmdTarget@@UAEHXZ:NEAR	; CCmdTarget::OnCreateAggregates
EXTRN	?GetInterfaceHook@CCmdTarget@@UAEPAUIUnknown@@PBX@Z:NEAR ; CCmdTarget::GetInterfaceHook
EXTRN	?GetExtraConnectionPoints@CCmdTarget@@MAEHPAVCPtrArray@@@Z:NEAR ; CCmdTarget::GetExtraConnectionPoints
EXTRN	?GetConnectionHook@CCmdTarget@@MAEPAUIConnectionPoint@@ABU_GUID@@@Z:NEAR ; CCmdTarget::GetConnectionHook
EXTRN	?PreSubclassWindow@CWnd@@UAEXXZ:NEAR		; CWnd::PreSubclassWindow
EXTRN	?Create@CWnd@@UAEHPBG0KABUtagRECT@@PAV1@IPAUCCreateContext@@@Z:NEAR ; CWnd::Create
EXTRN	?CreateEx@CWnd@@UAEHKPBG0KHHHHPAUHWND__@@PAUHMENU__@@PAX@Z:NEAR ; CWnd::CreateEx
EXTRN	?CreateEx@CWnd@@UAEHKPBG0KABUtagRECT@@PAV1@IPAX@Z:NEAR ; CWnd::CreateEx
EXTRN	?PreCreateWindow@CWnd@@UAEHAAUtagCREATESTRUCTW@@@Z:NEAR ; CWnd::PreCreateWindow
EXTRN	?CalcWindowRect@CWnd@@UAEXPAUtagRECT@@I@Z:NEAR	; CWnd::CalcWindowRect
EXTRN	?GetSuperWndProcAddr@CWnd@@MAEPAP6GJPAUHWND__@@IIJ@ZXZ:NEAR ; CWnd::GetSuperWndProcAddr
EXTRN	?BeginModalState@CWnd@@UAEXXZ:NEAR		; CWnd::BeginModalState
EXTRN	?EndModalState@CWnd@@UAEXXZ:NEAR		; CWnd::EndModalState
EXTRN	?OnAmbientProperty@CWnd@@UAEHPAVCOleControlSite@@JPAUtagVARIANT@@@Z:NEAR ; CWnd::OnAmbientProperty
EXTRN	?WindowProc@CWnd@@MAEJIIJ@Z:NEAR		; CWnd::WindowProc
EXTRN	?OnWndMsg@CWnd@@MAEHIIJPAJ@Z:NEAR		; CWnd::OnWndMsg
EXTRN	?DefWindowProcW@CWnd@@MAEJIIJ@Z:NEAR		; CWnd::DefWindowProcW
EXTRN	?PostNcDestroy@CWnd@@MAEXXZ:NEAR		; CWnd::PostNcDestroy
EXTRN	?OnChildNotify@CWnd@@MAEHIIJPAJ@Z:NEAR		; CWnd::OnChildNotify
EXTRN	?IsFrameWnd@CWnd@@UBEHXZ:NEAR			; CWnd::IsFrameWnd
EXTRN	?OnFinalRelease@CWnd@@UAEXXZ:NEAR		; CWnd::OnFinalRelease
EXTRN	?CreateControlContainer@CWnd@@MAEHPAPAVCOleControlContainer@@@Z:NEAR ; CWnd::CreateControlContainer
EXTRN	?CreateControlSite@CWnd@@MAEHPAVCOleControlContainer@@PAPAVCOleControlSite@@IABU_GUID@@@Z:NEAR ; CWnd::CreateControlSite
EXTRN	??0CDregText@@QAE@PAVCDaoDatabase@@@Z:NEAR	; CDregText::CDregText
;	COMDAT xdata$x
; File c:\astrow32dev\tbt32\regtextedit.cpp
xdata$x	SEGMENT
__unwindtable$??0CRegTextEdit@@QAE@PAVCWnd@@@Z DD 0ffffffffH
	DD	FLAT:__unwindfunclet$??0CRegTextEdit@@QAE@PAVCWnd@@@Z$0
	DD	00H
	DD	FLAT:__unwindfunclet$??0CRegTextEdit@@QAE@PAVCWnd@@@Z$1
	DD	01H
	DD	FLAT:__unwindfunclet$??0CRegTextEdit@@QAE@PAVCWnd@@@Z$2
	DD	02H
	DD	FLAT:__unwindfunclet$??0CRegTextEdit@@QAE@PAVCWnd@@@Z$3
	DD	03H
	DD	FLAT:__unwindfunclet$??0CRegTextEdit@@QAE@PAVCWnd@@@Z$4
	DD	04H
	DD	FLAT:__unwindfunclet$??0CRegTextEdit@@QAE@PAVCWnd@@@Z$5
	DD	05H
	DD	FLAT:__unwindfunclet$??0CRegTextEdit@@QAE@PAVCWnd@@@Z$6
	DD	06H
	DD	FLAT:__unwindfunclet$??0CRegTextEdit@@QAE@PAVCWnd@@@Z$7
	DD	07H
	DD	FLAT:__unwindfunclet$??0CRegTextEdit@@QAE@PAVCWnd@@@Z$8
__ehfuncinfo$??0CRegTextEdit@@QAE@PAVCWnd@@@Z DD 019930520H
	DD	09H
	DD	FLAT:__unwindtable$??0CRegTextEdit@@QAE@PAVCWnd@@@Z
	DD	2 DUP(00H)
	DD	2 DUP(00H)
xdata$x	ENDS
;	COMDAT ??_7CRegTextEdit@@6B@
CONST	SEGMENT
??_7CRegTextEdit@@6B@ DD FLAT:?GetRuntimeClass@CDialog@@UBEPAUCRuntimeClass@@XZ ; CRegTextEdit::`vftable'
	DD	FLAT:??_ECRegTextEdit@@UAEPAXI@Z
	DD	FLAT:?Serialize@CObject@@UAEXAAVCArchive@@@Z
	DD	FLAT:?AssertValid@CDialog@@UBEXXZ
	DD	FLAT:?Dump@CDialog@@UBEXAAVCDumpContext@@@Z
	DD	FLAT:?OnCmdMsg@CDialog@@UAEHIHPAXPAUAFX_CMDHANDLERINFO@@@Z
	DD	FLAT:?OnFinalRelease@CWnd@@UAEXXZ
	DD	FLAT:?IsInvokeAllowed@CCmdTarget@@UAEHJ@Z
	DD	FLAT:?GetDispatchIID@CCmdTarget@@UAEHPAU_GUID@@@Z
	DD	FLAT:?GetTypeInfoCount@CCmdTarget@@UAEIXZ
	DD	FLAT:?GetTypeLibCache@CCmdTarget@@UAEPAVCTypeLibCache@@XZ
	DD	FLAT:?GetTypeLib@CCmdTarget@@UAEJKPAPAUITypeLib@@@Z
	DD	FLAT:?GetMessageMap@CRegTextEdit@@MBEPBUAFX_MSGMAP@@XZ
	DD	FLAT:?GetCommandMap@CCmdTarget@@MBEPBUAFX_OLECMDMAP@@XZ
	DD	FLAT:?GetDispatchMap@CCmdTarget@@MBEPBUAFX_DISPMAP@@XZ
	DD	FLAT:?GetConnectionMap@CCmdTarget@@MBEPBUAFX_CONNECTIONMAP@@XZ
	DD	FLAT:?GetInterfaceMap@CWnd@@MBEPBUAFX_INTERFACEMAP@@XZ
	DD	FLAT:?GetEventSinkMap@CCmdTarget@@MBEPBUAFX_EVENTSINKMAP@@XZ
	DD	FLAT:?OnCreateAggregates@CCmdTarget@@UAEHXZ
	DD	FLAT:?GetInterfaceHook@CCmdTarget@@UAEPAUIUnknown@@PBX@Z
	DD	FLAT:?GetExtraConnectionPoints@CCmdTarget@@MAEHPAVCPtrArray@@@Z
	DD	FLAT:?GetConnectionHook@CCmdTarget@@MAEPAUIConnectionPoint@@ABU_GUID@@@Z
	DD	FLAT:?PreSubclassWindow@CWnd@@UAEXXZ
	DD	FLAT:?Create@CWnd@@UAEHPBG0KABUtagRECT@@PAV1@IPAUCCreateContext@@@Z
	DD	FLAT:?CreateEx@CWnd@@UAEHKPBG0KABUtagRECT@@PAV1@IPAX@Z
	DD	FLAT:?CreateEx@CWnd@@UAEHKPBG0KHHHHPAUHWND__@@PAUHMENU__@@PAX@Z
	DD	FLAT:?DestroyWindow@CRegTextEdit@@UAEHXZ
	DD	FLAT:?PreCreateWindow@CWnd@@UAEHAAUtagCREATESTRUCTW@@@Z
	DD	FLAT:?CalcWindowRect@CWnd@@UAEXPAUtagRECT@@I@Z
	DD	FLAT:?OnToolHitTest@CWnd@@UBEHVCPoint@@PAUtagTOOLINFOW@@@Z
	DD	FLAT:?GetScrollBarCtrl@CWnd@@UBEPAVCScrollBar@@H@Z
	DD	FLAT:?WinHelpW@CWnd@@UAEXKI@Z
	DD	FLAT:?HtmlHelpW@CWnd@@UAEXKI@Z
	DD	FLAT:?WinHelpInternal@CWnd@@UAEXKI@Z
	DD	FLAT:?ContinueModal@CWnd@@UAEHXZ
	DD	FLAT:?EndModalLoop@CWnd@@UAEXH@Z
	DD	FLAT:?EnsureStdObj@CWnd@@UAEJXZ
	DD	FLAT:?get_accParent@CWnd@@UAEJPAPAUIDispatch@@@Z
	DD	FLAT:?get_accChildCount@CWnd@@UAEJPAJ@Z
	DD	FLAT:?get_accChild@CWnd@@UAEJUtagVARIANT@@PAPAUIDispatch@@@Z
	DD	FLAT:?get_accName@CWnd@@UAEJUtagVARIANT@@PAPAG@Z
	DD	FLAT:?get_accValue@CWnd@@UAEJUtagVARIANT@@PAPAG@Z
	DD	FLAT:?get_accDescription@CWnd@@UAEJUtagVARIANT@@PAPAG@Z
	DD	FLAT:?get_accRole@CWnd@@UAEJUtagVARIANT@@PAU2@@Z
	DD	FLAT:?get_accState@CWnd@@UAEJUtagVARIANT@@PAU2@@Z
	DD	FLAT:?get_accHelp@CWnd@@UAEJUtagVARIANT@@PAPAG@Z
	DD	FLAT:?get_accHelpTopic@CWnd@@UAEJPAPAGUtagVARIANT@@PAJ@Z
	DD	FLAT:?get_accKeyboardShortcut@CWnd@@UAEJUtagVARIANT@@PAPAG@Z
	DD	FLAT:?get_accFocus@CWnd@@UAEJPAUtagVARIANT@@@Z
	DD	FLAT:?get_accSelection@CWnd@@UAEJPAUtagVARIANT@@@Z
	DD	FLAT:?get_accDefaultAction@CWnd@@UAEJUtagVARIANT@@PAPAG@Z
	DD	FLAT:?accSelect@CWnd@@UAEJJUtagVARIANT@@@Z
	DD	FLAT:?accLocation@CWnd@@UAEJPAJ000UtagVARIANT@@@Z
	DD	FLAT:?accNavigate@CWnd@@UAEJJUtagVARIANT@@PAU2@@Z
	DD	FLAT:?accHitTest@CWnd@@UAEJJJPAUtagVARIANT@@@Z
	DD	FLAT:?accDoDefaultAction@CWnd@@UAEJUtagVARIANT@@@Z
	DD	FLAT:?put_accName@CWnd@@UAEJUtagVARIANT@@PAG@Z
	DD	FLAT:?put_accValue@CWnd@@UAEJUtagVARIANT@@PAG@Z
	DD	FLAT:?SetProxy@CWnd@@UAEJPAUIAccessibleProxy@@@Z
	DD	FLAT:?CreateAccessibleProxy@CWnd@@UAEJIJPAJ@Z
	DD	FLAT:?OnCommand@CWnd@@MAEHIJ@Z
	DD	FLAT:?OnNotify@CWnd@@MAEHIJPAJ@Z
	DD	FLAT:?GetSuperWndProcAddr@CWnd@@MAEPAP6GJPAUHWND__@@IIJ@ZXZ
	DD	FLAT:?DoDataExchange@CRegTextEdit@@MAEXPAVCDataExchange@@@Z
	DD	FLAT:?BeginModalState@CWnd@@UAEXXZ
	DD	FLAT:?EndModalState@CWnd@@UAEXXZ
	DD	FLAT:?PreTranslateMessage@CDialog@@UAEHPAUtagMSG@@@Z
	DD	FLAT:?OnAmbientProperty@CWnd@@UAEHPAVCOleControlSite@@JPAUtagVARIANT@@@Z
	DD	FLAT:?WindowProc@CWnd@@MAEJIIJ@Z
	DD	FLAT:?OnWndMsg@CWnd@@MAEHIIJPAJ@Z
	DD	FLAT:?DefWindowProcW@CWnd@@MAEJIIJ@Z
	DD	FLAT:?PostNcDestroy@CWnd@@MAEXXZ
	DD	FLAT:?OnChildNotify@CWnd@@MAEHIIJPAJ@Z
	DD	FLAT:?CheckAutoCenter@CDialog@@UAEHXZ
	DD	FLAT:?IsFrameWnd@CWnd@@UBEHXZ
	DD	FLAT:?CreateControlContainer@CWnd@@MAEHPAPAVCOleControlContainer@@@Z
	DD	FLAT:?CreateControlSite@CWnd@@MAEHPAVCOleControlContainer@@PAPAVCOleControlSite@@IABU_GUID@@@Z
	DD	FLAT:?SetOccDialogInfo@CDialog@@MAEHPAU_AFX_OCC_DIALOG_INFO@@@Z
	DD	FLAT:?Create@CDialog@@UAEHIPAVCWnd@@@Z
	DD	FLAT:?Create@CDialog@@UAEHPBGPAVCWnd@@@Z
	DD	FLAT:?CreateIndirect@CDialog@@UAEHPAXPAVCWnd@@@Z
	DD	FLAT:?CreateIndirect@CDialog@@UAEHPBUDLGTEMPLATE@@PAVCWnd@@PAX@Z
	DD	FLAT:?DoModal@CDialog@@UAEHXZ
	DD	FLAT:?OnInitDialog@CRegTextEdit@@MAEHXZ
	DD	FLAT:?OnSetFont@CDialog@@UAEXPAVCFont@@@Z
	DD	FLAT:?OnOK@CRegTextEdit@@MAEXXZ
	DD	FLAT:?OnCancel@CRegTextEdit@@MAEXXZ
	DD	FLAT:?PreInitDialog@CDialog@@MAEXXZ
CONST	ENDS
;	COMDAT ??_C@_00CNPNBAHC@?$AA@
CONST	SEGMENT
??_C@_00CNPNBAHC@?$AA@ DB 00H				; `string'
CONST	ENDS
;	COMDAT ?__LINE__Var@?1???0CRegTextEdit@@QAE@PAVCWnd@@@Z@4JA
_DATA	SEGMENT
?__LINE__Var@?1???0CRegTextEdit@@QAE@PAVCWnd@@@Z@4JA DD 018H ; `CRegTextEdit::CRegTextEdit'::`2'::__LINE__Var
; Function compile flags: /Odt /RTCcsu /ZI
_DATA	ENDS
;	COMDAT ??0CRegTextEdit@@QAE@PAVCWnd@@@Z
_TEXT	SEGMENT
tv173 = -244						; size = 4
$T94306 = -236						; size = 4
$T94307 = -224						; size = 4
_this$ = -20						; size = 4
__$EHRec$ = -12						; size = 12
_pParent$ = 8						; size = 4
??0CRegTextEdit@@QAE@PAVCWnd@@@Z PROC NEAR		; CRegTextEdit::CRegTextEdit, COMDAT
; _this$ = ecx

; 25   : {

	push	ebp
	mov	ebp, esp
	push	-1
	push	__ehhandler$??0CRegTextEdit@@QAE@PAVCWnd@@@Z
	mov	eax, DWORD PTR fs:__except_list
	push	eax
	mov	DWORD PTR fs:__except_list, esp
	sub	esp, 232				; 000000e8H
	push	ebx
	push	esi
	push	edi
	push	ecx
	lea	edi, DWORD PTR [ebp-244]
	mov	ecx, 58					; 0000003aH
	mov	eax, -858993460				; ccccccccH
	rep stosd
	pop	ecx
	mov	DWORD PTR _this$[ebp], ecx
	mov	eax, DWORD PTR _pParent$[ebp]
	push	eax
	push	134					; 00000086H
	mov	ecx, DWORD PTR _this$[ebp]
	call	??0CDialog@@QAE@IPAVCWnd@@@Z		; CDialog::CDialog
	mov	DWORD PTR __$EHRec$[ebp+8], 0
	mov	eax, DWORD PTR _this$[ebp]
	mov	DWORD PTR [eax], OFFSET FLAT:??_7CRegTextEdit@@6B@
	mov	ecx, DWORD PTR _this$[ebp]
	add	ecx, 116				; 00000074H
	call	??0?$CStringT@GV?$StrTraitMFC@GV?$ChTraitsCRT@G@ATL@@@@@ATL@@QAE@XZ ; ATL::CStringT<unsigned short,StrTraitMFC<unsigned short,ATL::ChTraitsCRT<unsigned short> > >::CStringT<unsigned short,StrTraitMFC<unsigned short,ATL::ChTraitsCRT<unsigned short> > >
	mov	BYTE PTR __$EHRec$[ebp+8], 1
	mov	ecx, DWORD PTR _this$[ebp]
	add	ecx, 120				; 00000078H
	call	??0?$CStringT@GV?$StrTraitMFC@GV?$ChTraitsCRT@G@ATL@@@@@ATL@@QAE@XZ ; ATL::CStringT<unsigned short,StrTraitMFC<unsigned short,ATL::ChTraitsCRT<unsigned short> > >::CStringT<unsigned short,StrTraitMFC<unsigned short,ATL::ChTraitsCRT<unsigned short> > >
	mov	BYTE PTR __$EHRec$[ebp+8], 2
	mov	ecx, DWORD PTR _this$[ebp]
	add	ecx, 124				; 0000007cH
	call	??0CWSpell@@QAE@XZ
	mov	BYTE PTR __$EHRec$[ebp+8], 3
	mov	ecx, DWORD PTR _this$[ebp]
	add	ecx, 204				; 000000ccH
	call	??0?$CStringT@GV?$StrTraitMFC@GV?$ChTraitsCRT@G@ATL@@@@@ATL@@QAE@XZ ; ATL::CStringT<unsigned short,StrTraitMFC<unsigned short,ATL::ChTraitsCRT<unsigned short> > >::CStringT<unsigned short,StrTraitMFC<unsigned short,ATL::ChTraitsCRT<unsigned short> > >
	mov	BYTE PTR __$EHRec$[ebp+8], 4
	mov	ecx, DWORD PTR _this$[ebp]
	add	ecx, 208				; 000000d0H
	call	??0?$CStringT@GV?$StrTraitMFC@GV?$ChTraitsCRT@G@ATL@@@@@ATL@@QAE@XZ ; ATL::CStringT<unsigned short,StrTraitMFC<unsigned short,ATL::ChTraitsCRT<unsigned short> > >::CStringT<unsigned short,StrTraitMFC<unsigned short,ATL::ChTraitsCRT<unsigned short> > >
	mov	BYTE PTR __$EHRec$[ebp+8], 5
	mov	ecx, DWORD PTR _this$[ebp]
	add	ecx, 212				; 000000d4H
	call	??0?$CStringT@GV?$StrTraitMFC@GV?$ChTraitsCRT@G@ATL@@@@@ATL@@QAE@XZ ; ATL::CStringT<unsigned short,StrTraitMFC<unsigned short,ATL::ChTraitsCRT<unsigned short> > >::CStringT<unsigned short,StrTraitMFC<unsigned short,ATL::ChTraitsCRT<unsigned short> > >
	mov	BYTE PTR __$EHRec$[ebp+8], 6
	push	0
	mov	ecx, DWORD PTR _this$[ebp]
	add	ecx, 216				; 000000d8H
	call	??0CDregText@@QAE@PAVCDaoDatabase@@@Z	; CDregText::CDregText
	mov	BYTE PTR __$EHRec$[ebp+8], 7

; 26   : 	//{{AFX_DATA_INIT(CRegTextEdit)
; 27   : 	m_Key1 = -1;

	mov	eax, DWORD PTR _this$[ebp]
	mov	DWORD PTR [eax+112], -1

; 28   : 	m_Key2 = "";

	push	OFFSET FLAT:??_C@_00CNPNBAHC@?$AA@
	mov	ecx, DWORD PTR _this$[ebp]
	add	ecx, 116				; 00000074H
	call	??4?$CStringT@GV?$StrTraitMFC@GV?$ChTraitsCRT@G@ATL@@@@@ATL@@QAEAAV01@PBD@Z ; ATL::CStringT<unsigned short,StrTraitMFC<unsigned short,ATL::ChTraitsCRT<unsigned short> > >::operator=

; 29   : 	m_Text = "";

	push	OFFSET FLAT:??_C@_00CNPNBAHC@?$AA@
	mov	ecx, DWORD PTR _this$[ebp]
	add	ecx, 120				; 00000078H
	call	??4?$CStringT@GV?$StrTraitMFC@GV?$ChTraitsCRT@G@ATL@@@@@ATL@@QAEAAV01@PBD@Z ; ATL::CStringT<unsigned short,StrTraitMFC<unsigned short,ATL::ChTraitsCRT<unsigned short> > >::operator=

; 30   : 	//}}AFX_DATA_INIT
; 31   :    pFuncs = new RTFFuncs(this);

	mov	eax, DWORD PTR ?__LINE__Var@?1???0CRegTextEdit@@QAE@PAVCWnd@@@Z@4JA
	add	eax, 7
	push	eax
	push	OFFSET FLAT:_THIS_FILE
	push	16					; 00000010H
	call	??2@YAPAXIPBDH@Z			; operator new
	add	esp, 12					; 0000000cH
	mov	DWORD PTR $T94307[ebp], eax
	mov	BYTE PTR __$EHRec$[ebp+8], 8
	cmp	DWORD PTR $T94307[ebp], 0
	je	SHORT $L94308
	mov	ecx, DWORD PTR _this$[ebp]
	push	ecx
	mov	ecx, DWORD PTR $T94307[ebp]
	call	??0RTFFuncs@@QAE@PAVCDialog@@@Z		; RTFFuncs::RTFFuncs
	mov	DWORD PTR tv173[ebp], eax
	jmp	SHORT $L94309
$L94308:
	mov	DWORD PTR tv173[ebp], 0
$L94309:
	mov	edx, DWORD PTR tv173[ebp]
	mov	DWORD PTR $T94306[ebp], edx
	mov	BYTE PTR __$EHRec$[ebp+8], 7
	mov	eax, DWORD PTR _this$[ebp]
	mov	ecx, DWORD PTR $T94306[ebp]
	mov	DWORD PTR [eax+396], ecx

; 32   : }

	mov	DWORD PTR __$EHRec$[ebp+8], -1
	mov	eax, DWORD PTR _this$[ebp]
	mov	ecx, DWORD PTR __$EHRec$[ebp]
	mov	DWORD PTR fs:__except_list, ecx
	pop	edi
	pop	esi
	pop	ebx
	add	esp, 244				; 000000f4H
	cmp	ebp, esp
	call	__RTC_CheckEsp
	mov	esp, ebp
	pop	ebp
	ret	4
_TEXT	ENDS
;	COMDAT text$x
text$x	SEGMENT
__unwindfunclet$??0CRegTextEdit@@QAE@PAVCWnd@@@Z$0:
	mov	ecx, DWORD PTR _this$[ebp]
	jmp	??1CDialog@@UAE@XZ			; CDialog::~CDialog
__unwindfunclet$??0CRegTextEdit@@QAE@PAVCWnd@@@Z$1:
	mov	ecx, DWORD PTR _this$[ebp]
	add	ecx, 116				; 00000074H
	jmp	??1?$CStringT@GV?$StrTraitMFC@GV?$ChTraitsCRT@G@ATL@@@@@ATL@@QAE@XZ ; ATL::CStringT<unsigned short,StrTraitMFC<unsigned short,ATL::ChTraitsCRT<unsigned short> > >::~CStringT<unsigned short,StrTraitMFC<unsigned short,ATL::ChTraitsCRT<unsigned short> > >
__unwindfunclet$??0CRegTextEdit@@QAE@PAVCWnd@@@Z$2:
	mov	ecx, DWORD PTR _this$[ebp]
	add	ecx, 120				; 00000078H
	jmp	??1?$CStringT@GV?$StrTraitMFC@GV?$ChTraitsCRT@G@ATL@@@@@ATL@@QAE@XZ ; ATL::CStringT<unsigned short,StrTraitMFC<unsigned short,ATL::ChTraitsCRT<unsigned short> > >::~CStringT<unsigned short,StrTraitMFC<unsigned short,ATL::ChTraitsCRT<unsigned short> > >
__unwindfunclet$??0CRegTextEdit@@QAE@PAVCWnd@@@Z$3:
	mov	ecx, DWORD PTR _this$[ebp]
	add	ecx, 124				; 0000007cH
	jmp	??1CWSpell@@UAE@XZ
__unwindfunclet$??0CRegTextEdit@@QAE@PAVCWnd@@@Z$4:
	mov	ecx, DWORD PTR _this$[ebp]
	add	ecx, 204				; 000000ccH
	jmp	??1?$CStringT@GV?$StrTraitMFC@GV?$ChTraitsCRT@G@ATL@@@@@ATL@@QAE@XZ ; ATL::CStringT<unsigned short,StrTraitMFC<unsigned short,ATL::ChTraitsCRT<unsigned short> > >::~CStringT<unsigned short,StrTraitMFC<unsigned short,ATL::ChTraitsCRT<unsigned short> > >
__unwindfunclet$??0CRegTextEdit@@QAE@PAVCWnd@@@Z$5:
	mov	ecx, DWORD PTR _this$[ebp]
	add	ecx, 208				; 000000d0H
	jmp	??1?$CStringT@GV?$StrTraitMFC@GV?$ChTraitsCRT@G@ATL@@@@@ATL@@QAE@XZ ; ATL::CStringT<unsigned short,StrTraitMFC<unsigned short,ATL::ChTraitsCRT<unsigned short> > >::~CStringT<unsigned short,StrTraitMFC<unsigned short,ATL::ChTraitsCRT<unsigned short> > >
__unwindfunclet$??0CRegTextEdit@@QAE@PAVCWnd@@@Z$6:
	mov	ecx, DWORD PTR _this$[ebp]
	add	ecx, 212				; 000000d4H
	jmp	??1?$CStringT@GV?$StrTraitMFC@GV?$ChTraitsCRT@G@ATL@@@@@ATL@@QAE@XZ ; ATL::CStringT<unsigned short,StrTraitMFC<unsigned short,ATL::ChTraitsCRT<unsigned short> > >::~CStringT<unsigned short,StrTraitMFC<unsigned short,ATL::ChTraitsCRT<unsigned short> > >
__unwindfunclet$??0CRegTextEdit@@QAE@PAVCWnd@@@Z$7:
	mov	ecx, DWORD PTR _this$[ebp]
	add	ecx, 216				; 000000d8H
	jmp	??1CDregText@@UAE@XZ
__unwindfunclet$??0CRegTextEdit@@QAE@PAVCWnd@@@Z$8:
	mov	eax, DWORD PTR ?__LINE__Var@?1???0CRegTextEdit@@QAE@PAVCWnd@@@Z@4JA
	add	eax, 7
	push	eax
	push	OFFSET FLAT:_THIS_FILE
	mov	ecx, DWORD PTR $T94307[ebp]
	push	ecx
	call	??3@YAXPAXPBDH@Z			; operator delete
	add	esp, 12					; 0000000cH
	ret	0
__ehhandler$??0CRegTextEdit@@QAE@PAVCWnd@@@Z:
	mov	eax, OFFSET FLAT:__ehfuncinfo$??0CRegTextEdit@@QAE@PAVCWnd@@@Z
	jmp	___CxxFrameHandler
text$x	ENDS
??0CRegTextEdit@@QAE@PAVCWnd@@@Z ENDP			; CRegTextEdit::CRegTextEdit
PUBLIC	??_7RTFFuncs@@6B@				; RTFFuncs::`vftable'
PUBLIC	??_GRTFFuncs@@UAEPAXI@Z				; RTFFuncs::`scalar deleting destructor'
EXTRN	??_ERTFFuncs@@UAEPAXI@Z:NEAR			; RTFFuncs::`vector deleting destructor'
;	COMDAT ??_7RTFFuncs@@6B@
; File c:\astrow32dev\tbt32\rtffuncs.h
CONST	SEGMENT
??_7RTFFuncs@@6B@ DD FLAT:??_ERTFFuncs@@UAEPAXI@Z	; RTFFuncs::`vftable'
; Function compile flags: /Odt /RTCcsu /ZI
CONST	ENDS
;	COMDAT ??0RTFFuncs@@QAE@PAVCDialog@@@Z
_TEXT	SEGMENT
_this$ = -8						; size = 4
_pDlg$ = 8						; size = 4
??0RTFFuncs@@QAE@PAVCDialog@@@Z PROC NEAR		; RTFFuncs::RTFFuncs, COMDAT
; _this$ = ecx

; 21   :    RTFFuncs(CDialog *pDlg) { pDialog=pDlg; }

	push	ebp
	mov	ebp, esp
	sub	esp, 204				; 000000ccH
	push	ebx
	push	esi
	push	edi
	push	ecx
	lea	edi, DWORD PTR [ebp-204]
	mov	ecx, 51					; 00000033H
	mov	eax, -858993460				; ccccccccH
	rep stosd
	pop	ecx
	mov	DWORD PTR _this$[ebp], ecx
	mov	eax, DWORD PTR _this$[ebp]
	mov	DWORD PTR [eax], OFFSET FLAT:??_7RTFFuncs@@6B@
	mov	ecx, DWORD PTR _this$[ebp]
	add	ecx, 4
	call	??0?$CStringT@GV?$StrTraitMFC@GV?$ChTraitsCRT@G@ATL@@@@@ATL@@QAE@XZ ; ATL::CStringT<unsigned short,StrTraitMFC<unsigned short,ATL::ChTraitsCRT<unsigned short> > >::CStringT<unsigned short,StrTraitMFC<unsigned short,ATL::ChTraitsCRT<unsigned short> > >
	mov	ecx, DWORD PTR _this$[ebp]
	add	ecx, 8
	call	??0?$CStringT@GV?$StrTraitMFC@GV?$ChTraitsCRT@G@ATL@@@@@ATL@@QAE@XZ ; ATL::CStringT<unsigned short,StrTraitMFC<unsigned short,ATL::ChTraitsCRT<unsigned short> > >::CStringT<unsigned short,StrTraitMFC<unsigned short,ATL::ChTraitsCRT<unsigned short> > >
	mov	eax, DWORD PTR _this$[ebp]
	mov	ecx, DWORD PTR _pDlg$[ebp]
	mov	DWORD PTR [eax+12], ecx
	mov	eax, DWORD PTR _this$[ebp]
	pop	edi
	pop	esi
	pop	ebx
	add	esp, 204				; 000000ccH
	cmp	ebp, esp
	call	__RTC_CheckEsp
	mov	esp, ebp
	pop	ebp
	ret	4
??0RTFFuncs@@QAE@PAVCDialog@@@Z ENDP			; RTFFuncs::RTFFuncs
_TEXT	ENDS
PUBLIC	??1RTFFuncs@@UAE@XZ				; RTFFuncs::~RTFFuncs
; Function compile flags: /Odt /RTCcsu /ZI
;	COMDAT ??_GRTFFuncs@@UAEPAXI@Z
_TEXT	SEGMENT
_this$ = -8						; size = 4
___flags$ = 8						; size = 4
??_GRTFFuncs@@UAEPAXI@Z PROC NEAR			; RTFFuncs::`scalar deleting destructor', COMDAT
; _this$ = ecx
	push	ebp
	mov	ebp, esp
	sub	esp, 204				; 000000ccH
	push	ebx
	push	esi
	push	edi
	push	ecx
	lea	edi, DWORD PTR [ebp-204]
	mov	ecx, 51					; 00000033H
	mov	eax, -858993460				; ccccccccH
	rep stosd
	pop	ecx
	mov	DWORD PTR _this$[ebp], ecx
	mov	ecx, DWORD PTR _this$[ebp]
	call	??1RTFFuncs@@UAE@XZ			; RTFFuncs::~RTFFuncs
	mov	eax, DWORD PTR ___flags$[ebp]
	and	eax, 1
	je	SHORT $L93284
	mov	eax, DWORD PTR _this$[ebp]
	push	eax
	call	??3@YAXPAX@Z				; operator delete
	add	esp, 4
$L93284:
	mov	eax, DWORD PTR _this$[ebp]
	pop	edi
	pop	esi
	pop	ebx
	add	esp, 204				; 000000ccH
	cmp	ebp, esp
	call	__RTC_CheckEsp
	mov	esp, ebp
	pop	ebp
	ret	4
??_GRTFFuncs@@UAEPAXI@Z ENDP				; RTFFuncs::`scalar deleting destructor'
; Function compile flags: /Odt /RTCcsu /ZI
_TEXT	ENDS
;	COMDAT ??1RTFFuncs@@UAE@XZ
_TEXT	SEGMENT
_this$ = -8						; size = 4
??1RTFFuncs@@UAE@XZ PROC NEAR				; RTFFuncs::~RTFFuncs, COMDAT
; _this$ = ecx

; 39   :    virtual ~RTFFuncs() {}

	push	ebp
	mov	ebp, esp
	sub	esp, 204				; 000000ccH
	push	ebx
	push	esi
	push	edi
	push	ecx
	lea	edi, DWORD PTR [ebp-204]
	mov	ecx, 51					; 00000033H
	mov	eax, -858993460				; ccccccccH
	rep stosd
	pop	ecx
	mov	DWORD PTR _this$[ebp], ecx
	mov	eax, DWORD PTR _this$[ebp]
	mov	DWORD PTR [eax], OFFSET FLAT:??_7RTFFuncs@@6B@
	mov	ecx, DWORD PTR _this$[ebp]
	add	ecx, 8
	call	??1?$CStringT@GV?$StrTraitMFC@GV?$ChTraitsCRT@G@ATL@@@@@ATL@@QAE@XZ ; ATL::CStringT<unsigned short,StrTraitMFC<unsigned short,ATL::ChTraitsCRT<unsigned short> > >::~CStringT<unsigned short,StrTraitMFC<unsigned short,ATL::ChTraitsCRT<unsigned short> > >
	mov	ecx, DWORD PTR _this$[ebp]
	add	ecx, 4
	call	??1?$CStringT@GV?$StrTraitMFC@GV?$ChTraitsCRT@G@ATL@@@@@ATL@@QAE@XZ ; ATL::CStringT<unsigned short,StrTraitMFC<unsigned short,ATL::ChTraitsCRT<unsigned short> > >::~CStringT<unsigned short,StrTraitMFC<unsigned short,ATL::ChTraitsCRT<unsigned short> > >
	pop	edi
	pop	esi
	pop	ebx
	add	esp, 204				; 000000ccH
	cmp	ebp, esp
	call	__RTC_CheckEsp
	mov	esp, ebp
	pop	ebp
	ret	0
??1RTFFuncs@@UAE@XZ ENDP				; RTFFuncs::~RTFFuncs
_TEXT	ENDS
PUBLIC	??1CRegTextEdit@@UAE@XZ				; CRegTextEdit::~CRegTextEdit
EXTRN	??3CObject@@SGXPAX@Z:NEAR			; CObject::operator delete
; Function compile flags: /Odt /RTCcsu /ZI
;	COMDAT ??_GCRegTextEdit@@UAEPAXI@Z
_TEXT	SEGMENT
_this$ = -8						; size = 4
___flags$ = 8						; size = 4
??_GCRegTextEdit@@UAEPAXI@Z PROC NEAR			; CRegTextEdit::`scalar deleting destructor', COMDAT
; _this$ = ecx
	push	ebp
	mov	ebp, esp
	sub	esp, 204				; 000000ccH
	push	ebx
	push	esi
	push	edi
	push	ecx
	lea	edi, DWORD PTR [ebp-204]
	mov	ecx, 51					; 00000033H
	mov	eax, -858993460				; ccccccccH
	rep stosd
	pop	ecx
	mov	DWORD PTR _this$[ebp], ecx
	mov	ecx, DWORD PTR _this$[ebp]
	call	??1CRegTextEdit@@UAE@XZ
	mov	eax, DWORD PTR ___flags$[ebp]
	and	eax, 1
	je	SHORT $L93748
	mov	eax, DWORD PTR _this$[ebp]
	push	eax
	call	??3CObject@@SGXPAX@Z			; CObject::operator delete
$L93748:
	mov	eax, DWORD PTR _this$[ebp]
	pop	edi
	pop	esi
	pop	ebx
	add	esp, 204				; 000000ccH
	cmp	ebp, esp
	call	__RTC_CheckEsp
	mov	esp, ebp
	pop	ebp
	ret	4
??_GCRegTextEdit@@UAEPAXI@Z ENDP			; CRegTextEdit::`scalar deleting destructor'
_TEXT	ENDS
PUBLIC	?InterlockedExchangePointer@@YGPAXPAPAXPAX@Z	; InterlockedExchangePointer
PUBLIC	?_AtlGetThreadACPFake@ATL@@YGIXZ		; ATL::_AtlGetThreadACPFake
PUBLIC	?_AtlGetThreadACPReal@ATL@@YGIXZ		; ATL::_AtlGetThreadACPReal
EXTRN	___security_cookie:DWORD
EXTRN	@_RTC_CheckStackVars@8:NEAR
EXTRN	@__security_check_cookie@4:NEAR
EXTRN	__imp__GetVersionExW@4:NEAR
; Function compile flags: /Odt /RTCcsu /ZI
; File c:\program files\microsoft visual studio .net 2003\vc7\atlmfc\include\atlconv.h
;	COMDAT ?_AtlGetThreadACPThunk@ATL@@YGIXZ
_TEXT	SEGMENT
_pfnGetThreadACP$ = -296				; size = 4
_ver$ = -284						; size = 276
__$ArrayPad$ = -4					; size = 4
__$ReturnAddr$ = 4					; size = 4
?_AtlGetThreadACPThunk@ATL@@YGIXZ PROC NEAR		; ATL::_AtlGetThreadACPThunk, COMDAT

; 134  : {

	push	ebp
	mov	ebp, esp
	sub	esp, 492				; 000001ecH
	push	ebx
	push	esi
	push	edi
	lea	edi, DWORD PTR [ebp-492]
	mov	ecx, 123				; 0000007bH
	mov	eax, -858993460				; ccccccccH
	rep stosd
	mov	eax, DWORD PTR ___security_cookie
	mov	DWORD PTR __$ArrayPad$[ebp], eax

; 135  : 	OSVERSIONINFO ver;
; 136  : 	ATLGETTHREADACP pfnGetThreadACP;
; 137  : 
; 138  : 	ver.dwOSVersionInfoSize = sizeof( ver );

	mov	DWORD PTR _ver$[ebp], 276		; 00000114H

; 139  : 	::GetVersionEx( &ver );

	mov	esi, esp
	lea	eax, DWORD PTR _ver$[ebp]
	push	eax
	call	DWORD PTR __imp__GetVersionExW@4
	cmp	esi, esp
	call	__RTC_CheckEsp

; 140  : 	if( (ver.dwPlatformId == VER_PLATFORM_WIN32_NT) && (ver.dwMajorVersion >= 5) )

	cmp	DWORD PTR _ver$[ebp+16], 2
	jne	SHORT $L24087
	cmp	DWORD PTR _ver$[ebp+4], 5
	jb	SHORT $L24087

; 141  : 	{
; 142  : 		// On Win2K, CP_THREAD_ACP is supported
; 143  : 		pfnGetThreadACP = _AtlGetThreadACPReal;

	mov	DWORD PTR _pfnGetThreadACP$[ebp], OFFSET FLAT:?_AtlGetThreadACPReal@ATL@@YGIXZ ; ATL::_AtlGetThreadACPReal

; 144  : 	}
; 145  : 	else

	jmp	SHORT $L24088
$L24087:

; 146  : 	{
; 147  : 		pfnGetThreadACP = _AtlGetThreadACPFake;

	mov	DWORD PTR _pfnGetThreadACP$[ebp], OFFSET FLAT:?_AtlGetThreadACPFake@ATL@@YGIXZ ; ATL::_AtlGetThreadACPFake
$L24088:

; 148  : 	}
; 149  : 	InterlockedExchangePointer( reinterpret_cast< void** >(&g_pfnGetThreadACP), pfnGetThreadACP );

	mov	eax, DWORD PTR _pfnGetThreadACP$[ebp]
	push	eax
	push	OFFSET FLAT:?g_pfnGetThreadACP@ATL@@3P6GIXZA ; ATL::g_pfnGetThreadACP
	call	?InterlockedExchangePointer@@YGPAXPAPAXPAX@Z ; InterlockedExchangePointer

; 150  : 
; 151  : 	return( g_pfnGetThreadACP() );

	mov	esi, esp
	call	DWORD PTR ?g_pfnGetThreadACP@ATL@@3P6GIXZA ; ATL::g_pfnGetThreadACP
	cmp	esi, esp
	call	__RTC_CheckEsp

; 152  : }

	push	edx
	mov	ecx, ebp
	push	eax
	lea	edx, DWORD PTR $L94348
	call	@_RTC_CheckStackVars@8
	pop	eax
	pop	edx
	mov	ecx, DWORD PTR __$ArrayPad$[ebp]
	call	@__security_check_cookie@4
	pop	edi
	pop	esi
	pop	ebx
	add	esp, 492				; 000001ecH
	cmp	ebp, esp
	call	__RTC_CheckEsp
	mov	esp, ebp
	pop	ebp
	ret	0
$L94348:
	DD	1
	DD	$L94347
$L94347:
	DD	-284					; fffffee4H
	DD	276					; 00000114H
	DD	$L94344
$L94344:
	DB	118					; 00000076H
	DB	101					; 00000065H
	DB	114					; 00000072H
	DB	0
?_AtlGetThreadACPThunk@ATL@@YGIXZ ENDP			; ATL::_AtlGetThreadACPThunk
_TEXT	ENDS
EXTRN	__imp__InterlockedExchange@8:NEAR
; Function compile flags: /Odt /RTCcsu /ZI
;	COMDAT ?InterlockedExchangePointer@@YGPAXPAPAXPAX@Z
_TEXT	SEGMENT
_pp$ = 8						; size = 4
_pNew$ = 12						; size = 4
?InterlockedExchangePointer@@YGPAXPAPAXPAX@Z PROC NEAR	; InterlockedExchangePointer, COMDAT

; 91   : {

	push	ebp
	mov	ebp, esp
	sub	esp, 192				; 000000c0H
	push	ebx
	push	esi
	push	edi
	lea	edi, DWORD PTR [ebp-192]
	mov	ecx, 48					; 00000030H
	mov	eax, -858993460				; ccccccccH
	rep stosd

; 92   : 	return( reinterpret_cast<void*>(static_cast<LONG_PTR>(::InterlockedExchange(reinterpret_cast<LONG*>(pp), static_cast<LONG>(reinterpret_cast<LONG_PTR>(pNew))))) );

	mov	esi, esp
	mov	eax, DWORD PTR _pNew$[ebp]
	push	eax
	mov	ecx, DWORD PTR _pp$[ebp]
	push	ecx
	call	DWORD PTR __imp__InterlockedExchange@8
	cmp	esi, esp
	call	__RTC_CheckEsp

; 93   : }

	pop	edi
	pop	esi
	pop	ebx
	add	esp, 192				; 000000c0H
	cmp	ebp, esp
	call	__RTC_CheckEsp
	mov	esp, ebp
	pop	ebp
	ret	8
?InterlockedExchangePointer@@YGPAXPAPAXPAX@Z ENDP	; InterlockedExchangePointer
_TEXT	ENDS
EXTRN	__imp__GetACP@0:NEAR
EXTRN	__imp__GetLocaleInfoA@16:NEAR
EXTRN	__imp__GetThreadLocale@0:NEAR
; Function compile flags: /Odt /RTCcsu /ZI
;	COMDAT ?_AtlGetThreadACPFake@ATL@@YGIXZ
_TEXT	SEGMENT
_pch$24075 = -52					; size = 4
_szACP$ = -40						; size = 7
_lcidThread$ = -24					; size = 4
_nACP$ = -12						; size = 4
__$ArrayPad$ = -4					; size = 4
__$ReturnAddr$ = 4					; size = 4
?_AtlGetThreadACPFake@ATL@@YGIXZ PROC NEAR		; ATL::_AtlGetThreadACPFake, COMDAT

; 101  : {

	push	ebp
	mov	ebp, esp
	sub	esp, 248				; 000000f8H
	push	ebx
	push	esi
	push	edi
	lea	edi, DWORD PTR [ebp-248]
	mov	ecx, 62					; 0000003eH
	mov	eax, -858993460				; ccccccccH
	rep stosd
	mov	eax, DWORD PTR ___security_cookie
	mov	DWORD PTR __$ArrayPad$[ebp], eax

; 102  : 	UINT nACP = 0;

	mov	DWORD PTR _nACP$[ebp], 0

; 103  : 
; 104  : 	LCID lcidThread = ::GetThreadLocale();

	mov	esi, esp
	call	DWORD PTR __imp__GetThreadLocale@0
	cmp	esi, esp
	call	__RTC_CheckEsp
	mov	DWORD PTR _lcidThread$[ebp], eax

; 105  : 
; 106  : 	char szACP[7];
; 107  : 	// GetLocaleInfoA will fail for a Unicode-only LCID, but those are only supported on 
; 108  : 	// Windows 2000.  Since Windows 2000 supports CP_THREAD_ACP, this code path is never
; 109  : 	// executed on Windows 2000.
; 110  : 	if (::GetLocaleInfoA(lcidThread, LOCALE_IDEFAULTANSICODEPAGE, szACP, 7) != 0)

	mov	esi, esp
	push	7
	lea	eax, DWORD PTR _szACP$[ebp]
	push	eax
	push	4100					; 00001004H
	mov	ecx, DWORD PTR _lcidThread$[ebp]
	push	ecx
	call	DWORD PTR __imp__GetLocaleInfoA@16
	cmp	esi, esp
	call	__RTC_CheckEsp
	test	eax, eax
	je	SHORT $L24074

; 111  : 	{
; 112  : 		char* pch = szACP;

	lea	eax, DWORD PTR _szACP$[ebp]
	mov	DWORD PTR _pch$24075[ebp], eax
$L24077:

; 113  : 		while (*pch != '\0')

	mov	eax, DWORD PTR _pch$24075[ebp]
	movsx	ecx, BYTE PTR [eax]
	test	ecx, ecx
	je	SHORT $L24074

; 114  : 		{
; 115  : 			nACP *= 10;

	mov	eax, DWORD PTR _nACP$[ebp]
	imul	eax, 10					; 0000000aH
	mov	DWORD PTR _nACP$[ebp], eax

; 116  : 			nACP += *pch++ - '0';

	mov	eax, DWORD PTR _pch$24075[ebp]
	movsx	ecx, BYTE PTR [eax]
	mov	edx, DWORD PTR _nACP$[ebp]
	lea	eax, DWORD PTR [edx+ecx-48]
	mov	DWORD PTR _nACP$[ebp], eax
	mov	ecx, DWORD PTR _pch$24075[ebp]
	add	ecx, 1
	mov	DWORD PTR _pch$24075[ebp], ecx

; 117  : 		}

	jmp	SHORT $L24077
$L24074:

; 118  : 	}
; 119  : 	// Use the Default ANSI Code Page if we were unable to get the thread ACP or if one does not exist.
; 120  : 	if (nACP == 0)

	cmp	DWORD PTR _nACP$[ebp], 0
	jne	SHORT $L24079

; 121  : 		nACP = ::GetACP();

	mov	esi, esp
	call	DWORD PTR __imp__GetACP@0
	cmp	esi, esp
	call	__RTC_CheckEsp
	mov	DWORD PTR _nACP$[ebp], eax
$L24079:

; 122  : 
; 123  : 	return nACP;

	mov	eax, DWORD PTR _nACP$[ebp]

; 124  : }

	push	edx
	mov	ecx, ebp
	push	eax
	lea	edx, DWORD PTR $L94359
	call	@_RTC_CheckStackVars@8
	pop	eax
	pop	edx
	mov	ecx, DWORD PTR __$ArrayPad$[ebp]
	call	@__security_check_cookie@4
	pop	edi
	pop	esi
	pop	ebx
	add	esp, 248				; 000000f8H
	cmp	ebp, esp
	call	__RTC_CheckEsp
	mov	esp, ebp
	pop	ebp
	ret	0
$L94359:
	DD	1
	DD	$L94358
$L94358:
	DD	-40					; ffffffd8H
	DD	7
	DD	$L94356
$L94356:
	DB	115					; 00000073H
	DB	122					; 0000007aH
	DB	65					; 00000041H
	DB	67					; 00000043H
	DB	80					; 00000050H
	DB	0
?_AtlGetThreadACPFake@ATL@@YGIXZ ENDP			; ATL::_AtlGetThreadACPFake
; Function compile flags: /Odt /RTCcsu /ZI
_TEXT	ENDS
;	COMDAT ?_AtlGetThreadACPReal@ATL@@YGIXZ
_TEXT	SEGMENT
?_AtlGetThreadACPReal@ATL@@YGIXZ PROC NEAR		; ATL::_AtlGetThreadACPReal, COMDAT

; 127  : {

	push	ebp
	mov	ebp, esp
	sub	esp, 192				; 000000c0H
	push	ebx
	push	esi
	push	edi
	lea	edi, DWORD PTR [ebp-192]
	mov	ecx, 48					; 00000030H
	mov	eax, -858993460				; ccccccccH
	rep stosd

; 128  : 	return( CP_THREAD_ACP );

	mov	eax, 3

; 129  : }

	pop	edi
	pop	esi
	pop	ebx
	mov	esp, ebp
	pop	ebp
	ret	0
?_AtlGetThreadACPReal@ATL@@YGIXZ ENDP			; ATL::_AtlGetThreadACPReal
_TEXT	ENDS
PUBLIC	?Create@CWSpell@@UAEHPBG0KABUtagRECT@@PAVCWnd@@IPAUCCreateContext@@@Z ; CWSpell::Create
PUBLIC	??_7CWSpell@@6B@				; CWSpell::`vftable'
PUBLIC	??_GCWSpell@@UAEPAXI@Z				; CWSpell::`scalar deleting destructor'
EXTRN	?OnCmdMsg@CCmdTarget@@UAEHIHPAXPAUAFX_CMDHANDLERINFO@@@Z:NEAR ; CCmdTarget::OnCmdMsg
EXTRN	??0CWnd@@QAE@XZ:NEAR				; CWnd::CWnd
EXTRN	?GetRuntimeClass@CWSpell@@UBEPAUCRuntimeClass@@XZ:NEAR ; CWSpell::GetRuntimeClass
EXTRN	?DestroyWindow@CWnd@@UAEHXZ:NEAR		; CWnd::DestroyWindow
EXTRN	?DoDataExchange@CWnd@@MAEXPAVCDataExchange@@@Z:NEAR ; CWnd::DoDataExchange
EXTRN	?PreTranslateMessage@CWnd@@UAEHPAUtagMSG@@@Z:NEAR ; CWnd::PreTranslateMessage
EXTRN	?CheckAutoCenter@CWnd@@UAEHXZ:NEAR		; CWnd::CheckAutoCenter
EXTRN	?AssertValid@CWnd@@UBEXXZ:NEAR			; CWnd::AssertValid
EXTRN	?Dump@CWnd@@UBEXAAVCDumpContext@@@Z:NEAR	; CWnd::Dump
EXTRN	?SetOccDialogInfo@CWnd@@MAEHPAU_AFX_OCC_DIALOG_INFO@@@Z:NEAR ; CWnd::SetOccDialogInfo
EXTRN	?GetMessageMap@CWnd@@MBEPBUAFX_MSGMAP@@XZ:NEAR	; CWnd::GetMessageMap
EXTRN	??_ECWSpell@@UAEPAXI@Z:NEAR			; CWSpell::`vector deleting destructor'
;	COMDAT ??_7CWSpell@@6B@
CONST	SEGMENT
??_7CWSpell@@6B@ DD FLAT:?GetRuntimeClass@CWSpell@@UBEPAUCRuntimeClass@@XZ ; CWSpell::`vftable'
	DD	FLAT:??_ECWSpell@@UAEPAXI@Z
	DD	FLAT:?Serialize@CObject@@UAEXAAVCArchive@@@Z
	DD	FLAT:?AssertValid@CWnd@@UBEXXZ
	DD	FLAT:?Dump@CWnd@@UBEXAAVCDumpContext@@@Z
	DD	FLAT:?OnCmdMsg@CCmdTarget@@UAEHIHPAXPAUAFX_CMDHANDLERINFO@@@Z
	DD	FLAT:?OnFinalRelease@CWnd@@UAEXXZ
	DD	FLAT:?IsInvokeAllowed@CCmdTarget@@UAEHJ@Z
	DD	FLAT:?GetDispatchIID@CCmdTarget@@UAEHPAU_GUID@@@Z
	DD	FLAT:?GetTypeInfoCount@CCmdTarget@@UAEIXZ
	DD	FLAT:?GetTypeLibCache@CCmdTarget@@UAEPAVCTypeLibCache@@XZ
	DD	FLAT:?GetTypeLib@CCmdTarget@@UAEJKPAPAUITypeLib@@@Z
	DD	FLAT:?GetMessageMap@CWnd@@MBEPBUAFX_MSGMAP@@XZ
	DD	FLAT:?GetCommandMap@CCmdTarget@@MBEPBUAFX_OLECMDMAP@@XZ
	DD	FLAT:?GetDispatchMap@CCmdTarget@@MBEPBUAFX_DISPMAP@@XZ
	DD	FLAT:?GetConnectionMap@CCmdTarget@@MBEPBUAFX_CONNECTIONMAP@@XZ
	DD	FLAT:?GetInterfaceMap@CWnd@@MBEPBUAFX_INTERFACEMAP@@XZ
	DD	FLAT:?GetEventSinkMap@CCmdTarget@@MBEPBUAFX_EVENTSINKMAP@@XZ
	DD	FLAT:?OnCreateAggregates@CCmdTarget@@UAEHXZ
	DD	FLAT:?GetInterfaceHook@CCmdTarget@@UAEPAUIUnknown@@PBX@Z
	DD	FLAT:?GetExtraConnectionPoints@CCmdTarget@@MAEHPAVCPtrArray@@@Z
	DD	FLAT:?GetConnectionHook@CCmdTarget@@MAEPAUIConnectionPoint@@ABU_GUID@@@Z
	DD	FLAT:?PreSubclassWindow@CWnd@@UAEXXZ
	DD	FLAT:?Create@CWSpell@@UAEHPBG0KABUtagRECT@@PAVCWnd@@IPAUCCreateContext@@@Z
	DD	FLAT:?CreateEx@CWnd@@UAEHKPBG0KABUtagRECT@@PAV1@IPAX@Z
	DD	FLAT:?CreateEx@CWnd@@UAEHKPBG0KHHHHPAUHWND__@@PAUHMENU__@@PAX@Z
	DD	FLAT:?DestroyWindow@CWnd@@UAEHXZ
	DD	FLAT:?PreCreateWindow@CWnd@@UAEHAAUtagCREATESTRUCTW@@@Z
	DD	FLAT:?CalcWindowRect@CWnd@@UAEXPAUtagRECT@@I@Z
	DD	FLAT:?OnToolHitTest@CWnd@@UBEHVCPoint@@PAUtagTOOLINFOW@@@Z
	DD	FLAT:?GetScrollBarCtrl@CWnd@@UBEPAVCScrollBar@@H@Z
	DD	FLAT:?WinHelpW@CWnd@@UAEXKI@Z
	DD	FLAT:?HtmlHelpW@CWnd@@UAEXKI@Z
	DD	FLAT:?WinHelpInternal@CWnd@@UAEXKI@Z
	DD	FLAT:?ContinueModal@CWnd@@UAEHXZ
	DD	FLAT:?EndModalLoop@CWnd@@UAEXH@Z
	DD	FLAT:?EnsureStdObj@CWnd@@UAEJXZ
	DD	FLAT:?get_accParent@CWnd@@UAEJPAPAUIDispatch@@@Z
	DD	FLAT:?get_accChildCount@CWnd@@UAEJPAJ@Z
	DD	FLAT:?get_accChild@CWnd@@UAEJUtagVARIANT@@PAPAUIDispatch@@@Z
	DD	FLAT:?get_accName@CWnd@@UAEJUtagVARIANT@@PAPAG@Z
	DD	FLAT:?get_accValue@CWnd@@UAEJUtagVARIANT@@PAPAG@Z
	DD	FLAT:?get_accDescription@CWnd@@UAEJUtagVARIANT@@PAPAG@Z
	DD	FLAT:?get_accRole@CWnd@@UAEJUtagVARIANT@@PAU2@@Z
	DD	FLAT:?get_accState@CWnd@@UAEJUtagVARIANT@@PAU2@@Z
	DD	FLAT:?get_accHelp@CWnd@@UAEJUtagVARIANT@@PAPAG@Z
	DD	FLAT:?get_accHelpTopic@CWnd@@UAEJPAPAGUtagVARIANT@@PAJ@Z
	DD	FLAT:?get_accKeyboardShortcut@CWnd@@UAEJUtagVARIANT@@PAPAG@Z
	DD	FLAT:?get_accFocus@CWnd@@UAEJPAUtagVARIANT@@@Z
	DD	FLAT:?get_accSelection@CWnd@@UAEJPAUtagVARIANT@@@Z
	DD	FLAT:?get_accDefaultAction@CWnd@@UAEJUtagVARIANT@@PAPAG@Z
	DD	FLAT:?accSelect@CWnd@@UAEJJUtagVARIANT@@@Z
	DD	FLAT:?accLocation@CWnd@@UAEJPAJ000UtagVARIANT@@@Z
	DD	FLAT:?accNavigate@CWnd@@UAEJJUtagVARIANT@@PAU2@@Z
	DD	FLAT:?accHitTest@CWnd@@UAEJJJPAUtagVARIANT@@@Z
	DD	FLAT:?accDoDefaultAction@CWnd@@UAEJUtagVARIANT@@@Z
	DD	FLAT:?put_accName@CWnd@@UAEJUtagVARIANT@@PAG@Z
	DD	FLAT:?put_accValue@CWnd@@UAEJUtagVARIANT@@PAG@Z
	DD	FLAT:?SetProxy@CWnd@@UAEJPAUIAccessibleProxy@@@Z
	DD	FLAT:?CreateAccessibleProxy@CWnd@@UAEJIJPAJ@Z
	DD	FLAT:?OnCommand@CWnd@@MAEHIJ@Z
	DD	FLAT:?OnNotify@CWnd@@MAEHIJPAJ@Z
	DD	FLAT:?GetSuperWndProcAddr@CWnd@@MAEPAP6GJPAUHWND__@@IIJ@ZXZ
	DD	FLAT:?DoDataExchange@CWnd@@MAEXPAVCDataExchange@@@Z
	DD	FLAT:?BeginModalState@CWnd@@UAEXXZ
	DD	FLAT:?EndModalState@CWnd@@UAEXXZ
	DD	FLAT:?PreTranslateMessage@CWnd@@UAEHPAUtagMSG@@@Z
	DD	FLAT:?OnAmbientProperty@CWnd@@UAEHPAVCOleControlSite@@JPAUtagVARIANT@@@Z
	DD	FLAT:?WindowProc@CWnd@@MAEJIIJ@Z
	DD	FLAT:?OnWndMsg@CWnd@@MAEHIIJPAJ@Z
	DD	FLAT:?DefWindowProcW@CWnd@@MAEJIIJ@Z
	DD	FLAT:?PostNcDestroy@CWnd@@MAEXXZ
	DD	FLAT:?OnChildNotify@CWnd@@MAEHIIJPAJ@Z
	DD	FLAT:?CheckAutoCenter@CWnd@@UAEHXZ
	DD	FLAT:?IsFrameWnd@CWnd@@UBEHXZ
	DD	FLAT:?CreateControlContainer@CWnd@@MAEHPAPAVCOleControlContainer@@@Z
	DD	FLAT:?CreateControlSite@CWnd@@MAEHPAVCOleControlContainer@@PAPAVCOleControlSite@@IABU_GUID@@@Z
	DD	FLAT:?SetOccDialogInfo@CWnd@@MAEHPAU_AFX_OCC_DIALOG_INFO@@@Z
; Function compile flags: /Odt /RTCcsu /ZI
CONST	ENDS
;	COMDAT ??0CWSpell@@QAE@XZ
_TEXT	SEGMENT
_this$ = -8						; size = 4
??0CWSpell@@QAE@XZ PROC NEAR				; CWSpell::CWSpell, COMDAT
; _this$ = ecx
	push	ebp
	mov	ebp, esp
	sub	esp, 204				; 000000ccH
	push	ebx
	push	esi
	push	edi
	push	ecx
	lea	edi, DWORD PTR [ebp-204]
	mov	ecx, 51					; 00000033H
	mov	eax, -858993460				; ccccccccH
	rep stosd
	pop	ecx
	mov	DWORD PTR _this$[ebp], ecx
	mov	ecx, DWORD PTR _this$[ebp]
	call	??0CWnd@@QAE@XZ				; CWnd::CWnd
	mov	eax, DWORD PTR _this$[ebp]
	mov	DWORD PTR [eax], OFFSET FLAT:??_7CWSpell@@6B@
	mov	eax, DWORD PTR _this$[ebp]
	pop	edi
	pop	esi
	pop	ebx
	add	esp, 204				; 000000ccH
	cmp	ebp, esp
	call	__RTC_CheckEsp
	mov	esp, ebp
	pop	ebp
	ret	0
??0CWSpell@@QAE@XZ ENDP					; CWSpell::CWSpell
_TEXT	ENDS
PUBLIC	?GetClsid@CWSpell@@QAEABU_GUID@@XZ		; CWSpell::GetClsid
EXTRN	?CreateControl@CWnd@@QAEHABU_GUID@@PBGKABUtagRECT@@PAV1@IPAVCFile@@HPAG@Z:NEAR ; CWnd::CreateControl
; Function compile flags: /Odt /RTCcsu /ZI
; File c:\astrow32dev\tbt32\wspell.h
;	COMDAT ?Create@CWSpell@@UAEHPBG0KABUtagRECT@@PAVCWnd@@IPAUCCreateContext@@@Z
_TEXT	SEGMENT
_this$ = -8						; size = 4
_lpszClassName$ = 8					; size = 4
_lpszWindowName$ = 12					; size = 4
_dwStyle$ = 16						; size = 4
_rect$ = 20						; size = 4
_pParentWnd$ = 24					; size = 4
_nID$ = 28						; size = 4
_pContext$ = 32						; size = 4
?Create@CWSpell@@UAEHPBG0KABUtagRECT@@PAVCWnd@@IPAUCCreateContext@@@Z PROC NEAR ; CWSpell::Create, COMDAT
; _this$ = ecx

; 31   : 	{ return CreateControl(GetClsid(), lpszWindowName, dwStyle, rect, pParentWnd, nID); }

	push	ebp
	mov	ebp, esp
	sub	esp, 204				; 000000ccH
	push	ebx
	push	esi
	push	edi
	push	ecx
	lea	edi, DWORD PTR [ebp-204]
	mov	ecx, 51					; 00000033H
	mov	eax, -858993460				; ccccccccH
	rep stosd
	pop	ecx
	mov	DWORD PTR _this$[ebp], ecx
	push	0
	push	0
	push	0
	mov	eax, DWORD PTR _nID$[ebp]
	push	eax
	mov	ecx, DWORD PTR _pParentWnd$[ebp]
	push	ecx
	mov	edx, DWORD PTR _rect$[ebp]
	push	edx
	mov	eax, DWORD PTR _dwStyle$[ebp]
	push	eax
	mov	ecx, DWORD PTR _lpszWindowName$[ebp]
	push	ecx
	mov	ecx, DWORD PTR _this$[ebp]
	call	?GetClsid@CWSpell@@QAEABU_GUID@@XZ	; CWSpell::GetClsid
	push	eax
	mov	ecx, DWORD PTR _this$[ebp]
	call	?CreateControl@CWnd@@QAEHABU_GUID@@PBGKABUtagRECT@@PAV1@IPAVCFile@@HPAG@Z ; CWnd::CreateControl
	pop	edi
	pop	esi
	pop	ebx
	add	esp, 204				; 000000ccH
	cmp	ebp, esp
	call	__RTC_CheckEsp
	mov	esp, ebp
	pop	ebp
	ret	28					; 0000001cH
?Create@CWSpell@@UAEHPBG0KABUtagRECT@@PAVCWnd@@IPAUCCreateContext@@@Z ENDP ; CWSpell::Create
_TEXT	ENDS
PUBLIC	?clsid@?1??GetClsid@CWSpell@@QAEABU_GUID@@XZ@4U3@B ; `CWSpell::GetClsid'::`2'::clsid
;	COMDAT ?clsid@?1??GetClsid@CWSpell@@QAEABU_GUID@@XZ@4U3@B
CONST	SEGMENT
?clsid@?1??GetClsid@CWSpell@@QAEABU_GUID@@XZ@4U3@B DD 0245338c3H ; `CWSpell::GetClsid'::`2'::clsid
	DW	0bca3H
	DW	04a2cH
	DB	0a7H
	DB	0b7H
	DB	053H
	DB	034H
	DB	059H
	DB	099H
	DB	0a8H
	DB	0e8H
; Function compile flags: /Odt /RTCcsu /ZI
CONST	ENDS
;	COMDAT ?GetClsid@CWSpell@@QAEABU_GUID@@XZ
_TEXT	SEGMENT
_this$ = -8						; size = 4
?GetClsid@CWSpell@@QAEABU_GUID@@XZ PROC NEAR		; CWSpell::GetClsid, COMDAT
; _this$ = ecx

; 21   : 	{

	push	ebp
	mov	ebp, esp
	sub	esp, 204				; 000000ccH
	push	ebx
	push	esi
	push	edi
	push	ecx
	lea	edi, DWORD PTR [ebp-204]
	mov	ecx, 51					; 00000033H
	mov	eax, -858993460				; ccccccccH
	rep stosd
	pop	ecx
	mov	DWORD PTR _this$[ebp], ecx

; 22   : 		static CLSID const clsid
; 23   : 			= { 0x245338c3, 0xbca3, 0x4a2c, { 0xa7, 0xb7, 0x53, 0x34, 0x59, 0x99, 0xa8, 0xe8 } };
; 24   : 		return clsid;

	mov	eax, OFFSET FLAT:?clsid@?1??GetClsid@CWSpell@@QAEABU_GUID@@XZ@4U3@B ; `CWSpell::GetClsid'::`2'::clsid

; 25   : 	}

	pop	edi
	pop	esi
	pop	ebx
	mov	esp, ebp
	pop	ebp
	ret	0
?GetClsid@CWSpell@@QAEABU_GUID@@XZ ENDP			; CWSpell::GetClsid
_TEXT	ENDS
EXTRN	??1CWnd@@UAE@XZ:NEAR				; CWnd::~CWnd
; Function compile flags: /Odt /RTCcsu /ZI
;	COMDAT ??1CWSpell@@UAE@XZ
_TEXT	SEGMENT
_this$ = -8						; size = 4
??1CWSpell@@UAE@XZ PROC NEAR				; CWSpell::~CWSpell, COMDAT
; _this$ = ecx
	push	ebp
	mov	ebp, esp
	sub	esp, 204				; 000000ccH
	push	ebx
	push	esi
	push	edi
	push	ecx
	lea	edi, DWORD PTR [ebp-204]
	mov	ecx, 51					; 00000033H
	mov	eax, -858993460				; ccccccccH
	rep stosd
	pop	ecx
	mov	DWORD PTR _this$[ebp], ecx
	mov	ecx, DWORD PTR _this$[ebp]
	call	??1CWnd@@UAE@XZ				; CWnd::~CWnd
	pop	edi
	pop	esi
	pop	ebx
	add	esp, 204				; 000000ccH
	cmp	ebp, esp
	call	__RTC_CheckEsp
	mov	esp, ebp
	pop	ebp
	ret	0
??1CWSpell@@UAE@XZ ENDP					; CWSpell::~CWSpell
_TEXT	ENDS
EXTRN	??1CDaoRecordset@@UAE@XZ:NEAR			; CDaoRecordset::~CDaoRecordset
; Function compile flags: /Odt /RTCcsu /ZI
;	COMDAT ??1CDregText@@UAE@XZ
_TEXT	SEGMENT
_this$ = -8						; size = 4
??1CDregText@@UAE@XZ PROC NEAR				; CDregText::~CDregText, COMDAT
; _this$ = ecx
	push	ebp
	mov	ebp, esp
	sub	esp, 204				; 000000ccH
	push	ebx
	push	esi
	push	edi
	push	ecx
	lea	edi, DWORD PTR [ebp-204]
	mov	ecx, 51					; 00000033H
	mov	eax, -858993460				; ccccccccH
	rep stosd
	pop	ecx
	mov	DWORD PTR _this$[ebp], ecx
	mov	ecx, DWORD PTR _this$[ebp]
	add	ecx, 172				; 000000acH
	call	??1?$CStringT@GV?$StrTraitMFC@GV?$ChTraitsCRT@G@ATL@@@@@ATL@@QAE@XZ ; ATL::CStringT<unsigned short,StrTraitMFC<unsigned short,ATL::ChTraitsCRT<unsigned short> > >::~CStringT<unsigned short,StrTraitMFC<unsigned short,ATL::ChTraitsCRT<unsigned short> > >
	mov	ecx, DWORD PTR _this$[ebp]
	add	ecx, 168				; 000000a8H
	call	??1?$CStringT@GV?$StrTraitMFC@GV?$ChTraitsCRT@G@ATL@@@@@ATL@@QAE@XZ ; ATL::CStringT<unsigned short,StrTraitMFC<unsigned short,ATL::ChTraitsCRT<unsigned short> > >::~CStringT<unsigned short,StrTraitMFC<unsigned short,ATL::ChTraitsCRT<unsigned short> > >
	mov	ecx, DWORD PTR _this$[ebp]
	add	ecx, 160				; 000000a0H
	call	??1?$CStringT@GV?$StrTraitMFC@GV?$ChTraitsCRT@G@ATL@@@@@ATL@@QAE@XZ ; ATL::CStringT<unsigned short,StrTraitMFC<unsigned short,ATL::ChTraitsCRT<unsigned short> > >::~CStringT<unsigned short,StrTraitMFC<unsigned short,ATL::ChTraitsCRT<unsigned short> > >
	mov	ecx, DWORD PTR _this$[ebp]
	add	ecx, 156				; 0000009cH
	call	??1?$CStringT@GV?$StrTraitMFC@GV?$ChTraitsCRT@G@ATL@@@@@ATL@@QAE@XZ ; ATL::CStringT<unsigned short,StrTraitMFC<unsigned short,ATL::ChTraitsCRT<unsigned short> > >::~CStringT<unsigned short,StrTraitMFC<unsigned short,ATL::ChTraitsCRT<unsigned short> > >
	mov	ecx, DWORD PTR _this$[ebp]
	add	ecx, 152				; 00000098H
	call	??1?$CStringT@GV?$StrTraitMFC@GV?$ChTraitsCRT@G@ATL@@@@@ATL@@QAE@XZ ; ATL::CStringT<unsigned short,StrTraitMFC<unsigned short,ATL::ChTraitsCRT<unsigned short> > >::~CStringT<unsigned short,StrTraitMFC<unsigned short,ATL::ChTraitsCRT<unsigned short> > >
	mov	ecx, DWORD PTR _this$[ebp]
	call	??1CDaoRecordset@@UAE@XZ		; CDaoRecordset::~CDaoRecordset
	pop	edi
	pop	esi
	pop	ebx
	add	esp, 204				; 000000ccH
	cmp	ebp, esp
	call	__RTC_CheckEsp
	mov	esp, ebp
	pop	ebp
	ret	0
??1CDregText@@UAE@XZ ENDP				; CDregText::~CDregText
_TEXT	ENDS
;	COMDAT xdata$x
xdata$x	SEGMENT
__unwindtable$??1CRegTextEdit@@UAE@XZ DD 0ffffffffH
	DD	FLAT:__unwindfunclet$??1CRegTextEdit@@UAE@XZ$0
	DD	00H
	DD	FLAT:__unwindfunclet$??1CRegTextEdit@@UAE@XZ$1
	DD	01H
	DD	FLAT:__unwindfunclet$??1CRegTextEdit@@UAE@XZ$2
	DD	02H
	DD	FLAT:__unwindfunclet$??1CRegTextEdit@@UAE@XZ$3
	DD	03H
	DD	FLAT:__unwindfunclet$??1CRegTextEdit@@UAE@XZ$4
	DD	04H
	DD	FLAT:__unwindfunclet$??1CRegTextEdit@@UAE@XZ$5
	DD	05H
	DD	FLAT:__unwindfunclet$??1CRegTextEdit@@UAE@XZ$6
__ehfuncinfo$??1CRegTextEdit@@UAE@XZ DD 019930520H
	DD	07H
	DD	FLAT:__unwindtable$??1CRegTextEdit@@UAE@XZ
	DD	2 DUP(00H)
	DD	2 DUP(00H)
; Function compile flags: /Odt /RTCcsu /ZI
xdata$x	ENDS
;	COMDAT ??1CRegTextEdit@@UAE@XZ
_TEXT	SEGMENT
_this$ = -20						; size = 4
__$EHRec$ = -12						; size = 12
??1CRegTextEdit@@UAE@XZ PROC NEAR			; CRegTextEdit::~CRegTextEdit, COMDAT
; _this$ = ecx
	push	ebp
	mov	ebp, esp
	push	-1
	push	__ehhandler$??1CRegTextEdit@@UAE@XZ
	mov	eax, DWORD PTR fs:__except_list
	push	eax
	mov	DWORD PTR fs:__except_list, esp
	sub	esp, 204				; 000000ccH
	push	ebx
	push	esi
	push	edi
	push	ecx
	lea	edi, DWORD PTR [ebp-216]
	mov	ecx, 51					; 00000033H
	mov	eax, -858993460				; ccccccccH
	rep stosd
	pop	ecx
	mov	DWORD PTR _this$[ebp], ecx
	mov	DWORD PTR __$EHRec$[ebp+8], 6
	mov	ecx, DWORD PTR _this$[ebp]
	add	ecx, 216				; 000000d8H
	call	??1CDregText@@UAE@XZ
	mov	BYTE PTR __$EHRec$[ebp+8], 5
	mov	ecx, DWORD PTR _this$[ebp]
	add	ecx, 212				; 000000d4H
	call	??1?$CStringT@GV?$StrTraitMFC@GV?$ChTraitsCRT@G@ATL@@@@@ATL@@QAE@XZ ; ATL::CStringT<unsigned short,StrTraitMFC<unsigned short,ATL::ChTraitsCRT<unsigned short> > >::~CStringT<unsigned short,StrTraitMFC<unsigned short,ATL::ChTraitsCRT<unsigned short> > >
	mov	BYTE PTR __$EHRec$[ebp+8], 4
	mov	ecx, DWORD PTR _this$[ebp]
	add	ecx, 208				; 000000d0H
	call	??1?$CStringT@GV?$StrTraitMFC@GV?$ChTraitsCRT@G@ATL@@@@@ATL@@QAE@XZ ; ATL::CStringT<unsigned short,StrTraitMFC<unsigned short,ATL::ChTraitsCRT<unsigned short> > >::~CStringT<unsigned short,StrTraitMFC<unsigned short,ATL::ChTraitsCRT<unsigned short> > >
	mov	BYTE PTR __$EHRec$[ebp+8], 3
	mov	ecx, DWORD PTR _this$[ebp]
	add	ecx, 204				; 000000ccH
	call	??1?$CStringT@GV?$StrTraitMFC@GV?$ChTraitsCRT@G@ATL@@@@@ATL@@QAE@XZ ; ATL::CStringT<unsigned short,StrTraitMFC<unsigned short,ATL::ChTraitsCRT<unsigned short> > >::~CStringT<unsigned short,StrTraitMFC<unsigned short,ATL::ChTraitsCRT<unsigned short> > >
	mov	BYTE PTR __$EHRec$[ebp+8], 2
	mov	ecx, DWORD PTR _this$[ebp]
	add	ecx, 124				; 0000007cH
	call	??1CWSpell@@UAE@XZ
	mov	BYTE PTR __$EHRec$[ebp+8], 1
	mov	ecx, DWORD PTR _this$[ebp]
	add	ecx, 120				; 00000078H
	call	??1?$CStringT@GV?$StrTraitMFC@GV?$ChTraitsCRT@G@ATL@@@@@ATL@@QAE@XZ ; ATL::CStringT<unsigned short,StrTraitMFC<unsigned short,ATL::ChTraitsCRT<unsigned short> > >::~CStringT<unsigned short,StrTraitMFC<unsigned short,ATL::ChTraitsCRT<unsigned short> > >
	mov	BYTE PTR __$EHRec$[ebp+8], 0
	mov	ecx, DWORD PTR _this$[ebp]
	add	ecx, 116				; 00000074H
	call	??1?$CStringT@GV?$StrTraitMFC@GV?$ChTraitsCRT@G@ATL@@@@@ATL@@QAE@XZ ; ATL::CStringT<unsigned short,StrTraitMFC<unsigned short,ATL::ChTraitsCRT<unsigned short> > >::~CStringT<unsigned short,StrTraitMFC<unsigned short,ATL::ChTraitsCRT<unsigned short> > >
	mov	DWORD PTR __$EHRec$[ebp+8], -1
	mov	ecx, DWORD PTR _this$[ebp]
	call	??1CDialog@@UAE@XZ			; CDialog::~CDialog
	mov	ecx, DWORD PTR __$EHRec$[ebp]
	mov	DWORD PTR fs:__except_list, ecx
	pop	edi
	pop	esi
	pop	ebx
	add	esp, 216				; 000000d8H
	cmp	ebp, esp
	call	__RTC_CheckEsp
	mov	esp, ebp
	pop	ebp
	ret	0
_TEXT	ENDS
;	COMDAT text$x
text$x	SEGMENT
__unwindfunclet$??1CRegTextEdit@@UAE@XZ$0:
	mov	ecx, DWORD PTR _this$[ebp]
	jmp	??1CDialog@@UAE@XZ			; CDialog::~CDialog
__unwindfunclet$??1CRegTextEdit@@UAE@XZ$1:
	mov	ecx, DWORD PTR _this$[ebp]
	add	ecx, 116				; 00000074H
	jmp	??1?$CStringT@GV?$StrTraitMFC@GV?$ChTraitsCRT@G@ATL@@@@@ATL@@QAE@XZ ; ATL::CStringT<unsigned short,StrTraitMFC<unsigned short,ATL::ChTraitsCRT<unsigned short> > >::~CStringT<unsigned short,StrTraitMFC<unsigned short,ATL::ChTraitsCRT<unsigned short> > >
__unwindfunclet$??1CRegTextEdit@@UAE@XZ$2:
	mov	ecx, DWORD PTR _this$[ebp]
	add	ecx, 120				; 00000078H
	jmp	??1?$CStringT@GV?$StrTraitMFC@GV?$ChTraitsCRT@G@ATL@@@@@ATL@@QAE@XZ ; ATL::CStringT<unsigned short,StrTraitMFC<unsigned short,ATL::ChTraitsCRT<unsigned short> > >::~CStringT<unsigned short,StrTraitMFC<unsigned short,ATL::ChTraitsCRT<unsigned short> > >
__unwindfunclet$??1CRegTextEdit@@UAE@XZ$3:
	mov	ecx, DWORD PTR _this$[ebp]
	add	ecx, 124				; 0000007cH
	jmp	??1CWSpell@@UAE@XZ
__unwindfunclet$??1CRegTextEdit@@UAE@XZ$4:
	mov	ecx, DWORD PTR _this$[ebp]
	add	ecx, 204				; 000000ccH
	jmp	??1?$CStringT@GV?$StrTraitMFC@GV?$ChTraitsCRT@G@ATL@@@@@ATL@@QAE@XZ ; ATL::CStringT<unsigned short,StrTraitMFC<unsigned short,ATL::ChTraitsCRT<unsigned short> > >::~CStringT<unsigned short,StrTraitMFC<unsigned short,ATL::ChTraitsCRT<unsigned short> > >
__unwindfunclet$??1CRegTextEdit@@UAE@XZ$5:
	mov	ecx, DWORD PTR _this$[ebp]
	add	ecx, 208				; 000000d0H
	jmp	??1?$CStringT@GV?$StrTraitMFC@GV?$ChTraitsCRT@G@ATL@@@@@ATL@@QAE@XZ ; ATL::CStringT<unsigned short,StrTraitMFC<unsigned short,ATL::ChTraitsCRT<unsigned short> > >::~CStringT<unsigned short,StrTraitMFC<unsigned short,ATL::ChTraitsCRT<unsigned short> > >
__unwindfunclet$??1CRegTextEdit@@UAE@XZ$6:
	mov	ecx, DWORD PTR _this$[ebp]
	add	ecx, 212				; 000000d4H
	jmp	??1?$CStringT@GV?$StrTraitMFC@GV?$ChTraitsCRT@G@ATL@@@@@ATL@@QAE@XZ ; ATL::CStringT<unsigned short,StrTraitMFC<unsigned short,ATL::ChTraitsCRT<unsigned short> > >::~CStringT<unsigned short,StrTraitMFC<unsigned short,ATL::ChTraitsCRT<unsigned short> > >
__ehhandler$??1CRegTextEdit@@UAE@XZ:
	mov	eax, OFFSET FLAT:__ehfuncinfo$??1CRegTextEdit@@UAE@XZ
	jmp	___CxxFrameHandler
text$x	ENDS
??1CRegTextEdit@@UAE@XZ ENDP				; CRegTextEdit::~CRegTextEdit
; Function compile flags: /Odt /RTCcsu /ZI
;	COMDAT ??_GCWSpell@@UAEPAXI@Z
_TEXT	SEGMENT
_this$ = -8						; size = 4
___flags$ = 8						; size = 4
??_GCWSpell@@UAEPAXI@Z PROC NEAR			; CWSpell::`scalar deleting destructor', COMDAT
; _this$ = ecx
	push	ebp
	mov	ebp, esp
	sub	esp, 204				; 000000ccH
	push	ebx
	push	esi
	push	edi
	push	ecx
	lea	edi, DWORD PTR [ebp-204]
	mov	ecx, 51					; 00000033H
	mov	eax, -858993460				; ccccccccH
	rep stosd
	pop	ecx
	mov	DWORD PTR _this$[ebp], ecx
	mov	ecx, DWORD PTR _this$[ebp]
	call	??1CWSpell@@UAE@XZ
	mov	eax, DWORD PTR ___flags$[ebp]
	and	eax, 1
	je	SHORT $L93760
	mov	eax, DWORD PTR _this$[ebp]
	push	eax
	call	??3CObject@@SGXPAX@Z			; CObject::operator delete
$L93760:
	mov	eax, DWORD PTR _this$[ebp]
	pop	edi
	pop	esi
	pop	ebx
	add	esp, 204				; 000000ccH
	cmp	ebp, esp
	call	__RTC_CheckEsp
	mov	esp, ebp
	pop	ebp
	ret	4
??_GCWSpell@@UAEPAXI@Z ENDP				; CWSpell::`scalar deleting destructor'
_TEXT	ENDS
EXTRN	?DDX_Text@@YGXPAVCDataExchange@@HAAV?$CStringT@GV?$StrTraitMFC@GV?$ChTraitsCRT@G@ATL@@@@@ATL@@@Z:NEAR ; DDX_Text
EXTRN	?DDX_CBString@@YGXPAVCDataExchange@@HAAV?$CStringT@GV?$StrTraitMFC@GV?$ChTraitsCRT@G@ATL@@@@@ATL@@@Z:NEAR ; DDX_CBString
EXTRN	?DDX_CBIndex@@YGXPAVCDataExchange@@HAAH@Z:NEAR	; DDX_CBIndex
EXTRN	?DDX_Control@@YGXPAVCDataExchange@@HAAVCWnd@@@Z:NEAR ; DDX_Control
; Function compile flags: /Odt /RTCcsu /ZI
; File c:\astrow32dev\tbt32\regtextedit.cpp
;	COMDAT ?DoDataExchange@CRegTextEdit@@MAEXPAVCDataExchange@@@Z
_TEXT	SEGMENT
_this$ = -8						; size = 4
_pDX$ = 8						; size = 4
?DoDataExchange@CRegTextEdit@@MAEXPAVCDataExchange@@@Z PROC NEAR ; CRegTextEdit::DoDataExchange, COMDAT
; _this$ = ecx

; 36   : {

	push	ebp
	mov	ebp, esp
	sub	esp, 204				; 000000ccH
	push	ebx
	push	esi
	push	edi
	push	ecx
	lea	edi, DWORD PTR [ebp-204]
	mov	ecx, 51					; 00000033H
	mov	eax, -858993460				; ccccccccH
	rep stosd
	pop	ecx
	mov	DWORD PTR _this$[ebp], ecx

; 37   : 	CDialog::DoDataExchange(pDX);

	mov	eax, DWORD PTR _pDX$[ebp]
	push	eax
	mov	ecx, DWORD PTR _this$[ebp]
	call	?DoDataExchange@CWnd@@MAEXPAVCDataExchange@@@Z ; CWnd::DoDataExchange

; 38   : 	//{{AFX_DATA_MAP(CRegTextEdit)
; 39   : 	DDX_CBIndex(pDX, IDC_KEY1, m_Key1);

	mov	eax, DWORD PTR _this$[ebp]
	add	eax, 112				; 00000070H
	push	eax
	push	1002					; 000003eaH
	mov	ecx, DWORD PTR _pDX$[ebp]
	push	ecx
	call	?DDX_CBIndex@@YGXPAVCDataExchange@@HAAH@Z ; DDX_CBIndex

; 40   : 	DDX_CBString(pDX, IDC_KEY2, m_Key2);

	mov	eax, DWORD PTR _this$[ebp]
	add	eax, 116				; 00000074H
	push	eax
	push	1003					; 000003ebH
	mov	ecx, DWORD PTR _pDX$[ebp]
	push	ecx
	call	?DDX_CBString@@YGXPAVCDataExchange@@HAAV?$CStringT@GV?$StrTraitMFC@GV?$ChTraitsCRT@G@ATL@@@@@ATL@@@Z ; DDX_CBString

; 41   : 	DDX_Text(pDX, IDC_TEXT, m_Text);

	mov	eax, DWORD PTR _this$[ebp]
	add	eax, 120				; 00000078H
	push	eax
	push	1004					; 000003ecH
	mov	ecx, DWORD PTR _pDX$[ebp]
	push	ecx
	call	?DDX_Text@@YGXPAVCDataExchange@@HAAV?$CStringT@GV?$StrTraitMFC@GV?$ChTraitsCRT@G@ATL@@@@@ATL@@@Z ; DDX_Text

; 42   : 	DDX_Control(pDX, IDC_WSPELLCTRL1, m_ctrl);

	mov	eax, DWORD PTR _this$[ebp]
	add	eax, 124				; 0000007cH
	push	eax
	push	1023					; 000003ffH
	mov	ecx, DWORD PTR _pDX$[ebp]
	push	ecx
	call	?DDX_Control@@YGXPAVCDataExchange@@HAAVCWnd@@@Z ; DDX_Control

; 43   : 	//}}AFX_DATA_MAP
; 44   : }

	pop	edi
	pop	esi
	pop	ebx
	add	esp, 204				; 000000ccH
	cmp	ebp, esp
	call	__RTC_CheckEsp
	mov	esp, ebp
	pop	ebp
	ret	4
?DoDataExchange@CRegTextEdit@@MAEXPAVCDataExchange@@@Z ENDP ; CRegTextEdit::DoDataExchange
; Function compile flags: /Odt /RTCcsu /ZI
_TEXT	ENDS
;	COMDAT ?GetMessageMap@CRegTextEdit@@MBEPBUAFX_MSGMAP@@XZ
_TEXT	SEGMENT
_this$ = -8						; size = 4
?GetMessageMap@CRegTextEdit@@MBEPBUAFX_MSGMAP@@XZ PROC NEAR ; CRegTextEdit::GetMessageMap, COMDAT
; _this$ = ecx

; 47   : BEGIN_MESSAGE_MAP(CRegTextEdit, CDialog)

	push	ebp
	mov	ebp, esp
	sub	esp, 204				; 000000ccH
	push	ebx
	push	esi
	push	edi
	push	ecx
	lea	edi, DWORD PTR [ebp-204]
	mov	ecx, 51					; 00000033H
	mov	eax, -858993460				; ccccccccH
	rep stosd
	pop	ecx
	mov	DWORD PTR _this$[ebp], ecx
	mov	eax, OFFSET FLAT:?messageMap@CRegTextEdit@@1UAFX_MSGMAP@@B ; CRegTextEdit::messageMap
	pop	edi
	pop	esi
	pop	ebx
	mov	esp, ebp
	pop	ebp
	ret	0
?GetMessageMap@CRegTextEdit@@MBEPBUAFX_MSGMAP@@XZ ENDP	; CRegTextEdit::GetMessageMap
_TEXT	ENDS
PUBLIC	?Modified@RTFFuncs@@QAEHH@Z			; RTFFuncs::Modified
PUBLIC	?Save@CRegTextEdit@@IAEHXZ			; CRegTextEdit::Save
PUBLIC	??_C@_1CG@MLINDNFI@?$AAR?$AAe?$AAc?$AAo?$AAr?$AAd?$AA?5?$AAi?$AAs?$AA?5?$AAM?$AAo?$AAd?$AAi?$AAf?$AAi?$AAe?$AAd?$AA?$AA@ ; `string'
PUBLIC	??_C@_1EA@ECMOPAHL@?$AAD?$AAo?$AA?5?$AAY?$AAo?$AAu?$AA?5?$AAW?$AAa?$AAn?$AAt?$AA?5?$AAt?$AAo?$AA?5?$AAS?$AAa?$AAv?$AAe?$AA?5@ ; `string'
PUBLIC	?GetLength@?$CSimpleStringT@G$0A@@ATL@@QBEHXZ	; ATL::CSimpleStringT<unsigned short,0>::GetLength
EXTRN	?OnOK@CDialog@@MAEXXZ:NEAR			; CDialog::OnOK
EXTRN	?MessageBoxW@CWnd@@QAEHPBG0I@Z:NEAR		; CWnd::MessageBoxW
;	COMDAT ??_C@_1CG@MLINDNFI@?$AAR?$AAe?$AAc?$AAo?$AAr?$AAd?$AA?5?$AAi?$AAs?$AA?5?$AAM?$AAo?$AAd?$AAi?$AAf?$AAi?$AAe?$AAd?$AA?$AA@
CONST	SEGMENT
??_C@_1CG@MLINDNFI@?$AAR?$AAe?$AAc?$AAo?$AAr?$AAd?$AA?5?$AAi?$AAs?$AA?5?$AAM?$AAo?$AAd?$AAi?$AAf?$AAi?$AAe?$AAd?$AA?$AA@ DB 'R'
	DB	00H, 'e', 00H, 'c', 00H, 'o', 00H, 'r', 00H, 'd', 00H, ' ', 00H
	DB	'i', 00H, 's', 00H, ' ', 00H, 'M', 00H, 'o', 00H, 'd', 00H, 'i'
	DB	00H, 'f', 00H, 'i', 00H, 'e', 00H, 'd', 00H, 00H, 00H ; `string'
CONST	ENDS
;	COMDAT ??_C@_1EA@ECMOPAHL@?$AAD?$AAo?$AA?5?$AAY?$AAo?$AAu?$AA?5?$AAW?$AAa?$AAn?$AAt?$AA?5?$AAt?$AAo?$AA?5?$AAS?$AAa?$AAv?$AAe?$AA?5@
CONST	SEGMENT
??_C@_1EA@ECMOPAHL@?$AAD?$AAo?$AA?5?$AAY?$AAo?$AAu?$AA?5?$AAW?$AAa?$AAn?$AAt?$AA?5?$AAt?$AAo?$AA?5?$AAS?$AAa?$AAv?$AAe?$AA?5@ DB 'D'
	DB	00H, 'o', 00H, ' ', 00H, 'Y', 00H, 'o', 00H, 'u', 00H, ' ', 00H
	DB	'W', 00H, 'a', 00H, 'n', 00H, 't', 00H, ' ', 00H, 't', 00H, 'o'
	DB	00H, ' ', 00H, 'S', 00H, 'a', 00H, 'v', 00H, 'e', 00H, ' ', 00H
	DB	'T', 00H, 'h', 00H, 'i', 00H, 's', 00H, ' ', 00H, 'E', 00H, 'n'
	DB	00H, 't', 00H, 'r', 00H, 'y', 00H, '?', 00H, 00H, 00H ; `string'
; Function compile flags: /Odt /RTCcsu /ZI
CONST	ENDS
;	COMDAT ?OnOK@CRegTextEdit@@MAEXXZ
_TEXT	SEGMENT
_this$ = -8						; size = 4
?OnOK@CRegTextEdit@@MAEXXZ PROC NEAR			; CRegTextEdit::OnOK, COMDAT
; _this$ = ecx

; 84   : {

	push	ebp
	mov	ebp, esp
	sub	esp, 204				; 000000ccH
	push	ebx
	push	esi
	push	edi
	push	ecx
	lea	edi, DWORD PTR [ebp-204]
	mov	ecx, 51					; 00000033H
	mov	eax, -858993460				; ccccccccH
	rep stosd
	pop	ecx
	mov	DWORD PTR _this$[ebp], ecx

; 85   : 	// TODO: Add extra validation here
; 86   : 	if ( m_Key1Str.GetLength() > 0 && m_Key1Str.GetLength()) {

	mov	ecx, DWORD PTR _this$[ebp]
	add	ecx, 208				; 000000d0H
	call	?GetLength@?$CSimpleStringT@G$0A@@ATL@@QBEHXZ ; ATL::CSimpleStringT<unsigned short,0>::GetLength
	test	eax, eax
	jle	SHORT $L93896
	mov	ecx, DWORD PTR _this$[ebp]
	add	ecx, 208				; 000000d0H
	call	?GetLength@?$CSimpleStringT@G$0A@@ATL@@QBEHXZ ; ATL::CSimpleStringT<unsigned short,0>::GetLength
	test	eax, eax
	je	SHORT $L93896

; 87   : 		if ( pFuncs->Modified(IDC_TEXT) ) {

	push	1004					; 000003ecH
	mov	eax, DWORD PTR _this$[ebp]
	mov	ecx, DWORD PTR [eax+396]
	call	?Modified@RTFFuncs@@QAEHH@Z		; RTFFuncs::Modified
	test	eax, eax
	je	SHORT $L93896

; 88   : 		   if ( MessageBox(_T("Do You Want to Save This Entry?"), _T("Record is Modified"), MB_ICONQUESTION|MB_YESNO ) == IDYES )

	push	36					; 00000024H
	push	OFFSET FLAT:??_C@_1CG@MLINDNFI@?$AAR?$AAe?$AAc?$AAo?$AAr?$AAd?$AA?5?$AAi?$AAs?$AA?5?$AAM?$AAo?$AAd?$AAi?$AAf?$AAi?$AAe?$AAd?$AA?$AA@
	push	OFFSET FLAT:??_C@_1EA@ECMOPAHL@?$AAD?$AAo?$AA?5?$AAY?$AAo?$AAu?$AA?5?$AAW?$AAa?$AAn?$AAt?$AA?5?$AAt?$AAo?$AA?5?$AAS?$AAa?$AAv?$AAe?$AA?5@
	mov	ecx, DWORD PTR _this$[ebp]
	call	?MessageBoxW@CWnd@@QAEHPBG0I@Z		; CWnd::MessageBoxW
	cmp	eax, 6
	jne	SHORT $L93896

; 89   : 			   Save();

	mov	ecx, DWORD PTR _this$[ebp]
	call	?Save@CRegTextEdit@@IAEHXZ		; CRegTextEdit::Save
$L93896:

; 90   : 			}
; 91   : 	}
; 92   : 	CDialog::OnOK();

	mov	ecx, DWORD PTR _this$[ebp]
	call	?OnOK@CDialog@@MAEXXZ			; CDialog::OnOK

; 93   : }

	pop	edi
	pop	esi
	pop	ebx
	add	esp, 204				; 000000ccH
	cmp	ebp, esp
	call	__RTC_CheckEsp
	mov	esp, ebp
	pop	ebp
	ret	0
?OnOK@CRegTextEdit@@MAEXXZ ENDP				; CRegTextEdit::OnOK
_TEXT	ENDS
PUBLIC	?GetCtrl@RTFFuncs@@AAEPAVCRichEditCtrl@@H@Z	; RTFFuncs::GetCtrl
EXTRN	?GetModify@CRichEditCtrl@@QBEHXZ:NEAR		; CRichEditCtrl::GetModify
; Function compile flags: /Odt /RTCcsu /ZI
; File c:\astrow32dev\tbt32\rtffuncs.h
;	COMDAT ?Modified@RTFFuncs@@QAEHH@Z
_TEXT	SEGMENT
_this$ = -8						; size = 4
_id$ = 8						; size = 4
?Modified@RTFFuncs@@QAEHH@Z PROC NEAR			; RTFFuncs::Modified, COMDAT
; _this$ = ecx

; 36   :    BOOL Modified(int id) { return (GetCtrl(id)->GetModify() ); }

	push	ebp
	mov	ebp, esp
	sub	esp, 204				; 000000ccH
	push	ebx
	push	esi
	push	edi
	push	ecx
	lea	edi, DWORD PTR [ebp-204]
	mov	ecx, 51					; 00000033H
	mov	eax, -858993460				; ccccccccH
	rep stosd
	pop	ecx
	mov	DWORD PTR _this$[ebp], ecx
	mov	eax, DWORD PTR _id$[ebp]
	push	eax
	mov	ecx, DWORD PTR _this$[ebp]
	call	?GetCtrl@RTFFuncs@@AAEPAVCRichEditCtrl@@H@Z ; RTFFuncs::GetCtrl
	mov	ecx, eax
	call	?GetModify@CRichEditCtrl@@QBEHXZ	; CRichEditCtrl::GetModify
	pop	edi
	pop	esi
	pop	ebx
	add	esp, 204				; 000000ccH
	cmp	ebp, esp
	call	__RTC_CheckEsp
	mov	esp, ebp
	pop	ebp
	ret	4
?Modified@RTFFuncs@@QAEHH@Z ENDP			; RTFFuncs::Modified
_TEXT	ENDS
EXTRN	?GetDlgItem@CWnd@@QBEPAV1@H@Z:NEAR		; CWnd::GetDlgItem
; Function compile flags: /Odt /RTCcsu /ZI
;	COMDAT ?GetCtrl@RTFFuncs@@AAEPAVCRichEditCtrl@@H@Z
_TEXT	SEGMENT
_this$ = -8						; size = 4
_id$ = 8						; size = 4
?GetCtrl@RTFFuncs@@AAEPAVCRichEditCtrl@@H@Z PROC NEAR	; RTFFuncs::GetCtrl, COMDAT
; _this$ = ecx

; 16   :    CRichEditCtrl *GetCtrl(int id) { return ((CRichEditCtrl *)pDialog->GetDlgItem(id));}

	push	ebp
	mov	ebp, esp
	sub	esp, 204				; 000000ccH
	push	ebx
	push	esi
	push	edi
	push	ecx
	lea	edi, DWORD PTR [ebp-204]
	mov	ecx, 51					; 00000033H
	mov	eax, -858993460				; ccccccccH
	rep stosd
	pop	ecx
	mov	DWORD PTR _this$[ebp], ecx
	mov	eax, DWORD PTR _id$[ebp]
	push	eax
	mov	ecx, DWORD PTR _this$[ebp]
	mov	ecx, DWORD PTR [ecx+12]
	call	?GetDlgItem@CWnd@@QBEPAV1@H@Z		; CWnd::GetDlgItem
	pop	edi
	pop	esi
	pop	ebx
	add	esp, 204				; 000000ccH
	cmp	ebp, esp
	call	__RTC_CheckEsp
	mov	esp, ebp
	pop	ebp
	ret	4
?GetCtrl@RTFFuncs@@AAEPAVCRichEditCtrl@@H@Z ENDP	; RTFFuncs::GetCtrl
_TEXT	ENDS
EXTRN	?OnCancel@CDialog@@MAEXXZ:NEAR			; CDialog::OnCancel
; Function compile flags: /Odt /RTCcsu /ZI
; File c:\astrow32dev\tbt32\regtextedit.cpp
;	COMDAT ?OnCancel@CRegTextEdit@@MAEXXZ
_TEXT	SEGMENT
_this$ = -8						; size = 4
?OnCancel@CRegTextEdit@@MAEXXZ PROC NEAR		; CRegTextEdit::OnCancel, COMDAT
; _this$ = ecx

; 96   : {

	push	ebp
	mov	ebp, esp
	sub	esp, 204				; 000000ccH
	push	ebx
	push	esi
	push	edi
	push	ecx
	lea	edi, DWORD PTR [ebp-204]
	mov	ecx, 51					; 00000033H
	mov	eax, -858993460				; ccccccccH
	rep stosd
	pop	ecx
	mov	DWORD PTR _this$[ebp], ecx

; 97   : 	// TODO: Add extra cleanup here
; 98   : 	
; 99   : 	CDialog::OnCancel();

	mov	ecx, DWORD PTR _this$[ebp]
	call	?OnCancel@CDialog@@MAEXXZ		; CDialog::OnCancel

; 100  : }

	pop	edi
	pop	esi
	pop	ebx
	add	esp, 204				; 000000ccH
	cmp	ebp, esp
	call	__RTC_CheckEsp
	mov	esp, ebp
	pop	ebp
	ret	0
?OnCancel@CRegTextEdit@@MAEXXZ ENDP			; CRegTextEdit::OnCancel
_TEXT	ENDS
PUBLIC	?Find@CRegTextEdit@@IAEHXZ			; CRegTextEdit::Find
EXTRN	?GetCurSel@CComboBox@@QBEHXZ:NEAR		; CComboBox::GetCurSel
EXTRN	?GetLBText@CComboBox@@QBEXHAAV?$CStringT@GV?$StrTraitMFC@GV?$ChTraitsCRT@G@ATL@@@@@ATL@@@Z:NEAR ; CComboBox::GetLBText
EXTRN	?GetWindowTextW@CWnd@@QBEXAAV?$CStringT@GV?$StrTraitMFC@GV?$ChTraitsCRT@G@ATL@@@@@ATL@@@Z:NEAR ; CWnd::GetWindowTextW
; Function compile flags: /Odt /RTCcsu /ZI
;	COMDAT ?OnSelchangeKey1@CRegTextEdit@@IAEXXZ
_TEXT	SEGMENT
_sel$ = -32						; size = 4
_pbox$ = -20						; size = 4
_this$ = -8						; size = 4
?OnSelchangeKey1@CRegTextEdit@@IAEXXZ PROC NEAR		; CRegTextEdit::OnSelchangeKey1, COMDAT
; _this$ = ecx

; 103  : {

	push	ebp
	mov	ebp, esp
	sub	esp, 228				; 000000e4H
	push	ebx
	push	esi
	push	edi
	push	ecx
	lea	edi, DWORD PTR [ebp-228]
	mov	ecx, 57					; 00000039H
	mov	eax, -858993460				; ccccccccH
	rep stosd
	pop	ecx
	mov	DWORD PTR _this$[ebp], ecx

; 104  : 	// TODO: Add your control notification handler code here
; 105  : 	if ( m_Key1Str.GetLength() > 0 && m_Key1Str.GetLength()) {

	mov	ecx, DWORD PTR _this$[ebp]
	add	ecx, 208				; 000000d0H
	call	?GetLength@?$CSimpleStringT@G$0A@@ATL@@QBEHXZ ; ATL::CSimpleStringT<unsigned short,0>::GetLength
	test	eax, eax
	jle	SHORT $L93907
	mov	ecx, DWORD PTR _this$[ebp]
	add	ecx, 208				; 000000d0H
	call	?GetLength@?$CSimpleStringT@G$0A@@ATL@@QBEHXZ ; ATL::CSimpleStringT<unsigned short,0>::GetLength
	test	eax, eax
	je	SHORT $L93907

; 106  : 		if ( pFuncs->Modified(IDC_TEXT) ) {

	push	1004					; 000003ecH
	mov	eax, DWORD PTR _this$[ebp]
	mov	ecx, DWORD PTR [eax+396]
	call	?Modified@RTFFuncs@@QAEHH@Z		; RTFFuncs::Modified
	test	eax, eax
	je	SHORT $L93907

; 107  : 		   if ( MessageBox(_T("Do You Want to Save This Entry?"), _T("Record is Modified"), MB_ICONQUESTION|MB_YESNO ) == IDYES )

	push	36					; 00000024H
	push	OFFSET FLAT:??_C@_1CG@MLINDNFI@?$AAR?$AAe?$AAc?$AAo?$AAr?$AAd?$AA?5?$AAi?$AAs?$AA?5?$AAM?$AAo?$AAd?$AAi?$AAf?$AAi?$AAe?$AAd?$AA?$AA@
	push	OFFSET FLAT:??_C@_1EA@ECMOPAHL@?$AAD?$AAo?$AA?5?$AAY?$AAo?$AAu?$AA?5?$AAW?$AAa?$AAn?$AAt?$AA?5?$AAt?$AAo?$AA?5?$AAS?$AAa?$AAv?$AAe?$AA?5@
	mov	ecx, DWORD PTR _this$[ebp]
	call	?MessageBoxW@CWnd@@QAEHPBG0I@Z		; CWnd::MessageBoxW
	cmp	eax, 6
	jne	SHORT $L93907

; 108  : 			   Save();

	mov	ecx, DWORD PTR _this$[ebp]
	call	?Save@CRegTextEdit@@IAEHXZ		; CRegTextEdit::Save
$L93907:

; 109  : 			}
; 110  : 	}
; 111  : 	CComboBox *pbox = (CComboBox *)GetDlgItem(IDC_KEY1);

	push	1002					; 000003eaH
	mov	ecx, DWORD PTR _this$[ebp]
	call	?GetDlgItem@CWnd@@QBEPAV1@H@Z		; CWnd::GetDlgItem
	mov	DWORD PTR _pbox$[ebp], eax

; 112  : 	int sel = pbox->GetCurSel();

	mov	ecx, DWORD PTR _pbox$[ebp]
	call	?GetCurSel@CComboBox@@QBEHXZ		; CComboBox::GetCurSel
	mov	DWORD PTR _sel$[ebp], eax

; 113  :     if ( sel != CB_ERR )

	cmp	DWORD PTR _sel$[ebp], -1
	je	SHORT $L93913

; 114  : 		pbox->GetLBText(sel,m_Key1Str);

	mov	eax, DWORD PTR _this$[ebp]
	add	eax, 208				; 000000d0H
	push	eax
	mov	ecx, DWORD PTR _sel$[ebp]
	push	ecx
	mov	ecx, DWORD PTR _pbox$[ebp]
	call	?GetLBText@CComboBox@@QBEXHAAV?$CStringT@GV?$StrTraitMFC@GV?$ChTraitsCRT@G@ATL@@@@@ATL@@@Z ; CComboBox::GetLBText

; 115  : 	else

	jmp	SHORT $L93914
$L93913:

; 116  : 	    pbox->GetWindowText(m_Key1Str);

	mov	eax, DWORD PTR _this$[ebp]
	add	eax, 208				; 000000d0H
	push	eax
	mov	ecx, DWORD PTR _pbox$[ebp]
	call	?GetWindowTextW@CWnd@@QBEXAAV?$CStringT@GV?$StrTraitMFC@GV?$ChTraitsCRT@G@ATL@@@@@ATL@@@Z ; CWnd::GetWindowTextW
$L93914:

; 117  : 
; 118  :     if ( m_Key1Str.GetLength() > 0 && m_Key2Str.GetLength() > 0 )

	mov	ecx, DWORD PTR _this$[ebp]
	add	ecx, 208				; 000000d0H
	call	?GetLength@?$CSimpleStringT@G$0A@@ATL@@QBEHXZ ; ATL::CSimpleStringT<unsigned short,0>::GetLength
	test	eax, eax
	jle	SHORT $L93906
	mov	ecx, DWORD PTR _this$[ebp]
	add	ecx, 212				; 000000d4H
	call	?GetLength@?$CSimpleStringT@G$0A@@ATL@@QBEHXZ ; ATL::CSimpleStringT<unsigned short,0>::GetLength
	test	eax, eax
	jle	SHORT $L93906

; 119  : 	   Find();

	mov	ecx, DWORD PTR _this$[ebp]
	call	?Find@CRegTextEdit@@IAEHXZ		; CRegTextEdit::Find
$L93906:

; 120  : }

	pop	edi
	pop	esi
	pop	ebx
	add	esp, 228				; 000000e4H
	cmp	ebp, esp
	call	__RTC_CheckEsp
	mov	esp, ebp
	pop	ebp
	ret	0
?OnSelchangeKey1@CRegTextEdit@@IAEXXZ ENDP		; CRegTextEdit::OnSelchangeKey1
; Function compile flags: /Odt /RTCcsu /ZI
_TEXT	ENDS
;	COMDAT ?OnSelchangeKey2@CRegTextEdit@@IAEXXZ
_TEXT	SEGMENT
_sel$ = -32						; size = 4
_pbox$ = -20						; size = 4
_this$ = -8						; size = 4
?OnSelchangeKey2@CRegTextEdit@@IAEXXZ PROC NEAR		; CRegTextEdit::OnSelchangeKey2, COMDAT
; _this$ = ecx

; 123  : {

	push	ebp
	mov	ebp, esp
	sub	esp, 228				; 000000e4H
	push	ebx
	push	esi
	push	edi
	push	ecx
	lea	edi, DWORD PTR [ebp-228]
	mov	ecx, 57					; 00000039H
	mov	eax, -858993460				; ccccccccH
	rep stosd
	pop	ecx
	mov	DWORD PTR _this$[ebp], ecx

; 124  : 	// TODO: Add your control notification handler code here
; 125  : 	if ( m_Key1Str.GetLength() > 0 && m_Key2Str.GetLength()) {

	mov	ecx, DWORD PTR _this$[ebp]
	add	ecx, 208				; 000000d0H
	call	?GetLength@?$CSimpleStringT@G$0A@@ATL@@QBEHXZ ; ATL::CSimpleStringT<unsigned short,0>::GetLength
	test	eax, eax
	jle	SHORT $L93919
	mov	ecx, DWORD PTR _this$[ebp]
	add	ecx, 212				; 000000d4H
	call	?GetLength@?$CSimpleStringT@G$0A@@ATL@@QBEHXZ ; ATL::CSimpleStringT<unsigned short,0>::GetLength
	test	eax, eax
	je	SHORT $L93919

; 126  : 		if ( pFuncs->Modified(IDC_TEXT) ) {

	push	1004					; 000003ecH
	mov	eax, DWORD PTR _this$[ebp]
	mov	ecx, DWORD PTR [eax+396]
	call	?Modified@RTFFuncs@@QAEHH@Z		; RTFFuncs::Modified
	test	eax, eax
	je	SHORT $L93919

; 127  : 		   if ( MessageBox(_T("Do You Want to Save This Entry?"), _T("Record is Modified"), MB_ICONQUESTION|MB_YESNO ) == IDYES )

	push	36					; 00000024H
	push	OFFSET FLAT:??_C@_1CG@MLINDNFI@?$AAR?$AAe?$AAc?$AAo?$AAr?$AAd?$AA?5?$AAi?$AAs?$AA?5?$AAM?$AAo?$AAd?$AAi?$AAf?$AAi?$AAe?$AAd?$AA?$AA@
	push	OFFSET FLAT:??_C@_1EA@ECMOPAHL@?$AAD?$AAo?$AA?5?$AAY?$AAo?$AAu?$AA?5?$AAW?$AAa?$AAn?$AAt?$AA?5?$AAt?$AAo?$AA?5?$AAS?$AAa?$AAv?$AAe?$AA?5@
	mov	ecx, DWORD PTR _this$[ebp]
	call	?MessageBoxW@CWnd@@QAEHPBG0I@Z		; CWnd::MessageBoxW
	cmp	eax, 6
	jne	SHORT $L93919

; 128  : 			   Save();

	mov	ecx, DWORD PTR _this$[ebp]
	call	?Save@CRegTextEdit@@IAEHXZ		; CRegTextEdit::Save
$L93919:

; 129  : 			}
; 130  : 	}
; 131  : 	CComboBox *pbox = (CComboBox *)GetDlgItem(IDC_KEY2);

	push	1003					; 000003ebH
	mov	ecx, DWORD PTR _this$[ebp]
	call	?GetDlgItem@CWnd@@QBEPAV1@H@Z		; CWnd::GetDlgItem
	mov	DWORD PTR _pbox$[ebp], eax

; 132  : 	int sel = pbox->GetCurSel();

	mov	ecx, DWORD PTR _pbox$[ebp]
	call	?GetCurSel@CComboBox@@QBEHXZ		; CComboBox::GetCurSel
	mov	DWORD PTR _sel$[ebp], eax

; 133  :     if ( sel != CB_ERR )

	cmp	DWORD PTR _sel$[ebp], -1
	je	SHORT $L93925

; 134  : 		pbox->GetLBText(sel,m_Key2Str);

	mov	eax, DWORD PTR _this$[ebp]
	add	eax, 212				; 000000d4H
	push	eax
	mov	ecx, DWORD PTR _sel$[ebp]
	push	ecx
	mov	ecx, DWORD PTR _pbox$[ebp]
	call	?GetLBText@CComboBox@@QBEXHAAV?$CStringT@GV?$StrTraitMFC@GV?$ChTraitsCRT@G@ATL@@@@@ATL@@@Z ; CComboBox::GetLBText

; 135  : 	else

	jmp	SHORT $L93926
$L93925:

; 136  : 	    pbox->GetWindowText(m_Key2Str);

	mov	eax, DWORD PTR _this$[ebp]
	add	eax, 212				; 000000d4H
	push	eax
	mov	ecx, DWORD PTR _pbox$[ebp]
	call	?GetWindowTextW@CWnd@@QBEXAAV?$CStringT@GV?$StrTraitMFC@GV?$ChTraitsCRT@G@ATL@@@@@ATL@@@Z ; CWnd::GetWindowTextW
$L93926:

; 137  :     if ( m_Key1Str.GetLength() > 0 && m_Key2Str.GetLength() > 0 )

	mov	ecx, DWORD PTR _this$[ebp]
	add	ecx, 208				; 000000d0H
	call	?GetLength@?$CSimpleStringT@G$0A@@ATL@@QBEHXZ ; ATL::CSimpleStringT<unsigned short,0>::GetLength
	test	eax, eax
	jle	SHORT $L93918
	mov	ecx, DWORD PTR _this$[ebp]
	add	ecx, 212				; 000000d4H
	call	?GetLength@?$CSimpleStringT@G$0A@@ATL@@QBEHXZ ; ATL::CSimpleStringT<unsigned short,0>::GetLength
	test	eax, eax
	jle	SHORT $L93918

; 138  : 	   Find();

	mov	ecx, DWORD PTR _this$[ebp]
	call	?Find@CRegTextEdit@@IAEHXZ		; CRegTextEdit::Find
$L93918:

; 139  : }

	pop	edi
	pop	esi
	pop	ebx
	add	esp, 228				; 000000e4H
	cmp	ebp, esp
	call	__RTC_CheckEsp
	mov	esp, ebp
	pop	ebp
	ret	0
?OnSelchangeKey2@CRegTextEdit@@IAEXXZ ENDP		; CRegTextEdit::OnSelchangeKey2
_TEXT	ENDS
PUBLIC	?Clear@RTFFuncs@@QAEXH@Z			; RTFFuncs::Clear
; Function compile flags: /Odt /RTCcsu /ZI
;	COMDAT ?OnClear@CRegTextEdit@@IAEXXZ
_TEXT	SEGMENT
_this$ = -8						; size = 4
?OnClear@CRegTextEdit@@IAEXXZ PROC NEAR			; CRegTextEdit::OnClear, COMDAT
; _this$ = ecx

; 142  : {

	push	ebp
	mov	ebp, esp
	sub	esp, 204				; 000000ccH
	push	ebx
	push	esi
	push	edi
	push	ecx
	lea	edi, DWORD PTR [ebp-204]
	mov	ecx, 51					; 00000033H
	mov	eax, -858993460				; ccccccccH
	rep stosd
	pop	ecx
	mov	DWORD PTR _this$[ebp], ecx

; 143  : 	// TODO: Add your command handler code here
; 144  :    pFuncs->Clear(IDC_TEXT);

	push	1004					; 000003ecH
	mov	eax, DWORD PTR _this$[ebp]
	mov	ecx, DWORD PTR [eax+396]
	call	?Clear@RTFFuncs@@QAEXH@Z		; RTFFuncs::Clear

; 145  : }

	pop	edi
	pop	esi
	pop	ebx
	add	esp, 204				; 000000ccH
	cmp	ebp, esp
	call	__RTC_CheckEsp
	mov	esp, ebp
	pop	ebp
	ret	0
?OnClear@CRegTextEdit@@IAEXXZ ENDP			; CRegTextEdit::OnClear
_TEXT	ENDS
EXTRN	?Clear@CRichEditCtrl@@QAEXXZ:NEAR		; CRichEditCtrl::Clear
; Function compile flags: /Odt /RTCcsu /ZI
; File c:\astrow32dev\tbt32\rtffuncs.h
;	COMDAT ?Clear@RTFFuncs@@QAEXH@Z
_TEXT	SEGMENT
_this$ = -8						; size = 4
_id$ = 8						; size = 4
?Clear@RTFFuncs@@QAEXH@Z PROC NEAR			; RTFFuncs::Clear, COMDAT
; _this$ = ecx

; 35   :    void Clear( int id ) { GetCtrl(id)->Clear(); }

	push	ebp
	mov	ebp, esp
	sub	esp, 204				; 000000ccH
	push	ebx
	push	esi
	push	edi
	push	ecx
	lea	edi, DWORD PTR [ebp-204]
	mov	ecx, 51					; 00000033H
	mov	eax, -858993460				; ccccccccH
	rep stosd
	pop	ecx
	mov	DWORD PTR _this$[ebp], ecx
	mov	eax, DWORD PTR _id$[ebp]
	push	eax
	mov	ecx, DWORD PTR _this$[ebp]
	call	?GetCtrl@RTFFuncs@@AAEPAVCRichEditCtrl@@H@Z ; RTFFuncs::GetCtrl
	mov	ecx, eax
	call	?Clear@CRichEditCtrl@@QAEXXZ		; CRichEditCtrl::Clear
	pop	edi
	pop	esi
	pop	ebx
	add	esp, 204				; 000000ccH
	cmp	ebp, esp
	call	__RTC_CheckEsp
	mov	esp, ebp
	pop	ebp
	ret	4
?Clear@RTFFuncs@@QAEXH@Z ENDP				; RTFFuncs::Clear
; Function compile flags: /Odt /RTCcsu /ZI
; File c:\astrow32dev\tbt32\regtextedit.cpp
_TEXT	ENDS
;	COMDAT ?OnUpdateClear@CRegTextEdit@@IAEXPAVCCmdUI@@@Z
_TEXT	SEGMENT
_this$ = -8						; size = 4
_pCmdUI$ = 8						; size = 4
?OnUpdateClear@CRegTextEdit@@IAEXPAVCCmdUI@@@Z PROC NEAR ; CRegTextEdit::OnUpdateClear, COMDAT
; _this$ = ecx

; 148  : {

	push	ebp
	mov	ebp, esp
	sub	esp, 204				; 000000ccH
	push	ebx
	push	esi
	push	edi
	push	ecx
	lea	edi, DWORD PTR [ebp-204]
	mov	ecx, 51					; 00000033H
	mov	eax, -858993460				; ccccccccH
	rep stosd
	pop	ecx
	mov	DWORD PTR _this$[ebp], ecx

; 149  : 	// TODO: Add your command update UI handler code here
; 150  : 	pCmdUI->Enable();

	mov	esi, esp
	push	1
	mov	eax, DWORD PTR _pCmdUI$[ebp]
	mov	edx, DWORD PTR [eax]
	mov	ecx, DWORD PTR _pCmdUI$[ebp]
	call	DWORD PTR [edx]
	cmp	esi, esp
	call	__RTC_CheckEsp

; 151  : }

	pop	edi
	pop	esi
	pop	ebx
	add	esp, 204				; 000000ccH
	cmp	ebp, esp
	call	__RTC_CheckEsp
	mov	esp, ebp
	pop	ebp
	ret	4
?OnUpdateClear@CRegTextEdit@@IAEXPAVCCmdUI@@@Z ENDP	; CRegTextEdit::OnUpdateClear
_TEXT	ENDS
PUBLIC	?Copy@RTFFuncs@@QAEXH@Z				; RTFFuncs::Copy
; Function compile flags: /Odt /RTCcsu /ZI
;	COMDAT ?OnCopy@CRegTextEdit@@IAEXXZ
_TEXT	SEGMENT
_this$ = -8						; size = 4
?OnCopy@CRegTextEdit@@IAEXXZ PROC NEAR			; CRegTextEdit::OnCopy, COMDAT
; _this$ = ecx

; 154  : {

	push	ebp
	mov	ebp, esp
	sub	esp, 204				; 000000ccH
	push	ebx
	push	esi
	push	edi
	push	ecx
	lea	edi, DWORD PTR [ebp-204]
	mov	ecx, 51					; 00000033H
	mov	eax, -858993460				; ccccccccH
	rep stosd
	pop	ecx
	mov	DWORD PTR _this$[ebp], ecx

; 155  : 	// TODO: Add your command handler code here
; 156  :    pFuncs->Copy(IDC_TEXT);	

	push	1004					; 000003ecH
	mov	eax, DWORD PTR _this$[ebp]
	mov	ecx, DWORD PTR [eax+396]
	call	?Copy@RTFFuncs@@QAEXH@Z			; RTFFuncs::Copy

; 157  : }

	pop	edi
	pop	esi
	pop	ebx
	add	esp, 204				; 000000ccH
	cmp	ebp, esp
	call	__RTC_CheckEsp
	mov	esp, ebp
	pop	ebp
	ret	0
?OnCopy@CRegTextEdit@@IAEXXZ ENDP			; CRegTextEdit::OnCopy
_TEXT	ENDS
EXTRN	?Copy@CRichEditCtrl@@QAEXXZ:NEAR		; CRichEditCtrl::Copy
; Function compile flags: /Odt /RTCcsu /ZI
; File c:\astrow32dev\tbt32\rtffuncs.h
;	COMDAT ?Copy@RTFFuncs@@QAEXH@Z
_TEXT	SEGMENT
_this$ = -8						; size = 4
_id$ = 8						; size = 4
?Copy@RTFFuncs@@QAEXH@Z PROC NEAR			; RTFFuncs::Copy, COMDAT
; _this$ = ecx

; 33   :    void Copy( int id ) { GetCtrl(id)->Copy(); }

	push	ebp
	mov	ebp, esp
	sub	esp, 204				; 000000ccH
	push	ebx
	push	esi
	push	edi
	push	ecx
	lea	edi, DWORD PTR [ebp-204]
	mov	ecx, 51					; 00000033H
	mov	eax, -858993460				; ccccccccH
	rep stosd
	pop	ecx
	mov	DWORD PTR _this$[ebp], ecx
	mov	eax, DWORD PTR _id$[ebp]
	push	eax
	mov	ecx, DWORD PTR _this$[ebp]
	call	?GetCtrl@RTFFuncs@@AAEPAVCRichEditCtrl@@H@Z ; RTFFuncs::GetCtrl
	mov	ecx, eax
	call	?Copy@CRichEditCtrl@@QAEXXZ		; CRichEditCtrl::Copy
	pop	edi
	pop	esi
	pop	ebx
	add	esp, 204				; 000000ccH
	cmp	ebp, esp
	call	__RTC_CheckEsp
	mov	esp, ebp
	pop	ebp
	ret	4
?Copy@RTFFuncs@@QAEXH@Z ENDP				; RTFFuncs::Copy
; Function compile flags: /Odt /RTCcsu /ZI
; File c:\astrow32dev\tbt32\regtextedit.cpp
_TEXT	ENDS
;	COMDAT ?OnUpdateCopy@CRegTextEdit@@IAEXPAVCCmdUI@@@Z
_TEXT	SEGMENT
_this$ = -8						; size = 4
_pCmdUI$ = 8						; size = 4
?OnUpdateCopy@CRegTextEdit@@IAEXPAVCCmdUI@@@Z PROC NEAR	; CRegTextEdit::OnUpdateCopy, COMDAT
; _this$ = ecx

; 160  : {

	push	ebp
	mov	ebp, esp
	sub	esp, 204				; 000000ccH
	push	ebx
	push	esi
	push	edi
	push	ecx
	lea	edi, DWORD PTR [ebp-204]
	mov	ecx, 51					; 00000033H
	mov	eax, -858993460				; ccccccccH
	rep stosd
	pop	ecx
	mov	DWORD PTR _this$[ebp], ecx

; 161  : 	// TODO: Add your command update UI handler code here
; 162  : 	pCmdUI->Enable();

	mov	esi, esp
	push	1
	mov	eax, DWORD PTR _pCmdUI$[ebp]
	mov	edx, DWORD PTR [eax]
	mov	ecx, DWORD PTR _pCmdUI$[ebp]
	call	DWORD PTR [edx]
	cmp	esi, esp
	call	__RTC_CheckEsp

; 163  : }

	pop	edi
	pop	esi
	pop	ebx
	add	esp, 204				; 000000ccH
	cmp	ebp, esp
	call	__RTC_CheckEsp
	mov	esp, ebp
	pop	ebp
	ret	4
?OnUpdateCopy@CRegTextEdit@@IAEXPAVCCmdUI@@@Z ENDP	; CRegTextEdit::OnUpdateCopy
_TEXT	ENDS
PUBLIC	?Cut@RTFFuncs@@QAEXH@Z				; RTFFuncs::Cut
; Function compile flags: /Odt /RTCcsu /ZI
;	COMDAT ?OnCut@CRegTextEdit@@IAEXXZ
_TEXT	SEGMENT
_this$ = -8						; size = 4
?OnCut@CRegTextEdit@@IAEXXZ PROC NEAR			; CRegTextEdit::OnCut, COMDAT
; _this$ = ecx

; 166  : {

	push	ebp
	mov	ebp, esp
	sub	esp, 204				; 000000ccH
	push	ebx
	push	esi
	push	edi
	push	ecx
	lea	edi, DWORD PTR [ebp-204]
	mov	ecx, 51					; 00000033H
	mov	eax, -858993460				; ccccccccH
	rep stosd
	pop	ecx
	mov	DWORD PTR _this$[ebp], ecx

; 167  : 	// TODO: Add your command handler code here
; 168  :    pFuncs->Cut(IDC_TEXT);	

	push	1004					; 000003ecH
	mov	eax, DWORD PTR _this$[ebp]
	mov	ecx, DWORD PTR [eax+396]
	call	?Cut@RTFFuncs@@QAEXH@Z			; RTFFuncs::Cut

; 169  : 	
; 170  : }

	pop	edi
	pop	esi
	pop	ebx
	add	esp, 204				; 000000ccH
	cmp	ebp, esp
	call	__RTC_CheckEsp
	mov	esp, ebp
	pop	ebp
	ret	0
?OnCut@CRegTextEdit@@IAEXXZ ENDP			; CRegTextEdit::OnCut
_TEXT	ENDS
EXTRN	?Cut@CRichEditCtrl@@QAEXXZ:NEAR			; CRichEditCtrl::Cut
; Function compile flags: /Odt /RTCcsu /ZI
; File c:\astrow32dev\tbt32\rtffuncs.h
;	COMDAT ?Cut@RTFFuncs@@QAEXH@Z
_TEXT	SEGMENT
_this$ = -8						; size = 4
_id$ = 8						; size = 4
?Cut@RTFFuncs@@QAEXH@Z PROC NEAR			; RTFFuncs::Cut, COMDAT
; _this$ = ecx

; 31   :    void Cut( int id ) { GetCtrl(id)->Cut(); }

	push	ebp
	mov	ebp, esp
	sub	esp, 204				; 000000ccH
	push	ebx
	push	esi
	push	edi
	push	ecx
	lea	edi, DWORD PTR [ebp-204]
	mov	ecx, 51					; 00000033H
	mov	eax, -858993460				; ccccccccH
	rep stosd
	pop	ecx
	mov	DWORD PTR _this$[ebp], ecx
	mov	eax, DWORD PTR _id$[ebp]
	push	eax
	mov	ecx, DWORD PTR _this$[ebp]
	call	?GetCtrl@RTFFuncs@@AAEPAVCRichEditCtrl@@H@Z ; RTFFuncs::GetCtrl
	mov	ecx, eax
	call	?Cut@CRichEditCtrl@@QAEXXZ		; CRichEditCtrl::Cut
	pop	edi
	pop	esi
	pop	ebx
	add	esp, 204				; 000000ccH
	cmp	ebp, esp
	call	__RTC_CheckEsp
	mov	esp, ebp
	pop	ebp
	ret	4
?Cut@RTFFuncs@@QAEXH@Z ENDP				; RTFFuncs::Cut
; Function compile flags: /Odt /RTCcsu /ZI
; File c:\astrow32dev\tbt32\regtextedit.cpp
_TEXT	ENDS
;	COMDAT ?OnUpdateCut@CRegTextEdit@@IAEXPAVCCmdUI@@@Z
_TEXT	SEGMENT
_this$ = -8						; size = 4
_pCmdUI$ = 8						; size = 4
?OnUpdateCut@CRegTextEdit@@IAEXPAVCCmdUI@@@Z PROC NEAR	; CRegTextEdit::OnUpdateCut, COMDAT
; _this$ = ecx

; 173  : {

	push	ebp
	mov	ebp, esp
	sub	esp, 204				; 000000ccH
	push	ebx
	push	esi
	push	edi
	push	ecx
	lea	edi, DWORD PTR [ebp-204]
	mov	ecx, 51					; 00000033H
	mov	eax, -858993460				; ccccccccH
	rep stosd
	pop	ecx
	mov	DWORD PTR _this$[ebp], ecx

; 174  : 	// TODO: Add your command update UI handler code here
; 175  : 	pCmdUI->Enable();

	mov	esi, esp
	push	1
	mov	eax, DWORD PTR _pCmdUI$[ebp]
	mov	edx, DWORD PTR [eax]
	mov	ecx, DWORD PTR _pCmdUI$[ebp]
	call	DWORD PTR [edx]
	cmp	esi, esp
	call	__RTC_CheckEsp

; 176  : }

	pop	edi
	pop	esi
	pop	ebx
	add	esp, 204				; 000000ccH
	cmp	ebp, esp
	call	__RTC_CheckEsp
	mov	esp, ebp
	pop	ebp
	ret	4
?OnUpdateCut@CRegTextEdit@@IAEXPAVCCmdUI@@@Z ENDP	; CRegTextEdit::OnUpdateCut
_TEXT	ENDS
PUBLIC	?Paste@RTFFuncs@@QAEXH@Z			; RTFFuncs::Paste
; Function compile flags: /Odt /RTCcsu /ZI
;	COMDAT ?OnPaste@CRegTextEdit@@IAEXXZ
_TEXT	SEGMENT
_this$ = -8						; size = 4
?OnPaste@CRegTextEdit@@IAEXXZ PROC NEAR			; CRegTextEdit::OnPaste, COMDAT
; _this$ = ecx

; 179  : {

	push	ebp
	mov	ebp, esp
	sub	esp, 204				; 000000ccH
	push	ebx
	push	esi
	push	edi
	push	ecx
	lea	edi, DWORD PTR [ebp-204]
	mov	ecx, 51					; 00000033H
	mov	eax, -858993460				; ccccccccH
	rep stosd
	pop	ecx
	mov	DWORD PTR _this$[ebp], ecx

; 180  : 	// TODO: Add your command handler code here
; 181  :    pFuncs->Paste(IDC_TEXT);	

	push	1004					; 000003ecH
	mov	eax, DWORD PTR _this$[ebp]
	mov	ecx, DWORD PTR [eax+396]
	call	?Paste@RTFFuncs@@QAEXH@Z		; RTFFuncs::Paste

; 182  : 	
; 183  : }

	pop	edi
	pop	esi
	pop	ebx
	add	esp, 204				; 000000ccH
	cmp	ebp, esp
	call	__RTC_CheckEsp
	mov	esp, ebp
	pop	ebp
	ret	0
?OnPaste@CRegTextEdit@@IAEXXZ ENDP			; CRegTextEdit::OnPaste
_TEXT	ENDS
EXTRN	?Paste@CRichEditCtrl@@QAEXXZ:NEAR		; CRichEditCtrl::Paste
; Function compile flags: /Odt /RTCcsu /ZI
; File c:\astrow32dev\tbt32\rtffuncs.h
;	COMDAT ?Paste@RTFFuncs@@QAEXH@Z
_TEXT	SEGMENT
_this$ = -8						; size = 4
_id$ = 8						; size = 4
?Paste@RTFFuncs@@QAEXH@Z PROC NEAR			; RTFFuncs::Paste, COMDAT
; _this$ = ecx

; 32   :    void Paste( int id ) { GetCtrl(id)->Paste(); }

	push	ebp
	mov	ebp, esp
	sub	esp, 204				; 000000ccH
	push	ebx
	push	esi
	push	edi
	push	ecx
	lea	edi, DWORD PTR [ebp-204]
	mov	ecx, 51					; 00000033H
	mov	eax, -858993460				; ccccccccH
	rep stosd
	pop	ecx
	mov	DWORD PTR _this$[ebp], ecx
	mov	eax, DWORD PTR _id$[ebp]
	push	eax
	mov	ecx, DWORD PTR _this$[ebp]
	call	?GetCtrl@RTFFuncs@@AAEPAVCRichEditCtrl@@H@Z ; RTFFuncs::GetCtrl
	mov	ecx, eax
	call	?Paste@CRichEditCtrl@@QAEXXZ		; CRichEditCtrl::Paste
	pop	edi
	pop	esi
	pop	ebx
	add	esp, 204				; 000000ccH
	cmp	ebp, esp
	call	__RTC_CheckEsp
	mov	esp, ebp
	pop	ebp
	ret	4
?Paste@RTFFuncs@@QAEXH@Z ENDP				; RTFFuncs::Paste
; Function compile flags: /Odt /RTCcsu /ZI
; File c:\astrow32dev\tbt32\regtextedit.cpp
_TEXT	ENDS
;	COMDAT ?OnUpdatePaste@CRegTextEdit@@IAEXPAVCCmdUI@@@Z
_TEXT	SEGMENT
_this$ = -8						; size = 4
_pCmdUI$ = 8						; size = 4
?OnUpdatePaste@CRegTextEdit@@IAEXPAVCCmdUI@@@Z PROC NEAR ; CRegTextEdit::OnUpdatePaste, COMDAT
; _this$ = ecx

; 186  : {

	push	ebp
	mov	ebp, esp
	sub	esp, 204				; 000000ccH
	push	ebx
	push	esi
	push	edi
	push	ecx
	lea	edi, DWORD PTR [ebp-204]
	mov	ecx, 51					; 00000033H
	mov	eax, -858993460				; ccccccccH
	rep stosd
	pop	ecx
	mov	DWORD PTR _this$[ebp], ecx

; 187  : 	// TODO: Add your command update UI handler code here
; 188  : 	pCmdUI->Enable();

	mov	esi, esp
	push	1
	mov	eax, DWORD PTR _pCmdUI$[ebp]
	mov	edx, DWORD PTR [eax]
	mov	ecx, DWORD PTR _pCmdUI$[ebp]
	call	DWORD PTR [edx]
	cmp	esi, esp
	call	__RTC_CheckEsp

; 189  : }

	pop	edi
	pop	esi
	pop	ebx
	add	esp, 204				; 000000ccH
	cmp	ebp, esp
	call	__RTC_CheckEsp
	mov	esp, ebp
	pop	ebp
	ret	4
?OnUpdatePaste@CRegTextEdit@@IAEXPAVCCmdUI@@@Z ENDP	; CRegTextEdit::OnUpdatePaste
_TEXT	ENDS
PUBLIC	?toSymType@CATextTypeAry@@QAEPADAAV?$CStringT@GV?$StrTraitMFC@GV?$ChTraitsCRT@G@ATL@@@@@ATL@@H@Z ; CATextTypeAry::toSymType
PUBLIC	??_C@_09IEFEJGJD@?$CF?$FL?$FO?$HM?$FN?$CFc?$CFs?$AA@ ; `string'
EXTRN	?OnInitDialog@CDialog@@UAEHXZ:NEAR		; CDialog::OnInitDialog
EXTRN	?toCombo@CSymbolAry@@QAEHPAVCComboBox@@HPADH@Z:NEAR ; CSymbolAry::toCombo
EXTRN	?pRegSymbols@@3PAVCSymbolAry@@A:DWORD		; pRegSymbols
EXTRN	?pATextTypes@@3PAVCATextTypeAry@@A:DWORD	; pATextTypes
EXTRN	_sscanf:NEAR
;	COMDAT ??_C@_09IEFEJGJD@?$CF?$FL?$FO?$HM?$FN?$CFc?$CFs?$AA@
CONST	SEGMENT
??_C@_09IEFEJGJD@?$CF?$FL?$FO?$HM?$FN?$CFc?$CFs?$AA@ DB '%[^|]%c%s', 00H ; `string'
; Function compile flags: /Odt /RTCcsu /ZI
CONST	ENDS
;	COMDAT ?OnInitDialog@CRegTextEdit@@MAEHXZ
_TEXT	SEGMENT
_pt$ = -128						; size = 4
_pbox$ = -116						; size = 4
_ch$ = -101						; size = 1
_sm2$ = -92						; size = 30
_sm1$ = -52						; size = 30
_this$ = -12						; size = 4
__$ArrayPad$ = -4					; size = 4
__$ReturnAddr$ = 4					; size = 4
?OnInitDialog@CRegTextEdit@@MAEHXZ PROC NEAR		; CRegTextEdit::OnInitDialog, COMDAT
; _this$ = ecx

; 192  : {

	push	ebp
	mov	ebp, esp
	sub	esp, 324				; 00000144H
	push	ebx
	push	esi
	push	edi
	push	ecx
	lea	edi, DWORD PTR [ebp-324]
	mov	ecx, 81					; 00000051H
	mov	eax, -858993460				; ccccccccH
	rep stosd
	pop	ecx
	mov	eax, DWORD PTR ___security_cookie
	mov	DWORD PTR __$ArrayPad$[ebp], eax
	mov	DWORD PTR _this$[ebp], ecx

; 193  : 	char sm1[30], sm2[30], ch;
; 194  : 	CDialog::OnInitDialog();

	mov	ecx, DWORD PTR _this$[ebp]
	call	?OnInitDialog@CDialog@@UAEHXZ		; CDialog::OnInitDialog

; 195  : 	CComboBox *pbox = (CComboBox *)GetDlgItem(IDC_KEY1);

	push	1002					; 000003eaH
	mov	ecx, DWORD PTR _this$[ebp]
	call	?GetDlgItem@CWnd@@QBEPAV1@H@Z		; CWnd::GetDlgItem
	mov	DWORD PTR _pbox$[ebp], eax

; 196  : 	char *pt = pATextTypes->toSymType(m_TextType,2);

	push	2
	mov	eax, DWORD PTR _this$[ebp]
	add	eax, 204				; 000000ccH
	push	eax
	mov	ecx, DWORD PTR ?pATextTypes@@3PAVCATextTypeAry@@A ; pATextTypes
	call	?toSymType@CATextTypeAry@@QAEPADAAV?$CStringT@GV?$StrTraitMFC@GV?$ChTraitsCRT@G@ATL@@@@@ATL@@H@Z ; CATextTypeAry::toSymType
	mov	DWORD PTR _pt$[ebp], eax

; 197  : 	sscanf(pt, "%[^|]%c%s", sm1, &ch, sm2 );

	lea	eax, DWORD PTR _sm2$[ebp]
	push	eax
	lea	ecx, DWORD PTR _ch$[ebp]
	push	ecx
	lea	edx, DWORD PTR _sm1$[ebp]
	push	edx
	push	OFFSET FLAT:??_C@_09IEFEJGJD@?$CF?$FL?$FO?$HM?$FN?$CFc?$CFs?$AA@
	mov	eax, DWORD PTR _pt$[ebp]
	push	eax
	call	_sscanf
	add	esp, 20					; 00000014H

; 198  : 	pRegSymbols->toCombo(pbox,1, sm1);

	push	-1
	lea	eax, DWORD PTR _sm1$[ebp]
	push	eax
	push	1
	mov	ecx, DWORD PTR _pbox$[ebp]
	push	ecx
	mov	ecx, DWORD PTR ?pRegSymbols@@3PAVCSymbolAry@@A ; pRegSymbols
	call	?toCombo@CSymbolAry@@QAEHPAVCComboBox@@HPADH@Z ; CSymbolAry::toCombo

; 199  : 	pbox = (CComboBox *)GetDlgItem(IDC_KEY2);

	push	1003					; 000003ebH
	mov	ecx, DWORD PTR _this$[ebp]
	call	?GetDlgItem@CWnd@@QBEPAV1@H@Z		; CWnd::GetDlgItem
	mov	DWORD PTR _pbox$[ebp], eax

; 200  :     pRegSymbols->toCombo(pbox,2, sm2);

	push	-1
	lea	eax, DWORD PTR _sm2$[ebp]
	push	eax
	push	2
	mov	ecx, DWORD PTR _pbox$[ebp]
	push	ecx
	mov	ecx, DWORD PTR ?pRegSymbols@@3PAVCSymbolAry@@A ; pRegSymbols
	call	?toCombo@CSymbolAry@@QAEHPAVCComboBox@@HPADH@Z ; CSymbolAry::toCombo

; 201  : 	// TODO: Add extra initialization here
; 202  : //	delete pFuncs;
; 203  : 	return TRUE;  // return TRUE unless you set the focus to a control

	mov	eax, 1

; 204  : 	              // EXCEPTION: OCX Property Pages should return FALSE
; 205  : }

	push	edx
	mov	ecx, ebp
	push	eax
	lea	edx, DWORD PTR $L94446
	call	@_RTC_CheckStackVars@8
	pop	eax
	pop	edx
	mov	ecx, DWORD PTR __$ArrayPad$[ebp]
	call	@__security_check_cookie@4
	pop	edi
	pop	esi
	pop	ebx
	add	esp, 324				; 00000144H
	cmp	ebp, esp
	call	__RTC_CheckEsp
	mov	esp, ebp
	pop	ebp
	ret	0
$L94446:
	DD	3
	DD	$L94445
$L94445:
	DD	-52					; ffffffccH
	DD	30					; 0000001eH
	DD	$L94441
	DD	-92					; ffffffa4H
	DD	30					; 0000001eH
	DD	$L94442
	DD	-101					; ffffff9bH
	DD	1
	DD	$L94443
$L94443:
	DB	99					; 00000063H
	DB	104					; 00000068H
	DB	0
$L94442:
	DB	115					; 00000073H
	DB	109					; 0000006dH
	DB	50					; 00000032H
	DB	0
$L94441:
	DB	115					; 00000073H
	DB	109					; 0000006dH
	DB	49					; 00000031H
	DB	0
?OnInitDialog@CRegTextEdit@@MAEHXZ ENDP			; CRegTextEdit::OnInitDialog
_TEXT	ENDS
PUBLIC	?symtypes@CATextType@@QAEPADXZ			; CATextType::symtypes
EXTRN	?Find@CATextTypeAry@@QAEPAVCATextType@@AAV?$CStringT@GV?$StrTraitMFC@GV?$ChTraitsCRT@G@ATL@@@@@ATL@@HH@Z:NEAR ; CATextTypeAry::Find
; Function compile flags: /Odt /RTCcsu /ZI
; File c:\astrow32dev\tbt32\texttypeary.hpp
;	COMDAT ?toSymType@CATextTypeAry@@QAEPADAAV?$CStringT@GV?$StrTraitMFC@GV?$ChTraitsCRT@G@ATL@@@@@ATL@@H@Z
_TEXT	SEGMENT
_pf$ = -20						; size = 4
_this$ = -8						; size = 4
_name$ = 8						; size = 4
_tp$ = 12						; size = 4
?toSymType@CATextTypeAry@@QAEPADAAV?$CStringT@GV?$StrTraitMFC@GV?$ChTraitsCRT@G@ATL@@@@@ATL@@H@Z PROC NEAR ; CATextTypeAry::toSymType, COMDAT
; _this$ = ecx

; 40   :     char *toSymType( CString &name, int tp ) { CATextType *pf=Find(name, tp); if ( pf==NULL) return NULL; else return( pf->symtypes() ); }

	push	ebp
	mov	ebp, esp
	sub	esp, 216				; 000000d8H
	push	ebx
	push	esi
	push	edi
	push	ecx
	lea	edi, DWORD PTR [ebp-216]
	mov	ecx, 54					; 00000036H
	mov	eax, -858993460				; ccccccccH
	rep stosd
	pop	ecx
	mov	DWORD PTR _this$[ebp], ecx
	push	0
	mov	eax, DWORD PTR _tp$[ebp]
	push	eax
	mov	ecx, DWORD PTR _name$[ebp]
	push	ecx
	mov	ecx, DWORD PTR _this$[ebp]
	call	?Find@CATextTypeAry@@QAEPAVCATextType@@AAV?$CStringT@GV?$StrTraitMFC@GV?$ChTraitsCRT@G@ATL@@@@@ATL@@HH@Z ; CATextTypeAry::Find
	mov	DWORD PTR _pf$[ebp], eax
	cmp	DWORD PTR _pf$[ebp], 0
	jne	SHORT $L93646
	xor	eax, eax
	jmp	SHORT $L93644
$L93646:
	mov	ecx, DWORD PTR _pf$[ebp]
	call	?symtypes@CATextType@@QAEPADXZ		; CATextType::symtypes
$L93644:
	pop	edi
	pop	esi
	pop	ebx
	add	esp, 216				; 000000d8H
	cmp	ebp, esp
	call	__RTC_CheckEsp
	mov	esp, ebp
	pop	ebp
	ret	8
?toSymType@CATextTypeAry@@QAEPADAAV?$CStringT@GV?$StrTraitMFC@GV?$ChTraitsCRT@G@ATL@@@@@ATL@@H@Z ENDP ; CATextTypeAry::toSymType
; Function compile flags: /Odt /RTCcsu /ZI
_TEXT	ENDS
;	COMDAT ?symtypes@CATextType@@QAEPADXZ
_TEXT	SEGMENT
_this$ = -8						; size = 4
?symtypes@CATextType@@QAEPADXZ PROC NEAR		; CATextType::symtypes, COMDAT
; _this$ = ecx

; 20   :     char *symtypes() { return _symtypes; }

	push	ebp
	mov	ebp, esp
	sub	esp, 204				; 000000ccH
	push	ebx
	push	esi
	push	edi
	push	ecx
	lea	edi, DWORD PTR [ebp-204]
	mov	ecx, 51					; 00000033H
	mov	eax, -858993460				; ccccccccH
	rep stosd
	pop	ecx
	mov	DWORD PTR _this$[ebp], ecx
	mov	eax, DWORD PTR _this$[ebp]
	add	eax, 79					; 0000004fH
	pop	edi
	pop	esi
	pop	ebx
	mov	esp, ebp
	pop	ebp
	ret	0
?symtypes@CATextType@@QAEPADXZ ENDP			; CATextType::symtypes
; Function compile flags: /Odt /RTCcsu /ZI
; File c:\astrow32dev\tbt32\regtextedit.cpp
_TEXT	ENDS
;	COMDAT ?OnChangeText@CRegTextEdit@@IAEXXZ
_TEXT	SEGMENT
_this$ = -8						; size = 4
?OnChangeText@CRegTextEdit@@IAEXXZ PROC NEAR		; CRegTextEdit::OnChangeText, COMDAT
; _this$ = ecx

; 208  : {

	push	ebp
	mov	ebp, esp
	sub	esp, 204				; 000000ccH
	push	ebx
	push	esi
	push	edi
	push	ecx
	lea	edi, DWORD PTR [ebp-204]
	mov	ecx, 51					; 00000033H
	mov	eax, -858993460				; ccccccccH
	rep stosd
	pop	ecx
	mov	DWORD PTR _this$[ebp], ecx

; 209  : 	// TODO: If this is a RICHEDIT control, the control will not
; 210  : 	// send this notification unless you override the CDialog::OnInitDialog()
; 211  : 	// function and call CRichEditCtrl().SetEventMask()
; 212  : 	// with the ENM_CHANGE flag ORed into the mask.
; 213  : 	
; 214  : 	// TODO: Add your control notification handler code here
; 215  : 	m_bModified=TRUE;

	mov	eax, DWORD PTR _this$[ebp]
	mov	DWORD PTR [eax+392], 1

; 216  : }

	pop	edi
	pop	esi
	pop	ebx
	mov	esp, ebp
	pop	ebp
	ret	0
?OnChangeText@CRegTextEdit@@IAEXXZ ENDP			; CRegTextEdit::OnChangeText
_TEXT	ENDS
PUBLIC	?Undo@RTFFuncs@@QAEXH@Z				; RTFFuncs::Undo
; Function compile flags: /Odt /RTCcsu /ZI
;	COMDAT ?OnUndo@CRegTextEdit@@IAEXXZ
_TEXT	SEGMENT
_this$ = -8						; size = 4
?OnUndo@CRegTextEdit@@IAEXXZ PROC NEAR			; CRegTextEdit::OnUndo, COMDAT
; _this$ = ecx

; 219  : {

	push	ebp
	mov	ebp, esp
	sub	esp, 204				; 000000ccH
	push	ebx
	push	esi
	push	edi
	push	ecx
	lea	edi, DWORD PTR [ebp-204]
	mov	ecx, 51					; 00000033H
	mov	eax, -858993460				; ccccccccH
	rep stosd
	pop	ecx
	mov	DWORD PTR _this$[ebp], ecx

; 220  : 	// TODO: Add your command handler code here
; 221  :    pFuncs->Undo(IDC_TEXT);	

	push	1004					; 000003ecH
	mov	eax, DWORD PTR _this$[ebp]
	mov	ecx, DWORD PTR [eax+396]
	call	?Undo@RTFFuncs@@QAEXH@Z			; RTFFuncs::Undo

; 222  : 	
; 223  : }

	pop	edi
	pop	esi
	pop	ebx
	add	esp, 204				; 000000ccH
	cmp	ebp, esp
	call	__RTC_CheckEsp
	mov	esp, ebp
	pop	ebp
	ret	0
?OnUndo@CRegTextEdit@@IAEXXZ ENDP			; CRegTextEdit::OnUndo
_TEXT	ENDS
EXTRN	?Undo@CRichEditCtrl@@QAEHXZ:NEAR		; CRichEditCtrl::Undo
; Function compile flags: /Odt /RTCcsu /ZI
; File c:\astrow32dev\tbt32\rtffuncs.h
;	COMDAT ?Undo@RTFFuncs@@QAEXH@Z
_TEXT	SEGMENT
_this$ = -8						; size = 4
_id$ = 8						; size = 4
?Undo@RTFFuncs@@QAEXH@Z PROC NEAR			; RTFFuncs::Undo, COMDAT
; _this$ = ecx

; 34   :    void Undo( int id ) { GetCtrl(id)->Undo(); }

	push	ebp
	mov	ebp, esp
	sub	esp, 204				; 000000ccH
	push	ebx
	push	esi
	push	edi
	push	ecx
	lea	edi, DWORD PTR [ebp-204]
	mov	ecx, 51					; 00000033H
	mov	eax, -858993460				; ccccccccH
	rep stosd
	pop	ecx
	mov	DWORD PTR _this$[ebp], ecx
	mov	eax, DWORD PTR _id$[ebp]
	push	eax
	mov	ecx, DWORD PTR _this$[ebp]
	call	?GetCtrl@RTFFuncs@@AAEPAVCRichEditCtrl@@H@Z ; RTFFuncs::GetCtrl
	mov	ecx, eax
	call	?Undo@CRichEditCtrl@@QAEHXZ		; CRichEditCtrl::Undo
	pop	edi
	pop	esi
	pop	ebx
	add	esp, 204				; 000000ccH
	cmp	ebp, esp
	call	__RTC_CheckEsp
	mov	esp, ebp
	pop	ebp
	ret	4
?Undo@RTFFuncs@@QAEXH@Z ENDP				; RTFFuncs::Undo
; Function compile flags: /Odt /RTCcsu /ZI
; File c:\astrow32dev\tbt32\regtextedit.cpp
_TEXT	ENDS
;	COMDAT ?OnUpdateUndo@CRegTextEdit@@IAEXPAVCCmdUI@@@Z
_TEXT	SEGMENT
_this$ = -8						; size = 4
_pCmdUI$ = 8						; size = 4
?OnUpdateUndo@CRegTextEdit@@IAEXPAVCCmdUI@@@Z PROC NEAR	; CRegTextEdit::OnUpdateUndo, COMDAT
; _this$ = ecx

; 226  : {

	push	ebp
	mov	ebp, esp
	sub	esp, 204				; 000000ccH
	push	ebx
	push	esi
	push	edi
	push	ecx
	lea	edi, DWORD PTR [ebp-204]
	mov	ecx, 51					; 00000033H
	mov	eax, -858993460				; ccccccccH
	rep stosd
	pop	ecx
	mov	DWORD PTR _this$[ebp], ecx

; 227  : 	// TODO: Add your command update UI handler code here
; 228  : 	pCmdUI->Enable();

	mov	esi, esp
	push	1
	mov	eax, DWORD PTR _pCmdUI$[ebp]
	mov	edx, DWORD PTR [eax]
	mov	ecx, DWORD PTR _pCmdUI$[ebp]
	call	DWORD PTR [edx]
	cmp	esi, esp
	call	__RTC_CheckEsp

; 229  : }

	pop	edi
	pop	esi
	pop	ebx
	add	esp, 204				; 000000ccH
	cmp	ebp, esp
	call	__RTC_CheckEsp
	mov	esp, ebp
	pop	ebp
	ret	4
?OnUpdateUndo@CRegTextEdit@@IAEXPAVCCmdUI@@@Z ENDP	; CRegTextEdit::OnUpdateUndo
; Function compile flags: /Odt /RTCcsu /ZI
_TEXT	ENDS
;	COMDAT ?OnUpdateText@CRegTextEdit@@IAEXXZ
_TEXT	SEGMENT
_this$ = -8						; size = 4
?OnUpdateText@CRegTextEdit@@IAEXXZ PROC NEAR		; CRegTextEdit::OnUpdateText, COMDAT
; _this$ = ecx

; 232  : {

	push	ebp
	mov	ebp, esp
	sub	esp, 204				; 000000ccH
	push	ebx
	push	esi
	push	edi
	push	ecx
	lea	edi, DWORD PTR [ebp-204]
	mov	ecx, 51					; 00000033H
	mov	eax, -858993460				; ccccccccH
	rep stosd
	pop	ecx
	mov	DWORD PTR _this$[ebp], ecx

; 233  : 	// TODO: If this is a RICHEDIT control, the control will not
; 234  : 	// send this notification unless you override the CDialog::OnInitDialog()
; 235  : 	// function to send the EM_SETEVENTMASK message to the control
; 236  : 	// with the ENM_UPDATE flag ORed into the lParam mask.
; 237  : 	
; 238  : 	// TODO: Add your control notification handler code here
; 239  : 	
; 240  : }

	pop	edi
	pop	esi
	pop	ebx
	mov	esp, ebp
	pop	ebp
	ret	0
?OnUpdateText@CRegTextEdit@@IAEXXZ ENDP			; CRegTextEdit::OnUpdateText
_TEXT	ENDS
EXTRN	?DoBold@RTFFuncs@@QAEXH@Z:NEAR			; RTFFuncs::DoBold
; Function compile flags: /Odt /RTCcsu /ZI
;	COMDAT ?OnBold@CRegTextEdit@@IAEXXZ
_TEXT	SEGMENT
_this$ = -8						; size = 4
?OnBold@CRegTextEdit@@IAEXXZ PROC NEAR			; CRegTextEdit::OnBold, COMDAT
; _this$ = ecx

; 243  : {

	push	ebp
	mov	ebp, esp
	sub	esp, 204				; 000000ccH
	push	ebx
	push	esi
	push	edi
	push	ecx
	lea	edi, DWORD PTR [ebp-204]
	mov	ecx, 51					; 00000033H
	mov	eax, -858993460				; ccccccccH
	rep stosd
	pop	ecx
	mov	DWORD PTR _this$[ebp], ecx

; 244  : 	// TODO: Add your command handler code here
; 245  : 	pFuncs->DoBold(IDC_TEXT);

	push	1004					; 000003ecH
	mov	eax, DWORD PTR _this$[ebp]
	mov	ecx, DWORD PTR [eax+396]
	call	?DoBold@RTFFuncs@@QAEXH@Z		; RTFFuncs::DoBold

; 246  : }

	pop	edi
	pop	esi
	pop	ebx
	add	esp, 204				; 000000ccH
	cmp	ebp, esp
	call	__RTC_CheckEsp
	mov	esp, ebp
	pop	ebp
	ret	0
?OnBold@CRegTextEdit@@IAEXXZ ENDP			; CRegTextEdit::OnBold
; Function compile flags: /Odt /RTCcsu /ZI
_TEXT	ENDS
;	COMDAT ?OnUpdateBold@CRegTextEdit@@IAEXPAVCCmdUI@@@Z
_TEXT	SEGMENT
_this$ = -8						; size = 4
_pCmdUI$ = 8						; size = 4
?OnUpdateBold@CRegTextEdit@@IAEXPAVCCmdUI@@@Z PROC NEAR	; CRegTextEdit::OnUpdateBold, COMDAT
; _this$ = ecx

; 249  : {

	push	ebp
	mov	ebp, esp
	sub	esp, 204				; 000000ccH
	push	ebx
	push	esi
	push	edi
	push	ecx
	lea	edi, DWORD PTR [ebp-204]
	mov	ecx, 51					; 00000033H
	mov	eax, -858993460				; ccccccccH
	rep stosd
	pop	ecx
	mov	DWORD PTR _this$[ebp], ecx

; 250  : 	// TODO: Add your command update UI handler code here
; 251  : 	pCmdUI->Enable();

	mov	esi, esp
	push	1
	mov	eax, DWORD PTR _pCmdUI$[ebp]
	mov	edx, DWORD PTR [eax]
	mov	ecx, DWORD PTR _pCmdUI$[ebp]
	call	DWORD PTR [edx]
	cmp	esi, esp
	call	__RTC_CheckEsp

; 252  : }

	pop	edi
	pop	esi
	pop	ebx
	add	esp, 204				; 000000ccH
	cmp	ebp, esp
	call	__RTC_CheckEsp
	mov	esp, ebp
	pop	ebp
	ret	4
?OnUpdateBold@CRegTextEdit@@IAEXPAVCCmdUI@@@Z ENDP	; CRegTextEdit::OnUpdateBold
_TEXT	ENDS
EXTRN	?DoHeading@RTFFuncs@@QAEXH@Z:NEAR		; RTFFuncs::DoHeading
; Function compile flags: /Odt /RTCcsu /ZI
;	COMDAT ?OnHead@CRegTextEdit@@IAEXXZ
_TEXT	SEGMENT
_this$ = -8						; size = 4
?OnHead@CRegTextEdit@@IAEXXZ PROC NEAR			; CRegTextEdit::OnHead, COMDAT
; _this$ = ecx

; 255  : {

	push	ebp
	mov	ebp, esp
	sub	esp, 204				; 000000ccH
	push	ebx
	push	esi
	push	edi
	push	ecx
	lea	edi, DWORD PTR [ebp-204]
	mov	ecx, 51					; 00000033H
	mov	eax, -858993460				; ccccccccH
	rep stosd
	pop	ecx
	mov	DWORD PTR _this$[ebp], ecx

; 256  : 	// TODO: Add your command handler code here
; 257  : 	pFuncs->DoHeading(IDC_TEXT);

	push	1004					; 000003ecH
	mov	eax, DWORD PTR _this$[ebp]
	mov	ecx, DWORD PTR [eax+396]
	call	?DoHeading@RTFFuncs@@QAEXH@Z		; RTFFuncs::DoHeading

; 258  : }

	pop	edi
	pop	esi
	pop	ebx
	add	esp, 204				; 000000ccH
	cmp	ebp, esp
	call	__RTC_CheckEsp
	mov	esp, ebp
	pop	ebp
	ret	0
?OnHead@CRegTextEdit@@IAEXXZ ENDP			; CRegTextEdit::OnHead
; Function compile flags: /Odt /RTCcsu /ZI
_TEXT	ENDS
;	COMDAT ?OnUpdateHead@CRegTextEdit@@IAEXPAVCCmdUI@@@Z
_TEXT	SEGMENT
_this$ = -8						; size = 4
_pCmdUI$ = 8						; size = 4
?OnUpdateHead@CRegTextEdit@@IAEXPAVCCmdUI@@@Z PROC NEAR	; CRegTextEdit::OnUpdateHead, COMDAT
; _this$ = ecx

; 261  : {

	push	ebp
	mov	ebp, esp
	sub	esp, 204				; 000000ccH
	push	ebx
	push	esi
	push	edi
	push	ecx
	lea	edi, DWORD PTR [ebp-204]
	mov	ecx, 51					; 00000033H
	mov	eax, -858993460				; ccccccccH
	rep stosd
	pop	ecx
	mov	DWORD PTR _this$[ebp], ecx

; 262  : 	// TODO: Add your command update UI handler code here
; 263  : 	pCmdUI->Enable();

	mov	esi, esp
	push	1
	mov	eax, DWORD PTR _pCmdUI$[ebp]
	mov	edx, DWORD PTR [eax]
	mov	ecx, DWORD PTR _pCmdUI$[ebp]
	call	DWORD PTR [edx]
	cmp	esi, esp
	call	__RTC_CheckEsp

; 264  : }

	pop	edi
	pop	esi
	pop	ebx
	add	esp, 204				; 000000ccH
	cmp	ebp, esp
	call	__RTC_CheckEsp
	mov	esp, ebp
	pop	ebp
	ret	4
?OnUpdateHead@CRegTextEdit@@IAEXPAVCCmdUI@@@Z ENDP	; CRegTextEdit::OnUpdateHead
_TEXT	ENDS
EXTRN	?DoItalic@RTFFuncs@@QAEXH@Z:NEAR		; RTFFuncs::DoItalic
; Function compile flags: /Odt /RTCcsu /ZI
;	COMDAT ?OnItal@CRegTextEdit@@IAEXXZ
_TEXT	SEGMENT
_this$ = -8						; size = 4
?OnItal@CRegTextEdit@@IAEXXZ PROC NEAR			; CRegTextEdit::OnItal, COMDAT
; _this$ = ecx

; 267  : {

	push	ebp
	mov	ebp, esp
	sub	esp, 204				; 000000ccH
	push	ebx
	push	esi
	push	edi
	push	ecx
	lea	edi, DWORD PTR [ebp-204]
	mov	ecx, 51					; 00000033H
	mov	eax, -858993460				; ccccccccH
	rep stosd
	pop	ecx
	mov	DWORD PTR _this$[ebp], ecx

; 268  : 	// TODO: Add your command handler code here
; 269  : 	pFuncs->DoItalic(IDC_TEXT);

	push	1004					; 000003ecH
	mov	eax, DWORD PTR _this$[ebp]
	mov	ecx, DWORD PTR [eax+396]
	call	?DoItalic@RTFFuncs@@QAEXH@Z		; RTFFuncs::DoItalic

; 270  : }

	pop	edi
	pop	esi
	pop	ebx
	add	esp, 204				; 000000ccH
	cmp	ebp, esp
	call	__RTC_CheckEsp
	mov	esp, ebp
	pop	ebp
	ret	0
?OnItal@CRegTextEdit@@IAEXXZ ENDP			; CRegTextEdit::OnItal
; Function compile flags: /Odt /RTCcsu /ZI
_TEXT	ENDS
;	COMDAT ?OnUpdateItal@CRegTextEdit@@IAEXPAVCCmdUI@@@Z
_TEXT	SEGMENT
_this$ = -8						; size = 4
_pCmdUI$ = 8						; size = 4
?OnUpdateItal@CRegTextEdit@@IAEXPAVCCmdUI@@@Z PROC NEAR	; CRegTextEdit::OnUpdateItal, COMDAT
; _this$ = ecx

; 273  : {

	push	ebp
	mov	ebp, esp
	sub	esp, 204				; 000000ccH
	push	ebx
	push	esi
	push	edi
	push	ecx
	lea	edi, DWORD PTR [ebp-204]
	mov	ecx, 51					; 00000033H
	mov	eax, -858993460				; ccccccccH
	rep stosd
	pop	ecx
	mov	DWORD PTR _this$[ebp], ecx

; 274  : 	// TODO: Add your command update UI handler code here
; 275  : 	pCmdUI->Enable();

	mov	esi, esp
	push	1
	mov	eax, DWORD PTR _pCmdUI$[ebp]
	mov	edx, DWORD PTR [eax]
	mov	ecx, DWORD PTR _pCmdUI$[ebp]
	call	DWORD PTR [edx]
	cmp	esi, esp
	call	__RTC_CheckEsp

; 276  : }

	pop	edi
	pop	esi
	pop	ebx
	add	esp, 204				; 000000ccH
	cmp	ebp, esp
	call	__RTC_CheckEsp
	mov	esp, ebp
	pop	ebp
	ret	4
?OnUpdateItal@CRegTextEdit@@IAEXPAVCCmdUI@@@Z ENDP	; CRegTextEdit::OnUpdateItal
_TEXT	ENDS
EXTRN	?DoUnBold@RTFFuncs@@QAEXH@Z:NEAR		; RTFFuncs::DoUnBold
; Function compile flags: /Odt /RTCcsu /ZI
;	COMDAT ?OnUnbold@CRegTextEdit@@IAEXXZ
_TEXT	SEGMENT
_this$ = -8						; size = 4
?OnUnbold@CRegTextEdit@@IAEXXZ PROC NEAR		; CRegTextEdit::OnUnbold, COMDAT
; _this$ = ecx

; 279  : {

	push	ebp
	mov	ebp, esp
	sub	esp, 204				; 000000ccH
	push	ebx
	push	esi
	push	edi
	push	ecx
	lea	edi, DWORD PTR [ebp-204]
	mov	ecx, 51					; 00000033H
	mov	eax, -858993460				; ccccccccH
	rep stosd
	pop	ecx
	mov	DWORD PTR _this$[ebp], ecx

; 280  : 	// TODO: Add your command handler code here
; 281  : 	pFuncs->DoUnBold(IDC_TEXT);

	push	1004					; 000003ecH
	mov	eax, DWORD PTR _this$[ebp]
	mov	ecx, DWORD PTR [eax+396]
	call	?DoUnBold@RTFFuncs@@QAEXH@Z		; RTFFuncs::DoUnBold

; 282  : }

	pop	edi
	pop	esi
	pop	ebx
	add	esp, 204				; 000000ccH
	cmp	ebp, esp
	call	__RTC_CheckEsp
	mov	esp, ebp
	pop	ebp
	ret	0
?OnUnbold@CRegTextEdit@@IAEXXZ ENDP			; CRegTextEdit::OnUnbold
; Function compile flags: /Odt /RTCcsu /ZI
_TEXT	ENDS
;	COMDAT ?OnUpdateUnbold@CRegTextEdit@@IAEXPAVCCmdUI@@@Z
_TEXT	SEGMENT
_this$ = -8						; size = 4
_pCmdUI$ = 8						; size = 4
?OnUpdateUnbold@CRegTextEdit@@IAEXPAVCCmdUI@@@Z PROC NEAR ; CRegTextEdit::OnUpdateUnbold, COMDAT
; _this$ = ecx

; 285  : {

	push	ebp
	mov	ebp, esp
	sub	esp, 204				; 000000ccH
	push	ebx
	push	esi
	push	edi
	push	ecx
	lea	edi, DWORD PTR [ebp-204]
	mov	ecx, 51					; 00000033H
	mov	eax, -858993460				; ccccccccH
	rep stosd
	pop	ecx
	mov	DWORD PTR _this$[ebp], ecx

; 286  : 	// TODO: Add your command update UI handler code here
; 287  : 	pCmdUI->Enable();

	mov	esi, esp
	push	1
	mov	eax, DWORD PTR _pCmdUI$[ebp]
	mov	edx, DWORD PTR [eax]
	mov	ecx, DWORD PTR _pCmdUI$[ebp]
	call	DWORD PTR [edx]
	cmp	esi, esp
	call	__RTC_CheckEsp

; 288  : }

	pop	edi
	pop	esi
	pop	ebx
	add	esp, 204				; 000000ccH
	cmp	ebp, esp
	call	__RTC_CheckEsp
	mov	esp, ebp
	pop	ebp
	ret	4
?OnUpdateUnbold@CRegTextEdit@@IAEXPAVCCmdUI@@@Z ENDP	; CRegTextEdit::OnUpdateUnbold
_TEXT	ENDS
EXTRN	?DoUnHeading@RTFFuncs@@QAEXH@Z:NEAR		; RTFFuncs::DoUnHeading
; Function compile flags: /Odt /RTCcsu /ZI
;	COMDAT ?OnUnheading@CRegTextEdit@@IAEXXZ
_TEXT	SEGMENT
_this$ = -8						; size = 4
?OnUnheading@CRegTextEdit@@IAEXXZ PROC NEAR		; CRegTextEdit::OnUnheading, COMDAT
; _this$ = ecx

; 291  : {

	push	ebp
	mov	ebp, esp
	sub	esp, 204				; 000000ccH
	push	ebx
	push	esi
	push	edi
	push	ecx
	lea	edi, DWORD PTR [ebp-204]
	mov	ecx, 51					; 00000033H
	mov	eax, -858993460				; ccccccccH
	rep stosd
	pop	ecx
	mov	DWORD PTR _this$[ebp], ecx

; 292  : 	// TODO: Add your command handler code here
; 293  : 	pFuncs->DoUnHeading(IDC_TEXT);

	push	1004					; 000003ecH
	mov	eax, DWORD PTR _this$[ebp]
	mov	ecx, DWORD PTR [eax+396]
	call	?DoUnHeading@RTFFuncs@@QAEXH@Z		; RTFFuncs::DoUnHeading

; 294  : }

	pop	edi
	pop	esi
	pop	ebx
	add	esp, 204				; 000000ccH
	cmp	ebp, esp
	call	__RTC_CheckEsp
	mov	esp, ebp
	pop	ebp
	ret	0
?OnUnheading@CRegTextEdit@@IAEXXZ ENDP			; CRegTextEdit::OnUnheading
; Function compile flags: /Odt /RTCcsu /ZI
_TEXT	ENDS
;	COMDAT ?OnUpdateUnheading@CRegTextEdit@@IAEXPAVCCmdUI@@@Z
_TEXT	SEGMENT
_this$ = -8						; size = 4
_pCmdUI$ = 8						; size = 4
?OnUpdateUnheading@CRegTextEdit@@IAEXPAVCCmdUI@@@Z PROC NEAR ; CRegTextEdit::OnUpdateUnheading, COMDAT
; _this$ = ecx

; 297  : {

	push	ebp
	mov	ebp, esp
	sub	esp, 204				; 000000ccH
	push	ebx
	push	esi
	push	edi
	push	ecx
	lea	edi, DWORD PTR [ebp-204]
	mov	ecx, 51					; 00000033H
	mov	eax, -858993460				; ccccccccH
	rep stosd
	pop	ecx
	mov	DWORD PTR _this$[ebp], ecx

; 298  : 	// TODO: Add your command update UI handler code here
; 299  : 	pCmdUI->Enable();

	mov	esi, esp
	push	1
	mov	eax, DWORD PTR _pCmdUI$[ebp]
	mov	edx, DWORD PTR [eax]
	mov	ecx, DWORD PTR _pCmdUI$[ebp]
	call	DWORD PTR [edx]
	cmp	esi, esp
	call	__RTC_CheckEsp

; 300  : }

	pop	edi
	pop	esi
	pop	ebx
	add	esp, 204				; 000000ccH
	cmp	ebp, esp
	call	__RTC_CheckEsp
	mov	esp, ebp
	pop	ebp
	ret	4
?OnUpdateUnheading@CRegTextEdit@@IAEXPAVCCmdUI@@@Z ENDP	; CRegTextEdit::OnUpdateUnheading
_TEXT	ENDS
EXTRN	?DoUnItalic@RTFFuncs@@QAEXH@Z:NEAR		; RTFFuncs::DoUnItalic
; Function compile flags: /Odt /RTCcsu /ZI
;	COMDAT ?OnUnitalic@CRegTextEdit@@IAEXXZ
_TEXT	SEGMENT
_this$ = -8						; size = 4
?OnUnitalic@CRegTextEdit@@IAEXXZ PROC NEAR		; CRegTextEdit::OnUnitalic, COMDAT
; _this$ = ecx

; 303  : {

	push	ebp
	mov	ebp, esp
	sub	esp, 204				; 000000ccH
	push	ebx
	push	esi
	push	edi
	push	ecx
	lea	edi, DWORD PTR [ebp-204]
	mov	ecx, 51					; 00000033H
	mov	eax, -858993460				; ccccccccH
	rep stosd
	pop	ecx
	mov	DWORD PTR _this$[ebp], ecx

; 304  : 	// TODO: Add your command handler code here
; 305  : 	pFuncs->DoUnItalic(IDC_TEXT);

	push	1004					; 000003ecH
	mov	eax, DWORD PTR _this$[ebp]
	mov	ecx, DWORD PTR [eax+396]
	call	?DoUnItalic@RTFFuncs@@QAEXH@Z		; RTFFuncs::DoUnItalic

; 306  : }

	pop	edi
	pop	esi
	pop	ebx
	add	esp, 204				; 000000ccH
	cmp	ebp, esp
	call	__RTC_CheckEsp
	mov	esp, ebp
	pop	ebp
	ret	0
?OnUnitalic@CRegTextEdit@@IAEXXZ ENDP			; CRegTextEdit::OnUnitalic
; Function compile flags: /Odt /RTCcsu /ZI
_TEXT	ENDS
;	COMDAT ?OnUpdateUnitalic@CRegTextEdit@@IAEXPAVCCmdUI@@@Z
_TEXT	SEGMENT
_this$ = -8						; size = 4
_pCmdUI$ = 8						; size = 4
?OnUpdateUnitalic@CRegTextEdit@@IAEXPAVCCmdUI@@@Z PROC NEAR ; CRegTextEdit::OnUpdateUnitalic, COMDAT
; _this$ = ecx

; 309  : {

	push	ebp
	mov	ebp, esp
	sub	esp, 204				; 000000ccH
	push	ebx
	push	esi
	push	edi
	push	ecx
	lea	edi, DWORD PTR [ebp-204]
	mov	ecx, 51					; 00000033H
	mov	eax, -858993460				; ccccccccH
	rep stosd
	pop	ecx
	mov	DWORD PTR _this$[ebp], ecx

; 310  : 	// TODO: Add your command update UI handler code here
; 311  : 	pCmdUI->Enable();

	mov	esi, esp
	push	1
	mov	eax, DWORD PTR _pCmdUI$[ebp]
	mov	edx, DWORD PTR [eax]
	mov	ecx, DWORD PTR _pCmdUI$[ebp]
	call	DWORD PTR [edx]
	cmp	esi, esp
	call	__RTC_CheckEsp

; 312  : }

	pop	edi
	pop	esi
	pop	ebx
	add	esp, 204				; 000000ccH
	cmp	ebp, esp
	call	__RTC_CheckEsp
	mov	esp, ebp
	pop	ebp
	ret	4
?OnUpdateUnitalic@CRegTextEdit@@IAEXPAVCCmdUI@@@Z ENDP	; CRegTextEdit::OnUpdateUnitalic
_TEXT	ENDS
PUBLIC	??B?$CSimpleStringT@G$0A@@ATL@@QBEPBGXZ		; ATL::CSimpleStringT<unsigned short,0>::operator unsigned short const *
PUBLIC	??_C@_1O@MJNGOMNI@?$AA?$CF?$AAl?$AA?$FL?$AA?$FO?$AA?9?$AA?$FN?$AA?$AA@ ; `string'
PUBLIC	??_C@_1LI@ONJLPHCF@?$AAs?$AAe?$AAl?$AAe?$AAc?$AAt?$AA?5?$AA?$CK?$AA?5?$AAf?$AAr?$AAo?$AAm?$AA?5?$AAR?$AAe?$AAg?$AAu?$AAl?$AAa@ ; `string'
PUBLIC	??_R0PAVCDaoException@@@8			; CDaoException * `RTTI Type Descriptor'
PUBLIC	??_C@_1CE@OOAKNAGM@?$AAE?$AAr?$AAr?$AAo?$AAr?$AA?5?$AAo?$AAn?$AA?5?$AAD?$AAa?$AAt?$AAa?$AAb?$AAa?$AAs?$AAe?$AA?$AA@ ; `string'
PUBLIC	??0?$CStringT@GV?$StrTraitMFC@GV?$ChTraitsCRT@G@ATL@@@@@ATL@@QAE@ABV01@@Z ; ATL::CStringT<unsigned short,StrTraitMFC<unsigned short,ATL::ChTraitsCRT<unsigned short> > >::CStringT<unsigned short,StrTraitMFC<unsigned short,ATL::ChTraitsCRT<unsigned short> > >
EXTRN	?SetRTF@RTFFuncs@@QAEXHAAV?$CStringT@GV?$StrTraitMFC@GV?$ChTraitsCRT@G@ATL@@@@@ATL@@@Z:NEAR ; RTFFuncs::SetRTF
EXTRN	?NewRTF@RTFFuncs@@QAEXH@Z:NEAR			; RTFFuncs::NewRTF
EXTRN	_swprintf:NEAR
EXTRN	??_7type_info@@6B@:DWORD			; type_info::`vftable'
EXTRN	_swscanf:NEAR
EXTRN	?alert_box@@YAHPAGPBGZZ:NEAR			; alert_box
EXTRN	?GetCurLanguage@@YAAAV?$CStringT@GV?$StrTraitMFC@GV?$ChTraitsCRT@G@ATL@@@@@ATL@@XZ:NEAR ; GetCurLanguage
EXTRN	?IsOpen@CDaoRecordset@@QBEHXZ:NEAR		; CDaoRecordset::IsOpen
EXTRN	?IsEOF@CDaoRecordset@@QBEHXZ:NEAR		; CDaoRecordset::IsEOF
EXTRN	?Invalidate@CWnd@@QAEXH@Z:NEAR			; CWnd::Invalidate
;	COMDAT xdata$x
xdata$x	SEGMENT
__unwindtable$?Find@CRegTextEdit@@IAEHXZ DD 0ffffffffH
	DD	00H
	DD	00H
	DD	FLAT:__unwindfunclet$?Find@CRegTextEdit@@IAEHXZ$2
	DD	0ffffffffH
	DD	00H
__catchsym$?Find@CRegTextEdit@@IAEHXZ$3 DD 00H
	DD	FLAT:??_R0PAVCDaoException@@@8
	DD	0fffffa60H
	DD	FLAT:__catch$?Find@CRegTextEdit@@IAEHXZ$0
__tryblocktable$?Find@CRegTextEdit@@IAEHXZ DD 00H
	DD	01H
	DD	02H
	DD	01H
	DD	FLAT:__catchsym$?Find@CRegTextEdit@@IAEHXZ$3
__ehfuncinfo$?Find@CRegTextEdit@@IAEHXZ DD 019930520H
	DD	03H
	DD	FLAT:__unwindtable$?Find@CRegTextEdit@@IAEHXZ
	DD	01H
	DD	FLAT:__tryblocktable$?Find@CRegTextEdit@@IAEHXZ
	DD	2 DUP(00H)
xdata$x	ENDS
;	COMDAT ??_C@_1O@MJNGOMNI@?$AA?$CF?$AAl?$AA?$FL?$AA?$FO?$AA?9?$AA?$FN?$AA?$AA@
CONST	SEGMENT
??_C@_1O@MJNGOMNI@?$AA?$CF?$AAl?$AA?$FL?$AA?$FO?$AA?9?$AA?$FN?$AA?$AA@ DB '%'
	DB	00H, 'l', 00H, '[', 00H, '^', 00H, '-', 00H, ']', 00H, 00H, 00H ; `string'
CONST	ENDS
;	COMDAT ??_C@_1LI@ONJLPHCF@?$AAs?$AAe?$AAl?$AAe?$AAc?$AAt?$AA?5?$AA?$CK?$AA?5?$AAf?$AAr?$AAo?$AAm?$AA?5?$AAR?$AAe?$AAg?$AAu?$AAl?$AAa@
CONST	SEGMENT
??_C@_1LI@ONJLPHCF@?$AAs?$AAe?$AAl?$AAe?$AAc?$AAt?$AA?5?$AA?$CK?$AA?5?$AAf?$AAr?$AAo?$AAm?$AA?5?$AAR?$AAe?$AAg?$AAu?$AAl?$AAa@ DB 's'
	DB	00H, 'e', 00H, 'l', 00H, 'e', 00H, 'c', 00H, 't', 00H, ' ', 00H
	DB	'*', 00H, ' ', 00H, 'f', 00H, 'r', 00H, 'o', 00H, 'm', 00H, ' '
	DB	00H, 'R', 00H, 'e', 00H, 'g', 00H, 'u', 00H, 'l', 00H, 'a', 00H
	DB	'r', 00H, 'T', 00H, 'e', 00H, 'x', 00H, 't', 00H, ' ', 00H, 'w'
	DB	00H, 'h', 00H, 'e', 00H, 'r', 00H, 'e', 00H, ' ', 00H, 'K', 00H
	DB	'e', 00H, 'y', 00H, '1', 00H, '=', 00H, '''', 00H, '%', 00H, 'l'
	DB	00H, 's', 00H, '''', 00H, ' ', 00H, 'a', 00H, 'n', 00H, 'd', 00H
	DB	' ', 00H, 'K', 00H, 'e', 00H, 'y', 00H, '2', 00H, '=', 00H, ''''
	DB	00H, '%', 00H, 'l', 00H, 's', 00H, '''', 00H, ' ', 00H, 'a', 00H
	DB	'n', 00H, 'd', 00H, ' ', 00H, 'T', 00H, 'e', 00H, 'x', 00H, 't'
	DB	00H, 'T', 00H, 'y', 00H, 'p', 00H, 'e', 00H, '=', 00H, '''', 00H
	DB	'%', 00H, 'l', 00H, 's', 00H, '''', 00H, ' ', 00H, 'a', 00H, 'n'
	DB	00H, 'd', 00H, ' ', 00H, 'L', 00H, 'a', 00H, 'n', 00H, 'g', 00H
	DB	'=', 00H, '''', 00H, '%', 00H, 'l', 00H, 's', 00H, '''', 00H, 00H
	DB	00H						; `string'
CONST	ENDS
;	COMDAT ??_C@_1CE@OOAKNAGM@?$AAE?$AAr?$AAr?$AAo?$AAr?$AA?5?$AAo?$AAn?$AA?5?$AAD?$AAa?$AAt?$AAa?$AAb?$AAa?$AAs?$AAe?$AA?$AA@
CONST	SEGMENT
??_C@_1CE@OOAKNAGM@?$AAE?$AAr?$AAr?$AAo?$AAr?$AA?5?$AAo?$AAn?$AA?5?$AAD?$AAa?$AAt?$AAa?$AAb?$AAa?$AAs?$AAe?$AA?$AA@ DB 'E'
	DB	00H, 'r', 00H, 'r', 00H, 'o', 00H, 'r', 00H, ' ', 00H, 'o', 00H
	DB	'n', 00H, ' ', 00H, 'D', 00H, 'a', 00H, 't', 00H, 'a', 00H, 'b'
	DB	00H, 'a', 00H, 's', 00H, 'e', 00H, 00H, 00H	; `string'
CONST	ENDS
;	COMDAT ??_R0PAVCDaoException@@@8
_DATA	SEGMENT
??_R0PAVCDaoException@@@8 DD FLAT:??_7type_info@@6B@	; CDaoException * `RTTI Type Descriptor'
	DD	00H
	DB	'.PAVCDaoException@@', 00H
; Function compile flags: /Odt /RTCcsu /ZI
_DATA	ENDS
;	COMDAT ?Find@CRegTextEdit@@IAEHXZ
_TEXT	SEGMENT
tv173 = -1656						; size = 4
tv175 = -1652						; size = 4
tv174 = -1652						; size = 4
tv172 = -1652						; size = 4
$T94488 = -1644						; size = 4
_e$94040 = -1440					; size = 4
_Lang$94030 = -1428					; size = 4
_key2$ = -1416						; size = 50
_key1$ = -1356						; size = 50
_sqlbuf$ = -1296					; size = 250
_errbuf$ = -1036					; size = 1000
_this$ = -28						; size = 4
__$ArrayPad$ = -20					; size = 4
__$EHRec$ = -16						; size = 16
__$ReturnAddr$ = 4					; size = 4
?Find@CRegTextEdit@@IAEHXZ PROC NEAR			; CRegTextEdit::Find, COMDAT
; _this$ = ecx

; 315  : {

	push	ebp
	mov	ebp, esp
	push	-1
	push	__ehhandler$?Find@CRegTextEdit@@IAEHXZ
	mov	eax, DWORD PTR fs:__except_list
	push	eax
	mov	DWORD PTR fs:__except_list, esp
	push	ecx
	sub	esp, 1640				; 00000668H
	push	ebx
	push	esi
	push	edi
	push	ecx
	lea	edi, DWORD PTR [ebp-1656]
	mov	ecx, 410				; 0000019aH
	mov	eax, -858993460				; ccccccccH
	rep stosd
	pop	ecx
	mov	eax, DWORD PTR ___security_cookie
	mov	DWORD PTR __$ArrayPad$[ebp], eax
	mov	DWORD PTR __$EHRec$[ebp], esp
	mov	DWORD PTR _this$[ebp], ecx

; 316  : TCHAR errbuf[500], sqlbuf[125], key1[25], key2[25];
; 317  : try {

	mov	DWORD PTR __$EHRec$[ebp+12], 0

; 318  : 	CString Lang = GetCurLanguage();

	call	?GetCurLanguage@@YAAAV?$CStringT@GV?$StrTraitMFC@GV?$ChTraitsCRT@G@ATL@@@@@ATL@@XZ ; GetCurLanguage
	mov	DWORD PTR tv172[ebp], eax
	mov	eax, DWORD PTR tv172[ebp]
	push	eax
	lea	ecx, DWORD PTR _Lang$94030[ebp]
	call	??0?$CStringT@GV?$StrTraitMFC@GV?$ChTraitsCRT@G@ATL@@@@@ATL@@QAE@ABV01@@Z ; ATL::CStringT<unsigned short,StrTraitMFC<unsigned short,ATL::ChTraitsCRT<unsigned short> > >::CStringT<unsigned short,StrTraitMFC<unsigned short,ATL::ChTraitsCRT<unsigned short> > >
	mov	DWORD PTR tv173[ebp], eax
	mov	BYTE PTR __$EHRec$[ebp+12], 1

; 319  : #ifdef _UNICODE    
; 320  : 	_stscanf((LPCTSTR)m_Key1Str,_T("%l[^-]"), key1 );

	lea	eax, DWORD PTR _key1$[ebp]
	push	eax
	push	OFFSET FLAT:??_C@_1O@MJNGOMNI@?$AA?$CF?$AAl?$AA?$FL?$AA?$FO?$AA?9?$AA?$FN?$AA?$AA@
	mov	ecx, DWORD PTR _this$[ebp]
	add	ecx, 208				; 000000d0H
	call	??B?$CSimpleStringT@G$0A@@ATL@@QBEPBGXZ	; ATL::CSimpleStringT<unsigned short,0>::operator unsigned short const *
	push	eax
	call	_swscanf
	add	esp, 12					; 0000000cH

; 321  : 	_stscanf((LPCTSTR)m_Key2Str,_T("%l[^-]"), key2 );

	lea	eax, DWORD PTR _key2$[ebp]
	push	eax
	push	OFFSET FLAT:??_C@_1O@MJNGOMNI@?$AA?$CF?$AAl?$AA?$FL?$AA?$FO?$AA?9?$AA?$FN?$AA?$AA@
	mov	ecx, DWORD PTR _this$[ebp]
	add	ecx, 212				; 000000d4H
	call	??B?$CSimpleStringT@G$0A@@ATL@@QBEPBGXZ	; ATL::CSimpleStringT<unsigned short,0>::operator unsigned short const *
	push	eax
	call	_swscanf
	add	esp, 12					; 0000000cH

; 322  : 	_stprintf( sqlbuf, _T("select * from RegularText where Key1='%ls' and Key2='%ls' and TextType='%ls' and Lang='%ls'"),
; 323  :       key1, key2, (LPCTSTR)m_TextType, (LPCTSTR)Lang );

	lea	ecx, DWORD PTR _Lang$94030[ebp]
	call	??B?$CSimpleStringT@G$0A@@ATL@@QBEPBGXZ	; ATL::CSimpleStringT<unsigned short,0>::operator unsigned short const *
	push	eax
	mov	ecx, DWORD PTR _this$[ebp]
	add	ecx, 204				; 000000ccH
	call	??B?$CSimpleStringT@G$0A@@ATL@@QBEPBGXZ	; ATL::CSimpleStringT<unsigned short,0>::operator unsigned short const *
	push	eax
	lea	eax, DWORD PTR _key2$[ebp]
	push	eax
	lea	ecx, DWORD PTR _key1$[ebp]
	push	ecx
	push	OFFSET FLAT:??_C@_1LI@ONJLPHCF@?$AAs?$AAe?$AAl?$AAe?$AAc?$AAt?$AA?5?$AA?$CK?$AA?5?$AAf?$AAr?$AAo?$AAm?$AA?5?$AAR?$AAe?$AAg?$AAu?$AAl?$AAa@
	lea	edx, DWORD PTR _sqlbuf$[ebp]
	push	edx
	call	_swprintf
	add	esp, 24					; 00000018H

; 324  : #else
; 325  :     sscanf((LPCTSTR)m_Key1Str,"%[^-]", key1 );
; 326  : 	sscanf((LPCTSTR)m_Key2Str,"%[^-]", key2 );
; 327  : 	sprintf( sqlbuf, "select * from RegularText where Key1='%s' and Key2='%s' and TextType='%s'",
; 328  :       key1, key2, (LPCTSTR)m_TextType );
; 329  : #endif
; 330  : 	if ( theSet.IsOpen() )

	mov	ecx, DWORD PTR _this$[ebp]
	add	ecx, 216				; 000000d8H
	call	?IsOpen@CDaoRecordset@@QBEHXZ		; CDaoRecordset::IsOpen
	mov	DWORD PTR tv174[ebp], eax
	cmp	DWORD PTR tv174[ebp], 0
	je	SHORT $L94037

; 331  : 	   theSet.Close();

	mov	ecx, DWORD PTR _this$[ebp]
	add	ecx, 216				; 000000d8H
	mov	esi, esp
	mov	eax, DWORD PTR _this$[ebp]
	mov	edx, DWORD PTR [eax+216]
	call	DWORD PTR [edx+32]
	cmp	esi, esp
	call	__RTC_CheckEsp
$L94037:

; 332  :    theSet.Open(dbOpenDynaset,sqlbuf);

	mov	esi, esp
	push	0
	lea	eax, DWORD PTR _sqlbuf$[ebp]
	push	eax
	push	2
	mov	ecx, DWORD PTR _this$[ebp]
	add	ecx, 216				; 000000d8H
	mov	edx, DWORD PTR _this$[ebp]
	mov	eax, DWORD PTR [edx+216]
	call	DWORD PTR [eax+28]
	cmp	esi, esp
	call	__RTC_CheckEsp

; 333  :    if ( theSet.IsEOF() )

	mov	ecx, DWORD PTR _this$[ebp]
	add	ecx, 216				; 000000d8H
	call	?IsEOF@CDaoRecordset@@QBEHXZ		; CDaoRecordset::IsEOF
	mov	DWORD PTR tv175[ebp], eax
	cmp	DWORD PTR tv175[ebp], 0
	je	SHORT $L94038

; 334  : 	   pFuncs->NewRTF(IDC_TEXT);

	push	1004					; 000003ecH
	mov	eax, DWORD PTR _this$[ebp]
	mov	ecx, DWORD PTR [eax+396]
	call	?NewRTF@RTFFuncs@@QAEXH@Z		; RTFFuncs::NewRTF

; 335  :    else

	jmp	SHORT $L94039
$L94038:

; 336  :       pFuncs->SetRTF(IDC_TEXT, theSet.m_Text );

	mov	eax, DWORD PTR _this$[ebp]
	add	eax, 384				; 00000180H
	push	eax
	push	1004					; 000003ecH
	mov	ecx, DWORD PTR _this$[ebp]
	mov	ecx, DWORD PTR [ecx+396]
	call	?SetRTF@RTFFuncs@@QAEXHAAV?$CStringT@GV?$StrTraitMFC@GV?$ChTraitsCRT@G@ATL@@@@@ATL@@@Z ; RTFFuncs::SetRTF
$L94039:

; 337  :    Invalidate();

	push	1
	mov	ecx, DWORD PTR _this$[ebp]
	call	?Invalidate@CWnd@@QAEXH@Z		; CWnd::Invalidate

; 338  :  }

	mov	BYTE PTR __$EHRec$[ebp+12], 0
	lea	ecx, DWORD PTR _Lang$94030[ebp]
	call	??1?$CStringT@GV?$StrTraitMFC@GV?$ChTraitsCRT@G@ATL@@@@@ATL@@QAE@XZ ; ATL::CStringT<unsigned short,StrTraitMFC<unsigned short,ATL::ChTraitsCRT<unsigned short> > >::~CStringT<unsigned short,StrTraitMFC<unsigned short,ATL::ChTraitsCRT<unsigned short> > >
	jmp	SHORT $L94489
__catch$?Find@CRegTextEdit@@IAEHXZ$0:

; 339  :  catch ( CDaoException *e ) {
; 340  :    e->GetErrorMessage(errbuf,499);

	mov	esi, esp
	push	0
	push	499					; 000001f3H
	lea	eax, DWORD PTR _errbuf$[ebp]
	push	eax
	mov	ecx, DWORD PTR _e$94040[ebp]
	mov	edx, DWORD PTR [ecx]
	mov	ecx, DWORD PTR _e$94040[ebp]
	call	DWORD PTR [edx+20]
	cmp	esi, esp
	call	__RTC_CheckEsp

; 341  :    alert_box(_T("Error on Database"), errbuf );

	lea	eax, DWORD PTR _errbuf$[ebp]
	push	eax
	push	OFFSET FLAT:??_C@_1CE@OOAKNAGM@?$AAE?$AAr?$AAr?$AAo?$AAr?$AA?5?$AAo?$AAn?$AA?5?$AAD?$AAa?$AAt?$AAa?$AAb?$AAa?$AAs?$AAe?$AA?$AA@
	call	?alert_box@@YAHPAGPBGZZ			; alert_box
	add	esp, 8

; 342  :    return ( 0 );

	mov	DWORD PTR $T94488[ebp], 0
	mov	eax, $L94493
	ret	0
$L94489:

; 343  :   }

	mov	DWORD PTR __$EHRec$[ebp+12], -1

; 342  :    return ( 0 );

	jmp	SHORT __tryend$?Find@CRegTextEdit@@IAEHXZ$1
$L94493:
	mov	eax, DWORD PTR $T94488[ebp]
	jmp	SHORT $L94024
__tryend$?Find@CRegTextEdit@@IAEHXZ$1:

; 344  :  return ( 1 );

	mov	eax, 1
$L94024:

; 345  : 
; 346  : }

	push	edx
	mov	ecx, ebp
	push	eax
	lea	edx, DWORD PTR $L94505
	call	@_RTC_CheckStackVars@8
	pop	eax
	pop	edx
	mov	ecx, DWORD PTR __$EHRec$[ebp+4]
	mov	DWORD PTR fs:__except_list, ecx
	mov	ecx, DWORD PTR __$ArrayPad$[ebp]
	call	@__security_check_cookie@4
	pop	edi
	pop	esi
	pop	ebx
	add	esp, 1656				; 00000678H
	cmp	ebp, esp
	call	__RTC_CheckEsp
	mov	esp, ebp
	pop	ebp
	ret	0
$L94505:
	DD	6
	DD	$L94504
$L94504:
	DD	-1036					; fffffbf4H
	DD	1000					; 000003e8H
	DD	$L94496
	DD	-1296					; fffffaf0H
	DD	250					; 000000faH
	DD	$L94497
	DD	-1356					; fffffab4H
	DD	50					; 00000032H
	DD	$L94498
	DD	-1416					; fffffa78H
	DD	50					; 00000032H
	DD	$L94499
	DD	-1428					; fffffa6cH
	DD	4
	DD	$L94500
	DD	-1440					; fffffa60H
	DD	4
	DD	$L94501
$L94501:
	DB	101					; 00000065H
	DB	0
$L94500:
	DB	76					; 0000004cH
	DB	97					; 00000061H
	DB	110					; 0000006eH
	DB	103					; 00000067H
	DB	0
$L94499:
	DB	107					; 0000006bH
	DB	101					; 00000065H
	DB	121					; 00000079H
	DB	50					; 00000032H
	DB	0
$L94498:
	DB	107					; 0000006bH
	DB	101					; 00000065H
	DB	121					; 00000079H
	DB	49					; 00000031H
	DB	0
$L94497:
	DB	115					; 00000073H
	DB	113					; 00000071H
	DB	108					; 0000006cH
	DB	98					; 00000062H
	DB	117					; 00000075H
	DB	102					; 00000066H
	DB	0
$L94496:
	DB	101					; 00000065H
	DB	114					; 00000072H
	DB	114					; 00000072H
	DB	98					; 00000062H
	DB	117					; 00000075H
	DB	102					; 00000066H
	DB	0
_TEXT	ENDS
;	COMDAT text$x
text$x	SEGMENT
__unwindfunclet$?Find@CRegTextEdit@@IAEHXZ$2:
	lea	ecx, DWORD PTR _Lang$94030[ebp]
	jmp	??1?$CStringT@GV?$StrTraitMFC@GV?$ChTraitsCRT@G@ATL@@@@@ATL@@QAE@XZ ; ATL::CStringT<unsigned short,StrTraitMFC<unsigned short,ATL::ChTraitsCRT<unsigned short> > >::~CStringT<unsigned short,StrTraitMFC<unsigned short,ATL::ChTraitsCRT<unsigned short> > >
__ehhandler$?Find@CRegTextEdit@@IAEHXZ:
	mov	eax, OFFSET FLAT:__ehfuncinfo$?Find@CRegTextEdit@@IAEHXZ
	jmp	___CxxFrameHandler
text$x	ENDS
?Find@CRegTextEdit@@IAEHXZ ENDP				; CRegTextEdit::Find
PUBLIC	?value@CSymbol@@QAEAAHXZ			; CSymbol::value
PUBLIC	??_C@_1CK@CLAGECII@?$AAC?$AAa?$AAn?$AA?8?$AAt?$AA?5?$AAF?$AAi?$AAn?$AAd?$AA?5?$AAS?$AAy?$AAm?$AAb?$AAo?$AAl?$AA?5?$AA?$CF?$AAs@ ; `string'
PUBLIC	??_C@_1BG@NOPLIDDJ@?$AAB?$AAa?$AAd?$AA?5?$AAS?$AAy?$AAm?$AAb?$AAo?$AAl?$AA?$AA@ ; `string'
PUBLIC	??4?$CStringT@GV?$StrTraitMFC@GV?$ChTraitsCRT@G@ATL@@@@@ATL@@QAEAAV01@ABV01@@Z ; ATL::CStringT<unsigned short,StrTraitMFC<unsigned short,ATL::ChTraitsCRT<unsigned short> > >::operator=
PUBLIC	??4?$CStringT@GV?$StrTraitMFC@GV?$ChTraitsCRT@G@ATL@@@@@ATL@@QAEAAV01@PBG@Z ; ATL::CStringT<unsigned short,StrTraitMFC<unsigned short,ATL::ChTraitsCRT<unsigned short> > >::operator=
EXTRN	?GetRTF@RTFFuncs@@QAE?AV?$CStringT@GV?$StrTraitMFC@GV?$ChTraitsCRT@G@ATL@@@@@ATL@@H@Z:NEAR ; RTFFuncs::GetRTF
EXTRN	?Find@CSymbolAry@@QAEPAVCSymbol@@PBGHH@Z:NEAR	; CSymbolAry::Find
EXTRN	@_RTC_Check_4_to_2@4:NEAR
;	COMDAT xdata$x
xdata$x	SEGMENT
__unwindtable$?Save@CRegTextEdit@@IAEHXZ DD 0ffffffffH
	DD	00H
	DD	00H
	DD	FLAT:__unwindfunclet$?Save@CRegTextEdit@@IAEHXZ$2
	DD	0ffffffffH
	DD	00H
__catchsym$?Save@CRegTextEdit@@IAEHXZ$3 DD 00H
	DD	FLAT:??_R0PAVCDaoException@@@8
	DD	0fffffb64H
	DD	FLAT:__catch$?Save@CRegTextEdit@@IAEHXZ$0
__tryblocktable$?Save@CRegTextEdit@@IAEHXZ DD 00H
	DD	01H
	DD	02H
	DD	01H
	DD	FLAT:__catchsym$?Save@CRegTextEdit@@IAEHXZ$3
__ehfuncinfo$?Save@CRegTextEdit@@IAEHXZ DD 019930520H
	DD	03H
	DD	FLAT:__unwindtable$?Save@CRegTextEdit@@IAEHXZ
	DD	01H
	DD	FLAT:__tryblocktable$?Save@CRegTextEdit@@IAEHXZ
	DD	2 DUP(00H)
xdata$x	ENDS
;	COMDAT ??_C@_1CK@CLAGECII@?$AAC?$AAa?$AAn?$AA?8?$AAt?$AA?5?$AAF?$AAi?$AAn?$AAd?$AA?5?$AAS?$AAy?$AAm?$AAb?$AAo?$AAl?$AA?5?$AA?$CF?$AAs@
CONST	SEGMENT
??_C@_1CK@CLAGECII@?$AAC?$AAa?$AAn?$AA?8?$AAt?$AA?5?$AAF?$AAi?$AAn?$AAd?$AA?5?$AAS?$AAy?$AAm?$AAb?$AAo?$AAl?$AA?5?$AA?$CF?$AAs@ DB 'C'
	DB	00H, 'a', 00H, 'n', 00H, '''', 00H, 't', 00H, ' ', 00H, 'F', 00H
	DB	'i', 00H, 'n', 00H, 'd', 00H, ' ', 00H, 'S', 00H, 'y', 00H, 'm'
	DB	00H, 'b', 00H, 'o', 00H, 'l', 00H, ' ', 00H, '%', 00H, 's', 00H
	DB	00H, 00H					; `string'
CONST	ENDS
;	COMDAT ??_C@_1BG@NOPLIDDJ@?$AAB?$AAa?$AAd?$AA?5?$AAS?$AAy?$AAm?$AAb?$AAo?$AAl?$AA?$AA@
CONST	SEGMENT
??_C@_1BG@NOPLIDDJ@?$AAB?$AAa?$AAd?$AA?5?$AAS?$AAy?$AAm?$AAb?$AAo?$AAl?$AA?$AA@ DB 'B'
	DB	00H, 'a', 00H, 'd', 00H, ' ', 00H, 'S', 00H, 'y', 00H, 'm', 00H
	DB	'b', 00H, 'o', 00H, 'l', 00H, 00H, 00H	; `string'
; Function compile flags: /Odt /RTCcsu /ZI
CONST	ENDS
;	COMDAT ?Save@CRegTextEdit@@IAEHXZ
_TEXT	SEGMENT
tv219 = -1408						; size = 4
tv227 = -1404						; size = 4
tv226 = -1404						; size = 4
tv225 = -1404						; size = 4
tv224 = -1404						; size = 4
tv223 = -1404						; size = 4
tv222 = -1404						; size = 4
tv221 = -1404						; size = 4
$T94514 = -1396						; size = 4
$T94515 = -1384						; size = 4
_e$94064 = -1180					; size = 4
_pSym$94057 = -1168					; size = 4
_key2$ = -1156						; size = 50
_key1$ = -1096						; size = 50
_errbuf$ = -1036					; size = 1000
_this$ = -28						; size = 4
__$ArrayPad$ = -20					; size = 4
__$EHRec$ = -16						; size = 16
__$ReturnAddr$ = 4					; size = 4
?Save@CRegTextEdit@@IAEHXZ PROC NEAR			; CRegTextEdit::Save, COMDAT
; _this$ = ecx

; 349  : {

	push	ebp
	mov	ebp, esp
	push	-1
	push	__ehhandler$?Save@CRegTextEdit@@IAEHXZ
	mov	eax, DWORD PTR fs:__except_list
	push	eax
	mov	DWORD PTR fs:__except_list, esp
	push	ecx
	sub	esp, 1392				; 00000570H
	push	ebx
	push	esi
	push	edi
	push	ecx
	lea	edi, DWORD PTR [ebp-1408]
	mov	ecx, 348				; 0000015cH
	mov	eax, -858993460				; ccccccccH
	rep stosd
	pop	ecx
	mov	eax, DWORD PTR ___security_cookie
	mov	DWORD PTR __$ArrayPad$[ebp], eax
	mov	DWORD PTR __$EHRec$[ebp], esp
	mov	DWORD PTR _this$[ebp], ecx

; 350  :  TCHAR errbuf[500], key1[25], key2[25];
; 351  : #ifdef _UNICODE
; 352  :  _stscanf((LPCTSTR)m_Key1Str,_T("%l[^-]"), key1 );

	lea	eax, DWORD PTR _key1$[ebp]
	push	eax
	push	OFFSET FLAT:??_C@_1O@MJNGOMNI@?$AA?$CF?$AAl?$AA?$FL?$AA?$FO?$AA?9?$AA?$FN?$AA?$AA@
	mov	ecx, DWORD PTR _this$[ebp]
	add	ecx, 208				; 000000d0H
	call	??B?$CSimpleStringT@G$0A@@ATL@@QBEPBGXZ	; ATL::CSimpleStringT<unsigned short,0>::operator unsigned short const *
	push	eax
	call	_swscanf
	add	esp, 12					; 0000000cH

; 353  :  _stscanf((LPCTSTR)m_Key2Str,_T("%l[^-]"), key2 );

	lea	eax, DWORD PTR _key2$[ebp]
	push	eax
	push	OFFSET FLAT:??_C@_1O@MJNGOMNI@?$AA?$CF?$AAl?$AA?$FL?$AA?$FO?$AA?9?$AA?$FN?$AA?$AA@
	mov	ecx, DWORD PTR _this$[ebp]
	add	ecx, 212				; 000000d4H
	call	??B?$CSimpleStringT@G$0A@@ATL@@QBEPBGXZ	; ATL::CSimpleStringT<unsigned short,0>::operator unsigned short const *
	push	eax
	call	_swscanf
	add	esp, 12					; 0000000cH

; 354  : #else
; 355  :  sscanf((const char *)m_Key1Str,"%[^-]", key1 );
; 356  :  sscanf((const char *)m_Key2Str,"%[^-]", key2 );
; 357  : #endif
; 358  :  try {

	mov	DWORD PTR __$EHRec$[ebp+12], 0

; 359  :    if ( !theSet.IsOpen() )

	mov	ecx, DWORD PTR _this$[ebp]
	add	ecx, 216				; 000000d8H
	call	?IsOpen@CDaoRecordset@@QBEHXZ		; CDaoRecordset::IsOpen
	mov	DWORD PTR tv221[ebp], eax
	cmp	DWORD PTR tv221[ebp], 0
	jne	SHORT $L94053

; 360  : 	   theSet.Open();

	mov	esi, esp
	push	0
	push	0
	push	-1
	mov	ecx, DWORD PTR _this$[ebp]
	add	ecx, 216				; 000000d8H
	mov	eax, DWORD PTR _this$[ebp]
	mov	edx, DWORD PTR [eax+216]
	call	DWORD PTR [edx+28]
	cmp	esi, esp
	call	__RTC_CheckEsp
$L94053:

; 361  :    if ( theSet.IsEOF() )

	mov	ecx, DWORD PTR _this$[ebp]
	add	ecx, 216				; 000000d8H
	call	?IsEOF@CDaoRecordset@@QBEHXZ		; CDaoRecordset::IsEOF
	mov	DWORD PTR tv222[ebp], eax
	cmp	DWORD PTR tv222[ebp], 0
	je	SHORT $L94054

; 362  : 	   theSet.AddNew();

	mov	ecx, DWORD PTR _this$[ebp]
	add	ecx, 216				; 000000d8H
	mov	esi, esp
	mov	eax, DWORD PTR _this$[ebp]
	mov	edx, DWORD PTR [eax+216]
	call	DWORD PTR [edx+44]
	cmp	esi, esp
	call	__RTC_CheckEsp

; 363  :    else

	jmp	SHORT $L94055
$L94054:

; 364  : 	   theSet.Edit();

	mov	ecx, DWORD PTR _this$[ebp]
	add	ecx, 216				; 000000d8H
	mov	esi, esp
	mov	eax, DWORD PTR _this$[ebp]
	mov	edx, DWORD PTR [eax+216]
	call	DWORD PTR [edx+48]
	cmp	esi, esp
	call	__RTC_CheckEsp
$L94055:

; 365  :    theSet.m_Key1 = key1;

	lea	eax, DWORD PTR _key1$[ebp]
	push	eax
	mov	ecx, DWORD PTR _this$[ebp]
	add	ecx, 372				; 00000174H
	call	??4?$CStringT@GV?$StrTraitMFC@GV?$ChTraitsCRT@G@ATL@@@@@ATL@@QAEAAV01@PBG@Z ; ATL::CStringT<unsigned short,StrTraitMFC<unsigned short,ATL::ChTraitsCRT<unsigned short> > >::operator=

; 366  :    theSet.m_key2 = key2;

	lea	eax, DWORD PTR _key2$[ebp]
	push	eax
	mov	ecx, DWORD PTR _this$[ebp]
	add	ecx, 376				; 00000178H
	call	??4?$CStringT@GV?$StrTraitMFC@GV?$ChTraitsCRT@G@ATL@@@@@ATL@@QAEAAV01@PBG@Z ; ATL::CStringT<unsigned short,StrTraitMFC<unsigned short,ATL::ChTraitsCRT<unsigned short> > >::operator=

; 367  :    theSet.m_TextType = m_TextType;

	mov	eax, DWORD PTR _this$[ebp]
	add	eax, 204				; 000000ccH
	push	eax
	mov	ecx, DWORD PTR _this$[ebp]
	add	ecx, 368				; 00000170H
	call	??4?$CStringT@GV?$StrTraitMFC@GV?$ChTraitsCRT@G@ATL@@@@@ATL@@QAEAAV01@ABV01@@Z ; ATL::CStringT<unsigned short,StrTraitMFC<unsigned short,ATL::ChTraitsCRT<unsigned short> > >::operator=

; 368  :    theSet.m_Text = pFuncs->GetRTF(IDC_TEXT);

	push	1004					; 000003ecH
	lea	eax, DWORD PTR $T94514[ebp]
	push	eax
	mov	ecx, DWORD PTR _this$[ebp]
	mov	ecx, DWORD PTR [ecx+396]
	call	?GetRTF@RTFFuncs@@QAE?AV?$CStringT@GV?$StrTraitMFC@GV?$ChTraitsCRT@G@ATL@@@@@ATL@@H@Z ; RTFFuncs::GetRTF
	mov	DWORD PTR tv223[ebp], eax
	mov	edx, DWORD PTR tv223[ebp]
	mov	DWORD PTR tv219[ebp], edx
	mov	BYTE PTR __$EHRec$[ebp+12], 1
	mov	eax, DWORD PTR tv219[ebp]
	push	eax
	mov	ecx, DWORD PTR _this$[ebp]
	add	ecx, 384				; 00000180H
	call	??4?$CStringT@GV?$StrTraitMFC@GV?$ChTraitsCRT@G@ATL@@@@@ATL@@QAEAAV01@ABV01@@Z ; ATL::CStringT<unsigned short,StrTraitMFC<unsigned short,ATL::ChTraitsCRT<unsigned short> > >::operator=
	mov	BYTE PTR __$EHRec$[ebp+12], 0
	lea	ecx, DWORD PTR $T94514[ebp]
	call	??1?$CStringT@GV?$StrTraitMFC@GV?$ChTraitsCRT@G@ATL@@@@@ATL@@QAE@XZ ; ATL::CStringT<unsigned short,StrTraitMFC<unsigned short,ATL::ChTraitsCRT<unsigned short> > >::~CStringT<unsigned short,StrTraitMFC<unsigned short,ATL::ChTraitsCRT<unsigned short> > >

; 369  :    CSymbol *pSym=pRegSymbols->Find(key1,1,0);

	push	0
	push	1
	lea	eax, DWORD PTR _key1$[ebp]
	push	eax
	mov	ecx, DWORD PTR ?pRegSymbols@@3PAVCSymbolAry@@A ; pRegSymbols
	call	?Find@CSymbolAry@@QAEPAVCSymbol@@PBGHH@Z ; CSymbolAry::Find
	mov	DWORD PTR tv224[ebp], eax
	mov	ecx, DWORD PTR tv224[ebp]
	mov	DWORD PTR _pSym$94057[ebp], ecx

; 370  :    if ( pSym == NULL ) {

	cmp	DWORD PTR _pSym$94057[ebp], 0
	jne	SHORT $L94058

; 371  : 	   alert_box(_T("Bad Symbol"), _T("Can't Find Symbol %s"), (LPCTSTR)m_Key1Str );

	mov	ecx, DWORD PTR _this$[ebp]
	add	ecx, 208				; 000000d0H
	call	??B?$CSimpleStringT@G$0A@@ATL@@QBEPBGXZ	; ATL::CSimpleStringT<unsigned short,0>::operator unsigned short const *
	push	eax
	push	OFFSET FLAT:??_C@_1CK@CLAGECII@?$AAC?$AAa?$AAn?$AA?8?$AAt?$AA?5?$AAF?$AAi?$AAn?$AAd?$AA?5?$AAS?$AAy?$AAm?$AAb?$AAo?$AAl?$AA?5?$AA?$CF?$AAs@
	push	OFFSET FLAT:??_C@_1BG@NOPLIDDJ@?$AAB?$AAa?$AAd?$AA?5?$AAS?$AAy?$AAm?$AAb?$AAo?$AAl?$AA?$AA@
	call	?alert_box@@YAHPAGPBGZZ			; alert_box
	add	esp, 12					; 0000000cH

; 372  :        return( 0 );

	xor	eax, eax
	jmp	$L94046
$L94058:

; 373  : 		}
; 374  :    theSet.m_Key1num=pSym->value();

	mov	ecx, DWORD PTR _pSym$94057[ebp]
	call	?value@CSymbol@@QAEAAHXZ		; CSymbol::value
	mov	DWORD PTR tv225[ebp], eax
	mov	eax, DWORD PTR tv225[ebp]
	mov	ecx, DWORD PTR [eax]
	call	@_RTC_Check_4_to_2@4
	mov	ecx, DWORD PTR _this$[ebp]
	mov	WORD PTR [ecx+380], ax

; 375  :    pSym=pRegSymbols->Find(key2,2,0);

	push	0
	push	2
	lea	eax, DWORD PTR _key2$[ebp]
	push	eax
	mov	ecx, DWORD PTR ?pRegSymbols@@3PAVCSymbolAry@@A ; pRegSymbols
	call	?Find@CSymbolAry@@QAEPAVCSymbol@@PBGHH@Z ; CSymbolAry::Find
	mov	DWORD PTR tv226[ebp], eax
	mov	ecx, DWORD PTR tv226[ebp]
	mov	DWORD PTR _pSym$94057[ebp], ecx

; 376  :    if ( pSym == NULL ) {

	cmp	DWORD PTR _pSym$94057[ebp], 0
	jne	SHORT $L94062

; 377  : 	   alert_box(_T("Bad Symbol"), _T("Can't Find Symbol %s"), (LPCTSTR)m_Key2Str );

	mov	ecx, DWORD PTR _this$[ebp]
	add	ecx, 212				; 000000d4H
	call	??B?$CSimpleStringT@G$0A@@ATL@@QBEPBGXZ	; ATL::CSimpleStringT<unsigned short,0>::operator unsigned short const *
	push	eax
	push	OFFSET FLAT:??_C@_1CK@CLAGECII@?$AAC?$AAa?$AAn?$AA?8?$AAt?$AA?5?$AAF?$AAi?$AAn?$AAd?$AA?5?$AAS?$AAy?$AAm?$AAb?$AAo?$AAl?$AA?5?$AA?$CF?$AAs@
	push	OFFSET FLAT:??_C@_1BG@NOPLIDDJ@?$AAB?$AAa?$AAd?$AA?5?$AAS?$AAy?$AAm?$AAb?$AAo?$AAl?$AA?$AA@
	call	?alert_box@@YAHPAGPBGZZ			; alert_box
	add	esp, 12					; 0000000cH

; 378  :        return( 0 );

	xor	eax, eax
	jmp	$L94046
$L94062:

; 379  : 		}
; 380  :    theSet.m_Key2num=pSym->value();

	mov	ecx, DWORD PTR _pSym$94057[ebp]
	call	?value@CSymbol@@QAEAAHXZ		; CSymbol::value
	mov	DWORD PTR tv227[ebp], eax
	mov	eax, DWORD PTR tv227[ebp]
	mov	ecx, DWORD PTR [eax]
	call	@_RTC_Check_4_to_2@4
	mov	ecx, DWORD PTR _this$[ebp]
	mov	WORD PTR [ecx+382], ax

; 381  :    theSet.Update();

	mov	ecx, DWORD PTR _this$[ebp]
	add	ecx, 216				; 000000d8H
	mov	esi, esp
	mov	eax, DWORD PTR _this$[ebp]
	mov	edx, DWORD PTR [eax+216]
	call	DWORD PTR [edx+52]
	cmp	esi, esp
	call	__RTC_CheckEsp

; 382  :    theSet.Close();

	mov	ecx, DWORD PTR _this$[ebp]
	add	ecx, 216				; 000000d8H
	mov	esi, esp
	mov	eax, DWORD PTR _this$[ebp]
	mov	edx, DWORD PTR [eax+216]
	call	DWORD PTR [edx+32]
	cmp	esi, esp
	call	__RTC_CheckEsp
	jmp	SHORT $L94516
__catch$?Save@CRegTextEdit@@IAEHXZ$0:

; 383  :  }
; 384  :  catch ( CDaoException *e ) {
; 385  :    e->GetErrorMessage(errbuf,499);

	mov	esi, esp
	push	0
	push	499					; 000001f3H
	lea	eax, DWORD PTR _errbuf$[ebp]
	push	eax
	mov	ecx, DWORD PTR _e$94064[ebp]
	mov	edx, DWORD PTR [ecx]
	mov	ecx, DWORD PTR _e$94064[ebp]
	call	DWORD PTR [edx+20]
	cmp	esi, esp
	call	__RTC_CheckEsp

; 386  :    alert_box(_T("Error on Database"), errbuf );

	lea	eax, DWORD PTR _errbuf$[ebp]
	push	eax
	push	OFFSET FLAT:??_C@_1CE@OOAKNAGM@?$AAE?$AAr?$AAr?$AAo?$AAr?$AA?5?$AAo?$AAn?$AA?5?$AAD?$AAa?$AAt?$AAa?$AAb?$AAa?$AAs?$AAe?$AA?$AA@
	call	?alert_box@@YAHPAGPBGZZ			; alert_box
	add	esp, 8

; 387  :    return ( 0 );

	mov	DWORD PTR $T94515[ebp], 0
	mov	eax, $L94520
	ret	0
$L94516:

; 388  :   }

	mov	DWORD PTR __$EHRec$[ebp+12], -1

; 387  :    return ( 0 );

	jmp	SHORT __tryend$?Save@CRegTextEdit@@IAEHXZ$1
$L94520:
	mov	eax, DWORD PTR $T94515[ebp]
	jmp	SHORT $L94046
__tryend$?Save@CRegTextEdit@@IAEHXZ$1:

; 389  :  return ( 1 );

	mov	eax, 1
$L94046:

; 390  : 
; 391  : }

	push	edx
	mov	ecx, ebp
	push	eax
	lea	edx, DWORD PTR $L94531
	call	@_RTC_CheckStackVars@8
	pop	eax
	pop	edx
	mov	ecx, DWORD PTR __$EHRec$[ebp+4]
	mov	DWORD PTR fs:__except_list, ecx
	mov	ecx, DWORD PTR __$ArrayPad$[ebp]
	call	@__security_check_cookie@4
	pop	edi
	pop	esi
	pop	ebx
	add	esp, 1408				; 00000580H
	cmp	ebp, esp
	call	__RTC_CheckEsp
	mov	esp, ebp
	pop	ebp
	ret	0
$L94531:
	DD	4
	DD	$L94530
$L94530:
	DD	-1036					; fffffbf4H
	DD	1000					; 000003e8H
	DD	$L94524
	DD	-1096					; fffffbb8H
	DD	50					; 00000032H
	DD	$L94525
	DD	-1156					; fffffb7cH
	DD	50					; 00000032H
	DD	$L94526
	DD	-1180					; fffffb64H
	DD	4
	DD	$L94527
$L94527:
	DB	101					; 00000065H
	DB	0
$L94526:
	DB	107					; 0000006bH
	DB	101					; 00000065H
	DB	121					; 00000079H
	DB	50					; 00000032H
	DB	0
$L94525:
	DB	107					; 0000006bH
	DB	101					; 00000065H
	DB	121					; 00000079H
	DB	49					; 00000031H
	DB	0
$L94524:
	DB	101					; 00000065H
	DB	114					; 00000072H
	DB	114					; 00000072H
	DB	98					; 00000062H
	DB	117					; 00000075H
	DB	102					; 00000066H
	DB	0
_TEXT	ENDS
;	COMDAT text$x
text$x	SEGMENT
__unwindfunclet$?Save@CRegTextEdit@@IAEHXZ$2:
	lea	ecx, DWORD PTR $T94514[ebp]
	jmp	??1?$CStringT@GV?$StrTraitMFC@GV?$ChTraitsCRT@G@ATL@@@@@ATL@@QAE@XZ ; ATL::CStringT<unsigned short,StrTraitMFC<unsigned short,ATL::ChTraitsCRT<unsigned short> > >::~CStringT<unsigned short,StrTraitMFC<unsigned short,ATL::ChTraitsCRT<unsigned short> > >
__ehhandler$?Save@CRegTextEdit@@IAEHXZ:
	mov	eax, OFFSET FLAT:__ehfuncinfo$?Save@CRegTextEdit@@IAEHXZ
	jmp	___CxxFrameHandler
text$x	ENDS
?Save@CRegTextEdit@@IAEHXZ ENDP				; CRegTextEdit::Save
; Function compile flags: /Odt /RTCcsu /ZI
; File c:\astrow32dev\tbt32\symbol.hpp
;	COMDAT ?value@CSymbol@@QAEAAHXZ
_TEXT	SEGMENT
_this$ = -8						; size = 4
?value@CSymbol@@QAEAAHXZ PROC NEAR			; CSymbol::value, COMDAT
; _this$ = ecx

; 17   : 	int &value() { return _value; }

	push	ebp
	mov	ebp, esp
	sub	esp, 204				; 000000ccH
	push	ebx
	push	esi
	push	edi
	push	ecx
	lea	edi, DWORD PTR [ebp-204]
	mov	ecx, 51					; 00000033H
	mov	eax, -858993460				; ccccccccH
	rep stosd
	pop	ecx
	mov	DWORD PTR _this$[ebp], ecx
	mov	eax, DWORD PTR _this$[ebp]
	add	eax, 120				; 00000078H
	pop	edi
	pop	esi
	pop	ebx
	mov	esp, ebp
	pop	ebp
	ret	0
?value@CSymbol@@QAEAAHXZ ENDP				; CSymbol::value
_TEXT	ENDS
PUBLIC	?GetTabString@RTFFuncs@@QAEAAV?$CStringT@GV?$StrTraitMFC@GV?$ChTraitsCRT@G@ATL@@@@@ATL@@XZ ; RTFFuncs::GetTabString
PUBLIC	?getBasicString@RTFFuncs@@QAEAAV?$CStringT@GV?$StrTraitMFC@GV?$ChTraitsCRT@G@ATL@@@@@ATL@@XZ ; RTFFuncs::getBasicString
PUBLIC	??Y?$CStringT@GV?$StrTraitMFC@GV?$ChTraitsCRT@G@ATL@@@@@ATL@@QAEAAV01@ABV?$CSimpleStringT@G$0A@@1@@Z ; ATL::CStringT<unsigned short,StrTraitMFC<unsigned short,ATL::ChTraitsCRT<unsigned short> > >::operator+=
EXTRN	?GetText@CWSpell@@QAE?AV?$CStringT@GV?$StrTraitMFC@GV?$ChTraitsCRT@G@ATL@@@@@ATL@@XZ:NEAR ; CWSpell::GetText
EXTRN	?SetText@CWSpell@@QAEXPBG@Z:NEAR		; CWSpell::SetText
EXTRN	?SetShowContext@CWSpell@@QAEXH@Z:NEAR		; CWSpell::SetShowContext
EXTRN	?SetShowDialog@CWSpell@@QAEXH@Z:NEAR		; CWSpell::SetShowDialog
EXTRN	?Start@CWSpell@@QAEFXZ:NEAR			; CWSpell::Start
;	COMDAT xdata$x
; File c:\astrow32dev\tbt32\regtextedit.cpp
xdata$x	SEGMENT
__unwindtable$?OnSpell@CRegTextEdit@@IAEXXZ DD 0ffffffffH
	DD	FLAT:__unwindfunclet$?OnSpell@CRegTextEdit@@IAEXXZ$0
	DD	00H
	DD	FLAT:__unwindfunclet$?OnSpell@CRegTextEdit@@IAEXXZ$1
	DD	01H
	DD	FLAT:__unwindfunclet$?OnSpell@CRegTextEdit@@IAEXXZ$2
__ehfuncinfo$?OnSpell@CRegTextEdit@@IAEXXZ DD 019930520H
	DD	03H
	DD	FLAT:__unwindtable$?OnSpell@CRegTextEdit@@IAEXXZ
	DD	2 DUP(00H)
	DD	2 DUP(00H)
; Function compile flags: /Odt /RTCcsu /ZI
xdata$x	ENDS
;	COMDAT ?OnSpell@CRegTextEdit@@IAEXXZ
_TEXT	SEGMENT
tv149 = -260						; size = 4
tv92 = -256						; size = 4
$T94541 = -248						; size = 4
_checked$94072 = -44					; size = 4
_str$ = -32						; size = 4
_this$ = -20						; size = 4
__$EHRec$ = -12						; size = 12
?OnSpell@CRegTextEdit@@IAEXXZ PROC NEAR			; CRegTextEdit::OnSpell, COMDAT
; _this$ = ecx

; 394  : {

	push	ebp
	mov	ebp, esp
	push	-1
	push	__ehhandler$?OnSpell@CRegTextEdit@@IAEXXZ
	mov	eax, DWORD PTR fs:__except_list
	push	eax
	mov	DWORD PTR fs:__except_list, esp
	sub	esp, 248				; 000000f8H
	push	ebx
	push	esi
	push	edi
	push	ecx
	lea	edi, DWORD PTR [ebp-260]
	mov	ecx, 62					; 0000003eH
	mov	eax, -858993460				; ccccccccH
	rep stosd
	pop	ecx
	mov	DWORD PTR _this$[ebp], ecx

; 395  : 	// TODO: Add your command handler code here
; 396  : 	CString str = pFuncs->GetRTF(IDC_TEXT);

	push	1004					; 000003ecH
	lea	eax, DWORD PTR _str$[ebp]
	push	eax
	mov	ecx, DWORD PTR _this$[ebp]
	mov	ecx, DWORD PTR [ecx+396]
	call	?GetRTF@RTFFuncs@@QAE?AV?$CStringT@GV?$StrTraitMFC@GV?$ChTraitsCRT@G@ATL@@@@@ATL@@H@Z ; RTFFuncs::GetRTF
	mov	DWORD PTR __$EHRec$[ebp+8], 0

; 397  : 
; 398  : 	// Interactively check the spelling of the CString.
; 399  : 	// The CString's contents will be displayed so the user can see
; 400  : 	// errors in context. Any corrections made by the user will update
; 401  : 	// the CString.
; 402  : 	// Note that WSpell's ShowContext property has been set to True.
; 403  : 	m_ctrl.SetText(pFuncs->getBasicString());

	mov	eax, DWORD PTR _this$[ebp]
	mov	ecx, DWORD PTR [eax+396]
	call	?getBasicString@RTFFuncs@@QAEAAV?$CStringT@GV?$StrTraitMFC@GV?$ChTraitsCRT@G@ATL@@@@@ATL@@XZ ; RTFFuncs::getBasicString
	mov	ecx, eax
	call	??B?$CSimpleStringT@G$0A@@ATL@@QBEPBGXZ	; ATL::CSimpleStringT<unsigned short,0>::operator unsigned short const *
	push	eax
	mov	ecx, DWORD PTR _this$[ebp]
	add	ecx, 124				; 0000007cH
	call	?SetText@CWSpell@@QAEXPBG@Z		; CWSpell::SetText

; 404  : 	m_ctrl.SetShowDialog(TRUE);

	push	1
	mov	ecx, DWORD PTR _this$[ebp]
	add	ecx, 124				; 0000007cH
	call	?SetShowDialog@CWSpell@@QAEXH@Z		; CWSpell::SetShowDialog

; 405  : 	m_ctrl.SetShowContext(TRUE);

	push	1
	mov	ecx, DWORD PTR _this$[ebp]
	add	ecx, 124				; 0000007cH
	call	?SetShowContext@CWSpell@@QAEXH@Z	; CWSpell::SetShowContext

; 406  : 	if (m_ctrl.Start() >= 0) {

	mov	ecx, DWORD PTR _this$[ebp]
	add	ecx, 124				; 0000007cH
	call	?Start@CWSpell@@QAEFXZ			; CWSpell::Start
	movsx	eax, ax
	test	eax, eax
	jl	$L94071

; 407  : 		CString checked = pFuncs->GetTabString();

	mov	eax, DWORD PTR _this$[ebp]
	mov	ecx, DWORD PTR [eax+396]
	call	?GetTabString@RTFFuncs@@QAEAAV?$CStringT@GV?$StrTraitMFC@GV?$ChTraitsCRT@G@ATL@@@@@ATL@@XZ ; RTFFuncs::GetTabString
	push	eax
	lea	ecx, DWORD PTR _checked$94072[ebp]
	call	??0?$CStringT@GV?$StrTraitMFC@GV?$ChTraitsCRT@G@ATL@@@@@ATL@@QAE@ABV01@@Z ; ATL::CStringT<unsigned short,StrTraitMFC<unsigned short,ATL::ChTraitsCRT<unsigned short> > >::CStringT<unsigned short,StrTraitMFC<unsigned short,ATL::ChTraitsCRT<unsigned short> > >
	mov	BYTE PTR __$EHRec$[ebp+8], 1

; 408  : 		checked += m_ctrl.GetText();

	lea	eax, DWORD PTR $T94541[ebp]
	push	eax
	mov	ecx, DWORD PTR _this$[ebp]
	add	ecx, 124				; 0000007cH
	call	?GetText@CWSpell@@QAE?AV?$CStringT@GV?$StrTraitMFC@GV?$ChTraitsCRT@G@ATL@@@@@ATL@@XZ ; CWSpell::GetText
	mov	DWORD PTR tv92[ebp], eax
	mov	ecx, DWORD PTR tv92[ebp]
	mov	DWORD PTR tv149[ebp], ecx
	mov	BYTE PTR __$EHRec$[ebp+8], 2
	mov	edx, DWORD PTR tv149[ebp]
	push	edx
	lea	ecx, DWORD PTR _checked$94072[ebp]
	call	??Y?$CStringT@GV?$StrTraitMFC@GV?$ChTraitsCRT@G@ATL@@@@@ATL@@QAEAAV01@ABV?$CSimpleStringT@G$0A@@1@@Z ; ATL::CStringT<unsigned short,StrTraitMFC<unsigned short,ATL::ChTraitsCRT<unsigned short> > >::operator+=
	mov	BYTE PTR __$EHRec$[ebp+8], 1
	lea	ecx, DWORD PTR $T94541[ebp]
	call	??1?$CStringT@GV?$StrTraitMFC@GV?$ChTraitsCRT@G@ATL@@@@@ATL@@QAE@XZ ; ATL::CStringT<unsigned short,StrTraitMFC<unsigned short,ATL::ChTraitsCRT<unsigned short> > >::~CStringT<unsigned short,StrTraitMFC<unsigned short,ATL::ChTraitsCRT<unsigned short> > >

; 409  : 		pFuncs->SetRTF(IDC_TEXT,checked);

	lea	eax, DWORD PTR _checked$94072[ebp]
	push	eax
	push	1004					; 000003ecH
	mov	ecx, DWORD PTR _this$[ebp]
	mov	ecx, DWORD PTR [ecx+396]
	call	?SetRTF@RTFFuncs@@QAEXHAAV?$CStringT@GV?$StrTraitMFC@GV?$ChTraitsCRT@G@ATL@@@@@ATL@@@Z ; RTFFuncs::SetRTF

; 410  : 	}

	mov	BYTE PTR __$EHRec$[ebp+8], 0
	lea	ecx, DWORD PTR _checked$94072[ebp]
	call	??1?$CStringT@GV?$StrTraitMFC@GV?$ChTraitsCRT@G@ATL@@@@@ATL@@QAE@XZ ; ATL::CStringT<unsigned short,StrTraitMFC<unsigned short,ATL::ChTraitsCRT<unsigned short> > >::~CStringT<unsigned short,StrTraitMFC<unsigned short,ATL::ChTraitsCRT<unsigned short> > >
$L94071:

; 411  :    Invalidate(FALSE);

	push	0
	mov	ecx, DWORD PTR _this$[ebp]
	call	?Invalidate@CWnd@@QAEXH@Z		; CWnd::Invalidate

; 412  : }

	mov	DWORD PTR __$EHRec$[ebp+8], -1
	lea	ecx, DWORD PTR _str$[ebp]
	call	??1?$CStringT@GV?$StrTraitMFC@GV?$ChTraitsCRT@G@ATL@@@@@ATL@@QAE@XZ ; ATL::CStringT<unsigned short,StrTraitMFC<unsigned short,ATL::ChTraitsCRT<unsigned short> > >::~CStringT<unsigned short,StrTraitMFC<unsigned short,ATL::ChTraitsCRT<unsigned short> > >
	push	edx
	mov	ecx, ebp
	push	eax
	lea	edx, DWORD PTR $L94551
	call	@_RTC_CheckStackVars@8
	pop	eax
	pop	edx
	mov	ecx, DWORD PTR __$EHRec$[ebp]
	mov	DWORD PTR fs:__except_list, ecx
	pop	edi
	pop	esi
	pop	ebx
	add	esp, 260				; 00000104H
	cmp	ebp, esp
	call	__RTC_CheckEsp
	mov	esp, ebp
	pop	ebp
	ret	0
$L94551:
	DD	2
	DD	$L94550
$L94550:
	DD	-32					; ffffffe0H
	DD	4
	DD	$L94547
	DD	-44					; ffffffd4H
	DD	4
	DD	$L94548
$L94548:
	DB	99					; 00000063H
	DB	104					; 00000068H
	DB	101					; 00000065H
	DB	99					; 00000063H
	DB	107					; 0000006bH
	DB	101					; 00000065H
	DB	100					; 00000064H
	DB	0
$L94547:
	DB	115					; 00000073H
	DB	116					; 00000074H
	DB	114					; 00000072H
	DB	0
_TEXT	ENDS
;	COMDAT text$x
text$x	SEGMENT
__unwindfunclet$?OnSpell@CRegTextEdit@@IAEXXZ$0:
	lea	ecx, DWORD PTR _str$[ebp]
	jmp	??1?$CStringT@GV?$StrTraitMFC@GV?$ChTraitsCRT@G@ATL@@@@@ATL@@QAE@XZ ; ATL::CStringT<unsigned short,StrTraitMFC<unsigned short,ATL::ChTraitsCRT<unsigned short> > >::~CStringT<unsigned short,StrTraitMFC<unsigned short,ATL::ChTraitsCRT<unsigned short> > >
__unwindfunclet$?OnSpell@CRegTextEdit@@IAEXXZ$1:
	lea	ecx, DWORD PTR _checked$94072[ebp]
	jmp	??1?$CStringT@GV?$StrTraitMFC@GV?$ChTraitsCRT@G@ATL@@@@@ATL@@QAE@XZ ; ATL::CStringT<unsigned short,StrTraitMFC<unsigned short,ATL::ChTraitsCRT<unsigned short> > >::~CStringT<unsigned short,StrTraitMFC<unsigned short,ATL::ChTraitsCRT<unsigned short> > >
__unwindfunclet$?OnSpell@CRegTextEdit@@IAEXXZ$2:
	lea	ecx, DWORD PTR $T94541[ebp]
	jmp	??1?$CStringT@GV?$StrTraitMFC@GV?$ChTraitsCRT@G@ATL@@@@@ATL@@QAE@XZ ; ATL::CStringT<unsigned short,StrTraitMFC<unsigned short,ATL::ChTraitsCRT<unsigned short> > >::~CStringT<unsigned short,StrTraitMFC<unsigned short,ATL::ChTraitsCRT<unsigned short> > >
__ehhandler$?OnSpell@CRegTextEdit@@IAEXXZ:
	mov	eax, OFFSET FLAT:__ehfuncinfo$?OnSpell@CRegTextEdit@@IAEXXZ
	jmp	___CxxFrameHandler
text$x	ENDS
?OnSpell@CRegTextEdit@@IAEXXZ ENDP			; CRegTextEdit::OnSpell
; Function compile flags: /Odt /RTCcsu /ZI
; File c:\astrow32dev\tbt32\rtffuncs.h
;	COMDAT ?GetTabString@RTFFuncs@@QAEAAV?$CStringT@GV?$StrTraitMFC@GV?$ChTraitsCRT@G@ATL@@@@@ATL@@XZ
_TEXT	SEGMENT
_this$ = -8						; size = 4
?GetTabString@RTFFuncs@@QAEAAV?$CStringT@GV?$StrTraitMFC@GV?$ChTraitsCRT@G@ATL@@@@@ATL@@XZ PROC NEAR ; RTFFuncs::GetTabString, COMDAT
; _this$ = ecx

; 38   :    CString &GetTabString() { return tabstring; }

	push	ebp
	mov	ebp, esp
	sub	esp, 204				; 000000ccH
	push	ebx
	push	esi
	push	edi
	push	ecx
	lea	edi, DWORD PTR [ebp-204]
	mov	ecx, 51					; 00000033H
	mov	eax, -858993460				; ccccccccH
	rep stosd
	pop	ecx
	mov	DWORD PTR _this$[ebp], ecx
	mov	eax, DWORD PTR _this$[ebp]
	add	eax, 4
	pop	edi
	pop	esi
	pop	ebx
	mov	esp, ebp
	pop	ebp
	ret	0
?GetTabString@RTFFuncs@@QAEAAV?$CStringT@GV?$StrTraitMFC@GV?$ChTraitsCRT@G@ATL@@@@@ATL@@XZ ENDP ; RTFFuncs::GetTabString
; Function compile flags: /Odt /RTCcsu /ZI
_TEXT	ENDS
;	COMDAT ?getBasicString@RTFFuncs@@QAEAAV?$CStringT@GV?$StrTraitMFC@GV?$ChTraitsCRT@G@ATL@@@@@ATL@@XZ
_TEXT	SEGMENT
_this$ = -8						; size = 4
?getBasicString@RTFFuncs@@QAEAAV?$CStringT@GV?$StrTraitMFC@GV?$ChTraitsCRT@G@ATL@@@@@ATL@@XZ PROC NEAR ; RTFFuncs::getBasicString, COMDAT
; _this$ = ecx

; 41   :    CString &getBasicString() { return BasicString; }

	push	ebp
	mov	ebp, esp
	sub	esp, 204				; 000000ccH
	push	ebx
	push	esi
	push	edi
	push	ecx
	lea	edi, DWORD PTR [ebp-204]
	mov	ecx, 51					; 00000033H
	mov	eax, -858993460				; ccccccccH
	rep stosd
	pop	ecx
	mov	DWORD PTR _this$[ebp], ecx
	mov	eax, DWORD PTR _this$[ebp]
	add	eax, 8
	pop	edi
	pop	esi
	pop	ebx
	mov	esp, ebp
	pop	ebp
	ret	0
?getBasicString@RTFFuncs@@QAEAAV?$CStringT@GV?$StrTraitMFC@GV?$ChTraitsCRT@G@ATL@@@@@ATL@@XZ ENDP ; RTFFuncs::getBasicString
; Function compile flags: /Odt /RTCcsu /ZI
; File c:\astrow32dev\tbt32\regtextedit.cpp
_TEXT	ENDS
;	COMDAT ?OnUpdateSpell@CRegTextEdit@@IAEXPAVCCmdUI@@@Z
_TEXT	SEGMENT
_this$ = -8						; size = 4
_pCmdUI$ = 8						; size = 4
?OnUpdateSpell@CRegTextEdit@@IAEXPAVCCmdUI@@@Z PROC NEAR ; CRegTextEdit::OnUpdateSpell, COMDAT
; _this$ = ecx

; 415  : {

	push	ebp
	mov	ebp, esp
	sub	esp, 204				; 000000ccH
	push	ebx
	push	esi
	push	edi
	push	ecx
	lea	edi, DWORD PTR [ebp-204]
	mov	ecx, 51					; 00000033H
	mov	eax, -858993460				; ccccccccH
	rep stosd
	pop	ecx
	mov	DWORD PTR _this$[ebp], ecx

; 416  : 	// TODO: Add your command update UI handler code here
; 417  :     pCmdUI->Enable();	

	mov	esi, esp
	push	1
	mov	eax, DWORD PTR _pCmdUI$[ebp]
	mov	edx, DWORD PTR [eax]
	mov	ecx, DWORD PTR _pCmdUI$[ebp]
	call	DWORD PTR [edx]
	cmp	esi, esp
	call	__RTC_CheckEsp

; 418  : }

	pop	edi
	pop	esi
	pop	ebx
	add	esp, 204				; 000000ccH
	cmp	ebp, esp
	call	__RTC_CheckEsp
	mov	esp, ebp
	pop	ebp
	ret	4
?OnUpdateSpell@CRegTextEdit@@IAEXPAVCCmdUI@@@Z ENDP	; CRegTextEdit::OnUpdateSpell
; Function compile flags: /Odt /RTCcsu /ZI
_TEXT	ENDS
;	COMDAT ?DestroyWindow@CRegTextEdit@@UAEHXZ
_TEXT	SEGMENT
tv71 = -232						; size = 4
$T94563 = -224						; size = 4
$T94564 = -212						; size = 4
_this$ = -8						; size = 4
?DestroyWindow@CRegTextEdit@@UAEHXZ PROC NEAR		; CRegTextEdit::DestroyWindow, COMDAT
; _this$ = ecx

; 421  : {

	push	ebp
	mov	ebp, esp
	sub	esp, 232				; 000000e8H
	push	ebx
	push	esi
	push	edi
	push	ecx
	lea	edi, DWORD PTR [ebp-232]
	mov	ecx, 58					; 0000003aH
	mov	eax, -858993460				; ccccccccH
	rep stosd
	pop	ecx
	mov	DWORD PTR _this$[ebp], ecx

; 422  : 	// TODO: Add your specialized code here and/or call the base class
; 423  :     delete pFuncs;

	mov	eax, DWORD PTR _this$[ebp]
	mov	ecx, DWORD PTR [eax+396]
	mov	DWORD PTR $T94564[ebp], ecx
	mov	edx, DWORD PTR $T94564[ebp]
	mov	DWORD PTR $T94563[ebp], edx
	cmp	DWORD PTR $T94563[ebp], 0
	je	SHORT $L94565
	mov	esi, esp
	push	1
	mov	eax, DWORD PTR $T94563[ebp]
	mov	edx, DWORD PTR [eax]
	mov	ecx, DWORD PTR $T94563[ebp]
	call	DWORD PTR [edx]
	cmp	esi, esp
	call	__RTC_CheckEsp
	mov	DWORD PTR tv71[ebp], eax
	jmp	SHORT $L94566
$L94565:
	mov	DWORD PTR tv71[ebp], 0
$L94566:

; 424  : 	return CDialog::DestroyWindow();

	mov	ecx, DWORD PTR _this$[ebp]
	call	?DestroyWindow@CWnd@@UAEHXZ		; CWnd::DestroyWindow

; 425  : }

	pop	edi
	pop	esi
	pop	ebx
	add	esp, 232				; 000000e8H
	cmp	ebp, esp
	call	__RTC_CheckEsp
	mov	esp, ebp
	pop	ebp
	ret	0
?DestroyWindow@CRegTextEdit@@UAEHXZ ENDP		; CRegTextEdit::DestroyWindow
_TEXT	ENDS
PUBLIC	??4?$CSimpleStringT@G$0A@@ATL@@QAEAAV01@ABV01@@Z ; ATL::CSimpleStringT<unsigned short,0>::operator=
; Function compile flags: /Odt /RTCcsu /ZI
; File c:\program files\microsoft visual studio .net 2003\vc7\atlmfc\include\cstringt.h
;	COMDAT ??4?$CStringT@GV?$StrTraitMFC@GV?$ChTraitsCRT@G@ATL@@@@@ATL@@QAEAAV01@ABV01@@Z
_TEXT	SEGMENT
_this$ = -8						; size = 4
_strSrc$ = 8						; size = 4
??4?$CStringT@GV?$StrTraitMFC@GV?$ChTraitsCRT@G@ATL@@@@@ATL@@QAEAAV01@ABV01@@Z PROC NEAR ; ATL::CStringT<unsigned short,StrTraitMFC<unsigned short,ATL::ChTraitsCRT<unsigned short> > >::operator=, COMDAT
; _this$ = ecx

; 967  : 	{

	push	ebp
	mov	ebp, esp
	sub	esp, 204				; 000000ccH
	push	ebx
	push	esi
	push	edi
	push	ecx
	lea	edi, DWORD PTR [ebp-204]
	mov	ecx, 51					; 00000033H
	mov	eax, -858993460				; ccccccccH
	rep stosd
	pop	ecx
	mov	DWORD PTR _this$[ebp], ecx

; 968  : 		CThisSimpleString::operator=( strSrc );

	mov	eax, DWORD PTR _strSrc$[ebp]
	push	eax
	mov	ecx, DWORD PTR _this$[ebp]
	call	??4?$CSimpleStringT@G$0A@@ATL@@QAEAAV01@ABV01@@Z ; ATL::CSimpleStringT<unsigned short,0>::operator=

; 969  : 
; 970  : 		return( *this );

	mov	eax, DWORD PTR _this$[ebp]

; 971  : 	}

	pop	edi
	pop	esi
	pop	ebx
	add	esp, 204				; 000000ccH
	cmp	ebp, esp
	call	__RTC_CheckEsp
	mov	esp, ebp
	pop	ebp
	ret	4
??4?$CStringT@GV?$StrTraitMFC@GV?$ChTraitsCRT@G@ATL@@@@@ATL@@QAEAAV01@ABV01@@Z ENDP ; ATL::CStringT<unsigned short,StrTraitMFC<unsigned short,ATL::ChTraitsCRT<unsigned short> > >::operator=
_TEXT	ENDS
PUBLIC	??Y?$CSimpleStringT@G$0A@@ATL@@QAEAAV01@ABV01@@Z ; ATL::CSimpleStringT<unsigned short,0>::operator+=
; Function compile flags: /Odt /RTCcsu /ZI
;	COMDAT ??Y?$CStringT@GV?$StrTraitMFC@GV?$ChTraitsCRT@G@ATL@@@@@ATL@@QAEAAV01@ABV?$CSimpleStringT@G$0A@@1@@Z
_TEXT	SEGMENT
_this$ = -8						; size = 4
_str$ = 8						; size = 4
??Y?$CStringT@GV?$StrTraitMFC@GV?$ChTraitsCRT@G@ATL@@@@@ATL@@QAEAAV01@ABV?$CSimpleStringT@G$0A@@1@@Z PROC NEAR ; ATL::CStringT<unsigned short,StrTraitMFC<unsigned short,ATL::ChTraitsCRT<unsigned short> > >::operator+=, COMDAT
; _this$ = ecx

; 1028 : 	{

	push	ebp
	mov	ebp, esp
	sub	esp, 204				; 000000ccH
	push	ebx
	push	esi
	push	edi
	push	ecx
	lea	edi, DWORD PTR [ebp-204]
	mov	ecx, 51					; 00000033H
	mov	eax, -858993460				; ccccccccH
	rep stosd
	pop	ecx
	mov	DWORD PTR _this$[ebp], ecx

; 1029 : 		CThisSimpleString::operator+=( str );

	mov	eax, DWORD PTR _str$[ebp]
	push	eax
	mov	ecx, DWORD PTR _this$[ebp]
	call	??Y?$CSimpleStringT@G$0A@@ATL@@QAEAAV01@ABV01@@Z ; ATL::CSimpleStringT<unsigned short,0>::operator+=

; 1030 : 
; 1031 : 		return( *this );

	mov	eax, DWORD PTR _this$[ebp]

; 1032 : 	}

	pop	edi
	pop	esi
	pop	ebx
	add	esp, 204				; 000000ccH
	cmp	ebp, esp
	call	__RTC_CheckEsp
	mov	esp, ebp
	pop	ebp
	ret	4
??Y?$CStringT@GV?$StrTraitMFC@GV?$ChTraitsCRT@G@ATL@@@@@ATL@@QAEAAV01@ABV?$CSimpleStringT@G$0A@@1@@Z ENDP ; ATL::CStringT<unsigned short,StrTraitMFC<unsigned short,ATL::ChTraitsCRT<unsigned short> > >::operator+=
_TEXT	ENDS
PUBLIC	?IsLocked@CStringData@ATL@@QBE_NXZ		; ATL::CStringData::IsLocked
PUBLIC	?Release@CStringData@ATL@@QAEXXZ		; ATL::CStringData::Release
PUBLIC	?GetString@?$CSimpleStringT@G$0A@@ATL@@QBEPBGXZ	; ATL::CSimpleStringT<unsigned short,0>::GetString
PUBLIC	?SetString@?$CSimpleStringT@G$0A@@ATL@@QAEXPBGH@Z ; ATL::CSimpleStringT<unsigned short,0>::SetString
PUBLIC	?Attach@?$CSimpleStringT@G$0A@@ATL@@AAEXPAUCStringData@2@@Z ; ATL::CSimpleStringT<unsigned short,0>::Attach
PUBLIC	?GetData@?$CSimpleStringT@G$0A@@ATL@@ABEPAUCStringData@2@XZ ; ATL::CSimpleStringT<unsigned short,0>::GetData
PUBLIC	?CloneData@?$CSimpleStringT@G$0A@@ATL@@CAPAUCStringData@2@PAU32@@Z ; ATL::CSimpleStringT<unsigned short,0>::CloneData
; Function compile flags: /Odt /RTCcsu /ZI
; File c:\program files\microsoft visual studio .net 2003\vc7\atlmfc\include\atlsimpstr.h
;	COMDAT ??4?$CSimpleStringT@G$0A@@ATL@@QAEAAV01@ABV01@@Z
_TEXT	SEGMENT
_pNewData$94101 = -44					; size = 4
_pOldData$ = -32					; size = 4
_pSrcData$ = -20					; size = 4
_this$ = -8						; size = 4
_strSrc$ = 8						; size = 4
??4?$CSimpleStringT@G$0A@@ATL@@QAEAAV01@ABV01@@Z PROC NEAR ; ATL::CSimpleStringT<unsigned short,0>::operator=, COMDAT
; _this$ = ecx

; 273  : 	{

	push	ebp
	mov	ebp, esp
	sub	esp, 240				; 000000f0H
	push	ebx
	push	esi
	push	edi
	push	ecx
	lea	edi, DWORD PTR [ebp-240]
	mov	ecx, 60					; 0000003cH
	mov	eax, -858993460				; ccccccccH
	rep stosd
	pop	ecx
	mov	DWORD PTR _this$[ebp], ecx

; 274  : 		CStringData* pSrcData = strSrc.GetData();

	mov	ecx, DWORD PTR _strSrc$[ebp]
	call	?GetData@?$CSimpleStringT@G$0A@@ATL@@ABEPAUCStringData@2@XZ ; ATL::CSimpleStringT<unsigned short,0>::GetData
	mov	DWORD PTR _pSrcData$[ebp], eax

; 275  : 		CStringData* pOldData = GetData();

	mov	ecx, DWORD PTR _this$[ebp]
	call	?GetData@?$CSimpleStringT@G$0A@@ATL@@ABEPAUCStringData@2@XZ ; ATL::CSimpleStringT<unsigned short,0>::GetData
	mov	DWORD PTR _pOldData$[ebp], eax

; 276  : 		if( pSrcData != pOldData)

	mov	eax, DWORD PTR _pSrcData$[ebp]
	cmp	eax, DWORD PTR _pOldData$[ebp]
	je	SHORT $L94097

; 277  : 		{
; 278  : 			if( pOldData->IsLocked() || pSrcData->pStringMgr != pOldData->pStringMgr )

	mov	ecx, DWORD PTR _pOldData$[ebp]
	call	?IsLocked@CStringData@ATL@@QBE_NXZ	; ATL::CStringData::IsLocked
	movzx	eax, al
	test	eax, eax
	jne	SHORT $L94099
	mov	eax, DWORD PTR _pSrcData$[ebp]
	mov	ecx, DWORD PTR _pOldData$[ebp]
	mov	edx, DWORD PTR [eax]
	cmp	edx, DWORD PTR [ecx]
	je	SHORT $L94098
$L94099:

; 279  : 			{
; 280  : 				SetString( strSrc.GetString(), strSrc.GetLength() );

	mov	ecx, DWORD PTR _strSrc$[ebp]
	call	?GetLength@?$CSimpleStringT@G$0A@@ATL@@QBEHXZ ; ATL::CSimpleStringT<unsigned short,0>::GetLength
	push	eax
	mov	ecx, DWORD PTR _strSrc$[ebp]
	call	?GetString@?$CSimpleStringT@G$0A@@ATL@@QBEPBGXZ ; ATL::CSimpleStringT<unsigned short,0>::GetString
	push	eax
	mov	ecx, DWORD PTR _this$[ebp]
	call	?SetString@?$CSimpleStringT@G$0A@@ATL@@QAEXPBGH@Z ; ATL::CSimpleStringT<unsigned short,0>::SetString

; 281  : 			}
; 282  : 			else

	jmp	SHORT $L94097
$L94098:

; 283  : 			{
; 284  : 				CStringData* pNewData = CloneData( pSrcData );

	mov	eax, DWORD PTR _pSrcData$[ebp]
	push	eax
	call	?CloneData@?$CSimpleStringT@G$0A@@ATL@@CAPAUCStringData@2@PAU32@@Z ; ATL::CSimpleStringT<unsigned short,0>::CloneData
	add	esp, 4
	mov	DWORD PTR _pNewData$94101[ebp], eax

; 285  : 				pOldData->Release();

	mov	ecx, DWORD PTR _pOldData$[ebp]
	call	?Release@CStringData@ATL@@QAEXXZ	; ATL::CStringData::Release

; 286  : 				Attach( pNewData );

	mov	eax, DWORD PTR _pNewData$94101[ebp]
	push	eax
	mov	ecx, DWORD PTR _this$[ebp]
	call	?Attach@?$CSimpleStringT@G$0A@@ATL@@AAEXPAUCStringData@2@@Z ; ATL::CSimpleStringT<unsigned short,0>::Attach
$L94097:

; 287  : 			}
; 288  : 		}
; 289  : 
; 290  : 		return( *this );

	mov	eax, DWORD PTR _this$[ebp]

; 291  : 	}

	pop	edi
	pop	esi
	pop	ebx
	add	esp, 240				; 000000f0H
	cmp	ebp, esp
	call	__RTC_CheckEsp
	mov	esp, ebp
	pop	ebp
	ret	4
??4?$CSimpleStringT@G$0A@@ATL@@QAEAAV01@ABV01@@Z ENDP	; ATL::CSimpleStringT<unsigned short,0>::operator=
_TEXT	ENDS
PUBLIC	?Append@?$CSimpleStringT@G$0A@@ATL@@QAEXABV12@@Z ; ATL::CSimpleStringT<unsigned short,0>::Append
; Function compile flags: /Odt /RTCcsu /ZI
;	COMDAT ??Y?$CSimpleStringT@G$0A@@ATL@@QAEAAV01@ABV01@@Z
_TEXT	SEGMENT
_this$ = -8						; size = 4
_strSrc$ = 8						; size = 4
??Y?$CSimpleStringT@G$0A@@ATL@@QAEAAV01@ABV01@@Z PROC NEAR ; ATL::CSimpleStringT<unsigned short,0>::operator+=, COMDAT
; _this$ = ecx

; 322  : 	{

	push	ebp
	mov	ebp, esp
	sub	esp, 204				; 000000ccH
	push	ebx
	push	esi
	push	edi
	push	ecx
	lea	edi, DWORD PTR [ebp-204]
	mov	ecx, 51					; 00000033H
	mov	eax, -858993460				; ccccccccH
	rep stosd
	pop	ecx
	mov	DWORD PTR _this$[ebp], ecx

; 323  : 		Append( strSrc );

	mov	eax, DWORD PTR _strSrc$[ebp]
	push	eax
	mov	ecx, DWORD PTR _this$[ebp]
	call	?Append@?$CSimpleStringT@G$0A@@ATL@@QAEXABV12@@Z ; ATL::CSimpleStringT<unsigned short,0>::Append

; 324  : 
; 325  : 		return( *this );

	mov	eax, DWORD PTR _this$[ebp]

; 326  : 	}

	pop	edi
	pop	esi
	pop	ebx
	add	esp, 204				; 000000ccH
	cmp	ebp, esp
	call	__RTC_CheckEsp
	mov	esp, ebp
	pop	ebp
	ret	4
??Y?$CSimpleStringT@G$0A@@ATL@@QAEAAV01@ABV01@@Z ENDP	; ATL::CSimpleStringT<unsigned short,0>::operator+=
_TEXT	ENDS
PUBLIC	?Append@?$CSimpleStringT@G$0A@@ATL@@QAEXPBGH@Z	; ATL::CSimpleStringT<unsigned short,0>::Append
; Function compile flags: /Odt /RTCcsu /ZI
;	COMDAT ?Append@?$CSimpleStringT@G$0A@@ATL@@QAEXABV12@@Z
_TEXT	SEGMENT
_this$ = -8						; size = 4
_strSrc$ = 8						; size = 4
?Append@?$CSimpleStringT@G$0A@@ATL@@QAEXABV12@@Z PROC NEAR ; ATL::CSimpleStringT<unsigned short,0>::Append, COMDAT
; _this$ = ecx

; 412  : 	{

	push	ebp
	mov	ebp, esp
	sub	esp, 204				; 000000ccH
	push	ebx
	push	esi
	push	edi
	push	ecx
	lea	edi, DWORD PTR [ebp-204]
	mov	ecx, 51					; 00000033H
	mov	eax, -858993460				; ccccccccH
	rep stosd
	pop	ecx
	mov	DWORD PTR _this$[ebp], ecx

; 413  : 		Append( strSrc.GetString(), strSrc.GetLength() );

	mov	ecx, DWORD PTR _strSrc$[ebp]
	call	?GetLength@?$CSimpleStringT@G$0A@@ATL@@QBEHXZ ; ATL::CSimpleStringT<unsigned short,0>::GetLength
	push	eax
	mov	ecx, DWORD PTR _strSrc$[ebp]
	call	?GetString@?$CSimpleStringT@G$0A@@ATL@@QBEPBGXZ ; ATL::CSimpleStringT<unsigned short,0>::GetString
	push	eax
	mov	ecx, DWORD PTR _this$[ebp]
	call	?Append@?$CSimpleStringT@G$0A@@ATL@@QAEXPBGH@Z ; ATL::CSimpleStringT<unsigned short,0>::Append

; 414  : 	}

	pop	edi
	pop	esi
	pop	ebx
	add	esp, 204				; 000000ccH
	cmp	ebp, esp
	call	__RTC_CheckEsp
	mov	esp, ebp
	pop	ebp
	ret	4
?Append@?$CSimpleStringT@G$0A@@ATL@@QAEXABV12@@Z ENDP	; ATL::CSimpleStringT<unsigned short,0>::Append
_TEXT	ENDS
PUBLIC	?GetBuffer@?$CSimpleStringT@G$0A@@ATL@@QAEPAGH@Z ; ATL::CSimpleStringT<unsigned short,0>::GetBuffer
PUBLIC	?ReleaseBufferSetLength@?$CSimpleStringT@G$0A@@ATL@@QAEXH@Z ; ATL::CSimpleStringT<unsigned short,0>::ReleaseBufferSetLength
PUBLIC	?CopyChars@?$CSimpleStringT@G$0A@@ATL@@SAXPAGPBGH@Z ; ATL::CSimpleStringT<unsigned short,0>::CopyChars
; Function compile flags: /Odt /RTCcsu /ZI
;	COMDAT ?Append@?$CSimpleStringT@G$0A@@ATL@@QAEXPBGH@Z
_TEXT	SEGMENT
_pszBuffer$ = -56					; size = 4
_nNewLength$ = -44					; size = 4
_nOldLength$ = -32					; size = 4
_nOffset$ = -20						; size = 4
_this$ = -8						; size = 4
_pszSrc$ = 8						; size = 4
_nLength$ = 12						; size = 4
?Append@?$CSimpleStringT@G$0A@@ATL@@QAEXPBGH@Z PROC NEAR ; ATL::CSimpleStringT<unsigned short,0>::Append, COMDAT
; _this$ = ecx

; 387  : 	{

	push	ebp
	mov	ebp, esp
	sub	esp, 252				; 000000fcH
	push	ebx
	push	esi
	push	edi
	push	ecx
	lea	edi, DWORD PTR [ebp-252]
	mov	ecx, 63					; 0000003fH
	mov	eax, -858993460				; ccccccccH
	rep stosd
	pop	ecx
	mov	DWORD PTR _this$[ebp], ecx

; 388  : 		// See comment in SetString() about why we do this
; 389  : 		UINT_PTR nOffset = pszSrc-GetString();

	mov	ecx, DWORD PTR _this$[ebp]
	call	?GetString@?$CSimpleStringT@G$0A@@ATL@@QBEPBGXZ ; ATL::CSimpleStringT<unsigned short,0>::GetString
	mov	ecx, DWORD PTR _pszSrc$[ebp]
	sub	ecx, eax
	sar	ecx, 1
	mov	DWORD PTR _nOffset$[ebp], ecx

; 390  : 
; 391  : 		UINT nOldLength = GetLength();

	mov	ecx, DWORD PTR _this$[ebp]
	call	?GetLength@?$CSimpleStringT@G$0A@@ATL@@QBEHXZ ; ATL::CSimpleStringT<unsigned short,0>::GetLength
	mov	DWORD PTR _nOldLength$[ebp], eax

; 392  : 		int nNewLength = nOldLength+nLength;

	mov	eax, DWORD PTR _nOldLength$[ebp]
	add	eax, DWORD PTR _nLength$[ebp]
	mov	DWORD PTR _nNewLength$[ebp], eax

; 393  : 		PXSTR pszBuffer = GetBuffer( nNewLength );

	mov	eax, DWORD PTR _nNewLength$[ebp]
	push	eax
	mov	ecx, DWORD PTR _this$[ebp]
	call	?GetBuffer@?$CSimpleStringT@G$0A@@ATL@@QAEPAGH@Z ; ATL::CSimpleStringT<unsigned short,0>::GetBuffer
	mov	DWORD PTR _pszBuffer$[ebp], eax

; 394  : 		if( nOffset <= nOldLength )

	mov	eax, DWORD PTR _nOffset$[ebp]
	cmp	eax, DWORD PTR _nOldLength$[ebp]
	ja	SHORT $L94115

; 395  : 		{
; 396  : 			pszSrc = pszBuffer+nOffset;

	mov	eax, DWORD PTR _nOffset$[ebp]
	mov	ecx, DWORD PTR _pszBuffer$[ebp]
	lea	edx, DWORD PTR [ecx+eax*2]
	mov	DWORD PTR _pszSrc$[ebp], edx
$L94115:

; 397  : 			// No need to call CopyCharsOverlapped, since the destination is
; 398  : 			// beyond the end of the original buffer
; 399  : 		}
; 400  : 		CopyChars( pszBuffer+nOldLength, pszSrc, nLength );

	mov	eax, DWORD PTR _nLength$[ebp]
	push	eax
	mov	ecx, DWORD PTR _pszSrc$[ebp]
	push	ecx
	mov	edx, DWORD PTR _nOldLength$[ebp]
	mov	eax, DWORD PTR _pszBuffer$[ebp]
	lea	ecx, DWORD PTR [eax+edx*2]
	push	ecx
	call	?CopyChars@?$CSimpleStringT@G$0A@@ATL@@SAXPAGPBGH@Z ; ATL::CSimpleStringT<unsigned short,0>::CopyChars
	add	esp, 12					; 0000000cH

; 401  : 		ReleaseBufferSetLength( nNewLength );

	mov	eax, DWORD PTR _nNewLength$[ebp]
	push	eax
	mov	ecx, DWORD PTR _this$[ebp]
	call	?ReleaseBufferSetLength@?$CSimpleStringT@G$0A@@ATL@@QAEXH@Z ; ATL::CSimpleStringT<unsigned short,0>::ReleaseBufferSetLength

; 402  : 	}

	pop	edi
	pop	esi
	pop	ebx
	add	esp, 252				; 000000fcH
	cmp	ebp, esp
	call	__RTC_CheckEsp
	mov	esp, ebp
	pop	ebp
	ret	8
?Append@?$CSimpleStringT@G$0A@@ATL@@QAEXPBGH@Z ENDP	; ATL::CSimpleStringT<unsigned short,0>::Append
_TEXT	ENDS
EXTRN	@_RTC_Check_4_to_1@4:NEAR
; Function compile flags: /Odt /RTCcsu /ZI
;	COMDAT ?IsLocked@CStringData@ATL@@QBE_NXZ
_TEXT	SEGMENT
_this$ = -8						; size = 4
?IsLocked@CStringData@ATL@@QBE_NXZ PROC NEAR		; ATL::CStringData::IsLocked, COMDAT
; _this$ = ecx

; 75   : 	{

	push	ebp
	mov	ebp, esp
	sub	esp, 204				; 000000ccH
	push	ebx
	push	esi
	push	edi
	push	ecx
	lea	edi, DWORD PTR [ebp-204]
	mov	ecx, 51					; 00000033H
	mov	eax, -858993460				; ccccccccH
	rep stosd
	pop	ecx
	mov	DWORD PTR _this$[ebp], ecx

; 76   : 		return nRefs < 0;

	mov	eax, DWORD PTR _this$[ebp]
	xor	ecx, ecx
	cmp	DWORD PTR [eax+12], 0
	setl	cl
	call	@_RTC_Check_4_to_1@4

; 77   : 	}

	pop	edi
	pop	esi
	pop	ebx
	add	esp, 204				; 000000ccH
	cmp	ebp, esp
	call	__RTC_CheckEsp
	mov	esp, ebp
	pop	ebp
	ret	0
?IsLocked@CStringData@ATL@@QBE_NXZ ENDP			; ATL::CStringData::IsLocked
_TEXT	ENDS
PUBLIC	??_C@_0FD@JDCNPMMG@c?3?2program?5files?2microsoft?5visua@ ; `string'
PUBLIC	??_C@_0L@OIIMFBNE@nRefs?5?$CB?$DN?50?$AA@	; `string'
EXTRN	__CrtDbgReport:NEAR
;	COMDAT ??_C@_0L@OIIMFBNE@nRefs?5?$CB?$DN?50?$AA@
CONST	SEGMENT
??_C@_0L@OIIMFBNE@nRefs?5?$CB?$DN?50?$AA@ DB 'nRefs != 0', 00H ; `string'
CONST	ENDS
;	COMDAT ??_C@_0FD@JDCNPMMG@c?3?2program?5files?2microsoft?5visua@
CONST	SEGMENT
??_C@_0FD@JDCNPMMG@c?3?2program?5files?2microsoft?5visua@ DB 'c:\program '
	DB	'files\microsoft visual studio .net 2003\vc7\atlmfc\include\at'
	DB	'lsimpstr.h', 00H				; `string'
; Function compile flags: /Odt /RTCcsu /ZI
CONST	ENDS
;	COMDAT ?Release@CStringData@ATL@@QAEXXZ
_TEXT	SEGMENT
_this$ = -8						; size = 4
?Release@CStringData@ATL@@QAEXXZ PROC NEAR		; ATL::CStringData::Release, COMDAT
; _this$ = ecx

; 92   : 	{

	push	ebp
	mov	ebp, esp
	sub	esp, 204				; 000000ccH
	push	ebx
	push	esi
	push	edi
	push	ecx
	lea	edi, DWORD PTR [ebp-204]
	mov	ecx, 51					; 00000033H
	mov	eax, -858993460				; ccccccccH
	rep stosd
	pop	ecx
	mov	DWORD PTR _this$[ebp], ecx

; 93   : 		ATLASSERT( nRefs != 0 );

	mov	eax, DWORD PTR _this$[ebp]
	cmp	DWORD PTR [eax+12], 0
	jne	SHORT $L94584
	push	OFFSET FLAT:??_C@_0L@OIIMFBNE@nRefs?5?$CB?$DN?50?$AA@
	push	0
	push	93					; 0000005dH
	push	OFFSET FLAT:??_C@_0FD@JDCNPMMG@c?3?2program?5files?2microsoft?5visua@
	push	2
	call	__CrtDbgReport
	add	esp, 20					; 00000014H
	cmp	eax, 1
	jne	SHORT $L94584
	int	3
$L94584:

; 94   : 
; 95   : 		if( _InterlockedDecrement( &nRefs ) <= 0 )

	mov	eax, DWORD PTR _this$[ebp]
	add	eax, 12					; 0000000cH
	or	ecx, -1
	lock	 xadd	 DWORD PTR [eax], ecx
	dec	ecx
	test	ecx, ecx
	jg	SHORT $L26116

; 96   : 		{
; 97   : 			pStringMgr->Free( this );

	mov	esi, esp
	mov	eax, DWORD PTR _this$[ebp]
	push	eax
	mov	ecx, DWORD PTR _this$[ebp]
	mov	edx, DWORD PTR [ecx]
	mov	eax, DWORD PTR _this$[ebp]
	mov	ecx, DWORD PTR [eax]
	mov	edx, DWORD PTR [edx]
	call	DWORD PTR [edx+4]
	cmp	esi, esp
	call	__RTC_CheckEsp
$L26116:

; 98   : 		}
; 99   : 	}

	pop	edi
	pop	esi
	pop	ebx
	add	esp, 204				; 000000ccH
	cmp	ebp, esp
	call	__RTC_CheckEsp
	mov	esp, ebp
	pop	ebp
	ret	0
?Release@CStringData@ATL@@QAEXXZ ENDP			; ATL::CStringData::Release
_TEXT	ENDS
PUBLIC	??0?$CSimpleStringT@G$0A@@ATL@@QAE@PAUIAtlStringMgr@1@@Z ; ATL::CSimpleStringT<unsigned short,0>::CSimpleStringT<unsigned short,0>
PUBLIC	?GetDefaultManager@?$StrTraitMFC@GV?$ChTraitsCRT@G@ATL@@@@SAPAUIAtlStringMgr@ATL@@XZ ; StrTraitMFC<unsigned short,ATL::ChTraitsCRT<unsigned short> >::GetDefaultManager
; Function compile flags: /Odt /RTCcsu /ZI
; File c:\program files\microsoft visual studio .net 2003\vc7\atlmfc\include\cstringt.h
;	COMDAT ??0?$CStringT@GV?$StrTraitMFC@GV?$ChTraitsCRT@G@ATL@@@@@ATL@@QAE@XZ
_TEXT	SEGMENT
_this$ = -8						; size = 4
??0?$CStringT@GV?$StrTraitMFC@GV?$ChTraitsCRT@G@ATL@@@@@ATL@@QAE@XZ PROC NEAR ; ATL::CStringT<unsigned short,StrTraitMFC<unsigned short,ATL::ChTraitsCRT<unsigned short> > >::CStringT<unsigned short,StrTraitMFC<unsigned short,ATL::ChTraitsCRT<unsigned short> > >, COMDAT
; _this$ = ecx

; 796  : 	{

	push	ebp
	mov	ebp, esp
	sub	esp, 204				; 000000ccH
	push	ebx
	push	esi
	push	edi
	push	ecx
	lea	edi, DWORD PTR [ebp-204]
	mov	ecx, 51					; 00000033H
	mov	eax, -858993460				; ccccccccH
	rep stosd
	pop	ecx
	mov	DWORD PTR _this$[ebp], ecx
	call	?GetDefaultManager@?$StrTraitMFC@GV?$ChTraitsCRT@G@ATL@@@@SAPAUIAtlStringMgr@ATL@@XZ ; StrTraitMFC<unsigned short,ATL::ChTraitsCRT<unsigned short> >::GetDefaultManager
	push	eax
	mov	ecx, DWORD PTR _this$[ebp]
	call	??0?$CSimpleStringT@G$0A@@ATL@@QAE@PAUIAtlStringMgr@1@@Z ; ATL::CSimpleStringT<unsigned short,0>::CSimpleStringT<unsigned short,0>

; 797  : 	}

	mov	eax, DWORD PTR _this$[ebp]
	pop	edi
	pop	esi
	pop	ebx
	add	esp, 204				; 000000ccH
	cmp	ebp, esp
	call	__RTC_CheckEsp
	mov	esp, ebp
	pop	ebp
	ret	0
??0?$CStringT@GV?$StrTraitMFC@GV?$ChTraitsCRT@G@ATL@@@@@ATL@@QAE@XZ ENDP ; ATL::CStringT<unsigned short,StrTraitMFC<unsigned short,ATL::ChTraitsCRT<unsigned short> > >::CStringT<unsigned short,StrTraitMFC<unsigned short,ATL::ChTraitsCRT<unsigned short> > >
_TEXT	ENDS
PUBLIC	??0?$CSimpleStringT@G$0A@@ATL@@QAE@ABV01@@Z	; ATL::CSimpleStringT<unsigned short,0>::CSimpleStringT<unsigned short,0>
; Function compile flags: /Odt /RTCcsu /ZI
;	COMDAT ??0?$CStringT@GV?$StrTraitMFC@GV?$ChTraitsCRT@G@ATL@@@@@ATL@@QAE@ABV01@@Z
_TEXT	SEGMENT
_this$ = -8						; size = 4
_strSrc$ = 8						; size = 4
??0?$CStringT@GV?$StrTraitMFC@GV?$ChTraitsCRT@G@ATL@@@@@ATL@@QAE@ABV01@@Z PROC NEAR ; ATL::CStringT<unsigned short,StrTraitMFC<unsigned short,ATL::ChTraitsCRT<unsigned short> > >::CStringT<unsigned short,StrTraitMFC<unsigned short,ATL::ChTraitsCRT<unsigned short> > >, COMDAT
; _this$ = ecx

; 814  : 	{

	push	ebp
	mov	ebp, esp
	sub	esp, 204				; 000000ccH
	push	ebx
	push	esi
	push	edi
	push	ecx
	lea	edi, DWORD PTR [ebp-204]
	mov	ecx, 51					; 00000033H
	mov	eax, -858993460				; ccccccccH
	rep stosd
	pop	ecx
	mov	DWORD PTR _this$[ebp], ecx
	mov	eax, DWORD PTR _strSrc$[ebp]
	push	eax
	mov	ecx, DWORD PTR _this$[ebp]
	call	??0?$CSimpleStringT@G$0A@@ATL@@QAE@ABV01@@Z ; ATL::CSimpleStringT<unsigned short,0>::CSimpleStringT<unsigned short,0>

; 815  : 	}

	mov	eax, DWORD PTR _this$[ebp]
	pop	edi
	pop	esi
	pop	ebx
	add	esp, 204				; 000000ccH
	cmp	ebp, esp
	call	__RTC_CheckEsp
	mov	esp, ebp
	pop	ebp
	ret	4
??0?$CStringT@GV?$StrTraitMFC@GV?$ChTraitsCRT@G@ATL@@@@@ATL@@QAE@ABV01@@Z ENDP ; ATL::CStringT<unsigned short,StrTraitMFC<unsigned short,ATL::ChTraitsCRT<unsigned short> > >::CStringT<unsigned short,StrTraitMFC<unsigned short,ATL::ChTraitsCRT<unsigned short> > >
_TEXT	ENDS
PUBLIC	??1?$CSimpleStringT@G$0A@@ATL@@QAE@XZ		; ATL::CSimpleStringT<unsigned short,0>::~CSimpleStringT<unsigned short,0>
; Function compile flags: /Odt /RTCcsu /ZI
;	COMDAT ??1?$CStringT@GV?$StrTraitMFC@GV?$ChTraitsCRT@G@ATL@@@@@ATL@@QAE@XZ
_TEXT	SEGMENT
_this$ = -8						; size = 4
??1?$CStringT@GV?$StrTraitMFC@GV?$ChTraitsCRT@G@ATL@@@@@ATL@@QAE@XZ PROC NEAR ; ATL::CStringT<unsigned short,StrTraitMFC<unsigned short,ATL::ChTraitsCRT<unsigned short> > >::~CStringT<unsigned short,StrTraitMFC<unsigned short,ATL::ChTraitsCRT<unsigned short> > >, COMDAT
; _this$ = ecx

; 962  : 	{

	push	ebp
	mov	ebp, esp
	sub	esp, 204				; 000000ccH
	push	ebx
	push	esi
	push	edi
	push	ecx
	lea	edi, DWORD PTR [ebp-204]
	mov	ecx, 51					; 00000033H
	mov	eax, -858993460				; ccccccccH
	rep stosd
	pop	ecx
	mov	DWORD PTR _this$[ebp], ecx

; 963  : 	}

	mov	ecx, DWORD PTR _this$[ebp]
	call	??1?$CSimpleStringT@G$0A@@ATL@@QAE@XZ	; ATL::CSimpleStringT<unsigned short,0>::~CSimpleStringT<unsigned short,0>
	pop	edi
	pop	esi
	pop	ebx
	add	esp, 204				; 000000ccH
	cmp	ebp, esp
	call	__RTC_CheckEsp
	mov	esp, ebp
	pop	ebp
	ret	0
??1?$CStringT@GV?$StrTraitMFC@GV?$ChTraitsCRT@G@ATL@@@@@ATL@@QAE@XZ ENDP ; ATL::CStringT<unsigned short,StrTraitMFC<unsigned short,ATL::ChTraitsCRT<unsigned short> > >::~CStringT<unsigned short,StrTraitMFC<unsigned short,ATL::ChTraitsCRT<unsigned short> > >
_TEXT	ENDS
PUBLIC	??4?$CSimpleStringT@G$0A@@ATL@@QAEAAV01@PBG@Z	; ATL::CSimpleStringT<unsigned short,0>::operator=
; Function compile flags: /Odt /RTCcsu /ZI
;	COMDAT ??4?$CStringT@GV?$StrTraitMFC@GV?$ChTraitsCRT@G@ATL@@@@@ATL@@QAEAAV01@PBG@Z
_TEXT	SEGMENT
_this$ = -8						; size = 4
_pszSrc$ = 8						; size = 4
??4?$CStringT@GV?$StrTraitMFC@GV?$ChTraitsCRT@G@ATL@@@@@ATL@@QAEAAV01@PBG@Z PROC NEAR ; ATL::CStringT<unsigned short,StrTraitMFC<unsigned short,ATL::ChTraitsCRT<unsigned short> > >::operator=, COMDAT
; _this$ = ecx

; 982  : 	{

	push	ebp
	mov	ebp, esp
	sub	esp, 204				; 000000ccH
	push	ebx
	push	esi
	push	edi
	push	ecx
	lea	edi, DWORD PTR [ebp-204]
	mov	ecx, 51					; 00000033H
	mov	eax, -858993460				; ccccccccH
	rep stosd
	pop	ecx
	mov	DWORD PTR _this$[ebp], ecx

; 983  : 		CThisSimpleString::operator=( pszSrc );

	mov	eax, DWORD PTR _pszSrc$[ebp]
	push	eax
	mov	ecx, DWORD PTR _this$[ebp]
	call	??4?$CSimpleStringT@G$0A@@ATL@@QAEAAV01@PBG@Z ; ATL::CSimpleStringT<unsigned short,0>::operator=

; 984  : 
; 985  : 		return( *this );

	mov	eax, DWORD PTR _this$[ebp]

; 986  : 	}

	pop	edi
	pop	esi
	pop	ebx
	add	esp, 204				; 000000ccH
	cmp	ebp, esp
	call	__RTC_CheckEsp
	mov	esp, ebp
	pop	ebp
	ret	4
??4?$CStringT@GV?$StrTraitMFC@GV?$ChTraitsCRT@G@ATL@@@@@ATL@@QAEAAV01@PBG@Z ENDP ; ATL::CStringT<unsigned short,StrTraitMFC<unsigned short,ATL::ChTraitsCRT<unsigned short> > >::operator=
; Function compile flags: /Odt /RTCcsu /ZI
; File c:\program files\microsoft visual studio .net 2003\vc7\atlmfc\include\atlsimpstr.h
_TEXT	ENDS
;	COMDAT ??B?$CSimpleStringT@G$0A@@ATL@@QBEPBGXZ
_TEXT	SEGMENT
_this$ = -8						; size = 4
??B?$CSimpleStringT@G$0A@@ATL@@QBEPBGXZ PROC NEAR	; ATL::CSimpleStringT<unsigned short,0>::operator unsigned short const *, COMDAT
; _this$ = ecx

; 378  : 	{

	push	ebp
	mov	ebp, esp
	sub	esp, 204				; 000000ccH
	push	ebx
	push	esi
	push	edi
	push	ecx
	lea	edi, DWORD PTR [ebp-204]
	mov	ecx, 51					; 00000033H
	mov	eax, -858993460				; ccccccccH
	rep stosd
	pop	ecx
	mov	DWORD PTR _this$[ebp], ecx

; 379  : 		return( m_pszData );

	mov	eax, DWORD PTR _this$[ebp]
	mov	eax, DWORD PTR [eax]

; 380  : 	}

	pop	edi
	pop	esi
	pop	ebx
	mov	esp, ebp
	pop	ebp
	ret	0
??B?$CSimpleStringT@G$0A@@ATL@@QBEPBGXZ ENDP		; ATL::CSimpleStringT<unsigned short,0>::operator unsigned short const *
; Function compile flags: /Odt /RTCcsu /ZI
_TEXT	ENDS
;	COMDAT ?GetLength@?$CSimpleStringT@G$0A@@ATL@@QBEHXZ
_TEXT	SEGMENT
_this$ = -8						; size = 4
?GetLength@?$CSimpleStringT@G$0A@@ATL@@QBEHXZ PROC NEAR	; ATL::CSimpleStringT<unsigned short,0>::GetLength, COMDAT
; _this$ = ecx

; 500  : 	{

	push	ebp
	mov	ebp, esp
	sub	esp, 204				; 000000ccH
	push	ebx
	push	esi
	push	edi
	push	ecx
	lea	edi, DWORD PTR [ebp-204]
	mov	ecx, 51					; 00000033H
	mov	eax, -858993460				; ccccccccH
	rep stosd
	pop	ecx
	mov	DWORD PTR _this$[ebp], ecx

; 501  : 		return( GetData()->nDataLength );

	mov	ecx, DWORD PTR _this$[ebp]
	call	?GetData@?$CSimpleStringT@G$0A@@ATL@@ABEPAUCStringData@2@XZ ; ATL::CSimpleStringT<unsigned short,0>::GetData
	mov	eax, DWORD PTR [eax+4]

; 502  : 	}

	pop	edi
	pop	esi
	pop	ebx
	add	esp, 204				; 000000ccH
	cmp	ebp, esp
	call	__RTC_CheckEsp
	mov	esp, ebp
	pop	ebp
	ret	0
?GetLength@?$CSimpleStringT@G$0A@@ATL@@QBEHXZ ENDP	; ATL::CSimpleStringT<unsigned short,0>::GetLength
_TEXT	ENDS
PUBLIC	?Empty@?$CSimpleStringT@G$0A@@ATL@@QAEXXZ	; ATL::CSimpleStringT<unsigned short,0>::Empty
PUBLIC	?GetBaseTypeLength@?$ChTraitsCRT@G@ATL@@SAHPBD@Z ; ATL::ChTraitsCRT<unsigned short>::GetBaseTypeLength
PUBLIC	?ConvertToBaseType@?$ChTraitsCRT@G@ATL@@SAXPAGHPBDH@Z ; ATL::ChTraitsCRT<unsigned short>::ConvertToBaseType
; Function compile flags: /Odt /RTCcsu /ZI
; File c:\program files\microsoft visual studio .net 2003\vc7\atlmfc\include\cstringt.h
;	COMDAT ??4?$CStringT@GV?$StrTraitMFC@GV?$ChTraitsCRT@G@ATL@@@@@ATL@@QAEAAV01@PBD@Z
_TEXT	SEGMENT
tv67 = -232						; size = 4
_pszBuffer$92707 = -32					; size = 4
_nDestLength$ = -20					; size = 4
_this$ = -8						; size = 4
_pszSrc$ = 8						; size = 4
??4?$CStringT@GV?$StrTraitMFC@GV?$ChTraitsCRT@G@ATL@@@@@ATL@@QAEAAV01@PBD@Z PROC NEAR ; ATL::CStringT<unsigned short,StrTraitMFC<unsigned short,ATL::ChTraitsCRT<unsigned short> > >::operator=, COMDAT
; _this$ = ecx

; 989  : 	{

	push	ebp
	mov	ebp, esp
	sub	esp, 232				; 000000e8H
	push	ebx
	push	esi
	push	edi
	push	ecx
	lea	edi, DWORD PTR [ebp-232]
	mov	ecx, 58					; 0000003aH
	mov	eax, -858993460				; ccccccccH
	rep stosd
	pop	ecx
	mov	DWORD PTR _this$[ebp], ecx

; 990  : 		// nDestLength is in XCHARs
; 991  : 		int nDestLength = (pszSrc != NULL) ? StringTraits::GetBaseTypeLength( pszSrc ) : 0;

	cmp	DWORD PTR _pszSrc$[ebp], 0
	je	SHORT $L94600
	mov	eax, DWORD PTR _pszSrc$[ebp]
	push	eax
	call	?GetBaseTypeLength@?$ChTraitsCRT@G@ATL@@SAHPBD@Z ; ATL::ChTraitsCRT<unsigned short>::GetBaseTypeLength
	add	esp, 4
	mov	DWORD PTR tv67[ebp], eax
	jmp	SHORT $L94601
$L94600:
	mov	DWORD PTR tv67[ebp], 0
$L94601:
	mov	ecx, DWORD PTR tv67[ebp]
	mov	DWORD PTR _nDestLength$[ebp], ecx

; 992  : 		if( nDestLength > 0 )

	cmp	DWORD PTR _nDestLength$[ebp], 0
	jle	SHORT $L92706

; 993  : 		{
; 994  : 			PXSTR pszBuffer = GetBuffer( nDestLength );

	mov	eax, DWORD PTR _nDestLength$[ebp]
	push	eax
	mov	ecx, DWORD PTR _this$[ebp]
	call	?GetBuffer@?$CSimpleStringT@G$0A@@ATL@@QAEPAGH@Z ; ATL::CSimpleStringT<unsigned short,0>::GetBuffer
	mov	DWORD PTR _pszBuffer$92707[ebp], eax

; 995  : 			StringTraits::ConvertToBaseType( pszBuffer, nDestLength, pszSrc );

	push	-1
	mov	eax, DWORD PTR _pszSrc$[ebp]
	push	eax
	mov	ecx, DWORD PTR _nDestLength$[ebp]
	push	ecx
	mov	edx, DWORD PTR _pszBuffer$92707[ebp]
	push	edx
	call	?ConvertToBaseType@?$ChTraitsCRT@G@ATL@@SAXPAGHPBDH@Z ; ATL::ChTraitsCRT<unsigned short>::ConvertToBaseType
	add	esp, 16					; 00000010H

; 996  : 			ReleaseBufferSetLength( nDestLength );

	mov	eax, DWORD PTR _nDestLength$[ebp]
	push	eax
	mov	ecx, DWORD PTR _this$[ebp]
	call	?ReleaseBufferSetLength@?$CSimpleStringT@G$0A@@ATL@@QAEXH@Z ; ATL::CSimpleStringT<unsigned short,0>::ReleaseBufferSetLength

; 997  : 		}
; 998  : 		else

	jmp	SHORT $L92708
$L92706:

; 999  : 		{
; 1000 : 			Empty();

	mov	ecx, DWORD PTR _this$[ebp]
	call	?Empty@?$CSimpleStringT@G$0A@@ATL@@QAEXXZ ; ATL::CSimpleStringT<unsigned short,0>::Empty
$L92708:

; 1001 : 		}
; 1002 : 
; 1003 : 		return( *this );

	mov	eax, DWORD PTR _this$[ebp]

; 1004 : 	}

	pop	edi
	pop	esi
	pop	ebx
	add	esp, 232				; 000000e8H
	cmp	ebp, esp
	call	__RTC_CheckEsp
	mov	esp, ebp
	pop	ebp
	ret	4
??4?$CStringT@GV?$StrTraitMFC@GV?$ChTraitsCRT@G@ATL@@@@@ATL@@QAEAAV01@PBD@Z ENDP ; ATL::CStringT<unsigned short,StrTraitMFC<unsigned short,ATL::ChTraitsCRT<unsigned short> > >::operator=
_TEXT	ENDS
PUBLIC	?_AtlGetConversionACP@ATL@@YGIXZ		; ATL::_AtlGetConversionACP
EXTRN	__imp__MultiByteToWideChar@24:NEAR
; Function compile flags: /Odt /RTCcsu /ZI
;	COMDAT ?GetBaseTypeLength@?$ChTraitsCRT@G@ATL@@SAHPBD@Z
_TEXT	SEGMENT
_pszSrc$ = 8						; size = 4
?GetBaseTypeLength@?$ChTraitsCRT@G@ATL@@SAHPBD@Z PROC NEAR ; ATL::ChTraitsCRT<unsigned short>::GetBaseTypeLength, COMDAT

; 653  : 	{

	push	ebp
	mov	ebp, esp
	sub	esp, 192				; 000000c0H
	push	ebx
	push	esi
	push	edi
	lea	edi, DWORD PTR [ebp-192]
	mov	ecx, 48					; 00000030H
	mov	eax, -858993460				; ccccccccH
	rep stosd

; 654  : 		// Returns required buffer size in wchar_ts
; 655  : 		return ::MultiByteToWideChar( _AtlGetConversionACP(), 0, pszSrc, -1, NULL, 0 )-1;

	mov	esi, esp
	push	0
	push	0
	push	-1
	mov	eax, DWORD PTR _pszSrc$[ebp]
	push	eax
	push	0
	call	?_AtlGetConversionACP@ATL@@YGIXZ	; ATL::_AtlGetConversionACP
	push	eax
	call	DWORD PTR __imp__MultiByteToWideChar@24
	cmp	esi, esp
	call	__RTC_CheckEsp
	sub	eax, 1

; 656  : 	}

	pop	edi
	pop	esi
	pop	ebx
	add	esp, 192				; 000000c0H
	cmp	ebp, esp
	call	__RTC_CheckEsp
	mov	esp, ebp
	pop	ebp
	ret	0
?GetBaseTypeLength@?$ChTraitsCRT@G@ATL@@SAHPBD@Z ENDP	; ATL::ChTraitsCRT<unsigned short>::GetBaseTypeLength
; Function compile flags: /Odt /RTCcsu /ZI
; File c:\program files\microsoft visual studio .net 2003\vc7\atlmfc\include\atlconv.h
_TEXT	ENDS
;	COMDAT ?_AtlGetConversionACP@ATL@@YGIXZ
_TEXT	SEGMENT
?_AtlGetConversionACP@ATL@@YGIXZ PROC NEAR		; ATL::_AtlGetConversionACP, COMDAT

; 157  : {

	push	ebp
	mov	ebp, esp
	sub	esp, 192				; 000000c0H
	push	ebx
	push	esi
	push	edi
	lea	edi, DWORD PTR [ebp-192]
	mov	ecx, 48					; 00000030H
	mov	eax, -858993460				; ccccccccH
	rep stosd

; 158  : 	return( g_pfnGetThreadACP() );

	mov	esi, esp
	call	DWORD PTR ?g_pfnGetThreadACP@ATL@@3P6GIXZA ; ATL::g_pfnGetThreadACP
	cmp	esi, esp
	call	__RTC_CheckEsp

; 159  : }

	pop	edi
	pop	esi
	pop	ebx
	add	esp, 192				; 000000c0H
	cmp	ebp, esp
	call	__RTC_CheckEsp
	mov	esp, ebp
	pop	ebp
	ret	0
?_AtlGetConversionACP@ATL@@YGIXZ ENDP			; ATL::_AtlGetConversionACP
; Function compile flags: /Odt /RTCcsu /ZI
; File c:\program files\microsoft visual studio .net 2003\vc7\atlmfc\include\cstringt.h
_TEXT	ENDS
;	COMDAT ?ConvertToBaseType@?$ChTraitsCRT@G@ATL@@SAXPAGHPBDH@Z
_TEXT	SEGMENT
_pszDest$ = 8						; size = 4
_nDestLength$ = 12					; size = 4
_pszSrc$ = 16						; size = 4
_nSrcLength$ = 20					; size = 4
?ConvertToBaseType@?$ChTraitsCRT@G@ATL@@SAXPAGHPBDH@Z PROC NEAR ; ATL::ChTraitsCRT<unsigned short>::ConvertToBaseType, COMDAT

; 679  : 	{

	push	ebp
	mov	ebp, esp
	sub	esp, 192				; 000000c0H
	push	ebx
	push	esi
	push	edi
	lea	edi, DWORD PTR [ebp-192]
	mov	ecx, 48					; 00000030H
	mov	eax, -858993460				; ccccccccH
	rep stosd

; 680  : 		// nLen is in wchar_ts
; 681  : 		::MultiByteToWideChar( _AtlGetConversionACP(), 0, pszSrc, nSrcLength, pszDest, nDestLength );

	mov	esi, esp
	mov	eax, DWORD PTR _nDestLength$[ebp]
	push	eax
	mov	ecx, DWORD PTR _pszDest$[ebp]
	push	ecx
	mov	edx, DWORD PTR _nSrcLength$[ebp]
	push	edx
	mov	eax, DWORD PTR _pszSrc$[ebp]
	push	eax
	push	0
	call	?_AtlGetConversionACP@ATL@@YGIXZ	; ATL::_AtlGetConversionACP
	push	eax
	call	DWORD PTR __imp__MultiByteToWideChar@24
	cmp	esi, esp
	call	__RTC_CheckEsp

; 682  : 	}

	pop	edi
	pop	esi
	pop	ebx
	add	esp, 192				; 000000c0H
	cmp	ebp, esp
	call	__RTC_CheckEsp
	mov	esp, ebp
	pop	ebp
	ret	0
?ConvertToBaseType@?$ChTraitsCRT@G@ATL@@SAXPAGHPBDH@Z ENDP ; ATL::ChTraitsCRT<unsigned short>::ConvertToBaseType
_TEXT	ENDS
PUBLIC	??_C@_0BA@GOIMFHNK@pStringMgr?5?$CB?$DN?50?$AA@	; `string'
;	COMDAT ??_C@_0BA@GOIMFHNK@pStringMgr?5?$CB?$DN?50?$AA@
; File c:\program files\microsoft visual studio .net 2003\vc7\atlmfc\include\atlsimpstr.h
CONST	SEGMENT
??_C@_0BA@GOIMFHNK@pStringMgr?5?$CB?$DN?50?$AA@ DB 'pStringMgr != 0', 00H ; `string'
; Function compile flags: /Odt /RTCcsu /ZI
CONST	ENDS
;	COMDAT ??0?$CSimpleStringT@G$0A@@ATL@@QAE@PAUIAtlStringMgr@1@@Z
_TEXT	SEGMENT
_pData$ = -20						; size = 4
_this$ = -8						; size = 4
_pStringMgr$ = 8					; size = 4
??0?$CSimpleStringT@G$0A@@ATL@@QAE@PAUIAtlStringMgr@1@@Z PROC NEAR ; ATL::CSimpleStringT<unsigned short,0>::CSimpleStringT<unsigned short,0>, COMDAT
; _this$ = ecx

; 210  : 	explicit CSimpleStringT( IAtlStringMgr* pStringMgr ) throw()

	push	ebp
	mov	ebp, esp
	sub	esp, 216				; 000000d8H
	push	ebx
	push	esi
	push	edi
	push	ecx
	lea	edi, DWORD PTR [ebp-216]
	mov	ecx, 54					; 00000036H
	mov	eax, -858993460				; ccccccccH
	rep stosd
	pop	ecx
	mov	DWORD PTR _this$[ebp], ecx

; 211  : 	{
; 212  : 		ATLASSERT( pStringMgr != NULL );

	cmp	DWORD PTR _pStringMgr$[ebp], 0
	jne	SHORT $L94610
	push	OFFSET FLAT:??_C@_0BA@GOIMFHNK@pStringMgr?5?$CB?$DN?50?$AA@
	push	0
	push	212					; 000000d4H
	push	OFFSET FLAT:??_C@_0FD@JDCNPMMG@c?3?2program?5files?2microsoft?5visua@
	push	2
	call	__CrtDbgReport
	add	esp, 20					; 00000014H
	cmp	eax, 1
	jne	SHORT $L94610
	int	3
$L94610:

; 213  : 		CStringData* pData = pStringMgr->GetNilString();

	mov	eax, DWORD PTR _pStringMgr$[ebp]
	mov	edx, DWORD PTR [eax]
	mov	esi, esp
	mov	ecx, DWORD PTR _pStringMgr$[ebp]
	call	DWORD PTR [edx+12]
	cmp	esi, esp
	call	__RTC_CheckEsp
	mov	DWORD PTR _pData$[ebp], eax

; 214  : 		Attach( pData );

	mov	eax, DWORD PTR _pData$[ebp]
	push	eax
	mov	ecx, DWORD PTR _this$[ebp]
	call	?Attach@?$CSimpleStringT@G$0A@@ATL@@AAEXPAUCStringData@2@@Z ; ATL::CSimpleStringT<unsigned short,0>::Attach

; 215  : 	}

	mov	eax, DWORD PTR _this$[ebp]
	pop	edi
	pop	esi
	pop	ebx
	add	esp, 216				; 000000d8H
	cmp	ebp, esp
	call	__RTC_CheckEsp
	mov	esp, ebp
	pop	ebp
	ret	4
??0?$CSimpleStringT@G$0A@@ATL@@QAE@PAUIAtlStringMgr@1@@Z ENDP ; ATL::CSimpleStringT<unsigned short,0>::CSimpleStringT<unsigned short,0>
; Function compile flags: /Odt /RTCcsu /ZI
_TEXT	ENDS
;	COMDAT ??0?$CSimpleStringT@G$0A@@ATL@@QAE@ABV01@@Z
_TEXT	SEGMENT
_pNewData$ = -32					; size = 4
_pSrcData$ = -20					; size = 4
_this$ = -8						; size = 4
_strSrc$ = 8						; size = 4
??0?$CSimpleStringT@G$0A@@ATL@@QAE@ABV01@@Z PROC NEAR	; ATL::CSimpleStringT<unsigned short,0>::CSimpleStringT<unsigned short,0>, COMDAT
; _this$ = ecx

; 217  : 	CSimpleStringT( const CSimpleStringT& strSrc )

	push	ebp
	mov	ebp, esp
	sub	esp, 228				; 000000e4H
	push	ebx
	push	esi
	push	edi
	push	ecx
	lea	edi, DWORD PTR [ebp-228]
	mov	ecx, 57					; 00000039H
	mov	eax, -858993460				; ccccccccH
	rep stosd
	pop	ecx
	mov	DWORD PTR _this$[ebp], ecx

; 218  : 	{
; 219  : 		CStringData* pSrcData = strSrc.GetData();

	mov	ecx, DWORD PTR _strSrc$[ebp]
	call	?GetData@?$CSimpleStringT@G$0A@@ATL@@ABEPAUCStringData@2@XZ ; ATL::CSimpleStringT<unsigned short,0>::GetData
	mov	DWORD PTR _pSrcData$[ebp], eax

; 220  : 		CStringData* pNewData = CloneData( pSrcData );

	mov	eax, DWORD PTR _pSrcData$[ebp]
	push	eax
	call	?CloneData@?$CSimpleStringT@G$0A@@ATL@@CAPAUCStringData@2@PAU32@@Z ; ATL::CSimpleStringT<unsigned short,0>::CloneData
	add	esp, 4
	mov	DWORD PTR _pNewData$[ebp], eax

; 221  : 		Attach( pNewData );

	mov	eax, DWORD PTR _pNewData$[ebp]
	push	eax
	mov	ecx, DWORD PTR _this$[ebp]
	call	?Attach@?$CSimpleStringT@G$0A@@ATL@@AAEXPAUCStringData@2@@Z ; ATL::CSimpleStringT<unsigned short,0>::Attach

; 222  : 	}

	mov	eax, DWORD PTR _this$[ebp]
	pop	edi
	pop	esi
	pop	ebx
	add	esp, 228				; 000000e4H
	cmp	ebp, esp
	call	__RTC_CheckEsp
	mov	esp, ebp
	pop	ebp
	ret	4
??0?$CSimpleStringT@G$0A@@ATL@@QAE@ABV01@@Z ENDP	; ATL::CSimpleStringT<unsigned short,0>::CSimpleStringT<unsigned short,0>
; Function compile flags: /Odt /RTCcsu /ZI
_TEXT	ENDS
;	COMDAT ??1?$CSimpleStringT@G$0A@@ATL@@QAE@XZ
_TEXT	SEGMENT
_pData$ = -20						; size = 4
_this$ = -8						; size = 4
??1?$CSimpleStringT@G$0A@@ATL@@QAE@XZ PROC NEAR		; ATL::CSimpleStringT<unsigned short,0>::~CSimpleStringT<unsigned short,0>, COMDAT
; _this$ = ecx

; 262  : 	{

	push	ebp
	mov	ebp, esp
	sub	esp, 216				; 000000d8H
	push	ebx
	push	esi
	push	edi
	push	ecx
	lea	edi, DWORD PTR [ebp-216]
	mov	ecx, 54					; 00000036H
	mov	eax, -858993460				; ccccccccH
	rep stosd
	pop	ecx
	mov	DWORD PTR _this$[ebp], ecx

; 263  : 		CStringData* pData = GetData();

	mov	ecx, DWORD PTR _this$[ebp]
	call	?GetData@?$CSimpleStringT@G$0A@@ATL@@ABEPAUCStringData@2@XZ ; ATL::CSimpleStringT<unsigned short,0>::GetData
	mov	DWORD PTR _pData$[ebp], eax

; 264  : 		pData->Release();

	mov	ecx, DWORD PTR _pData$[ebp]
	call	?Release@CStringData@ATL@@QAEXXZ	; ATL::CStringData::Release

; 265  : 	}

	pop	edi
	pop	esi
	pop	ebx
	add	esp, 216				; 000000d8H
	cmp	ebp, esp
	call	__RTC_CheckEsp
	mov	esp, ebp
	pop	ebp
	ret	0
??1?$CSimpleStringT@G$0A@@ATL@@QAE@XZ ENDP		; ATL::CSimpleStringT<unsigned short,0>::~CSimpleStringT<unsigned short,0>
_TEXT	ENDS
PUBLIC	?SetString@?$CSimpleStringT@G$0A@@ATL@@QAEXPBG@Z ; ATL::CSimpleStringT<unsigned short,0>::SetString
; Function compile flags: /Odt /RTCcsu /ZI
;	COMDAT ??4?$CSimpleStringT@G$0A@@ATL@@QAEAAV01@PBG@Z
_TEXT	SEGMENT
_this$ = -8						; size = 4
_pszSrc$ = 8						; size = 4
??4?$CSimpleStringT@G$0A@@ATL@@QAEAAV01@PBG@Z PROC NEAR	; ATL::CSimpleStringT<unsigned short,0>::operator=, COMDAT
; _this$ = ecx

; 315  : 	{

	push	ebp
	mov	ebp, esp
	sub	esp, 204				; 000000ccH
	push	ebx
	push	esi
	push	edi
	push	ecx
	lea	edi, DWORD PTR [ebp-204]
	mov	ecx, 51					; 00000033H
	mov	eax, -858993460				; ccccccccH
	rep stosd
	pop	ecx
	mov	DWORD PTR _this$[ebp], ecx

; 316  : 		SetString( pszSrc );

	mov	eax, DWORD PTR _pszSrc$[ebp]
	push	eax
	mov	ecx, DWORD PTR _this$[ebp]
	call	?SetString@?$CSimpleStringT@G$0A@@ATL@@QAEXPBG@Z ; ATL::CSimpleStringT<unsigned short,0>::SetString

; 317  : 
; 318  : 		return( *this );

	mov	eax, DWORD PTR _this$[ebp]

; 319  : 	}

	pop	edi
	pop	esi
	pop	ebx
	add	esp, 204				; 000000ccH
	cmp	ebp, esp
	call	__RTC_CheckEsp
	mov	esp, ebp
	pop	ebp
	ret	4
??4?$CSimpleStringT@G$0A@@ATL@@QAEAAV01@PBG@Z ENDP	; ATL::CSimpleStringT<unsigned short,0>::operator=
_TEXT	ENDS
PUBLIC	?PrepareWrite@?$CSimpleStringT@G$0A@@ATL@@AAEPAGH@Z ; ATL::CSimpleStringT<unsigned short,0>::PrepareWrite
; Function compile flags: /Odt /RTCcsu /ZI
;	COMDAT ?GetBuffer@?$CSimpleStringT@G$0A@@ATL@@QAEPAGH@Z
_TEXT	SEGMENT
_this$ = -8						; size = 4
_nMinBufferLength$ = 8					; size = 4
?GetBuffer@?$CSimpleStringT@G$0A@@ATL@@QAEPAGH@Z PROC NEAR ; ATL::CSimpleStringT<unsigned short,0>::GetBuffer, COMDAT
; _this$ = ecx

; 489  : 	{

	push	ebp
	mov	ebp, esp
	sub	esp, 204				; 000000ccH
	push	ebx
	push	esi
	push	edi
	push	ecx
	lea	edi, DWORD PTR [ebp-204]
	mov	ecx, 51					; 00000033H
	mov	eax, -858993460				; ccccccccH
	rep stosd
	pop	ecx
	mov	DWORD PTR _this$[ebp], ecx

; 490  : 		return( PrepareWrite( nMinBufferLength ) );

	mov	eax, DWORD PTR _nMinBufferLength$[ebp]
	push	eax
	mov	ecx, DWORD PTR _this$[ebp]
	call	?PrepareWrite@?$CSimpleStringT@G$0A@@ATL@@AAEPAGH@Z ; ATL::CSimpleStringT<unsigned short,0>::PrepareWrite

; 491  : 	}

	pop	edi
	pop	esi
	pop	ebx
	add	esp, 204				; 000000ccH
	cmp	ebp, esp
	call	__RTC_CheckEsp
	mov	esp, ebp
	pop	ebp
	ret	4
?GetBuffer@?$CSimpleStringT@G$0A@@ATL@@QAEPAGH@Z ENDP	; ATL::CSimpleStringT<unsigned short,0>::GetBuffer
; Function compile flags: /Odt /RTCcsu /ZI
_TEXT	ENDS
;	COMDAT ?GetData@?$CSimpleStringT@G$0A@@ATL@@ABEPAUCStringData@2@XZ
_TEXT	SEGMENT
_this$ = -8						; size = 4
?GetData@?$CSimpleStringT@G$0A@@ATL@@ABEPAUCStringData@2@XZ PROC NEAR ; ATL::CSimpleStringT<unsigned short,0>::GetData, COMDAT
; _this$ = ecx

; 730  : 	{

	push	ebp
	mov	ebp, esp
	sub	esp, 204				; 000000ccH
	push	ebx
	push	esi
	push	edi
	push	ecx
	lea	edi, DWORD PTR [ebp-204]
	mov	ecx, 51					; 00000033H
	mov	eax, -858993460				; ccccccccH
	rep stosd
	pop	ecx
	mov	DWORD PTR _this$[ebp], ecx

; 731  : 		return( reinterpret_cast< CStringData* >( m_pszData )-1 );

	mov	eax, DWORD PTR _this$[ebp]
	mov	eax, DWORD PTR [eax]
	sub	eax, 16					; 00000010H

; 732  : 	}

	pop	edi
	pop	esi
	pop	ebx
	mov	esp, ebp
	pop	ebp
	ret	0
?GetData@?$CSimpleStringT@G$0A@@ATL@@ABEPAUCStringData@2@XZ ENDP ; ATL::CSimpleStringT<unsigned short,0>::GetData
_TEXT	ENDS
PUBLIC	?PrepareWrite2@?$CSimpleStringT@G$0A@@ATL@@AAEXH@Z ; ATL::CSimpleStringT<unsigned short,0>::PrepareWrite2
; Function compile flags: /Odt /RTCcsu /ZI
;	COMDAT ?PrepareWrite@?$CSimpleStringT@G$0A@@ATL@@AAEPAGH@Z
_TEXT	SEGMENT
_nTooShort$ = -44					; size = 4
_nShared$ = -32						; size = 4
_pOldData$ = -20					; size = 4
_this$ = -8						; size = 4
_nLength$ = 8						; size = 4
?PrepareWrite@?$CSimpleStringT@G$0A@@ATL@@AAEPAGH@Z PROC NEAR ; ATL::CSimpleStringT<unsigned short,0>::PrepareWrite, COMDAT
; _this$ = ecx

; 734  : 	{

	push	ebp
	mov	ebp, esp
	sub	esp, 240				; 000000f0H
	push	ebx
	push	esi
	push	edi
	push	ecx
	lea	edi, DWORD PTR [ebp-240]
	mov	ecx, 60					; 0000003cH
	mov	eax, -858993460				; ccccccccH
	rep stosd
	pop	ecx
	mov	DWORD PTR _this$[ebp], ecx

; 735  : 		CStringData* pOldData = GetData();

	mov	ecx, DWORD PTR _this$[ebp]
	call	?GetData@?$CSimpleStringT@G$0A@@ATL@@ABEPAUCStringData@2@XZ ; ATL::CSimpleStringT<unsigned short,0>::GetData
	mov	DWORD PTR _pOldData$[ebp], eax

; 736  : 		int nShared = 1-pOldData->nRefs;  // nShared < 0 means true, >= 0 means false

	mov	eax, DWORD PTR _pOldData$[ebp]
	mov	ecx, 1
	sub	ecx, DWORD PTR [eax+12]
	mov	DWORD PTR _nShared$[ebp], ecx

; 737  : 		int nTooShort = pOldData->nAllocLength-nLength;  // nTooShort < 0 means true, >= 0 means false

	mov	eax, DWORD PTR _pOldData$[ebp]
	mov	ecx, DWORD PTR [eax+8]
	sub	ecx, DWORD PTR _nLength$[ebp]
	mov	DWORD PTR _nTooShort$[ebp], ecx

; 738  : 		if( (nShared|nTooShort) < 0 )  // If either sign bit is set (i.e. either is less than zero), we need to copy data

	mov	eax, DWORD PTR _nShared$[ebp]
	or	eax, DWORD PTR _nTooShort$[ebp]
	jge	SHORT $L92761

; 739  : 		{
; 740  : 			PrepareWrite2( nLength );

	mov	eax, DWORD PTR _nLength$[ebp]
	push	eax
	mov	ecx, DWORD PTR _this$[ebp]
	call	?PrepareWrite2@?$CSimpleStringT@G$0A@@ATL@@AAEXH@Z ; ATL::CSimpleStringT<unsigned short,0>::PrepareWrite2
$L92761:

; 741  : 		}
; 742  : 
; 743  : 		return( m_pszData );

	mov	eax, DWORD PTR _this$[ebp]
	mov	eax, DWORD PTR [eax]

; 744  : 	}

	pop	edi
	pop	esi
	pop	ebx
	add	esp, 240				; 000000f0H
	cmp	ebp, esp
	call	__RTC_CheckEsp
	mov	esp, ebp
	pop	ebp
	ret	4
?PrepareWrite@?$CSimpleStringT@G$0A@@ATL@@AAEPAGH@Z ENDP ; ATL::CSimpleStringT<unsigned short,0>::PrepareWrite
_TEXT	ENDS
EXTRN	?AfxGetStringManager@@YGPAUIAtlStringMgr@ATL@@XZ:NEAR ; AfxGetStringManager
; Function compile flags: /Odt /RTCcsu /ZI
; File c:\program files\microsoft visual studio .net 2003\vc7\atlmfc\include\afxstr.h
;	COMDAT ?GetDefaultManager@?$StrTraitMFC@GV?$ChTraitsCRT@G@ATL@@@@SAPAUIAtlStringMgr@ATL@@XZ
_TEXT	SEGMENT
?GetDefaultManager@?$StrTraitMFC@GV?$ChTraitsCRT@G@ATL@@@@SAPAUIAtlStringMgr@ATL@@XZ PROC NEAR ; StrTraitMFC<unsigned short,ATL::ChTraitsCRT<unsigned short> >::GetDefaultManager, COMDAT

; 49   : 	{

	push	ebp
	mov	ebp, esp
	sub	esp, 192				; 000000c0H
	push	ebx
	push	esi
	push	edi
	lea	edi, DWORD PTR [ebp-192]
	mov	ecx, 48					; 00000030H
	mov	eax, -858993460				; ccccccccH
	rep stosd

; 50   : 		return( AfxGetStringManager() );

	call	?AfxGetStringManager@@YGPAUIAtlStringMgr@ATL@@XZ ; AfxGetStringManager

; 51   : 	}

	pop	edi
	pop	esi
	pop	ebx
	add	esp, 192				; 000000c0H
	cmp	ebp, esp
	call	__RTC_CheckEsp
	mov	esp, ebp
	pop	ebp
	ret	0
?GetDefaultManager@?$StrTraitMFC@GV?$ChTraitsCRT@G@ATL@@@@SAPAUIAtlStringMgr@ATL@@XZ ENDP ; StrTraitMFC<unsigned short,ATL::ChTraitsCRT<unsigned short> >::GetDefaultManager
_TEXT	ENDS
PUBLIC	?SetLength@?$CSimpleStringT@G$0A@@ATL@@AAEXH@Z	; ATL::CSimpleStringT<unsigned short,0>::SetLength
; Function compile flags: /Odt /RTCcsu /ZI
; File c:\program files\microsoft visual studio .net 2003\vc7\atlmfc\include\atlsimpstr.h
;	COMDAT ?Empty@?$CSimpleStringT@G$0A@@ATL@@QAEXXZ
_TEXT	SEGMENT
_pNewData$92796 = -44					; size = 4
_pStringMgr$ = -32					; size = 4
_pOldData$ = -20					; size = 4
_this$ = -8						; size = 4
?Empty@?$CSimpleStringT@G$0A@@ATL@@QAEXXZ PROC NEAR	; ATL::CSimpleStringT<unsigned short,0>::Empty, COMDAT
; _this$ = ecx

; 421  : 	{

	push	ebp
	mov	ebp, esp
	sub	esp, 240				; 000000f0H
	push	ebx
	push	esi
	push	edi
	push	ecx
	lea	edi, DWORD PTR [ebp-240]
	mov	ecx, 60					; 0000003cH
	mov	eax, -858993460				; ccccccccH
	rep stosd
	pop	ecx
	mov	DWORD PTR _this$[ebp], ecx

; 422  : 		CStringData* pOldData = GetData();

	mov	ecx, DWORD PTR _this$[ebp]
	call	?GetData@?$CSimpleStringT@G$0A@@ATL@@ABEPAUCStringData@2@XZ ; ATL::CSimpleStringT<unsigned short,0>::GetData
	mov	DWORD PTR _pOldData$[ebp], eax

; 423  : 		IAtlStringMgr* pStringMgr = pOldData->pStringMgr;

	mov	eax, DWORD PTR _pOldData$[ebp]
	mov	ecx, DWORD PTR [eax]
	mov	DWORD PTR _pStringMgr$[ebp], ecx

; 424  : 		if( pOldData->nDataLength == 0 )

	mov	eax, DWORD PTR _pOldData$[ebp]
	cmp	DWORD PTR [eax+4], 0
	jne	SHORT $L92793

; 425  : 		{
; 426  : 			return;

	jmp	SHORT $L92790
$L92793:

; 427  : 		}
; 428  : 
; 429  : 		if( pOldData->IsLocked() )

	mov	ecx, DWORD PTR _pOldData$[ebp]
	call	?IsLocked@CStringData@ATL@@QBE_NXZ	; ATL::CStringData::IsLocked
	movzx	eax, al
	test	eax, eax
	je	SHORT $L92794

; 430  : 		{
; 431  : 			// Don't reallocate a locked buffer that's shrinking
; 432  : 			SetLength( 0 );

	push	0
	mov	ecx, DWORD PTR _this$[ebp]
	call	?SetLength@?$CSimpleStringT@G$0A@@ATL@@AAEXH@Z ; ATL::CSimpleStringT<unsigned short,0>::SetLength

; 433  : 		}
; 434  : 		else

	jmp	SHORT $L92790
$L92794:

; 435  : 		{
; 436  : 			pOldData->Release();

	mov	ecx, DWORD PTR _pOldData$[ebp]
	call	?Release@CStringData@ATL@@QAEXXZ	; ATL::CStringData::Release

; 437  : 			CStringData* pNewData = pStringMgr->GetNilString();

	mov	eax, DWORD PTR _pStringMgr$[ebp]
	mov	edx, DWORD PTR [eax]
	mov	esi, esp
	mov	ecx, DWORD PTR _pStringMgr$[ebp]
	call	DWORD PTR [edx+12]
	cmp	esi, esp
	call	__RTC_CheckEsp
	mov	DWORD PTR _pNewData$92796[ebp], eax

; 438  : 			Attach( pNewData );

	mov	eax, DWORD PTR _pNewData$92796[ebp]
	push	eax
	mov	ecx, DWORD PTR _this$[ebp]
	call	?Attach@?$CSimpleStringT@G$0A@@ATL@@AAEXPAUCStringData@2@@Z ; ATL::CSimpleStringT<unsigned short,0>::Attach
$L92790:

; 439  : 		}
; 440  : 	}

	pop	edi
	pop	esi
	pop	ebx
	add	esp, 240				; 000000f0H
	cmp	ebp, esp
	call	__RTC_CheckEsp
	mov	esp, ebp
	pop	ebp
	ret	0
?Empty@?$CSimpleStringT@G$0A@@ATL@@QAEXXZ ENDP		; ATL::CSimpleStringT<unsigned short,0>::Empty
_TEXT	ENDS
PUBLIC	??_C@_0N@ILOMLJGA@nLength?5?$DO?$DN?50?$AA@	; `string'
PUBLIC	??_C@_0CD@EEFFJEGJ@nLength?5?$DM?$DN?5GetData?$CI?$CJ?9?$DOnAllocLeng@ ; `string'
PUBLIC	?AtlThrow@ATL@@YGXJ@Z				; ATL::AtlThrow
;	COMDAT ??_C@_0N@ILOMLJGA@nLength?5?$DO?$DN?50?$AA@
CONST	SEGMENT
??_C@_0N@ILOMLJGA@nLength?5?$DO?$DN?50?$AA@ DB 'nLength >= 0', 00H ; `string'
CONST	ENDS
;	COMDAT ??_C@_0CD@EEFFJEGJ@nLength?5?$DM?$DN?5GetData?$CI?$CJ?9?$DOnAllocLeng@
CONST	SEGMENT
??_C@_0CD@EEFFJEGJ@nLength?5?$DM?$DN?5GetData?$CI?$CJ?9?$DOnAllocLeng@ DB 'n'
	DB	'Length <= GetData()->nAllocLength', 00H	; `string'
; Function compile flags: /Odt /RTCcsu /ZI
CONST	ENDS
;	COMDAT ?SetLength@?$CSimpleStringT@G$0A@@ATL@@AAEXH@Z
_TEXT	SEGMENT
_this$ = -8						; size = 4
_nLength$ = 8						; size = 4
?SetLength@?$CSimpleStringT@G$0A@@ATL@@AAEXH@Z PROC NEAR ; ATL::CSimpleStringT<unsigned short,0>::SetLength, COMDAT
; _this$ = ecx

; 789  : 	{

	push	ebp
	mov	ebp, esp
	sub	esp, 204				; 000000ccH
	push	ebx
	push	esi
	push	edi
	push	ecx
	lea	edi, DWORD PTR [ebp-204]
	mov	ecx, 51					; 00000033H
	mov	eax, -858993460				; ccccccccH
	rep stosd
	pop	ecx
	mov	DWORD PTR _this$[ebp], ecx

; 790  : 		ATLASSERT( nLength >= 0 );

	cmp	DWORD PTR _nLength$[ebp], 0
	jge	SHORT $L94629
	push	OFFSET FLAT:??_C@_0N@ILOMLJGA@nLength?5?$DO?$DN?50?$AA@
	push	0
	push	790					; 00000316H
	push	OFFSET FLAT:??_C@_0FD@JDCNPMMG@c?3?2program?5files?2microsoft?5visua@
	push	2
	call	__CrtDbgReport
	add	esp, 20					; 00000014H
	cmp	eax, 1
	jne	SHORT $L94629
	int	3
$L94629:

; 791  : 		ATLASSERT( nLength <= GetData()->nAllocLength );

	mov	ecx, DWORD PTR _this$[ebp]
	call	?GetData@?$CSimpleStringT@G$0A@@ATL@@ABEPAUCStringData@2@XZ ; ATL::CSimpleStringT<unsigned short,0>::GetData
	mov	ecx, DWORD PTR _nLength$[ebp]
	cmp	ecx, DWORD PTR [eax+8]
	jle	SHORT $L94630
	push	OFFSET FLAT:??_C@_0CD@EEFFJEGJ@nLength?5?$DM?$DN?5GetData?$CI?$CJ?9?$DOnAllocLeng@
	push	0
	push	791					; 00000317H
	push	OFFSET FLAT:??_C@_0FD@JDCNPMMG@c?3?2program?5files?2microsoft?5visua@
	push	2
	call	__CrtDbgReport
	add	esp, 20					; 00000014H
	cmp	eax, 1
	jne	SHORT $L94630
	int	3
$L94630:

; 792  : 
; 793  : 		if( nLength < 0 || nLength > GetData()->nAllocLength)

	cmp	DWORD PTR _nLength$[ebp], 0
	jl	SHORT $L92769
	mov	ecx, DWORD PTR _this$[ebp]
	call	?GetData@?$CSimpleStringT@G$0A@@ATL@@ABEPAUCStringData@2@XZ ; ATL::CSimpleStringT<unsigned short,0>::GetData
	mov	ecx, DWORD PTR _nLength$[ebp]
	cmp	ecx, DWORD PTR [eax+8]
	jle	SHORT $L92768
$L92769:

; 794  : 			AtlThrow(E_INVALIDARG);

	push	-2147024809				; 80070057H
	call	?AtlThrow@ATL@@YGXJ@Z			; ATL::AtlThrow
$L92768:

; 795  : 			
; 796  : 		GetData()->nDataLength = nLength;

	mov	ecx, DWORD PTR _this$[ebp]
	call	?GetData@?$CSimpleStringT@G$0A@@ATL@@ABEPAUCStringData@2@XZ ; ATL::CSimpleStringT<unsigned short,0>::GetData
	mov	ecx, DWORD PTR _nLength$[ebp]
	mov	DWORD PTR [eax+4], ecx

; 797  : 		m_pszData[nLength] = 0;

	mov	eax, DWORD PTR _this$[ebp]
	mov	ecx, DWORD PTR [eax]
	mov	edx, DWORD PTR _nLength$[ebp]
	mov	WORD PTR [ecx+edx*2], 0
$L94628:

; 798  : 	}

	pop	edi
	pop	esi
	pop	ebx
	add	esp, 204				; 000000ccH
	cmp	ebp, esp
	call	__RTC_CheckEsp
	mov	esp, ebp
	pop	ebp
	ret	4
?SetLength@?$CSimpleStringT@G$0A@@ATL@@AAEXH@Z ENDP	; ATL::CSimpleStringT<unsigned short,0>::SetLength
_TEXT	ENDS
PUBLIC	??BCTraceCategory@ATL@@QBEKXZ			; ATL::CTraceCategory::operator unsigned long
PUBLIC	??0CTraceFileAndLineInfo@ATL@@QAE@PBDH@Z	; ATL::CTraceFileAndLineInfo::CTraceFileAndLineInfo
PUBLIC	??RCTraceFileAndLineInfo@ATL@@QBAXKIPBGZZ	; ATL::CTraceFileAndLineInfo::operator()
PUBLIC	?__LINE__Var@?1??AtlThrow@ATL@@YGXJ@Z@4JA	; `ATL::AtlThrow'::`2'::__LINE__Var
PUBLIC	??_C@_0FC@IPKABFFL@c?3?2program?5files?2microsoft?5visua@ ; `string'
PUBLIC	??_C@_1CK@DFMKPFAK@?$AAA?$AAt?$AAl?$AAT?$AAh?$AAr?$AAo?$AAw?$AA?3?$AA?5?$AAh?$AAr?$AA?5?$AA?$DN?$AA?5?$AA0?$AAx?$AA?$CF?$AAx?$AA?6@ ; `string'
EXTRN	?atlTraceException@ATL@@3VCTraceCategory@1@A:DWORD ; ATL::atlTraceException
EXTRN	?AfxThrowMemoryException@@YGXXZ:NEAR		; AfxThrowMemoryException
EXTRN	?AfxThrowOleException@@YGXJ@Z:NEAR		; AfxThrowOleException
;	COMDAT ??_C@_1CK@DFMKPFAK@?$AAA?$AAt?$AAl?$AAT?$AAh?$AAr?$AAo?$AAw?$AA?3?$AA?5?$AAh?$AAr?$AA?5?$AA?$DN?$AA?5?$AA0?$AAx?$AA?$CF?$AAx?$AA?6@
; File c:\program files\microsoft visual studio .net 2003\vc7\atlmfc\include\atlexcept.h
CONST	SEGMENT
??_C@_1CK@DFMKPFAK@?$AAA?$AAt?$AAl?$AAT?$AAh?$AAr?$AAo?$AAw?$AA?3?$AA?5?$AAh?$AAr?$AA?5?$AA?$DN?$AA?5?$AA0?$AAx?$AA?$CF?$AAx?$AA?6@ DB 'A'
	DB	00H, 't', 00H, 'l', 00H, 'T', 00H, 'h', 00H, 'r', 00H, 'o', 00H
	DB	'w', 00H, ':', 00H, ' ', 00H, 'h', 00H, 'r', 00H, ' ', 00H, '='
	DB	00H, ' ', 00H, '0', 00H, 'x', 00H, '%', 00H, 'x', 00H, 0aH, 00H
	DB	00H, 00H					; `string'
CONST	ENDS
;	COMDAT ?__LINE__Var@?1??AtlThrow@ATL@@YGXJ@Z@4JA
_DATA	SEGMENT
?__LINE__Var@?1??AtlThrow@ATL@@YGXJ@Z@4JA DD 03dH	; `ATL::AtlThrow'::`2'::__LINE__Var
_DATA	ENDS
;	COMDAT ??_C@_0FC@IPKABFFL@c?3?2program?5files?2microsoft?5visua@
CONST	SEGMENT
??_C@_0FC@IPKABFFL@c?3?2program?5files?2microsoft?5visua@ DB 'c:\program '
	DB	'files\microsoft visual studio .net 2003\vc7\atlmfc\include\at'
	DB	'lexcept.h', 00H				; `string'
; Function compile flags: /Odt /RTCcsu /ZI
CONST	ENDS
;	COMDAT ?AtlThrow@ATL@@YGXJ@Z
_TEXT	SEGMENT
$T94633 = -204						; size = 8
_hr$ = 8						; size = 4
?AtlThrow@ATL@@YGXJ@Z PROC NEAR				; ATL::AtlThrow, COMDAT

; 61   : {

	push	ebp
	mov	ebp, esp
	sub	esp, 208				; 000000d0H
	push	ebx
	push	esi
	push	edi
	lea	edi, DWORD PTR [ebp-208]
	mov	ecx, 52					; 00000034H
	mov	eax, -858993460				; ccccccccH
	rep stosd

; 62   : 	ATLTRACE(atlTraceException, 0, _T("AtlThrow: hr = 0x%x\n"), hr );

	mov	eax, DWORD PTR _hr$[ebp]
	push	eax
	push	OFFSET FLAT:??_C@_1CK@DFMKPFAK@?$AAA?$AAt?$AAl?$AAT?$AAh?$AAr?$AAo?$AAw?$AA?3?$AA?5?$AAh?$AAr?$AA?5?$AA?$DN?$AA?5?$AA0?$AAx?$AA?$CF?$AAx?$AA?6@
	push	0
	mov	ecx, OFFSET FLAT:?atlTraceException@ATL@@3VCTraceCategory@1@A ; ATL::atlTraceException
	call	??BCTraceCategory@ATL@@QBEKXZ		; ATL::CTraceCategory::operator unsigned long
	push	eax
	mov	ecx, DWORD PTR ?__LINE__Var@?1??AtlThrow@ATL@@YGXJ@Z@4JA
	add	ecx, 1
	push	ecx
	push	OFFSET FLAT:??_C@_0FC@IPKABFFL@c?3?2program?5files?2microsoft?5visua@
	lea	ecx, DWORD PTR $T94633[ebp]
	call	??0CTraceFileAndLineInfo@ATL@@QAE@PBDH@Z ; ATL::CTraceFileAndLineInfo::CTraceFileAndLineInfo
	push	eax
	call	??RCTraceFileAndLineInfo@ATL@@QBAXKIPBGZZ ; ATL::CTraceFileAndLineInfo::operator()
	add	esp, 20					; 00000014H

; 63   : #ifdef _AFX
; 64   : 	if( hr == E_OUTOFMEMORY )

	cmp	DWORD PTR _hr$[ebp], -2147024882	; 8007000eH
	jne	SHORT $L25398

; 65   : 	{
; 66   : 		AfxThrowMemoryException();

	call	?AfxThrowMemoryException@@YGXXZ		; AfxThrowMemoryException
$L25398:

; 67   : 	}
; 68   : 	else
; 69   : 	{
; 70   : 		AfxThrowOleException( hr );

	mov	eax, DWORD PTR _hr$[ebp]
	push	eax
	call	?AfxThrowOleException@@YGXJ@Z		; AfxThrowOleException
$L94632:

; 71   : 	}
; 72   : #else
; 73   : 	throw CAtlException( hr );
; 74   : #endif
; 75   : };

	pop	edi
	pop	esi
	pop	ebx
	add	esp, 208				; 000000d0H
	cmp	ebp, esp
	call	__RTC_CheckEsp
	mov	esp, ebp
	pop	ebp
	ret	4
?AtlThrow@ATL@@YGXJ@Z ENDP				; ATL::AtlThrow
; Function compile flags: /Odt /RTCcsu /ZI
; File c:\program files\microsoft visual studio .net 2003\vc7\atlmfc\include\atltrace.h
_TEXT	ENDS
;	COMDAT ??0CTraceFileAndLineInfo@ATL@@QAE@PBDH@Z
_TEXT	SEGMENT
_this$ = -8						; size = 4
_pszFileName$ = 8					; size = 4
_nLineNo$ = 12						; size = 4
??0CTraceFileAndLineInfo@ATL@@QAE@PBDH@Z PROC NEAR	; ATL::CTraceFileAndLineInfo::CTraceFileAndLineInfo, COMDAT
; _this$ = ecx

; 158  : 	{}

	push	ebp
	mov	ebp, esp
	sub	esp, 204				; 000000ccH
	push	ebx
	push	esi
	push	edi
	push	ecx
	lea	edi, DWORD PTR [ebp-204]
	mov	ecx, 51					; 00000033H
	mov	eax, -858993460				; ccccccccH
	rep stosd
	pop	ecx
	mov	DWORD PTR _this$[ebp], ecx
	mov	eax, DWORD PTR _this$[ebp]
	mov	ecx, DWORD PTR _pszFileName$[ebp]
	mov	DWORD PTR [eax], ecx
	mov	eax, DWORD PTR _this$[ebp]
	mov	ecx, DWORD PTR _nLineNo$[ebp]
	mov	DWORD PTR [eax+4], ecx
	mov	eax, DWORD PTR _this$[ebp]
	pop	edi
	pop	esi
	pop	ebx
	mov	esp, ebp
	pop	ebp
	ret	8
??0CTraceFileAndLineInfo@ATL@@QAE@PBDH@Z ENDP		; ATL::CTraceFileAndLineInfo::CTraceFileAndLineInfo
_TEXT	ENDS
PUBLIC	?TraceV@CTrace@ATL@@QBAXPBDHKIPBGPAD@Z		; ATL::CTrace::TraceV
EXTRN	?s_trace@CTrace@ATL@@2V12@A:QWORD		; ATL::CTrace::s_trace
; Function compile flags: /Odt /RTCcsu /ZI
;	COMDAT ??RCTraceFileAndLineInfo@ATL@@QBAXKIPBGZZ
_TEXT	SEGMENT
_ptr$ = -8						; size = 4
_this$ = 8						; size = 4
_dwCategory$ = 12					; size = 4
_nLevel$ = 16						; size = 4
_pszFmt$ = 20						; size = 4
??RCTraceFileAndLineInfo@ATL@@QBAXKIPBGZZ PROC NEAR	; ATL::CTraceFileAndLineInfo::operator(), COMDAT

; 167  : 	{

	push	ebp
	mov	ebp, esp
	sub	esp, 204				; 000000ccH
	push	ebx
	push	esi
	push	edi
	lea	edi, DWORD PTR [ebp-204]
	mov	ecx, 51					; 00000033H
	mov	eax, -858993460				; ccccccccH
	rep stosd

; 168  : 		va_list ptr; va_start(ptr, pszFmt);

	lea	eax, DWORD PTR _pszFmt$[ebp+4]
	mov	DWORD PTR _ptr$[ebp], eax

; 169  : 		ATL::CTrace::s_trace.TraceV(m_pszFileName, m_nLineNo, dwCategory, nLevel, pszFmt, ptr);

	mov	eax, DWORD PTR _ptr$[ebp]
	push	eax
	mov	ecx, DWORD PTR _pszFmt$[ebp]
	push	ecx
	mov	edx, DWORD PTR _nLevel$[ebp]
	push	edx
	mov	eax, DWORD PTR _dwCategory$[ebp]
	push	eax
	mov	ecx, DWORD PTR _this$[ebp]
	mov	edx, DWORD PTR [ecx+4]
	push	edx
	mov	eax, DWORD PTR _this$[ebp]
	mov	ecx, DWORD PTR [eax]
	push	ecx
	push	OFFSET FLAT:?s_trace@CTrace@ATL@@2V12@A
	call	?TraceV@CTrace@ATL@@QBAXPBDHKIPBGPAD@Z	; ATL::CTrace::TraceV
	add	esp, 28					; 0000001cH

; 170  : 		va_end(ptr);

	mov	DWORD PTR _ptr$[ebp], 0

; 171  : 	}

	pop	edi
	pop	esi
	pop	ebx
	add	esp, 204				; 000000ccH
	cmp	ebp, esp
	call	__RTC_CheckEsp
	mov	esp, ebp
	pop	ebp
	ret	0
??RCTraceFileAndLineInfo@ATL@@QBAXKIPBGZZ ENDP		; ATL::CTraceFileAndLineInfo::operator()
_TEXT	ENDS
EXTRN	_AtlTraceVU:NEAR
; Function compile flags: /Odt /RTCcsu /ZI
;	COMDAT ?TraceV@CTrace@ATL@@QBAXPBDHKIPBGPAD@Z
_TEXT	SEGMENT
_this$ = 8						; size = 4
_pszFileName$ = 12					; size = 4
_nLine$ = 16						; size = 4
_dwCategory$ = 20					; size = 4
_nLevel$ = 24						; size = 4
_pszFmt$ = 28						; size = 4
_args$ = 32						; size = 4
?TraceV@CTrace@ATL@@QBAXPBDHKIPBGPAD@Z PROC NEAR	; ATL::CTrace::TraceV, COMDAT

; 126  : 	{

	push	ebp
	mov	ebp, esp
	sub	esp, 192				; 000000c0H
	push	ebx
	push	esi
	push	edi
	lea	edi, DWORD PTR [ebp-192]
	mov	ecx, 48					; 00000030H
	mov	eax, -858993460				; ccccccccH
	rep stosd

; 127  : 		AtlTraceVU(m_dwModule, pszFileName, nLine, dwCategory, nLevel, pszFmt, args);

	mov	eax, DWORD PTR _args$[ebp]
	push	eax
	mov	ecx, DWORD PTR _pszFmt$[ebp]
	push	ecx
	mov	edx, DWORD PTR _nLevel$[ebp]
	push	edx
	mov	eax, DWORD PTR _dwCategory$[ebp]
	push	eax
	mov	ecx, DWORD PTR _nLine$[ebp]
	push	ecx
	mov	edx, DWORD PTR _pszFileName$[ebp]
	push	edx
	mov	eax, DWORD PTR _this$[ebp]
	mov	ecx, DWORD PTR [eax+4]
	push	ecx
	call	_AtlTraceVU
	add	esp, 28					; 0000001cH

; 128  : 	}

	pop	edi
	pop	esi
	pop	ebx
	add	esp, 192				; 000000c0H
	cmp	ebp, esp
	call	__RTC_CheckEsp
	mov	esp, ebp
	pop	ebp
	ret	0
?TraceV@CTrace@ATL@@QBAXPBDHKIPBGPAD@Z ENDP		; ATL::CTrace::TraceV
; Function compile flags: /Odt /RTCcsu /ZI
_TEXT	ENDS
;	COMDAT ??BCTraceCategory@ATL@@QBEKXZ
_TEXT	SEGMENT
_this$ = -8						; size = 4
??BCTraceCategory@ATL@@QBEKXZ PROC NEAR			; ATL::CTraceCategory::operator unsigned long, COMDAT
; _this$ = ecx

; 202  : {

	push	ebp
	mov	ebp, esp
	sub	esp, 204				; 000000ccH
	push	ebx
	push	esi
	push	edi
	push	ecx
	lea	edi, DWORD PTR [ebp-204]
	mov	ecx, 51					; 00000033H
	mov	eax, -858993460				; ccccccccH
	rep stosd
	pop	ecx
	mov	DWORD PTR _this$[ebp], ecx

; 203  : 	return( m_dwCategory );

	mov	eax, DWORD PTR _this$[ebp]
	mov	eax, DWORD PTR [eax]

; 204  : }

	pop	edi
	pop	esi
	pop	ebx
	mov	esp, ebp
	pop	ebp
	ret	0
??BCTraceCategory@ATL@@QBEKXZ ENDP			; ATL::CTraceCategory::operator unsigned long
_TEXT	ENDS
PUBLIC	??_C@_0BA@GNIEOBOF@nNewLength?5?$DO?$DN?50?$AA@	; `string'
;	COMDAT ??_C@_0BA@GNIEOBOF@nNewLength?5?$DO?$DN?50?$AA@
; File c:\program files\microsoft visual studio .net 2003\vc7\atlmfc\include\atlsimpstr.h
CONST	SEGMENT
??_C@_0BA@GNIEOBOF@nNewLength?5?$DO?$DN?50?$AA@ DB 'nNewLength >= 0', 00H ; `string'
; Function compile flags: /Odt /RTCcsu /ZI
CONST	ENDS
;	COMDAT ?ReleaseBufferSetLength@?$CSimpleStringT@G$0A@@ATL@@QAEXH@Z
_TEXT	SEGMENT
_this$ = -8						; size = 4
_nNewLength$ = 8					; size = 4
?ReleaseBufferSetLength@?$CSimpleStringT@G$0A@@ATL@@QAEXH@Z PROC NEAR ; ATL::CSimpleStringT<unsigned short,0>::ReleaseBufferSetLength, COMDAT
; _this$ = ecx

; 546  : 	{

	push	ebp
	mov	ebp, esp
	sub	esp, 204				; 000000ccH
	push	ebx
	push	esi
	push	edi
	push	ecx
	lea	edi, DWORD PTR [ebp-204]
	mov	ecx, 51					; 00000033H
	mov	eax, -858993460				; ccccccccH
	rep stosd
	pop	ecx
	mov	DWORD PTR _this$[ebp], ecx

; 547  : 		ATLASSERT( nNewLength >= 0 );

	cmp	DWORD PTR _nNewLength$[ebp], 0
	jge	SHORT $L94644
	push	OFFSET FLAT:??_C@_0BA@GNIEOBOF@nNewLength?5?$DO?$DN?50?$AA@
	push	0
	push	547					; 00000223H
	push	OFFSET FLAT:??_C@_0FD@JDCNPMMG@c?3?2program?5files?2microsoft?5visua@
	push	2
	call	__CrtDbgReport
	add	esp, 20					; 00000014H
	cmp	eax, 1
	jne	SHORT $L94644
	int	3
$L94644:

; 548  : 		SetLength( nNewLength );

	mov	eax, DWORD PTR _nNewLength$[ebp]
	push	eax
	mov	ecx, DWORD PTR _this$[ebp]
	call	?SetLength@?$CSimpleStringT@G$0A@@ATL@@AAEXH@Z ; ATL::CSimpleStringT<unsigned short,0>::SetLength

; 549  : 	}

	pop	edi
	pop	esi
	pop	ebx
	add	esp, 204				; 000000ccH
	cmp	ebp, esp
	call	__RTC_CheckEsp
	mov	esp, ebp
	pop	ebp
	ret	4
?ReleaseBufferSetLength@?$CSimpleStringT@G$0A@@ATL@@QAEXH@Z ENDP ; ATL::CSimpleStringT<unsigned short,0>::ReleaseBufferSetLength
_TEXT	ENDS
PUBLIC	?StringLength@?$CSimpleStringT@G$0A@@ATL@@SAHPBG@Z ; ATL::CSimpleStringT<unsigned short,0>::StringLength
; Function compile flags: /Odt /RTCcsu /ZI
;	COMDAT ?SetString@?$CSimpleStringT@G$0A@@ATL@@QAEXPBG@Z
_TEXT	SEGMENT
_this$ = -8						; size = 4
_pszSrc$ = 8						; size = 4
?SetString@?$CSimpleStringT@G$0A@@ATL@@QAEXPBG@Z PROC NEAR ; ATL::CSimpleStringT<unsigned short,0>::SetString, COMDAT
; _this$ = ecx

; 579  : 	{

	push	ebp
	mov	ebp, esp
	sub	esp, 204				; 000000ccH
	push	ebx
