; Listing generated by Microsoft (R) Optimizing Compiler Version 13.10.3077 

	TITLE	.\ReportEdit.cpp
	.386P
include listing.inc
if @Version gt 510
.model FLAT
else
_TEXT	SEGMENT PARA USE32 PUBLIC 'CODE'
_TEXT	ENDS
_DATA	SEGMENT DWORD USE32 PUBLIC 'DATA'
_DATA	ENDS
CONST	SEGMENT DWORD USE32 PUBLIC 'CONST'
CONST	ENDS
_BSS	SEGMENT DWORD USE32 PUBLIC 'BSS'
_BSS	ENDS
$$SYMBOLS	SEGMENT BYTE USE32 'DEBSYM'
$$SYMBOLS	ENDS
$$TYPES	SEGMENT BYTE USE32 'DEBTYP'
$$TYPES	ENDS
_TLS	SEGMENT DWORD USE32 PUBLIC 'TLS'
_TLS	ENDS
;	COMDAT ??_C@_1CG@MLINDNFI@?$AAR?$AAe?$AAc?$AAo?$AAr?$AAd?$AA?5?$AAi?$AAs?$AA?5?$AAM?$AAo?$AAd?$AAi?$AAf?$AAi?$AAe?$AAd?$AA?$AA@
CONST	SEGMENT DWORD USE32 PUBLIC 'CONST'
CONST	ENDS
;	COMDAT ??_C@_1EA@ECMOPAHL@?$AAD?$AAo?$AA?5?$AAY?$AAo?$AAu?$AA?5?$AAW?$AAa?$AAn?$AAt?$AA?5?$AAt?$AAo?$AA?5?$AAS?$AAa?$AAv?$AAe?$AA?5@
CONST	SEGMENT DWORD USE32 PUBLIC 'CONST'
CONST	ENDS
;	COMDAT ??_C@_1O@MJNGOMNI@?$AA?$CF?$AAl?$AA?$FL?$AA?$FO?$AA?9?$AA?$FN?$AA?$AA@
CONST	SEGMENT DWORD USE32 PUBLIC 'CONST'
CONST	ENDS
;	COMDAT ??_C@_1LK@PBEPKGFF@?$AAs?$AAe?$AAl?$AAe?$AAc?$AAt?$AA?5?$AA?$CK?$AA?5?$AAf?$AAr?$AAo?$AAm?$AA?5?$AAR?$AAe?$AAp?$AAo?$AAr?$AAt@
CONST	SEGMENT DWORD USE32 PUBLIC 'CONST'
CONST	ENDS
;	COMDAT ??_C@_1CE@OOAKNAGM@?$AAE?$AAr?$AAr?$AAo?$AAr?$AA?5?$AAo?$AAn?$AA?5?$AAD?$AAa?$AAt?$AAa?$AAb?$AAa?$AAs?$AAe?$AA?$AA@
CONST	SEGMENT DWORD USE32 PUBLIC 'CONST'
CONST	ENDS
;	COMDAT ??_C@_1CK@CLAGECII@?$AAC?$AAa?$AAn?$AA?8?$AAt?$AA?5?$AAF?$AAi?$AAn?$AAd?$AA?5?$AAS?$AAy?$AAm?$AAb?$AAo?$AAl?$AA?5?$AA?$CF?$AAs@
CONST	SEGMENT DWORD USE32 PUBLIC 'CONST'
CONST	ENDS
;	COMDAT ??_C@_1BG@NOPLIDDJ@?$AAB?$AAa?$AAd?$AA?5?$AAS?$AAy?$AAm?$AAb?$AAo?$AAl?$AA?$AA@
CONST	SEGMENT DWORD USE32 PUBLIC 'CONST'
CONST	ENDS
;	COMDAT ?GetClsid@CWSpell@@QAEABU_GUID@@XZ
_TEXT	SEGMENT PARA USE32 PUBLIC 'CODE'
_TEXT	ENDS
;	COMDAT ?Create@CWSpell@@UAEHPBG0KABUtagRECT@@PAVCWnd@@IPAUCCreateContext@@@Z
_TEXT	SEGMENT PARA USE32 PUBLIC 'CODE'
_TEXT	ENDS
;	COMDAT ?GetCtrl@RTFFuncs@@AAEPAVCRichEditCtrl@@H@Z
_TEXT	SEGMENT PARA USE32 PUBLIC 'CODE'
_TEXT	ENDS
;	COMDAT ??0RTFFuncs@@QAE@PAVCDialog@@@Z
_TEXT	SEGMENT PARA USE32 PUBLIC 'CODE'
_TEXT	ENDS
;	COMDAT ?Cut@RTFFuncs@@QAEXH@Z
_TEXT	SEGMENT PARA USE32 PUBLIC 'CODE'
_TEXT	ENDS
;	COMDAT ?Paste@RTFFuncs@@QAEXH@Z
_TEXT	SEGMENT PARA USE32 PUBLIC 'CODE'
_TEXT	ENDS
;	COMDAT ?Copy@RTFFuncs@@QAEXH@Z
_TEXT	SEGMENT PARA USE32 PUBLIC 'CODE'
_TEXT	ENDS
;	COMDAT ?Clear@RTFFuncs@@QAEXH@Z
_TEXT	SEGMENT PARA USE32 PUBLIC 'CODE'
_TEXT	ENDS
;	COMDAT ?Modified@RTFFuncs@@QAEHH@Z
_TEXT	SEGMENT PARA USE32 PUBLIC 'CODE'
_TEXT	ENDS
;	COMDAT ?SetTabString@RTFFuncs@@QAEXAAV?$CStringT@GV?$StrTraitMFC@GV?$ChTraitsCRT@G@ATL@@@@@ATL@@@Z
_TEXT	SEGMENT PARA USE32 PUBLIC 'CODE'
_TEXT	ENDS
;	COMDAT ?GetTabString@RTFFuncs@@QAEAAV?$CStringT@GV?$StrTraitMFC@GV?$ChTraitsCRT@G@ATL@@@@@ATL@@XZ
_TEXT	SEGMENT PARA USE32 PUBLIC 'CODE'
_TEXT	ENDS
;	COMDAT ??1RTFFuncs@@UAE@XZ
_TEXT	SEGMENT PARA USE32 PUBLIC 'CODE'
_TEXT	ENDS
;	COMDAT ?getBasicString@RTFFuncs@@QAEAAV?$CStringT@GV?$StrTraitMFC@GV?$ChTraitsCRT@G@ATL@@@@@ATL@@XZ
_TEXT	SEGMENT PARA USE32 PUBLIC 'CODE'
_TEXT	ENDS
;	COMDAT ??_GRTFFuncs@@UAEPAXI@Z
_TEXT	SEGMENT PARA USE32 PUBLIC 'CODE'
_TEXT	ENDS
;	COMDAT ?GetClsid@CTabctrlctrl1@@QAEABU_GUID@@XZ
_TEXT	SEGMENT PARA USE32 PUBLIC 'CODE'
_TEXT	ENDS
;	COMDAT ?Create@CTabctrlctrl1@@UAEHPBG0KABUtagRECT@@PAVCWnd@@IPAUCCreateContext@@@Z
_TEXT	SEGMENT PARA USE32 PUBLIC 'CODE'
_TEXT	ENDS
;	COMDAT ?GetTabString@CTabctrlctrl1@@QAE?AV?$CStringT@GV?$StrTraitMFC@GV?$ChTraitsCRT@G@ATL@@@@@ATL@@XZ
_TEXT	SEGMENT PARA USE32 PUBLIC 'CODE'
_TEXT	ENDS
;	COMDAT ?Set_TabString@CTabctrlctrl1@@QAEXV?$CStringT@GV?$StrTraitMFC@GV?$ChTraitsCRT@G@ATL@@@@@ATL@@@Z
_TEXT	SEGMENT PARA USE32 PUBLIC 'CODE'
_TEXT	ENDS
;	COMDAT ??0CSymbol@@QAE@XZ
_TEXT	SEGMENT PARA USE32 PUBLIC 'CODE'
_TEXT	ENDS
;	COMDAT ??1CSymbol@@QAE@XZ
_TEXT	SEGMENT PARA USE32 PUBLIC 'CODE'
_TEXT	ENDS
;	COMDAT ?value@CSymbol@@QAEAAHXZ
_TEXT	SEGMENT PARA USE32 PUBLIC 'CODE'
_TEXT	ENDS
;	COMDAT ??0CRSymbol@@QAE@XZ
_TEXT	SEGMENT PARA USE32 PUBLIC 'CODE'
_TEXT	ENDS
;	COMDAT ??1CRSymbol@@QAE@XZ
_TEXT	SEGMENT PARA USE32 PUBLIC 'CODE'
_TEXT	ENDS
;	COMDAT ??0CSymbolAry@@QAE@H@Z
_TEXT	SEGMENT PARA USE32 PUBLIC 'CODE'
_TEXT	ENDS
;	COMDAT ??1CSymbolAry@@QAE@XZ
_TEXT	SEGMENT PARA USE32 PUBLIC 'CODE'
_TEXT	ENDS
;	COMDAT ??_ECSymbol@@QAEPAXI@Z
_TEXT	SEGMENT PARA USE32 PUBLIC 'CODE'
_TEXT	ENDS
;	COMDAT ?Find@CRSymbolAry@@QAEPAVCRSymbol@@PBGH@Z
_TEXT	SEGMENT PARA USE32 PUBLIC 'CODE'
_TEXT	ENDS
;	COMDAT ?toCombo@CRSymbolAry@@QAEHPAVCComboBox@@HPAD@Z
_TEXT	SEGMENT PARA USE32 PUBLIC 'CODE'
_TEXT	ENDS
;	COMDAT ??_ECRSymbol@@QAEPAXI@Z
_TEXT	SEGMENT PARA USE32 PUBLIC 'CODE'
_TEXT	ENDS
;	COMDAT ??0CATextType@@QAE@XZ
_TEXT	SEGMENT PARA USE32 PUBLIC 'CODE'
_TEXT	ENDS
;	COMDAT ??1CATextType@@QAE@XZ
_TEXT	SEGMENT PARA USE32 PUBLIC 'CODE'
_TEXT	ENDS
;	COMDAT ?type@CATextType@@QAEAAHXZ
_TEXT	SEGMENT PARA USE32 PUBLIC 'CODE'
_TEXT	ENDS
;	COMDAT ?symtypes@CATextType@@QAEPADXZ
_TEXT	SEGMENT PARA USE32 PUBLIC 'CODE'
_TEXT	ENDS
;	COMDAT ?toSymType@CATextTypeAry@@QAEPADAAV?$CStringT@GV?$StrTraitMFC@GV?$ChTraitsCRT@G@ATL@@@@@ATL@@H@Z
_TEXT	SEGMENT PARA USE32 PUBLIC 'CODE'
_TEXT	ENDS
;	COMDAT ??_ECATextType@@QAEPAXI@Z
_TEXT	SEGMENT PARA USE32 PUBLIC 'CODE'
_TEXT	ENDS
;	COMDAT ??0CReportEdit@@QAE@PAVCWnd@@@Z
_TEXT	SEGMENT PARA USE32 PUBLIC 'CODE'
_TEXT	ENDS
;	COMDAT ??_GCReportEdit@@UAEPAXI@Z
_TEXT	SEGMENT PARA USE32 PUBLIC 'CODE'
_TEXT	ENDS
;	COMDAT ??0CWSpell@@QAE@XZ
_TEXT	SEGMENT PARA USE32 PUBLIC 'CODE'
_TEXT	ENDS
;	COMDAT ??1CWSpell@@UAE@XZ
_TEXT	SEGMENT PARA USE32 PUBLIC 'CODE'
_TEXT	ENDS
;	COMDAT ??1CDReportText@@UAE@XZ
_TEXT	SEGMENT PARA USE32 PUBLIC 'CODE'
_TEXT	ENDS
;	COMDAT ??0CTabctrlctrl1@@QAE@XZ
_TEXT	SEGMENT PARA USE32 PUBLIC 'CODE'
_TEXT	ENDS
;	COMDAT ??1CTabctrlctrl1@@UAE@XZ
_TEXT	SEGMENT PARA USE32 PUBLIC 'CODE'
_TEXT	ENDS
;	COMDAT ??1CReportEdit@@UAE@XZ
_TEXT	SEGMENT PARA USE32 PUBLIC 'CODE'
_TEXT	ENDS
;	COMDAT ??_GCWSpell@@UAEPAXI@Z
_TEXT	SEGMENT PARA USE32 PUBLIC 'CODE'
_TEXT	ENDS
;	COMDAT ??_GCTabctrlctrl1@@UAEPAXI@Z
_TEXT	SEGMENT PARA USE32 PUBLIC 'CODE'
_TEXT	ENDS
;	COMDAT ?DoDataExchange@CReportEdit@@MAEXPAVCDataExchange@@@Z
_TEXT	SEGMENT PARA USE32 PUBLIC 'CODE'
_TEXT	ENDS
;	COMDAT ?GetMessageMap@CReportEdit@@MBEPBUAFX_MSGMAP@@XZ
_TEXT	SEGMENT PARA USE32 PUBLIC 'CODE'
_TEXT	ENDS
;	COMDAT ?OnCancel@CReportEdit@@MAEXXZ
_TEXT	SEGMENT PARA USE32 PUBLIC 'CODE'
_TEXT	ENDS
;	COMDAT ?OnOK@CReportEdit@@MAEXXZ
_TEXT	SEGMENT PARA USE32 PUBLIC 'CODE'
_TEXT	ENDS
;	COMDAT ?OnSelchangeTextid@CReportEdit@@IAEXXZ
_TEXT	SEGMENT PARA USE32 PUBLIC 'CODE'
_TEXT	ENDS
;	COMDAT ?OnChangeIndex@CReportEdit@@IAEXXZ
_TEXT	SEGMENT PARA USE32 PUBLIC 'CODE'
_TEXT	ENDS
;	COMDAT ?OnPaste@CReportEdit@@IAEXXZ
_TEXT	SEGMENT PARA USE32 PUBLIC 'CODE'
_TEXT	ENDS
;	COMDAT ?OnUpdatePaste@CReportEdit@@IAEXPAVCCmdUI@@@Z
_TEXT	SEGMENT PARA USE32 PUBLIC 'CODE'
_TEXT	ENDS
;	COMDAT ?OnCut@CReportEdit@@IAEXXZ
_TEXT	SEGMENT PARA USE32 PUBLIC 'CODE'
_TEXT	ENDS
;	COMDAT ?OnUpdateCut@CReportEdit@@IAEXPAVCCmdUI@@@Z
_TEXT	SEGMENT PARA USE32 PUBLIC 'CODE'
_TEXT	ENDS
;	COMDAT ?OnUpdateCopy@CReportEdit@@IAEXPAVCCmdUI@@@Z
_TEXT	SEGMENT PARA USE32 PUBLIC 'CODE'
_TEXT	ENDS
;	COMDAT ?OnCopy@CReportEdit@@IAEXXZ
_TEXT	SEGMENT PARA USE32 PUBLIC 'CODE'
_TEXT	ENDS
;	COMDAT ?OnClear@CReportEdit@@IAEXXZ
_TEXT	SEGMENT PARA USE32 PUBLIC 'CODE'
_TEXT	ENDS
;	COMDAT ?OnUpdateClear@CReportEdit@@IAEXPAVCCmdUI@@@Z
_TEXT	SEGMENT PARA USE32 PUBLIC 'CODE'
_TEXT	ENDS
;	COMDAT ?DestroyWindow@CReportEdit@@UAEHXZ
_TEXT	SEGMENT PARA USE32 PUBLIC 'CODE'
_TEXT	ENDS
;	COMDAT ?OnInitDialog@CReportEdit@@MAEHXZ
_TEXT	SEGMENT PARA USE32 PUBLIC 'CODE'
_TEXT	ENDS
;	COMDAT ?OnChangeText@CReportEdit@@IAEXXZ
_TEXT	SEGMENT PARA USE32 PUBLIC 'CODE'
_TEXT	ENDS
;	COMDAT ?OnUndo@CReportEdit@@IAEXXZ
_TEXT	SEGMENT PARA USE32 PUBLIC 'CODE'
_TEXT	ENDS
;	COMDAT ?OnUpdateUndo@CReportEdit@@IAEXPAVCCmdUI@@@Z
_TEXT	SEGMENT PARA USE32 PUBLIC 'CODE'
_TEXT	ENDS
;	COMDAT ?OnUpdateText@CReportEdit@@IAEXXZ
_TEXT	SEGMENT PARA USE32 PUBLIC 'CODE'
_TEXT	ENDS
;	COMDAT ?OnBold@CReportEdit@@IAEXXZ
_TEXT	SEGMENT PARA USE32 PUBLIC 'CODE'
_TEXT	ENDS
;	COMDAT ?OnUpdateBold@CReportEdit@@IAEXPAVCCmdUI@@@Z
_TEXT	SEGMENT PARA USE32 PUBLIC 'CODE'
_TEXT	ENDS
;	COMDAT ?OnHead@CReportEdit@@IAEXXZ
_TEXT	SEGMENT PARA USE32 PUBLIC 'CODE'
_TEXT	ENDS
;	COMDAT ?OnUpdateHead@CReportEdit@@IAEXPAVCCmdUI@@@Z
_TEXT	SEGMENT PARA USE32 PUBLIC 'CODE'
_TEXT	ENDS
;	COMDAT ?OnItal@CReportEdit@@IAEXXZ
_TEXT	SEGMENT PARA USE32 PUBLIC 'CODE'
_TEXT	ENDS
;	COMDAT ?OnUpdateItal@CReportEdit@@IAEXPAVCCmdUI@@@Z
_TEXT	SEGMENT PARA USE32 PUBLIC 'CODE'
_TEXT	ENDS
;	COMDAT ?OnUnbold@CReportEdit@@IAEXXZ
_TEXT	SEGMENT PARA USE32 PUBLIC 'CODE'
_TEXT	ENDS
;	COMDAT ?OnUpdateUnbold@CReportEdit@@IAEXPAVCCmdUI@@@Z
_TEXT	SEGMENT PARA USE32 PUBLIC 'CODE'
_TEXT	ENDS
;	COMDAT ?OnUnheading@CReportEdit@@IAEXXZ
_TEXT	SEGMENT PARA USE32 PUBLIC 'CODE'
_TEXT	ENDS
;	COMDAT ?OnUpdateUnheading@CReportEdit@@IAEXPAVCCmdUI@@@Z
_TEXT	SEGMENT PARA USE32 PUBLIC 'CODE'
_TEXT	ENDS
;	COMDAT ?OnUnitalic@CReportEdit@@IAEXXZ
_TEXT	SEGMENT PARA USE32 PUBLIC 'CODE'
_TEXT	ENDS
;	COMDAT ?OnUpdateUnitalic@CReportEdit@@IAEXPAVCCmdUI@@@Z
_TEXT	SEGMENT PARA USE32 PUBLIC 'CODE'
_TEXT	ENDS
;	COMDAT ?Find@CReportEdit@@IAEHXZ
_TEXT	SEGMENT PARA USE32 PUBLIC 'CODE'
_TEXT	ENDS
;	COMDAT ?Save@CReportEdit@@IAEHXZ
_TEXT	SEGMENT PARA USE32 PUBLIC 'CODE'
_TEXT	ENDS
;	COMDAT ?OnSpell@CReportEdit@@IAEXXZ
_TEXT	SEGMENT PARA USE32 PUBLIC 'CODE'
_TEXT	ENDS
;	COMDAT ?OnUpdateSpell@CReportEdit@@IAEXPAVCCmdUI@@@Z
_TEXT	SEGMENT PARA USE32 PUBLIC 'CODE'
_TEXT	ENDS
;	COMDAT ??4?$CStringT@GV?$StrTraitMFC@GV?$ChTraitsCRT@G@ATL@@@@@ATL@@QAEAAV01@ABV01@@Z
_TEXT	SEGMENT PARA USE32 PUBLIC 'CODE'
_TEXT	ENDS
;	COMDAT ??Y?$CStringT@GV?$StrTraitMFC@GV?$ChTraitsCRT@G@ATL@@@@@ATL@@QAEAAV01@ABV?$CSimpleStringT@G$0A@@1@@Z
_TEXT	SEGMENT PARA USE32 PUBLIC 'CODE'
_TEXT	ENDS
;	COMDAT ??4?$CSimpleStringT@G$0A@@ATL@@QAEAAV01@ABV01@@Z
_TEXT	SEGMENT PARA USE32 PUBLIC 'CODE'
_TEXT	ENDS
;	COMDAT ??Y?$CSimpleStringT@G$0A@@ATL@@QAEAAV01@ABV01@@Z
_TEXT	SEGMENT PARA USE32 PUBLIC 'CODE'
_TEXT	ENDS
;	COMDAT ?Append@?$CSimpleStringT@G$0A@@ATL@@QAEXABV12@@Z
_TEXT	SEGMENT PARA USE32 PUBLIC 'CODE'
_TEXT	ENDS
;	COMDAT ?Append@?$CSimpleStringT@G$0A@@ATL@@QAEXPBGH@Z
_TEXT	SEGMENT PARA USE32 PUBLIC 'CODE'
_TEXT	ENDS
;	COMDAT ?ReleaseBufferSetLength@?$CSimpleStringT@G$0A@@ATL@@QAEXH@Z
_TEXT	SEGMENT PARA USE32 PUBLIC 'CODE'
_TEXT	ENDS
;	COMDAT ??_C@_0BA@GNIEOBOF@nNewLength?5?$DO?$DN?50?$AA@
CONST	SEGMENT DWORD USE32 PUBLIC 'CONST'
CONST	ENDS
;	COMDAT ??_C@_0FD@JDCNPMMG@c?3?2program?5files?2microsoft?5visua@
CONST	SEGMENT DWORD USE32 PUBLIC 'CONST'
CONST	ENDS
;	COMDAT ?SetLength@?$CSimpleStringT@G$0A@@ATL@@AAEXH@Z
_TEXT	SEGMENT PARA USE32 PUBLIC 'CODE'
_TEXT	ENDS
;	COMDAT ??_C@_0N@ILOMLJGA@nLength?5?$DO?$DN?50?$AA@
CONST	SEGMENT DWORD USE32 PUBLIC 'CONST'
CONST	ENDS
;	COMDAT ??_C@_0CD@EEFFJEGJ@nLength?5?$DM?$DN?5GetData?$CI?$CJ?9?$DOnAllocLeng@
CONST	SEGMENT DWORD USE32 PUBLIC 'CONST'
CONST	ENDS
;	COMDAT ?AtlThrow@ATL@@YGXJ@Z
_TEXT	SEGMENT PARA USE32 PUBLIC 'CODE'
_TEXT	ENDS
;	COMDAT ??RCTraceFileAndLineInfo@ATL@@QBAXKIPBGZZ
_TEXT	SEGMENT PARA USE32 PUBLIC 'CODE'
_TEXT	ENDS
;	COMDAT ?TraceV@CTrace@ATL@@QBAXPBDHKIPBGPAD@Z
_TEXT	SEGMENT PARA USE32 PUBLIC 'CODE'
_TEXT	ENDS
;	COMDAT ??0CTraceFileAndLineInfo@ATL@@QAE@PBDH@Z
_TEXT	SEGMENT PARA USE32 PUBLIC 'CODE'
_TEXT	ENDS
;	COMDAT ?__LINE__Var@?1??AtlThrow@ATL@@YGXJ@Z@4JA
_DATA	SEGMENT DWORD USE32 PUBLIC 'DATA'
_DATA	ENDS
;	COMDAT ??_C@_0FC@IPKABFFL@c?3?2program?5files?2microsoft?5visua@
CONST	SEGMENT DWORD USE32 PUBLIC 'CONST'
CONST	ENDS
;	COMDAT ??_C@_1CK@DFMKPFAK@?$AAA?$AAt?$AAl?$AAT?$AAh?$AAr?$AAo?$AAw?$AA?3?$AA?5?$AAh?$AAr?$AA?5?$AA?$DN?$AA?5?$AA0?$AAx?$AA?$CF?$AAx?$AA?6@
CONST	SEGMENT DWORD USE32 PUBLIC 'CONST'
CONST	ENDS
;	COMDAT ??BCTraceCategory@ATL@@QBEKXZ
_TEXT	SEGMENT PARA USE32 PUBLIC 'CODE'
_TEXT	ENDS
;	COMDAT ?CopyChars@?$CSimpleStringT@G$0A@@ATL@@SAXPAGPBGH@Z
_TEXT	SEGMENT PARA USE32 PUBLIC 'CODE'
_TEXT	ENDS
;	COMDAT ?GetBuffer@?$CSimpleStringT@G$0A@@ATL@@QAEPAGH@Z
_TEXT	SEGMENT PARA USE32 PUBLIC 'CODE'
_TEXT	ENDS
;	COMDAT ?PrepareWrite@?$CSimpleStringT@G$0A@@ATL@@AAEPAGH@Z
_TEXT	SEGMENT PARA USE32 PUBLIC 'CODE'
_TEXT	ENDS
;	COMDAT ?PrepareWrite2@?$CSimpleStringT@G$0A@@ATL@@AAEXH@Z
_TEXT	SEGMENT PARA USE32 PUBLIC 'CODE'
_TEXT	ENDS
;	COMDAT ?IsShared@CStringData@ATL@@QBE_NXZ
_TEXT	SEGMENT PARA USE32 PUBLIC 'CODE'
_TEXT	ENDS
;	COMDAT ?Fork@?$CSimpleStringT@G$0A@@ATL@@AAEXH@Z
_TEXT	SEGMENT PARA USE32 PUBLIC 'CODE'
_TEXT	ENDS
;	COMDAT ?ThrowMemoryException@?$CSimpleStringT@G$0A@@ATL@@KAXXZ
_TEXT	SEGMENT PARA USE32 PUBLIC 'CODE'
_TEXT	ENDS
;	COMDAT ?data@CStringData@ATL@@QAEPAXXZ
_TEXT	SEGMENT PARA USE32 PUBLIC 'CODE'
_TEXT	ENDS
;	COMDAT ?Reallocate@?$CSimpleStringT@G$0A@@ATL@@AAEXH@Z
_TEXT	SEGMENT PARA USE32 PUBLIC 'CODE'
_TEXT	ENDS
;	COMDAT ??_C@_0CB@GFHAPKDK@pOldData?9?$DOnAllocLength?5?$DM?5nLength@
CONST	SEGMENT DWORD USE32 PUBLIC 'CONST'
CONST	ENDS
;	COMDAT ?Attach@?$CSimpleStringT@G$0A@@ATL@@AAEXPAUCStringData@2@@Z
_TEXT	SEGMENT PARA USE32 PUBLIC 'CODE'
_TEXT	ENDS
;	COMDAT ?Release@CStringData@ATL@@QAEXXZ
_TEXT	SEGMENT PARA USE32 PUBLIC 'CODE'
_TEXT	ENDS
;	COMDAT ??_C@_0L@OIIMFBNE@nRefs?5?$CB?$DN?50?$AA@
CONST	SEGMENT DWORD USE32 PUBLIC 'CONST'
CONST	ENDS
;	COMDAT ?CloneData@?$CSimpleStringT@G$0A@@ATL@@CAPAUCStringData@2@PAU32@@Z
_TEXT	SEGMENT PARA USE32 PUBLIC 'CODE'
_TEXT	ENDS
;	COMDAT ?AddRef@CStringData@ATL@@QAEXXZ
_TEXT	SEGMENT PARA USE32 PUBLIC 'CODE'
_TEXT	ENDS
;	COMDAT ??_C@_09EEBKLCFA@nRefs?5?$DO?50?$AA@
CONST	SEGMENT DWORD USE32 PUBLIC 'CONST'
CONST	ENDS
;	COMDAT ?GetString@?$CSimpleStringT@G$0A@@ATL@@QBEPBGXZ
_TEXT	SEGMENT PARA USE32 PUBLIC 'CODE'
_TEXT	ENDS
;	COMDAT ?SetString@?$CSimpleStringT@G$0A@@ATL@@QAEXPBGH@Z
_TEXT	SEGMENT PARA USE32 PUBLIC 'CODE'
_TEXT	ENDS
;	COMDAT ?Empty@?$CSimpleStringT@G$0A@@ATL@@QAEXXZ
_TEXT	SEGMENT PARA USE32 PUBLIC 'CODE'
_TEXT	ENDS
;	COMDAT ?CopyCharsOverlapped@?$CSimpleStringT@G$0A@@ATL@@SAXPAGPBGH@Z
_TEXT	SEGMENT PARA USE32 PUBLIC 'CODE'
_TEXT	ENDS
;	COMDAT ?IsLocked@CStringData@ATL@@QBE_NXZ
_TEXT	SEGMENT PARA USE32 PUBLIC 'CODE'
_TEXT	ENDS
;	COMDAT ?GetData@?$CSimpleStringT@G$0A@@ATL@@ABEPAUCStringData@2@XZ
_TEXT	SEGMENT PARA USE32 PUBLIC 'CODE'
_TEXT	ENDS
;	COMDAT ??_R0PAVCDaoException@@@8
_DATA	SEGMENT DWORD USE32 PUBLIC 'DATA'
_DATA	ENDS
;	COMDAT ??B?$CSimpleStringT@G$0A@@ATL@@QBEPBGXZ
_TEXT	SEGMENT PARA USE32 PUBLIC 'CODE'
_TEXT	ENDS
;	COMDAT ?GetLength@?$CSimpleStringT@G$0A@@ATL@@QBEHXZ
_TEXT	SEGMENT PARA USE32 PUBLIC 'CODE'
_TEXT	ENDS
;	COMDAT ?_messageEntries@CReportEdit@@0QBUAFX_MSGMAP_ENTRY@@B
CONST	SEGMENT DWORD USE32 PUBLIC 'CONST'
CONST	ENDS
;	COMDAT ?messageMap@CReportEdit@@1UAFX_MSGMAP@@B
CONST	SEGMENT DWORD USE32 PUBLIC 'CONST'
CONST	ENDS
;	COMDAT ??_7CTabctrlctrl1@@6B@
CONST	SEGMENT DWORD USE32 PUBLIC 'CONST'
CONST	ENDS
;	COMDAT ??_7CWSpell@@6B@
CONST	SEGMENT DWORD USE32 PUBLIC 'CONST'
CONST	ENDS
;	COMDAT ?__LINE__Var@?1???0CReportEdit@@QAE@PAVCWnd@@@Z@4JA
_DATA	SEGMENT DWORD USE32 PUBLIC 'DATA'
_DATA	ENDS
;	COMDAT ??_C@_11LOCGONAA@?$AA?$AA@
CONST	SEGMENT DWORD USE32 PUBLIC 'CONST'
CONST	ENDS
;	COMDAT ??4?$CStringT@GV?$StrTraitMFC@GV?$ChTraitsCRT@G@ATL@@@@@ATL@@QAEAAV01@PBG@Z
_TEXT	SEGMENT PARA USE32 PUBLIC 'CODE'
_TEXT	ENDS
;	COMDAT ??4?$CSimpleStringT@G$0A@@ATL@@QAEAAV01@PBG@Z
_TEXT	SEGMENT PARA USE32 PUBLIC 'CODE'
_TEXT	ENDS
;	COMDAT ?SetString@?$CSimpleStringT@G$0A@@ATL@@QAEXPBG@Z
_TEXT	SEGMENT PARA USE32 PUBLIC 'CODE'
_TEXT	ENDS
;	COMDAT ?StringLength@?$CSimpleStringT@G$0A@@ATL@@SAHPBG@Z
_TEXT	SEGMENT PARA USE32 PUBLIC 'CODE'
_TEXT	ENDS
;	COMDAT ??_7CReportEdit@@6B@
CONST	SEGMENT DWORD USE32 PUBLIC 'CONST'
CONST	ENDS
;	COMDAT ??_7CRSymbol@@6B@
CONST	SEGMENT DWORD USE32 PUBLIC 'CONST'
CONST	ENDS
;	COMDAT ??_7CSymbol@@6B@
CONST	SEGMENT DWORD USE32 PUBLIC 'CONST'
CONST	ENDS
;	COMDAT ??0?$CStringT@GV?$StrTraitMFC@GV?$ChTraitsCRT@G@ATL@@@@@ATL@@QAE@ABV01@@Z
_TEXT	SEGMENT PARA USE32 PUBLIC 'CODE'
_TEXT	ENDS
;	COMDAT ??0?$CSimpleStringT@G$0A@@ATL@@QAE@ABV01@@Z
_TEXT	SEGMENT PARA USE32 PUBLIC 'CODE'
_TEXT	ENDS
;	COMDAT ??1?$CSimpleStringT@G$0A@@ATL@@QAE@XZ
_TEXT	SEGMENT PARA USE32 PUBLIC 'CODE'
_TEXT	ENDS
;	COMDAT ?clsid@?1??GetClsid@CTabctrlctrl1@@QAEABU_GUID@@XZ@4U3@B
CONST	SEGMENT DWORD USE32 PUBLIC 'CONST'
CONST	ENDS
;	COMDAT ??1?$CStringT@GV?$StrTraitMFC@GV?$ChTraitsCRT@G@ATL@@@@@ATL@@QAE@XZ
_TEXT	SEGMENT PARA USE32 PUBLIC 'CODE'
_TEXT	ENDS
;	COMDAT ??0?$CStringT@GV?$StrTraitMFC@GV?$ChTraitsCRT@G@ATL@@@@@ATL@@QAE@XZ
_TEXT	SEGMENT PARA USE32 PUBLIC 'CODE'
_TEXT	ENDS
;	COMDAT ??0?$CSimpleStringT@G$0A@@ATL@@QAE@PAUIAtlStringMgr@1@@Z
_TEXT	SEGMENT PARA USE32 PUBLIC 'CODE'
_TEXT	ENDS
;	COMDAT ??_C@_0BA@GOIMFHNK@pStringMgr?5?$CB?$DN?50?$AA@
CONST	SEGMENT DWORD USE32 PUBLIC 'CONST'
CONST	ENDS
;	COMDAT ?GetDefaultManager@?$StrTraitMFC@GV?$ChTraitsCRT@G@ATL@@@@SAPAUIAtlStringMgr@ATL@@XZ
_TEXT	SEGMENT PARA USE32 PUBLIC 'CODE'
_TEXT	ENDS
;	COMDAT ??_7RTFFuncs@@6B@
CONST	SEGMENT DWORD USE32 PUBLIC 'CONST'
CONST	ENDS
;	COMDAT ?clsid@?1??GetClsid@CWSpell@@QAEABU_GUID@@XZ@4U3@B
CONST	SEGMENT DWORD USE32 PUBLIC 'CONST'
CONST	ENDS
sxdata	SEGMENT DWORD USE32 'SXDATA'
sxdata	ENDS
FLAT	GROUP _DATA, CONST, _BSS
	ASSUME	CS: FLAT, DS: FLAT, SS: FLAT
endif

INCLUDELIB LIBCMTD
INCLUDELIB OLDNAMES

PUBLIC	?OnSelchangeTextid@CReportEdit@@IAEXXZ		; CReportEdit::OnSelchangeTextid
PUBLIC	?OnChangeIndex@CReportEdit@@IAEXXZ		; CReportEdit::OnChangeIndex
PUBLIC	?OnPaste@CReportEdit@@IAEXXZ			; CReportEdit::OnPaste
PUBLIC	?OnUpdatePaste@CReportEdit@@IAEXPAVCCmdUI@@@Z	; CReportEdit::OnUpdatePaste
PUBLIC	?OnCut@CReportEdit@@IAEXXZ			; CReportEdit::OnCut
PUBLIC	?OnUpdateCut@CReportEdit@@IAEXPAVCCmdUI@@@Z	; CReportEdit::OnUpdateCut
PUBLIC	?OnUpdateCopy@CReportEdit@@IAEXPAVCCmdUI@@@Z	; CReportEdit::OnUpdateCopy
PUBLIC	?OnCopy@CReportEdit@@IAEXXZ			; CReportEdit::OnCopy
PUBLIC	?OnClear@CReportEdit@@IAEXXZ			; CReportEdit::OnClear
PUBLIC	?OnUpdateClear@CReportEdit@@IAEXPAVCCmdUI@@@Z	; CReportEdit::OnUpdateClear
PUBLIC	?OnChangeText@CReportEdit@@IAEXXZ		; CReportEdit::OnChangeText
PUBLIC	?OnUndo@CReportEdit@@IAEXXZ			; CReportEdit::OnUndo
PUBLIC	?OnUpdateUndo@CReportEdit@@IAEXPAVCCmdUI@@@Z	; CReportEdit::OnUpdateUndo
PUBLIC	?OnUpdateText@CReportEdit@@IAEXXZ		; CReportEdit::OnUpdateText
PUBLIC	?OnBold@CReportEdit@@IAEXXZ			; CReportEdit::OnBold
PUBLIC	?OnUpdateBold@CReportEdit@@IAEXPAVCCmdUI@@@Z	; CReportEdit::OnUpdateBold
PUBLIC	?OnHead@CReportEdit@@IAEXXZ			; CReportEdit::OnHead
PUBLIC	?OnUpdateHead@CReportEdit@@IAEXPAVCCmdUI@@@Z	; CReportEdit::OnUpdateHead
PUBLIC	?OnItal@CReportEdit@@IAEXXZ			; CReportEdit::OnItal
PUBLIC	?OnUpdateItal@CReportEdit@@IAEXPAVCCmdUI@@@Z	; CReportEdit::OnUpdateItal
PUBLIC	?OnUnbold@CReportEdit@@IAEXXZ			; CReportEdit::OnUnbold
PUBLIC	?OnUpdateUnbold@CReportEdit@@IAEXPAVCCmdUI@@@Z	; CReportEdit::OnUpdateUnbold
PUBLIC	?OnUnheading@CReportEdit@@IAEXXZ		; CReportEdit::OnUnheading
PUBLIC	?OnUpdateUnheading@CReportEdit@@IAEXPAVCCmdUI@@@Z ; CReportEdit::OnUpdateUnheading
PUBLIC	?OnUnitalic@CReportEdit@@IAEXXZ			; CReportEdit::OnUnitalic
PUBLIC	?OnUpdateUnitalic@CReportEdit@@IAEXPAVCCmdUI@@@Z ; CReportEdit::OnUpdateUnitalic
PUBLIC	?OnSpell@CReportEdit@@IAEXXZ			; CReportEdit::OnSpell
PUBLIC	?OnUpdateSpell@CReportEdit@@IAEXPAVCCmdUI@@@Z	; CReportEdit::OnUpdateSpell
PUBLIC	?_messageEntries@CReportEdit@@0QBUAFX_MSGMAP_ENTRY@@B ; CReportEdit::_messageEntries
PUBLIC	?messageMap@CReportEdit@@1UAFX_MSGMAP@@B	; CReportEdit::messageMap
EXTRN	?messageMap@CDialog@@1UAFX_MSGMAP@@B:QWORD	; CDialog::messageMap
_DATA	SEGMENT
_THIS_FILE DB	'c:\astrow32dev\tbt32\reportedit.cpp', 00H
_DATA	ENDS
;	COMDAT ?_messageEntries@CReportEdit@@0QBUAFX_MSGMAP_ENTRY@@B
CONST	SEGMENT
?_messageEntries@CReportEdit@@0QBUAFX_MSGMAP_ENTRY@@B DD 0111H ; CReportEdit::_messageEntries
	DD	01H
	DD	03f0H
	DD	03f0H
	DD	035H
	DD	FLAT:?OnSelchangeTextid@CReportEdit@@IAEXXZ
	DD	0111H
	DD	0300H
	DD	03f1H
	DD	03f1H
	DD	035H
	DD	FLAT:?OnChangeIndex@CReportEdit@@IAEXXZ
	DD	0111H
	DD	00H
	DD	0800bH
	DD	0800bH
	DD	035H
	DD	FLAT:?OnPaste@CReportEdit@@IAEXXZ
	DD	0111H
	DD	0ffffffffH
	DD	0800bH
	DD	0800bH
	DD	03dH
	DD	FLAT:?OnUpdatePaste@CReportEdit@@IAEXPAVCCmdUI@@@Z
	DD	0111H
	DD	00H
	DD	0800cH
	DD	0800cH
	DD	035H
	DD	FLAT:?OnCut@CReportEdit@@IAEXXZ
	DD	0111H
	DD	0ffffffffH
	DD	0800cH
	DD	0800cH
	DD	03dH
	DD	FLAT:?OnUpdateCut@CReportEdit@@IAEXPAVCCmdUI@@@Z
	DD	0111H
	DD	0ffffffffH
	DD	0800aH
	DD	0800aH
	DD	03dH
	DD	FLAT:?OnUpdateCopy@CReportEdit@@IAEXPAVCCmdUI@@@Z
	DD	0111H
	DD	00H
	DD	0800aH
	DD	0800aH
	DD	035H
	DD	FLAT:?OnCopy@CReportEdit@@IAEXXZ
	DD	0111H
	DD	00H
	DD	0800dH
	DD	0800dH
	DD	035H
	DD	FLAT:?OnClear@CReportEdit@@IAEXXZ
	DD	0111H
	DD	0ffffffffH
	DD	0800dH
	DD	0800dH
	DD	03dH
	DD	FLAT:?OnUpdateClear@CReportEdit@@IAEXPAVCCmdUI@@@Z
	DD	0111H
	DD	0300H
	DD	03ecH
	DD	03ecH
	DD	035H
	DD	FLAT:?OnChangeText@CReportEdit@@IAEXXZ
	DD	0111H
	DD	00H
	DD	08010H
	DD	08010H
	DD	035H
	DD	FLAT:?OnUndo@CReportEdit@@IAEXXZ
	DD	0111H
	DD	0ffffffffH
	DD	08010H
	DD	08010H
	DD	03dH
	DD	FLAT:?OnUpdateUndo@CReportEdit@@IAEXPAVCCmdUI@@@Z
	DD	0111H
	DD	0400H
	DD	03ecH
	DD	03ecH
	DD	035H
	DD	FLAT:?OnUpdateText@CReportEdit@@IAEXXZ
	DD	0111H
	DD	00H
	DD	08012H
	DD	08012H
	DD	035H
	DD	FLAT:?OnBold@CReportEdit@@IAEXXZ
	DD	0111H
	DD	0ffffffffH
	DD	08012H
	DD	08012H
	DD	03dH
	DD	FLAT:?OnUpdateBold@CReportEdit@@IAEXPAVCCmdUI@@@Z
	DD	0111H
	DD	00H
	DD	08014H
	DD	08014H
	DD	035H
	DD	FLAT:?OnHead@CReportEdit@@IAEXXZ
	DD	0111H
	DD	0ffffffffH
	DD	08014H
	DD	08014H
	DD	03dH
	DD	FLAT:?OnUpdateHead@CReportEdit@@IAEXPAVCCmdUI@@@Z
	DD	0111H
	DD	00H
	DD	08013H
	DD	08013H
	DD	035H
	DD	FLAT:?OnItal@CReportEdit@@IAEXXZ
	DD	0111H
	DD	0ffffffffH
	DD	08013H
	DD	08013H
	DD	03dH
	DD	FLAT:?OnUpdateItal@CReportEdit@@IAEXPAVCCmdUI@@@Z
	DD	0111H
	DD	00H
	DD	08016H
	DD	08016H
	DD	035H
	DD	FLAT:?OnUnbold@CReportEdit@@IAEXXZ
	DD	0111H
	DD	0ffffffffH
	DD	08016H
	DD	08016H
	DD	03dH
	DD	FLAT:?OnUpdateUnbold@CReportEdit@@IAEXPAVCCmdUI@@@Z
	DD	0111H
	DD	00H
	DD	08015H
	DD	08015H
	DD	035H
	DD	FLAT:?OnUnheading@CReportEdit@@IAEXXZ
	DD	0111H
	DD	0ffffffffH
	DD	08015H
	DD	08015H
	DD	03dH
	DD	FLAT:?OnUpdateUnheading@CReportEdit@@IAEXPAVCCmdUI@@@Z
	DD	0111H
	DD	00H
	DD	08017H
	DD	08017H
	DD	035H
	DD	FLAT:?OnUnitalic@CReportEdit@@IAEXXZ
	DD	0111H
	DD	0ffffffffH
	DD	08017H
	DD	08017H
	DD	03dH
	DD	FLAT:?OnUpdateUnitalic@CReportEdit@@IAEXPAVCCmdUI@@@Z
	DD	0111H
	DD	00H
	DD	08018H
	DD	08018H
	DD	035H
	DD	FLAT:?OnSpell@CReportEdit@@IAEXXZ
	DD	0111H
	DD	0ffffffffH
	DD	08018H
	DD	08018H
	DD	03dH
	DD	FLAT:?OnUpdateSpell@CReportEdit@@IAEXPAVCCmdUI@@@Z
	DD	00H
	DD	00H
	DD	00H
	DD	00H
	DD	00H
	DD	00H
CONST	ENDS
;	COMDAT ?messageMap@CReportEdit@@1UAFX_MSGMAP@@B
CONST	SEGMENT
?messageMap@CReportEdit@@1UAFX_MSGMAP@@B DD FLAT:?messageMap@CDialog@@1UAFX_MSGMAP@@B ; CReportEdit::messageMap
	DD	FLAT:?_messageEntries@CReportEdit@@0QBUAFX_MSGMAP_ENTRY@@B
CONST	ENDS
PUBLIC	??1CSymbol@@QAE@XZ				; CSymbol::~CSymbol
PUBLIC	??_ECSymbol@@QAEPAXI@Z				; CSymbol::`vector deleting destructor'
EXTRN	??_M@YGXPAXIHP6EX0@Z@Z:NEAR			; `eh vector destructor iterator'
EXTRN	??3@YAXPAX@Z:NEAR				; operator delete
EXTRN	__RTC_InitBase:NEAR
EXTRN	__RTC_Shutdown:NEAR
EXTRN	__RTC_CheckEsp:NEAR
EXTRN	??_V@YAXPAX@Z:NEAR				; operator delete[]
;	COMDAT rtc$IMZ
rtc$IMZ	SEGMENT
__RTC_InitBase.rtc$IMZ DD FLAT:__RTC_InitBase
rtc$IMZ	ENDS
;	COMDAT rtc$TMZ
rtc$TMZ	SEGMENT
__RTC_Shutdown.rtc$TMZ DD FLAT:__RTC_Shutdown
; Function compile flags: /Odt /RTCcsu /ZI
rtc$TMZ	ENDS
;	COMDAT ??_ECSymbol@@QAEPAXI@Z
_TEXT	SEGMENT
_this$ = -8						; size = 4
___flags$ = 8						; size = 4
??_ECSymbol@@QAEPAXI@Z PROC NEAR			; CSymbol::`vector deleting destructor', COMDAT
; _this$ = ecx
	push	ebp
	mov	ebp, esp
	sub	esp, 204				; 000000ccH
	push	ebx
	push	esi
	push	edi
	push	ecx
	lea	edi, DWORD PTR [ebp-204]
	mov	ecx, 51					; 00000033H
	mov	eax, -858993460				; ccccccccH
	rep stosd
	pop	ecx
	mov	DWORD PTR _this$[ebp], ecx
	mov	eax, DWORD PTR ___flags$[ebp]
	and	eax, 2
	je	SHORT $L93550
	push	OFFSET FLAT:??1CSymbol@@QAE@XZ		; CSymbol::~CSymbol
	mov	eax, DWORD PTR _this$[ebp]
	mov	ecx, DWORD PTR [eax-4]
	push	ecx
	push	164					; 000000a4H
	mov	edx, DWORD PTR _this$[ebp]
	push	edx
	call	??_M@YGXPAXIHP6EX0@Z@Z
	mov	eax, DWORD PTR ___flags$[ebp]
	and	eax, 1
	je	SHORT $L93551
	mov	eax, DWORD PTR _this$[ebp]
	sub	eax, 4
	push	eax
	call	??_V@YAXPAX@Z				; operator delete[]
	add	esp, 4
$L93551:
	mov	eax, DWORD PTR _this$[ebp]
	sub	eax, 4
	jmp	SHORT $L93549
$L93550:
	mov	ecx, DWORD PTR _this$[ebp]
	call	??1CSymbol@@QAE@XZ			; CSymbol::~CSymbol
	mov	eax, DWORD PTR ___flags$[ebp]
	and	eax, 1
	je	SHORT $L93553
	mov	eax, DWORD PTR _this$[ebp]
	push	eax
	call	??3@YAXPAX@Z				; operator delete
	add	esp, 4
$L93553:
	mov	eax, DWORD PTR _this$[ebp]
$L93549:
	pop	edi
	pop	esi
	pop	ebx
	add	esp, 204				; 000000ccH
	cmp	ebp, esp
	call	__RTC_CheckEsp
	mov	esp, ebp
	pop	ebp
	ret	4
??_ECSymbol@@QAEPAXI@Z ENDP				; CSymbol::`vector deleting destructor'
_TEXT	ENDS
PUBLIC	??_7CSymbol@@6B@				; CSymbol::`vftable'
EXTRN	?Read@CSymbol@@UAEHPAU_iobuf@@@Z:NEAR		; CSymbol::Read
;	COMDAT ??_7CSymbol@@6B@
; File c:\astrow32dev\tbt32\symbol.hpp
CONST	SEGMENT
??_7CSymbol@@6B@ DD FLAT:?Read@CSymbol@@UAEHPAU_iobuf@@@Z ; CSymbol::`vftable'
; Function compile flags: /Odt /RTCcsu /ZI
CONST	ENDS
;	COMDAT ??1CSymbol@@QAE@XZ
_TEXT	SEGMENT
_this$ = -8						; size = 4
??1CSymbol@@QAE@XZ PROC NEAR				; CSymbol::~CSymbol, COMDAT
; _this$ = ecx

; 14   : 	~CSymbol() {}

	push	ebp
	mov	ebp, esp
	sub	esp, 204				; 000000ccH
	push	ebx
	push	esi
	push	edi
	push	ecx
	lea	edi, DWORD PTR [ebp-204]
	mov	ecx, 51					; 00000033H
	mov	eax, -858993460				; ccccccccH
	rep stosd
	pop	ecx
	mov	DWORD PTR _this$[ebp], ecx
	mov	eax, DWORD PTR _this$[ebp]
	mov	DWORD PTR [eax], OFFSET FLAT:??_7CSymbol@@6B@
	pop	edi
	pop	esi
	pop	ebx
	mov	esp, ebp
	pop	ebp
	ret	0
??1CSymbol@@QAE@XZ ENDP					; CSymbol::~CSymbol
_TEXT	ENDS
PUBLIC	??1CRSymbol@@QAE@XZ				; CRSymbol::~CRSymbol
PUBLIC	??_ECRSymbol@@QAEPAXI@Z				; CRSymbol::`vector deleting destructor'
; Function compile flags: /Odt /RTCcsu /ZI
;	COMDAT ??_ECRSymbol@@QAEPAXI@Z
_TEXT	SEGMENT
_this$ = -8						; size = 4
___flags$ = 8						; size = 4
??_ECRSymbol@@QAEPAXI@Z PROC NEAR			; CRSymbol::`vector deleting destructor', COMDAT
; _this$ = ecx
	push	ebp
	mov	ebp, esp
	sub	esp, 204				; 000000ccH
	push	ebx
	push	esi
	push	edi
	push	ecx
	lea	edi, DWORD PTR [ebp-204]
	mov	ecx, 51					; 00000033H
	mov	eax, -858993460				; ccccccccH
	rep stosd
	pop	ecx
	mov	DWORD PTR _this$[ebp], ecx
	mov	eax, DWORD PTR ___flags$[ebp]
	and	eax, 2
	je	SHORT $L93601
	push	OFFSET FLAT:??1CRSymbol@@QAE@XZ		; CRSymbol::~CRSymbol
	mov	eax, DWORD PTR _this$[ebp]
	mov	ecx, DWORD PTR [eax-4]
	push	ecx
	push	164					; 000000a4H
	mov	edx, DWORD PTR _this$[ebp]
	push	edx
	call	??_M@YGXPAXIHP6EX0@Z@Z
	mov	eax, DWORD PTR ___flags$[ebp]
	and	eax, 1
	je	SHORT $L93602
	mov	eax, DWORD PTR _this$[ebp]
	sub	eax, 4
	push	eax
	call	??_V@YAXPAX@Z				; operator delete[]
	add	esp, 4
$L93602:
	mov	eax, DWORD PTR _this$[ebp]
	sub	eax, 4
	jmp	SHORT $L93600
$L93601:
	mov	ecx, DWORD PTR _this$[ebp]
	call	??1CRSymbol@@QAE@XZ			; CRSymbol::~CRSymbol
	mov	eax, DWORD PTR ___flags$[ebp]
	and	eax, 1
	je	SHORT $L93604
	mov	eax, DWORD PTR _this$[ebp]
	push	eax
	call	??3@YAXPAX@Z				; operator delete
	add	esp, 4
$L93604:
	mov	eax, DWORD PTR _this$[ebp]
$L93600:
	pop	edi
	pop	esi
	pop	ebx
	add	esp, 204				; 000000ccH
	cmp	ebp, esp
	call	__RTC_CheckEsp
	mov	esp, ebp
	pop	ebp
	ret	4
??_ECRSymbol@@QAEPAXI@Z ENDP				; CRSymbol::`vector deleting destructor'
_TEXT	ENDS
PUBLIC	??_7CRSymbol@@6B@				; CRSymbol::`vftable'
EXTRN	?Read@CRSymbol@@UAEHPAU_iobuf@@@Z:NEAR		; CRSymbol::Read
;	COMDAT ??_7CRSymbol@@6B@
CONST	SEGMENT
??_7CRSymbol@@6B@ DD FLAT:?Read@CRSymbol@@UAEHPAU_iobuf@@@Z ; CRSymbol::`vftable'
; Function compile flags: /Odt /RTCcsu /ZI
CONST	ENDS
;	COMDAT ??1CRSymbol@@QAE@XZ
_TEXT	SEGMENT
_this$ = -8						; size = 4
??1CRSymbol@@QAE@XZ PROC NEAR				; CRSymbol::~CRSymbol, COMDAT
; _this$ = ecx

; 28   : 	~CRSymbol() {}

	push	ebp
	mov	ebp, esp
	sub	esp, 204				; 000000ccH
	push	ebx
	push	esi
	push	edi
	push	ecx
	lea	edi, DWORD PTR [ebp-204]
	mov	ecx, 51					; 00000033H
	mov	eax, -858993460				; ccccccccH
	rep stosd
	pop	ecx
	mov	DWORD PTR _this$[ebp], ecx
	mov	eax, DWORD PTR _this$[ebp]
	mov	DWORD PTR [eax], OFFSET FLAT:??_7CRSymbol@@6B@
	mov	ecx, DWORD PTR _this$[ebp]
	call	??1CSymbol@@QAE@XZ			; CSymbol::~CSymbol
	pop	edi
	pop	esi
	pop	ebx
	add	esp, 204				; 000000ccH
	cmp	ebp, esp
	call	__RTC_CheckEsp
	mov	esp, ebp
	pop	ebp
	ret	0
??1CRSymbol@@QAE@XZ ENDP				; CRSymbol::~CRSymbol
_TEXT	ENDS
PUBLIC	??1CATextType@@QAE@XZ				; CATextType::~CATextType
PUBLIC	??_ECATextType@@QAEPAXI@Z			; CATextType::`vector deleting destructor'
; Function compile flags: /Odt /RTCcsu /ZI
;	COMDAT ??_ECATextType@@QAEPAXI@Z
_TEXT	SEGMENT
_this$ = -8						; size = 4
___flags$ = 8						; size = 4
??_ECATextType@@QAEPAXI@Z PROC NEAR			; CATextType::`vector deleting destructor', COMDAT
; _this$ = ecx
	push	ebp
	mov	ebp, esp
	sub	esp, 204				; 000000ccH
	push	ebx
	push	esi
	push	edi
	push	ecx
	lea	edi, DWORD PTR [ebp-204]
	mov	ecx, 51					; 00000033H
	mov	eax, -858993460				; ccccccccH
	rep stosd
	pop	ecx
	mov	DWORD PTR _this$[ebp], ecx
	mov	eax, DWORD PTR ___flags$[ebp]
	and	eax, 2
	je	SHORT $L93722
	push	OFFSET FLAT:??1CATextType@@QAE@XZ	; CATextType::~CATextType
	mov	eax, DWORD PTR _this$[ebp]
	mov	ecx, DWORD PTR [eax-4]
	push	ecx
	push	160					; 000000a0H
	mov	edx, DWORD PTR _this$[ebp]
	push	edx
	call	??_M@YGXPAXIHP6EX0@Z@Z
	mov	eax, DWORD PTR ___flags$[ebp]
	and	eax, 1
	je	SHORT $L93723
	mov	eax, DWORD PTR _this$[ebp]
	sub	eax, 4
	push	eax
	call	??_V@YAXPAX@Z				; operator delete[]
	add	esp, 4
$L93723:
	mov	eax, DWORD PTR _this$[ebp]
	sub	eax, 4
	jmp	SHORT $L93721
$L93722:
	mov	ecx, DWORD PTR _this$[ebp]
	call	??1CATextType@@QAE@XZ			; CATextType::~CATextType
	mov	eax, DWORD PTR ___flags$[ebp]
	and	eax, 1
	je	SHORT $L93725
	mov	eax, DWORD PTR _this$[ebp]
	push	eax
	call	??3@YAXPAX@Z				; operator delete
	add	esp, 4
$L93725:
	mov	eax, DWORD PTR _this$[ebp]
$L93721:
	pop	edi
	pop	esi
	pop	ebx
	add	esp, 204				; 000000ccH
	cmp	ebp, esp
	call	__RTC_CheckEsp
	mov	esp, ebp
	pop	ebp
	ret	4
??_ECATextType@@QAEPAXI@Z ENDP				; CATextType::`vector deleting destructor'
; Function compile flags: /Odt /RTCcsu /ZI
; File c:\astrow32dev\tbt32\texttypeary.hpp
_TEXT	ENDS
;	COMDAT ??1CATextType@@QAE@XZ
_TEXT	SEGMENT
_this$ = -8						; size = 4
??1CATextType@@QAE@XZ PROC NEAR				; CATextType::~CATextType, COMDAT
; _this$ = ecx

; 16   :     ~CATextType() {}

	push	ebp
	mov	ebp, esp
	sub	esp, 204				; 000000ccH
	push	ebx
	push	esi
	push	edi
	push	ecx
	lea	edi, DWORD PTR [ebp-204]
	mov	ecx, 51					; 00000033H
	mov	eax, -858993460				; ccccccccH
	rep stosd
	pop	ecx
	mov	DWORD PTR _this$[ebp], ecx
	pop	edi
	pop	esi
	pop	ebx
	mov	esp, ebp
	pop	ebp
	ret	0
??1CATextType@@QAE@XZ ENDP				; CATextType::~CATextType
_TEXT	ENDS
PUBLIC	??1CDReportText@@UAE@XZ				; CDReportText::~CDReportText
PUBLIC	??0RTFFuncs@@QAE@PAVCDialog@@@Z			; RTFFuncs::RTFFuncs
PUBLIC	??0CTabctrlctrl1@@QAE@XZ			; CTabctrlctrl1::CTabctrlctrl1
PUBLIC	??1CTabctrlctrl1@@UAE@XZ			; CTabctrlctrl1::~CTabctrlctrl1
PUBLIC	??0CReportEdit@@QAE@PAVCWnd@@@Z			; CReportEdit::CReportEdit
PUBLIC	?DestroyWindow@CReportEdit@@UAEHXZ		; CReportEdit::DestroyWindow
PUBLIC	?DoDataExchange@CReportEdit@@MAEXPAVCDataExchange@@@Z ; CReportEdit::DoDataExchange
PUBLIC	?OnCancel@CReportEdit@@MAEXXZ			; CReportEdit::OnCancel
PUBLIC	?OnOK@CReportEdit@@MAEXXZ			; CReportEdit::OnOK
PUBLIC	?OnInitDialog@CReportEdit@@MAEHXZ		; CReportEdit::OnInitDialog
PUBLIC	?GetMessageMap@CReportEdit@@MBEPBUAFX_MSGMAP@@XZ ; CReportEdit::GetMessageMap
PUBLIC	??_7CReportEdit@@6B@				; CReportEdit::`vftable'
PUBLIC	??_GCReportEdit@@UAEPAXI@Z			; CReportEdit::`scalar deleting destructor'
PUBLIC	??_C@_11LOCGONAA@?$AA?$AA@			; `string'
PUBLIC	?__LINE__Var@?1???0CReportEdit@@QAE@PAVCWnd@@@Z@4JA ; `CReportEdit::CReportEdit'::`2'::__LINE__Var
PUBLIC	??0?$CStringT@GV?$StrTraitMFC@GV?$ChTraitsCRT@G@ATL@@@@@ATL@@QAE@XZ ; ATL::CStringT<unsigned short,StrTraitMFC<unsigned short,ATL::ChTraitsCRT<unsigned short> > >::CStringT<unsigned short,StrTraitMFC<unsigned short,ATL::ChTraitsCRT<unsigned short> > >
PUBLIC	??1?$CStringT@GV?$StrTraitMFC@GV?$ChTraitsCRT@G@ATL@@@@@ATL@@QAE@XZ ; ATL::CStringT<unsigned short,StrTraitMFC<unsigned short,ATL::ChTraitsCRT<unsigned short> > >::~CStringT<unsigned short,StrTraitMFC<unsigned short,ATL::ChTraitsCRT<unsigned short> > >
PUBLIC	??4?$CStringT@GV?$StrTraitMFC@GV?$ChTraitsCRT@G@ATL@@@@@ATL@@QAEAAV01@PBG@Z ; ATL::CStringT<unsigned short,StrTraitMFC<unsigned short,ATL::ChTraitsCRT<unsigned short> > >::operator=
PUBLIC	??0CWSpell@@QAE@XZ				; CWSpell::CWSpell
PUBLIC	??1CWSpell@@UAE@XZ				; CWSpell::~CWSpell
EXTRN	?GetRuntimeClass@CDialog@@UBEPAUCRuntimeClass@@XZ:NEAR ; CDialog::GetRuntimeClass
EXTRN	?Create@CDialog@@UAEHPBGPAVCWnd@@@Z:NEAR	; CDialog::Create
EXTRN	?Create@CDialog@@UAEHIPAVCWnd@@@Z:NEAR		; CDialog::Create
EXTRN	?CreateIndirect@CDialog@@UAEHPBUDLGTEMPLATE@@PAVCWnd@@PAX@Z:NEAR ; CDialog::CreateIndirect
EXTRN	?CreateIndirect@CDialog@@UAEHPAXPAVCWnd@@@Z:NEAR ; CDialog::CreateIndirect
EXTRN	?OnToolHitTest@CWnd@@UBEHVCPoint@@PAUtagTOOLINFOW@@@Z:NEAR ; CWnd::OnToolHitTest
EXTRN	??0CDialog@@QAE@IPAVCWnd@@@Z:NEAR		; CDialog::CDialog
EXTRN	?DoModal@CDialog@@UAEHXZ:NEAR			; CDialog::DoModal
EXTRN	?OnSetFont@CDialog@@UAEXPAVCFont@@@Z:NEAR	; CDialog::OnSetFont
EXTRN	??1CDialog@@UAE@XZ:NEAR				; CDialog::~CDialog
EXTRN	?AssertValid@CDialog@@UBEXXZ:NEAR		; CDialog::AssertValid
EXTRN	?Dump@CDialog@@UBEXAAVCDumpContext@@@Z:NEAR	; CDialog::Dump
EXTRN	?PreTranslateMessage@CDialog@@UAEHPAUtagMSG@@@Z:NEAR ; CDialog::PreTranslateMessage
EXTRN	?OnCmdMsg@CDialog@@UAEHIHPAXPAUAFX_CMDHANDLERINFO@@@Z:NEAR ; CDialog::OnCmdMsg
EXTRN	?CheckAutoCenter@CDialog@@UAEHXZ:NEAR		; CDialog::CheckAutoCenter
EXTRN	??2@YAPAXIPBDH@Z:NEAR				; operator new
EXTRN	?SetOccDialogInfo@CDialog@@MAEHPAU_AFX_OCC_DIALOG_INFO@@@Z:NEAR ; CDialog::SetOccDialogInfo
EXTRN	?PreInitDialog@CDialog@@MAEXXZ:NEAR		; CDialog::PreInitDialog
EXTRN	??3@YAXPAXPBDH@Z:NEAR				; operator delete
EXTRN	?GetScrollBarCtrl@CWnd@@UBEPAVCScrollBar@@H@Z:NEAR ; CWnd::GetScrollBarCtrl
EXTRN	__except_list:DWORD
EXTRN	___CxxFrameHandler:NEAR
EXTRN	?WinHelpW@CWnd@@UAEXKI@Z:NEAR			; CWnd::WinHelpW
EXTRN	?HtmlHelpW@CWnd@@UAEXKI@Z:NEAR			; CWnd::HtmlHelpW
EXTRN	?WinHelpInternal@CWnd@@UAEXKI@Z:NEAR		; CWnd::WinHelpInternal
EXTRN	??_ECReportEdit@@UAEPAXI@Z:NEAR			; CReportEdit::`vector deleting destructor'
EXTRN	?ContinueModal@CWnd@@UAEHXZ:NEAR		; CWnd::ContinueModal
EXTRN	?EndModalLoop@CWnd@@UAEXH@Z:NEAR		; CWnd::EndModalLoop
EXTRN	?GetInterfaceMap@CWnd@@MBEPBUAFX_INTERFACEMAP@@XZ:NEAR ; CWnd::GetInterfaceMap
EXTRN	?EnsureStdObj@CWnd@@UAEJXZ:NEAR			; CWnd::EnsureStdObj
EXTRN	?get_accParent@CWnd@@UAEJPAPAUIDispatch@@@Z:NEAR ; CWnd::get_accParent
EXTRN	?get_accChildCount@CWnd@@UAEJPAJ@Z:NEAR		; CWnd::get_accChildCount
EXTRN	?get_accChild@CWnd@@UAEJUtagVARIANT@@PAPAUIDispatch@@@Z:NEAR ; CWnd::get_accChild
EXTRN	?get_accName@CWnd@@UAEJUtagVARIANT@@PAPAG@Z:NEAR ; CWnd::get_accName
EXTRN	?get_accValue@CWnd@@UAEJUtagVARIANT@@PAPAG@Z:NEAR ; CWnd::get_accValue
EXTRN	?get_accDescription@CWnd@@UAEJUtagVARIANT@@PAPAG@Z:NEAR ; CWnd::get_accDescription
EXTRN	?IsInvokeAllowed@CCmdTarget@@UAEHJ@Z:NEAR	; CCmdTarget::IsInvokeAllowed
EXTRN	?get_accRole@CWnd@@UAEJUtagVARIANT@@PAU2@@Z:NEAR ; CWnd::get_accRole
EXTRN	?get_accState@CWnd@@UAEJUtagVARIANT@@PAU2@@Z:NEAR ; CWnd::get_accState
EXTRN	?get_accHelp@CWnd@@UAEJUtagVARIANT@@PAPAG@Z:NEAR ; CWnd::get_accHelp
EXTRN	?GetDispatchIID@CCmdTarget@@UAEHPAU_GUID@@@Z:NEAR ; CCmdTarget::GetDispatchIID
EXTRN	?GetTypeInfoCount@CCmdTarget@@UAEIXZ:NEAR	; CCmdTarget::GetTypeInfoCount
EXTRN	?GetTypeLibCache@CCmdTarget@@UAEPAVCTypeLibCache@@XZ:NEAR ; CCmdTarget::GetTypeLibCache
EXTRN	?get_accHelpTopic@CWnd@@UAEJPAPAGUtagVARIANT@@PAJ@Z:NEAR ; CWnd::get_accHelpTopic
EXTRN	?GetTypeLib@CCmdTarget@@UAEJKPAPAUITypeLib@@@Z:NEAR ; CCmdTarget::GetTypeLib
EXTRN	?get_accKeyboardShortcut@CWnd@@UAEJUtagVARIANT@@PAPAG@Z:NEAR ; CWnd::get_accKeyboardShortcut
EXTRN	?get_accFocus@CWnd@@UAEJPAUtagVARIANT@@@Z:NEAR	; CWnd::get_accFocus
EXTRN	?get_accSelection@CWnd@@UAEJPAUtagVARIANT@@@Z:NEAR ; CWnd::get_accSelection
EXTRN	?get_accDefaultAction@CWnd@@UAEJUtagVARIANT@@PAPAG@Z:NEAR ; CWnd::get_accDefaultAction
EXTRN	?accSelect@CWnd@@UAEJJUtagVARIANT@@@Z:NEAR	; CWnd::accSelect
EXTRN	?accLocation@CWnd@@UAEJPAJ000UtagVARIANT@@@Z:NEAR ; CWnd::accLocation
EXTRN	?GetCommandMap@CCmdTarget@@MBEPBUAFX_OLECMDMAP@@XZ:NEAR ; CCmdTarget::GetCommandMap
EXTRN	?accNavigate@CWnd@@UAEJJUtagVARIANT@@PAU2@@Z:NEAR ; CWnd::accNavigate
EXTRN	?accHitTest@CWnd@@UAEJJJPAUtagVARIANT@@@Z:NEAR	; CWnd::accHitTest
EXTRN	?accDoDefaultAction@CWnd@@UAEJUtagVARIANT@@@Z:NEAR ; CWnd::accDoDefaultAction
EXTRN	?GetDispatchMap@CCmdTarget@@MBEPBUAFX_DISPMAP@@XZ:NEAR ; CCmdTarget::GetDispatchMap
EXTRN	?put_accName@CWnd@@UAEJUtagVARIANT@@PAG@Z:NEAR	; CWnd::put_accName
EXTRN	?put_accValue@CWnd@@UAEJUtagVARIANT@@PAG@Z:NEAR	; CWnd::put_accValue
EXTRN	?GetConnectionMap@CCmdTarget@@MBEPBUAFX_CONNECTIONMAP@@XZ:NEAR ; CCmdTarget::GetConnectionMap
EXTRN	?SetProxy@CWnd@@UAEJPAUIAccessibleProxy@@@Z:NEAR ; CWnd::SetProxy
EXTRN	?CreateAccessibleProxy@CWnd@@UAEJIJPAJ@Z:NEAR	; CWnd::CreateAccessibleProxy
EXTRN	?GetEventSinkMap@CCmdTarget@@MBEPBUAFX_EVENTSINKMAP@@XZ:NEAR ; CCmdTarget::GetEventSinkMap
EXTRN	?OnCommand@CWnd@@MAEHIJ@Z:NEAR			; CWnd::OnCommand
EXTRN	?Serialize@CObject@@UAEXAAVCArchive@@@Z:NEAR	; CObject::Serialize
EXTRN	?OnNotify@CWnd@@MAEHIJPAJ@Z:NEAR		; CWnd::OnNotify
EXTRN	?OnCreateAggregates@CCmdTarget@@UAEHXZ:NEAR	; CCmdTarget::OnCreateAggregates
EXTRN	?GetInterfaceHook@CCmdTarget@@UAEPAUIUnknown@@PBX@Z:NEAR ; CCmdTarget::GetInterfaceHook
EXTRN	?GetExtraConnectionPoints@CCmdTarget@@MAEHPAVCPtrArray@@@Z:NEAR ; CCmdTarget::GetExtraConnectionPoints
EXTRN	?GetConnectionHook@CCmdTarget@@MAEPAUIConnectionPoint@@ABU_GUID@@@Z:NEAR ; CCmdTarget::GetConnectionHook
EXTRN	?PreSubclassWindow@CWnd@@UAEXXZ:NEAR		; CWnd::PreSubclassWindow
EXTRN	?Create@CWnd@@UAEHPBG0KABUtagRECT@@PAV1@IPAUCCreateContext@@@Z:NEAR ; CWnd::Create
EXTRN	?CreateEx@CWnd@@UAEHKPBG0KHHHHPAUHWND__@@PAUHMENU__@@PAX@Z:NEAR ; CWnd::CreateEx
EXTRN	?CreateEx@CWnd@@UAEHKPBG0KABUtagRECT@@PAV1@IPAX@Z:NEAR ; CWnd::CreateEx
EXTRN	?PreCreateWindow@CWnd@@UAEHAAUtagCREATESTRUCTW@@@Z:NEAR ; CWnd::PreCreateWindow
EXTRN	?CalcWindowRect@CWnd@@UAEXPAUtagRECT@@I@Z:NEAR	; CWnd::CalcWindowRect
EXTRN	?GetSuperWndProcAddr@CWnd@@MAEPAP6GJPAUHWND__@@IIJ@ZXZ:NEAR ; CWnd::GetSuperWndProcAddr
EXTRN	?BeginModalState@CWnd@@UAEXXZ:NEAR		; CWnd::BeginModalState
EXTRN	?EndModalState@CWnd@@UAEXXZ:NEAR		; CWnd::EndModalState
EXTRN	?OnAmbientProperty@CWnd@@UAEHPAVCOleControlSite@@JPAUtagVARIANT@@@Z:NEAR ; CWnd::OnAmbientProperty
EXTRN	?WindowProc@CWnd@@MAEJIIJ@Z:NEAR		; CWnd::WindowProc
EXTRN	?OnWndMsg@CWnd@@MAEHIIJPAJ@Z:NEAR		; CWnd::OnWndMsg
EXTRN	?DefWindowProcW@CWnd@@MAEJIIJ@Z:NEAR		; CWnd::DefWindowProcW
EXTRN	?PostNcDestroy@CWnd@@MAEXXZ:NEAR		; CWnd::PostNcDestroy
EXTRN	?OnChildNotify@CWnd@@MAEHIIJPAJ@Z:NEAR		; CWnd::OnChildNotify
EXTRN	?IsFrameWnd@CWnd@@UBEHXZ:NEAR			; CWnd::IsFrameWnd
EXTRN	?OnFinalRelease@CWnd@@UAEXXZ:NEAR		; CWnd::OnFinalRelease
EXTRN	?CreateControlContainer@CWnd@@MAEHPAPAVCOleControlContainer@@@Z:NEAR ; CWnd::CreateControlContainer
EXTRN	?CreateControlSite@CWnd@@MAEHPAVCOleControlContainer@@PAPAVCOleControlSite@@IABU_GUID@@@Z:NEAR ; CWnd::CreateControlSite
EXTRN	??0CDReportText@@QAE@PAVCDaoDatabase@@@Z:NEAR	; CDReportText::CDReportText
;	COMDAT xdata$x
; File c:\astrow32dev\tbt32\reportedit.cpp
xdata$x	SEGMENT
__unwindtable$??0CReportEdit@@QAE@PAVCWnd@@@Z DD 0ffffffffH
	DD	FLAT:__unwindfunclet$??0CReportEdit@@QAE@PAVCWnd@@@Z$0
	DD	00H
	DD	FLAT:__unwindfunclet$??0CReportEdit@@QAE@PAVCWnd@@@Z$1
	DD	01H
	DD	FLAT:__unwindfunclet$??0CReportEdit@@QAE@PAVCWnd@@@Z$2
	DD	02H
	DD	FLAT:__unwindfunclet$??0CReportEdit@@QAE@PAVCWnd@@@Z$3
	DD	03H
	DD	FLAT:__unwindfunclet$??0CReportEdit@@QAE@PAVCWnd@@@Z$4
	DD	04H
	DD	FLAT:__unwindfunclet$??0CReportEdit@@QAE@PAVCWnd@@@Z$5
	DD	05H
	DD	FLAT:__unwindfunclet$??0CReportEdit@@QAE@PAVCWnd@@@Z$6
	DD	06H
	DD	FLAT:__unwindfunclet$??0CReportEdit@@QAE@PAVCWnd@@@Z$7
__ehfuncinfo$??0CReportEdit@@QAE@PAVCWnd@@@Z DD 019930520H
	DD	08H
	DD	FLAT:__unwindtable$??0CReportEdit@@QAE@PAVCWnd@@@Z
	DD	2 DUP(00H)
	DD	2 DUP(00H)
xdata$x	ENDS
;	COMDAT ??_7CReportEdit@@6B@
CONST	SEGMENT
??_7CReportEdit@@6B@ DD FLAT:?GetRuntimeClass@CDialog@@UBEPAUCRuntimeClass@@XZ ; CReportEdit::`vftable'
	DD	FLAT:??_ECReportEdit@@UAEPAXI@Z
	DD	FLAT:?Serialize@CObject@@UAEXAAVCArchive@@@Z
	DD	FLAT:?AssertValid@CDialog@@UBEXXZ
	DD	FLAT:?Dump@CDialog@@UBEXAAVCDumpContext@@@Z
	DD	FLAT:?OnCmdMsg@CDialog@@UAEHIHPAXPAUAFX_CMDHANDLERINFO@@@Z
	DD	FLAT:?OnFinalRelease@CWnd@@UAEXXZ
	DD	FLAT:?IsInvokeAllowed@CCmdTarget@@UAEHJ@Z
	DD	FLAT:?GetDispatchIID@CCmdTarget@@UAEHPAU_GUID@@@Z
	DD	FLAT:?GetTypeInfoCount@CCmdTarget@@UAEIXZ
	DD	FLAT:?GetTypeLibCache@CCmdTarget@@UAEPAVCTypeLibCache@@XZ
	DD	FLAT:?GetTypeLib@CCmdTarget@@UAEJKPAPAUITypeLib@@@Z
	DD	FLAT:?GetMessageMap@CReportEdit@@MBEPBUAFX_MSGMAP@@XZ
	DD	FLAT:?GetCommandMap@CCmdTarget@@MBEPBUAFX_OLECMDMAP@@XZ
	DD	FLAT:?GetDispatchMap@CCmdTarget@@MBEPBUAFX_DISPMAP@@XZ
	DD	FLAT:?GetConnectionMap@CCmdTarget@@MBEPBUAFX_CONNECTIONMAP@@XZ
	DD	FLAT:?GetInterfaceMap@CWnd@@MBEPBUAFX_INTERFACEMAP@@XZ
	DD	FLAT:?GetEventSinkMap@CCmdTarget@@MBEPBUAFX_EVENTSINKMAP@@XZ
	DD	FLAT:?OnCreateAggregates@CCmdTarget@@UAEHXZ
	DD	FLAT:?GetInterfaceHook@CCmdTarget@@UAEPAUIUnknown@@PBX@Z
	DD	FLAT:?GetExtraConnectionPoints@CCmdTarget@@MAEHPAVCPtrArray@@@Z
	DD	FLAT:?GetConnectionHook@CCmdTarget@@MAEPAUIConnectionPoint@@ABU_GUID@@@Z
	DD	FLAT:?PreSubclassWindow@CWnd@@UAEXXZ
	DD	FLAT:?Create@CWnd@@UAEHPBG0KABUtagRECT@@PAV1@IPAUCCreateContext@@@Z
	DD	FLAT:?CreateEx@CWnd@@UAEHKPBG0KABUtagRECT@@PAV1@IPAX@Z
	DD	FLAT:?CreateEx@CWnd@@UAEHKPBG0KHHHHPAUHWND__@@PAUHMENU__@@PAX@Z
	DD	FLAT:?DestroyWindow@CReportEdit@@UAEHXZ
	DD	FLAT:?PreCreateWindow@CWnd@@UAEHAAUtagCREATESTRUCTW@@@Z
	DD	FLAT:?CalcWindowRect@CWnd@@UAEXPAUtagRECT@@I@Z
	DD	FLAT:?OnToolHitTest@CWnd@@UBEHVCPoint@@PAUtagTOOLINFOW@@@Z
	DD	FLAT:?GetScrollBarCtrl@CWnd@@UBEPAVCScrollBar@@H@Z
	DD	FLAT:?WinHelpW@CWnd@@UAEXKI@Z
	DD	FLAT:?HtmlHelpW@CWnd@@UAEXKI@Z
	DD	FLAT:?WinHelpInternal@CWnd@@UAEXKI@Z
	DD	FLAT:?ContinueModal@CWnd@@UAEHXZ
	DD	FLAT:?EndModalLoop@CWnd@@UAEXH@Z
	DD	FLAT:?EnsureStdObj@CWnd@@UAEJXZ
	DD	FLAT:?get_accParent@CWnd@@UAEJPAPAUIDispatch@@@Z
	DD	FLAT:?get_accChildCount@CWnd@@UAEJPAJ@Z
	DD	FLAT:?get_accChild@CWnd@@UAEJUtagVARIANT@@PAPAUIDispatch@@@Z
	DD	FLAT:?get_accName@CWnd@@UAEJUtagVARIANT@@PAPAG@Z
	DD	FLAT:?get_accValue@CWnd@@UAEJUtagVARIANT@@PAPAG@Z
	DD	FLAT:?get_accDescription@CWnd@@UAEJUtagVARIANT@@PAPAG@Z
	DD	FLAT:?get_accRole@CWnd@@UAEJUtagVARIANT@@PAU2@@Z
	DD	FLAT:?get_accState@CWnd@@UAEJUtagVARIANT@@PAU2@@Z
	DD	FLAT:?get_accHelp@CWnd@@UAEJUtagVARIANT@@PAPAG@Z
	DD	FLAT:?get_accHelpTopic@CWnd@@UAEJPAPAGUtagVARIANT@@PAJ@Z
	DD	FLAT:?get_accKeyboardShortcut@CWnd@@UAEJUtagVARIANT@@PAPAG@Z
	DD	FLAT:?get_accFocus@CWnd@@UAEJPAUtagVARIANT@@@Z
	DD	FLAT:?get_accSelection@CWnd@@UAEJPAUtagVARIANT@@@Z
	DD	FLAT:?get_accDefaultAction@CWnd@@UAEJUtagVARIANT@@PAPAG@Z
	DD	FLAT:?accSelect@CWnd@@UAEJJUtagVARIANT@@@Z
	DD	FLAT:?accLocation@CWnd@@UAEJPAJ000UtagVARIANT@@@Z
	DD	FLAT:?accNavigate@CWnd@@UAEJJUtagVARIANT@@PAU2@@Z
	DD	FLAT:?accHitTest@CWnd@@UAEJJJPAUtagVARIANT@@@Z
	DD	FLAT:?accDoDefaultAction@CWnd@@UAEJUtagVARIANT@@@Z
	DD	FLAT:?put_accName@CWnd@@UAEJUtagVARIANT@@PAG@Z
	DD	FLAT:?put_accValue@CWnd@@UAEJUtagVARIANT@@PAG@Z
	DD	FLAT:?SetProxy@CWnd@@UAEJPAUIAccessibleProxy@@@Z
	DD	FLAT:?CreateAccessibleProxy@CWnd@@UAEJIJPAJ@Z
	DD	FLAT:?OnCommand@CWnd@@MAEHIJ@Z
	DD	FLAT:?OnNotify@CWnd@@MAEHIJPAJ@Z
	DD	FLAT:?GetSuperWndProcAddr@CWnd@@MAEPAP6GJPAUHWND__@@IIJ@ZXZ
	DD	FLAT:?DoDataExchange@CReportEdit@@MAEXPAVCDataExchange@@@Z
	DD	FLAT:?BeginModalState@CWnd@@UAEXXZ
	DD	FLAT:?EndModalState@CWnd@@UAEXXZ
	DD	FLAT:?PreTranslateMessage@CDialog@@UAEHPAUtagMSG@@@Z
	DD	FLAT:?OnAmbientProperty@CWnd@@UAEHPAVCOleControlSite@@JPAUtagVARIANT@@@Z
	DD	FLAT:?WindowProc@CWnd@@MAEJIIJ@Z
	DD	FLAT:?OnWndMsg@CWnd@@MAEHIIJPAJ@Z
	DD	FLAT:?DefWindowProcW@CWnd@@MAEJIIJ@Z
	DD	FLAT:?PostNcDestroy@CWnd@@MAEXXZ
	DD	FLAT:?OnChildNotify@CWnd@@MAEHIIJPAJ@Z
	DD	FLAT:?CheckAutoCenter@CDialog@@UAEHXZ
	DD	FLAT:?IsFrameWnd@CWnd@@UBEHXZ
	DD	FLAT:?CreateControlContainer@CWnd@@MAEHPAPAVCOleControlContainer@@@Z
	DD	FLAT:?CreateControlSite@CWnd@@MAEHPAVCOleControlContainer@@PAPAVCOleControlSite@@IABU_GUID@@@Z
	DD	FLAT:?SetOccDialogInfo@CDialog@@MAEHPAU_AFX_OCC_DIALOG_INFO@@@Z
	DD	FLAT:?Create@CDialog@@UAEHIPAVCWnd@@@Z
	DD	FLAT:?Create@CDialog@@UAEHPBGPAVCWnd@@@Z
	DD	FLAT:?CreateIndirect@CDialog@@UAEHPAXPAVCWnd@@@Z
	DD	FLAT:?CreateIndirect@CDialog@@UAEHPBUDLGTEMPLATE@@PAVCWnd@@PAX@Z
	DD	FLAT:?DoModal@CDialog@@UAEHXZ
	DD	FLAT:?OnInitDialog@CReportEdit@@MAEHXZ
	DD	FLAT:?OnSetFont@CDialog@@UAEXPAVCFont@@@Z
	DD	FLAT:?OnOK@CReportEdit@@MAEXXZ
	DD	FLAT:?OnCancel@CReportEdit@@MAEXXZ
	DD	FLAT:?PreInitDialog@CDialog@@MAEXXZ
CONST	ENDS
;	COMDAT ??_C@_11LOCGONAA@?$AA?$AA@
CONST	SEGMENT
??_C@_11LOCGONAA@?$AA?$AA@ DB 00H, 00H			; `string'
CONST	ENDS
;	COMDAT ?__LINE__Var@?1???0CReportEdit@@QAE@PAVCWnd@@@Z@4JA
_DATA	SEGMENT
?__LINE__Var@?1???0CReportEdit@@QAE@PAVCWnd@@@Z@4JA DD 018H ; `CReportEdit::CReportEdit'::`2'::__LINE__Var
; Function compile flags: /Odt /RTCcsu /ZI
_DATA	ENDS
;	COMDAT ??0CReportEdit@@QAE@PAVCWnd@@@Z
_TEXT	SEGMENT
tv164 = -244						; size = 4
$T94360 = -236						; size = 4
$T94361 = -224						; size = 4
_this$ = -20						; size = 4
__$EHRec$ = -12						; size = 12
_pParent$ = 8						; size = 4
??0CReportEdit@@QAE@PAVCWnd@@@Z PROC NEAR		; CReportEdit::CReportEdit, COMDAT
; _this$ = ecx

; 25   : {

	push	ebp
	mov	ebp, esp
	push	-1
	push	__ehhandler$??0CReportEdit@@QAE@PAVCWnd@@@Z
	mov	eax, DWORD PTR fs:__except_list
	push	eax
	mov	DWORD PTR fs:__except_list, esp
	sub	esp, 232				; 000000e8H
	push	ebx
	push	esi
	push	edi
	push	ecx
	lea	edi, DWORD PTR [ebp-244]
	mov	ecx, 58					; 0000003aH
	mov	eax, -858993460				; ccccccccH
	rep stosd
	pop	ecx
	mov	DWORD PTR _this$[ebp], ecx
	mov	eax, DWORD PTR _pParent$[ebp]
	push	eax
	push	137					; 00000089H
	mov	ecx, DWORD PTR _this$[ebp]
	call	??0CDialog@@QAE@IPAVCWnd@@@Z		; CDialog::CDialog
	mov	DWORD PTR __$EHRec$[ebp+8], 0
	mov	eax, DWORD PTR _this$[ebp]
	mov	DWORD PTR [eax], OFFSET FLAT:??_7CReportEdit@@6B@
	mov	ecx, DWORD PTR _this$[ebp]
	add	ecx, 116				; 00000074H
	call	??0?$CStringT@GV?$StrTraitMFC@GV?$ChTraitsCRT@G@ATL@@@@@ATL@@QAE@XZ ; ATL::CStringT<unsigned short,StrTraitMFC<unsigned short,ATL::ChTraitsCRT<unsigned short> > >::CStringT<unsigned short,StrTraitMFC<unsigned short,ATL::ChTraitsCRT<unsigned short> > >
	mov	BYTE PTR __$EHRec$[ebp+8], 1
	mov	ecx, DWORD PTR _this$[ebp]
	add	ecx, 124				; 0000007cH
	call	??0CWSpell@@QAE@XZ
	mov	BYTE PTR __$EHRec$[ebp+8], 2
	push	0
	mov	ecx, DWORD PTR _this$[ebp]
	add	ecx, 204				; 000000ccH
	call	??0CDReportText@@QAE@PAVCDaoDatabase@@@Z ; CDReportText::CDReportText
	mov	BYTE PTR __$EHRec$[ebp+8], 3
	mov	ecx, DWORD PTR _this$[ebp]
	add	ecx, 376				; 00000178H
	call	??0?$CStringT@GV?$StrTraitMFC@GV?$ChTraitsCRT@G@ATL@@@@@ATL@@QAE@XZ ; ATL::CStringT<unsigned short,StrTraitMFC<unsigned short,ATL::ChTraitsCRT<unsigned short> > >::CStringT<unsigned short,StrTraitMFC<unsigned short,ATL::ChTraitsCRT<unsigned short> > >
	mov	BYTE PTR __$EHRec$[ebp+8], 4
	mov	ecx, DWORD PTR _this$[ebp]
	add	ecx, 380				; 0000017cH
	call	??0?$CStringT@GV?$StrTraitMFC@GV?$ChTraitsCRT@G@ATL@@@@@ATL@@QAE@XZ ; ATL::CStringT<unsigned short,StrTraitMFC<unsigned short,ATL::ChTraitsCRT<unsigned short> > >::CStringT<unsigned short,StrTraitMFC<unsigned short,ATL::ChTraitsCRT<unsigned short> > >
	mov	BYTE PTR __$EHRec$[ebp+8], 5
	mov	ecx, DWORD PTR _this$[ebp]
	add	ecx, 392				; 00000188H
	call	??0CTabctrlctrl1@@QAE@XZ
	mov	BYTE PTR __$EHRec$[ebp+8], 6

; 26   : 	//{{AFX_DATA_INIT(CReportEdit)
; 27   : 	m_Index = 0;

	mov	eax, DWORD PTR _this$[ebp]
	mov	DWORD PTR [eax+112], 0

; 28   : 	m_Text = _T("");

	push	OFFSET FLAT:??_C@_11LOCGONAA@?$AA?$AA@
	mov	ecx, DWORD PTR _this$[ebp]
	add	ecx, 116				; 00000074H
	call	??4?$CStringT@GV?$StrTraitMFC@GV?$ChTraitsCRT@G@ATL@@@@@ATL@@QAEAAV01@PBG@Z ; ATL::CStringT<unsigned short,StrTraitMFC<unsigned short,ATL::ChTraitsCRT<unsigned short> > >::operator=

; 29   : 	m_TextId = -1;

	mov	eax, DWORD PTR _this$[ebp]
	mov	DWORD PTR [eax+120], -1

; 30   : 	//}}AFX_DATA_INIT
; 31   :    pFuncs = new RTFFuncs(this);

	mov	eax, DWORD PTR ?__LINE__Var@?1???0CReportEdit@@QAE@PAVCWnd@@@Z@4JA
	add	eax, 7
	push	eax
	push	OFFSET FLAT:_THIS_FILE
	push	16					; 00000010H
	call	??2@YAPAXIPBDH@Z			; operator new
	add	esp, 12					; 0000000cH
	mov	DWORD PTR $T94361[ebp], eax
	mov	BYTE PTR __$EHRec$[ebp+8], 7
	cmp	DWORD PTR $T94361[ebp], 0
	je	SHORT $L94362
	mov	ecx, DWORD PTR _this$[ebp]
	push	ecx
	mov	ecx, DWORD PTR $T94361[ebp]
	call	??0RTFFuncs@@QAE@PAVCDialog@@@Z		; RTFFuncs::RTFFuncs
	mov	DWORD PTR tv164[ebp], eax
	jmp	SHORT $L94363
$L94362:
	mov	DWORD PTR tv164[ebp], 0
$L94363:
	mov	edx, DWORD PTR tv164[ebp]
	mov	DWORD PTR $T94360[ebp], edx
	mov	BYTE PTR __$EHRec$[ebp+8], 6
	mov	eax, DWORD PTR _this$[ebp]
	mov	ecx, DWORD PTR $T94360[ebp]
	mov	DWORD PTR [eax+388], ecx

; 32   : }

	mov	DWORD PTR __$EHRec$[ebp+8], -1
	mov	eax, DWORD PTR _this$[ebp]
	mov	ecx, DWORD PTR __$EHRec$[ebp]
	mov	DWORD PTR fs:__except_list, ecx
	pop	edi
	pop	esi
	pop	ebx
	add	esp, 244				; 000000f4H
	cmp	ebp, esp
	call	__RTC_CheckEsp
	mov	esp, ebp
	pop	ebp
	ret	4
_TEXT	ENDS
;	COMDAT text$x
text$x	SEGMENT
__unwindfunclet$??0CReportEdit@@QAE@PAVCWnd@@@Z$0:
	mov	ecx, DWORD PTR _this$[ebp]
	jmp	??1CDialog@@UAE@XZ			; CDialog::~CDialog
__unwindfunclet$??0CReportEdit@@QAE@PAVCWnd@@@Z$1:
	mov	ecx, DWORD PTR _this$[ebp]
	add	ecx, 116				; 00000074H
	jmp	??1?$CStringT@GV?$StrTraitMFC@GV?$ChTraitsCRT@G@ATL@@@@@ATL@@QAE@XZ ; ATL::CStringT<unsigned short,StrTraitMFC<unsigned short,ATL::ChTraitsCRT<unsigned short> > >::~CStringT<unsigned short,StrTraitMFC<unsigned short,ATL::ChTraitsCRT<unsigned short> > >
__unwindfunclet$??0CReportEdit@@QAE@PAVCWnd@@@Z$2:
	mov	ecx, DWORD PTR _this$[ebp]
	add	ecx, 124				; 0000007cH
	jmp	??1CWSpell@@UAE@XZ
__unwindfunclet$??0CReportEdit@@QAE@PAVCWnd@@@Z$3:
	mov	ecx, DWORD PTR _this$[ebp]
	add	ecx, 204				; 000000ccH
	jmp	??1CDReportText@@UAE@XZ
__unwindfunclet$??0CReportEdit@@QAE@PAVCWnd@@@Z$4:
	mov	ecx, DWORD PTR _this$[ebp]
	add	ecx, 376				; 00000178H
	jmp	??1?$CStringT@GV?$StrTraitMFC@GV?$ChTraitsCRT@G@ATL@@@@@ATL@@QAE@XZ ; ATL::CStringT<unsigned short,StrTraitMFC<unsigned short,ATL::ChTraitsCRT<unsigned short> > >::~CStringT<unsigned short,StrTraitMFC<unsigned short,ATL::ChTraitsCRT<unsigned short> > >
__unwindfunclet$??0CReportEdit@@QAE@PAVCWnd@@@Z$5:
	mov	ecx, DWORD PTR _this$[ebp]
	add	ecx, 380				; 0000017cH
	jmp	??1?$CStringT@GV?$StrTraitMFC@GV?$ChTraitsCRT@G@ATL@@@@@ATL@@QAE@XZ ; ATL::CStringT<unsigned short,StrTraitMFC<unsigned short,ATL::ChTraitsCRT<unsigned short> > >::~CStringT<unsigned short,StrTraitMFC<unsigned short,ATL::ChTraitsCRT<unsigned short> > >
__unwindfunclet$??0CReportEdit@@QAE@PAVCWnd@@@Z$6:
	mov	ecx, DWORD PTR _this$[ebp]
	add	ecx, 392				; 00000188H
	jmp	??1CTabctrlctrl1@@UAE@XZ
__unwindfunclet$??0CReportEdit@@QAE@PAVCWnd@@@Z$7:
	mov	eax, DWORD PTR ?__LINE__Var@?1???0CReportEdit@@QAE@PAVCWnd@@@Z@4JA
	add	eax, 7
	push	eax
	push	OFFSET FLAT:_THIS_FILE
	mov	ecx, DWORD PTR $T94361[ebp]
	push	ecx
	call	??3@YAXPAXPBDH@Z			; operator delete
	add	esp, 12					; 0000000cH
	ret	0
__ehhandler$??0CReportEdit@@QAE@PAVCWnd@@@Z:
	mov	eax, OFFSET FLAT:__ehfuncinfo$??0CReportEdit@@QAE@PAVCWnd@@@Z
	jmp	___CxxFrameHandler
text$x	ENDS
??0CReportEdit@@QAE@PAVCWnd@@@Z ENDP			; CReportEdit::CReportEdit
PUBLIC	??_7RTFFuncs@@6B@				; RTFFuncs::`vftable'
PUBLIC	??_GRTFFuncs@@UAEPAXI@Z				; RTFFuncs::`scalar deleting destructor'
EXTRN	??_ERTFFuncs@@UAEPAXI@Z:NEAR			; RTFFuncs::`vector deleting destructor'
;	COMDAT ??_7RTFFuncs@@6B@
; File c:\astrow32dev\tbt32\rtffuncs.h
CONST	SEGMENT
??_7RTFFuncs@@6B@ DD FLAT:??_ERTFFuncs@@UAEPAXI@Z	; RTFFuncs::`vftable'
; Function compile flags: /Odt /RTCcsu /ZI
CONST	ENDS
;	COMDAT ??0RTFFuncs@@QAE@PAVCDialog@@@Z
_TEXT	SEGMENT
_this$ = -8						; size = 4
_pDlg$ = 8						; size = 4
??0RTFFuncs@@QAE@PAVCDialog@@@Z PROC NEAR		; RTFFuncs::RTFFuncs, COMDAT
; _this$ = ecx

; 21   :    RTFFuncs(CDialog *pDlg) { pDialog=pDlg; }

	push	ebp
	mov	ebp, esp
	sub	esp, 204				; 000000ccH
	push	ebx
	push	esi
	push	edi
	push	ecx
	lea	edi, DWORD PTR [ebp-204]
	mov	ecx, 51					; 00000033H
	mov	eax, -858993460				; ccccccccH
	rep stosd
	pop	ecx
	mov	DWORD PTR _this$[ebp], ecx
	mov	eax, DWORD PTR _this$[ebp]
	mov	DWORD PTR [eax], OFFSET FLAT:??_7RTFFuncs@@6B@
	mov	ecx, DWORD PTR _this$[ebp]
	add	ecx, 4
	call	??0?$CStringT@GV?$StrTraitMFC@GV?$ChTraitsCRT@G@ATL@@@@@ATL@@QAE@XZ ; ATL::CStringT<unsigned short,StrTraitMFC<unsigned short,ATL::ChTraitsCRT<unsigned short> > >::CStringT<unsigned short,StrTraitMFC<unsigned short,ATL::ChTraitsCRT<unsigned short> > >
	mov	ecx, DWORD PTR _this$[ebp]
	add	ecx, 8
	call	??0?$CStringT@GV?$StrTraitMFC@GV?$ChTraitsCRT@G@ATL@@@@@ATL@@QAE@XZ ; ATL::CStringT<unsigned short,StrTraitMFC<unsigned short,ATL::ChTraitsCRT<unsigned short> > >::CStringT<unsigned short,StrTraitMFC<unsigned short,ATL::ChTraitsCRT<unsigned short> > >
	mov	eax, DWORD PTR _this$[ebp]
	mov	ecx, DWORD PTR _pDlg$[ebp]
	mov	DWORD PTR [eax+12], ecx
	mov	eax, DWORD PTR _this$[ebp]
	pop	edi
	pop	esi
	pop	ebx
	add	esp, 204				; 000000ccH
	cmp	ebp, esp
	call	__RTC_CheckEsp
	mov	esp, ebp
	pop	ebp
	ret	4
??0RTFFuncs@@QAE@PAVCDialog@@@Z ENDP			; RTFFuncs::RTFFuncs
_TEXT	ENDS
PUBLIC	??1RTFFuncs@@UAE@XZ				; RTFFuncs::~RTFFuncs
; Function compile flags: /Odt /RTCcsu /ZI
;	COMDAT ??_GRTFFuncs@@UAEPAXI@Z
_TEXT	SEGMENT
_this$ = -8						; size = 4
___flags$ = 8						; size = 4
??_GRTFFuncs@@UAEPAXI@Z PROC NEAR			; RTFFuncs::`scalar deleting destructor', COMDAT
; _this$ = ecx
	push	ebp
	mov	ebp, esp
	sub	esp, 204				; 000000ccH
	push	ebx
	push	esi
	push	edi
	push	ecx
	lea	edi, DWORD PTR [ebp-204]
	mov	ecx, 51					; 00000033H
	mov	eax, -858993460				; ccccccccH
	rep stosd
	pop	ecx
	mov	DWORD PTR _this$[ebp], ecx
	mov	ecx, DWORD PTR _this$[ebp]
	call	??1RTFFuncs@@UAE@XZ			; RTFFuncs::~RTFFuncs
	mov	eax, DWORD PTR ___flags$[ebp]
	and	eax, 1
	je	SHORT $L93283
	mov	eax, DWORD PTR _this$[ebp]
	push	eax
	call	??3@YAXPAX@Z				; operator delete
	add	esp, 4
$L93283:
	mov	eax, DWORD PTR _this$[ebp]
	pop	edi
	pop	esi
	pop	ebx
	add	esp, 204				; 000000ccH
	cmp	ebp, esp
	call	__RTC_CheckEsp
	mov	esp, ebp
	pop	ebp
	ret	4
??_GRTFFuncs@@UAEPAXI@Z ENDP				; RTFFuncs::`scalar deleting destructor'
; Function compile flags: /Odt /RTCcsu /ZI
_TEXT	ENDS
;	COMDAT ??1RTFFuncs@@UAE@XZ
_TEXT	SEGMENT
_this$ = -8						; size = 4
??1RTFFuncs@@UAE@XZ PROC NEAR				; RTFFuncs::~RTFFuncs, COMDAT
; _this$ = ecx

; 39   :    virtual ~RTFFuncs() {}

	push	ebp
	mov	ebp, esp
	sub	esp, 204				; 000000ccH
	push	ebx
	push	esi
	push	edi
	push	ecx
	lea	edi, DWORD PTR [ebp-204]
	mov	ecx, 51					; 00000033H
	mov	eax, -858993460				; ccccccccH
	rep stosd
	pop	ecx
	mov	DWORD PTR _this$[ebp], ecx
	mov	eax, DWORD PTR _this$[ebp]
	mov	DWORD PTR [eax], OFFSET FLAT:??_7RTFFuncs@@6B@
	mov	ecx, DWORD PTR _this$[ebp]
	add	ecx, 8
	call	??1?$CStringT@GV?$StrTraitMFC@GV?$ChTraitsCRT@G@ATL@@@@@ATL@@QAE@XZ ; ATL::CStringT<unsigned short,StrTraitMFC<unsigned short,ATL::ChTraitsCRT<unsigned short> > >::~CStringT<unsigned short,StrTraitMFC<unsigned short,ATL::ChTraitsCRT<unsigned short> > >
	mov	ecx, DWORD PTR _this$[ebp]
	add	ecx, 4
	call	??1?$CStringT@GV?$StrTraitMFC@GV?$ChTraitsCRT@G@ATL@@@@@ATL@@QAE@XZ ; ATL::CStringT<unsigned short,StrTraitMFC<unsigned short,ATL::ChTraitsCRT<unsigned short> > >::~CStringT<unsigned short,StrTraitMFC<unsigned short,ATL::ChTraitsCRT<unsigned short> > >
	pop	edi
	pop	esi
	pop	ebx
	add	esp, 204				; 000000ccH
	cmp	ebp, esp
	call	__RTC_CheckEsp
	mov	esp, ebp
	pop	ebp
	ret	0
??1RTFFuncs@@UAE@XZ ENDP				; RTFFuncs::~RTFFuncs
_TEXT	ENDS
PUBLIC	??1CReportEdit@@UAE@XZ				; CReportEdit::~CReportEdit
EXTRN	??3CObject@@SGXPAX@Z:NEAR			; CObject::operator delete
; Function compile flags: /Odt /RTCcsu /ZI
;	COMDAT ??_GCReportEdit@@UAEPAXI@Z
_TEXT	SEGMENT
_this$ = -8						; size = 4
___flags$ = 8						; size = 4
??_GCReportEdit@@UAEPAXI@Z PROC NEAR			; CReportEdit::`scalar deleting destructor', COMDAT
; _this$ = ecx
	push	ebp
	mov	ebp, esp
	sub	esp, 204				; 000000ccH
	push	ebx
	push	esi
	push	edi
	push	ecx
	lea	edi, DWORD PTR [ebp-204]
	mov	ecx, 51					; 00000033H
	mov	eax, -858993460				; ccccccccH
	rep stosd
	pop	ecx
	mov	DWORD PTR _this$[ebp], ecx
	mov	ecx, DWORD PTR _this$[ebp]
	call	??1CReportEdit@@UAE@XZ
	mov	eax, DWORD PTR ___flags$[ebp]
	and	eax, 1
	je	SHORT $L93815
	mov	eax, DWORD PTR _this$[ebp]
	push	eax
	call	??3CObject@@SGXPAX@Z			; CObject::operator delete
$L93815:
	mov	eax, DWORD PTR _this$[ebp]
	pop	edi
	pop	esi
	pop	ebx
	add	esp, 204				; 000000ccH
	cmp	ebp, esp
	call	__RTC_CheckEsp
	mov	esp, ebp
	pop	ebp
	ret	4
??_GCReportEdit@@UAEPAXI@Z ENDP				; CReportEdit::`scalar deleting destructor'
_TEXT	ENDS
PUBLIC	?Create@CWSpell@@UAEHPBG0KABUtagRECT@@PAVCWnd@@IPAUCCreateContext@@@Z ; CWSpell::Create
PUBLIC	??_7CWSpell@@6B@				; CWSpell::`vftable'
PUBLIC	??_GCWSpell@@UAEPAXI@Z				; CWSpell::`scalar deleting destructor'
EXTRN	?OnCmdMsg@CCmdTarget@@UAEHIHPAXPAUAFX_CMDHANDLERINFO@@@Z:NEAR ; CCmdTarget::OnCmdMsg
EXTRN	??0CWnd@@QAE@XZ:NEAR				; CWnd::CWnd
EXTRN	?GetRuntimeClass@CWSpell@@UBEPAUCRuntimeClass@@XZ:NEAR ; CWSpell::GetRuntimeClass
EXTRN	?DestroyWindow@CWnd@@UAEHXZ:NEAR		; CWnd::DestroyWindow
EXTRN	?DoDataExchange@CWnd@@MAEXPAVCDataExchange@@@Z:NEAR ; CWnd::DoDataExchange
EXTRN	?PreTranslateMessage@CWnd@@UAEHPAUtagMSG@@@Z:NEAR ; CWnd::PreTranslateMessage
EXTRN	?CheckAutoCenter@CWnd@@UAEHXZ:NEAR		; CWnd::CheckAutoCenter
EXTRN	?AssertValid@CWnd@@UBEXXZ:NEAR			; CWnd::AssertValid
EXTRN	?Dump@CWnd@@UBEXAAVCDumpContext@@@Z:NEAR	; CWnd::Dump
EXTRN	?SetOccDialogInfo@CWnd@@MAEHPAU_AFX_OCC_DIALOG_INFO@@@Z:NEAR ; CWnd::SetOccDialogInfo
EXTRN	?GetMessageMap@CWnd@@MBEPBUAFX_MSGMAP@@XZ:NEAR	; CWnd::GetMessageMap
EXTRN	??_ECWSpell@@UAEPAXI@Z:NEAR			; CWSpell::`vector deleting destructor'
;	COMDAT ??_7CWSpell@@6B@
CONST	SEGMENT
??_7CWSpell@@6B@ DD FLAT:?GetRuntimeClass@CWSpell@@UBEPAUCRuntimeClass@@XZ ; CWSpell::`vftable'
	DD	FLAT:??_ECWSpell@@UAEPAXI@Z
	DD	FLAT:?Serialize@CObject@@UAEXAAVCArchive@@@Z
	DD	FLAT:?AssertValid@CWnd@@UBEXXZ
	DD	FLAT:?Dump@CWnd@@UBEXAAVCDumpContext@@@Z
	DD	FLAT:?OnCmdMsg@CCmdTarget@@UAEHIHPAXPAUAFX_CMDHANDLERINFO@@@Z
	DD	FLAT:?OnFinalRelease@CWnd@@UAEXXZ
	DD	FLAT:?IsInvokeAllowed@CCmdTarget@@UAEHJ@Z
	DD	FLAT:?GetDispatchIID@CCmdTarget@@UAEHPAU_GUID@@@Z
	DD	FLAT:?GetTypeInfoCount@CCmdTarget@@UAEIXZ
	DD	FLAT:?GetTypeLibCache@CCmdTarget@@UAEPAVCTypeLibCache@@XZ
	DD	FLAT:?GetTypeLib@CCmdTarget@@UAEJKPAPAUITypeLib@@@Z
	DD	FLAT:?GetMessageMap@CWnd@@MBEPBUAFX_MSGMAP@@XZ
	DD	FLAT:?GetCommandMap@CCmdTarget@@MBEPBUAFX_OLECMDMAP@@XZ
	DD	FLAT:?GetDispatchMap@CCmdTarget@@MBEPBUAFX_DISPMAP@@XZ
	DD	FLAT:?GetConnectionMap@CCmdTarget@@MBEPBUAFX_CONNECTIONMAP@@XZ
	DD	FLAT:?GetInterfaceMap@CWnd@@MBEPBUAFX_INTERFACEMAP@@XZ
	DD	FLAT:?GetEventSinkMap@CCmdTarget@@MBEPBUAFX_EVENTSINKMAP@@XZ
	DD	FLAT:?OnCreateAggregates@CCmdTarget@@UAEHXZ
	DD	FLAT:?GetInterfaceHook@CCmdTarget@@UAEPAUIUnknown@@PBX@Z
	DD	FLAT:?GetExtraConnectionPoints@CCmdTarget@@MAEHPAVCPtrArray@@@Z
	DD	FLAT:?GetConnectionHook@CCmdTarget@@MAEPAUIConnectionPoint@@ABU_GUID@@@Z
	DD	FLAT:?PreSubclassWindow@CWnd@@UAEXXZ
	DD	FLAT:?Create@CWSpell@@UAEHPBG0KABUtagRECT@@PAVCWnd@@IPAUCCreateContext@@@Z
	DD	FLAT:?CreateEx@CWnd@@UAEHKPBG0KABUtagRECT@@PAV1@IPAX@Z
	DD	FLAT:?CreateEx@CWnd@@UAEHKPBG0KHHHHPAUHWND__@@PAUHMENU__@@PAX@Z
	DD	FLAT:?DestroyWindow@CWnd@@UAEHXZ
	DD	FLAT:?PreCreateWindow@CWnd@@UAEHAAUtagCREATESTRUCTW@@@Z
	DD	FLAT:?CalcWindowRect@CWnd@@UAEXPAUtagRECT@@I@Z
	DD	FLAT:?OnToolHitTest@CWnd@@UBEHVCPoint@@PAUtagTOOLINFOW@@@Z
	DD	FLAT:?GetScrollBarCtrl@CWnd@@UBEPAVCScrollBar@@H@Z
	DD	FLAT:?WinHelpW@CWnd@@UAEXKI@Z
	DD	FLAT:?HtmlHelpW@CWnd@@UAEXKI@Z
	DD	FLAT:?WinHelpInternal@CWnd@@UAEXKI@Z
	DD	FLAT:?ContinueModal@CWnd@@UAEHXZ
	DD	FLAT:?EndModalLoop@CWnd@@UAEXH@Z
	DD	FLAT:?EnsureStdObj@CWnd@@UAEJXZ
	DD	FLAT:?get_accParent@CWnd@@UAEJPAPAUIDispatch@@@Z
	DD	FLAT:?get_accChildCount@CWnd@@UAEJPAJ@Z
	DD	FLAT:?get_accChild@CWnd@@UAEJUtagVARIANT@@PAPAUIDispatch@@@Z
	DD	FLAT:?get_accName@CWnd@@UAEJUtagVARIANT@@PAPAG@Z
	DD	FLAT:?get_accValue@CWnd@@UAEJUtagVARIANT@@PAPAG@Z
	DD	FLAT:?get_accDescription@CWnd@@UAEJUtagVARIANT@@PAPAG@Z
	DD	FLAT:?get_accRole@CWnd@@UAEJUtagVARIANT@@PAU2@@Z
	DD	FLAT:?get_accState@CWnd@@UAEJUtagVARIANT@@PAU2@@Z
	DD	FLAT:?get_accHelp@CWnd@@UAEJUtagVARIANT@@PAPAG@Z
	DD	FLAT:?get_accHelpTopic@CWnd@@UAEJPAPAGUtagVARIANT@@PAJ@Z
	DD	FLAT:?get_accKeyboardShortcut@CWnd@@UAEJUtagVARIANT@@PAPAG@Z
	DD	FLAT:?get_accFocus@CWnd@@UAEJPAUtagVARIANT@@@Z
	DD	FLAT:?get_accSelection@CWnd@@UAEJPAUtagVARIANT@@@Z
	DD	FLAT:?get_accDefaultAction@CWnd@@UAEJUtagVARIANT@@PAPAG@Z
	DD	FLAT:?accSelect@CWnd@@UAEJJUtagVARIANT@@@Z
	DD	FLAT:?accLocation@CWnd@@UAEJPAJ000UtagVARIANT@@@Z
	DD	FLAT:?accNavigate@CWnd@@UAEJJUtagVARIANT@@PAU2@@Z
	DD	FLAT:?accHitTest@CWnd@@UAEJJJPAUtagVARIANT@@@Z
	DD	FLAT:?accDoDefaultAction@CWnd@@UAEJUtagVARIANT@@@Z
	DD	FLAT:?put_accName@CWnd@@UAEJUtagVARIANT@@PAG@Z
	DD	FLAT:?put_accValue@CWnd@@UAEJUtagVARIANT@@PAG@Z
	DD	FLAT:?SetProxy@CWnd@@UAEJPAUIAccessibleProxy@@@Z
	DD	FLAT:?CreateAccessibleProxy@CWnd@@UAEJIJPAJ@Z
	DD	FLAT:?OnCommand@CWnd@@MAEHIJ@Z
	DD	FLAT:?OnNotify@CWnd@@MAEHIJPAJ@Z
	DD	FLAT:?GetSuperWndProcAddr@CWnd@@MAEPAP6GJPAUHWND__@@IIJ@ZXZ
	DD	FLAT:?DoDataExchange@CWnd@@MAEXPAVCDataExchange@@@Z
	DD	FLAT:?BeginModalState@CWnd@@UAEXXZ
	DD	FLAT:?EndModalState@CWnd@@UAEXXZ
	DD	FLAT:?PreTranslateMessage@CWnd@@UAEHPAUtagMSG@@@Z
	DD	FLAT:?OnAmbientProperty@CWnd@@UAEHPAVCOleControlSite@@JPAUtagVARIANT@@@Z
	DD	FLAT:?WindowProc@CWnd@@MAEJIIJ@Z
	DD	FLAT:?OnWndMsg@CWnd@@MAEHIIJPAJ@Z
	DD	FLAT:?DefWindowProcW@CWnd@@MAEJIIJ@Z
	DD	FLAT:?PostNcDestroy@CWnd@@MAEXXZ
	DD	FLAT:?OnChildNotify@CWnd@@MAEHIIJPAJ@Z
	DD	FLAT:?CheckAutoCenter@CWnd@@UAEHXZ
	DD	FLAT:?IsFrameWnd@CWnd@@UBEHXZ
	DD	FLAT:?CreateControlContainer@CWnd@@MAEHPAPAVCOleControlContainer@@@Z
	DD	FLAT:?CreateControlSite@CWnd@@MAEHPAVCOleControlContainer@@PAPAVCOleControlSite@@IABU_GUID@@@Z
	DD	FLAT:?SetOccDialogInfo@CWnd@@MAEHPAU_AFX_OCC_DIALOG_INFO@@@Z
; Function compile flags: /Odt /RTCcsu /ZI
CONST	ENDS
;	COMDAT ??0CWSpell@@QAE@XZ
_TEXT	SEGMENT
_this$ = -8						; size = 4
??0CWSpell@@QAE@XZ PROC NEAR				; CWSpell::CWSpell, COMDAT
; _this$ = ecx
	push	ebp
	mov	ebp, esp
	sub	esp, 204				; 000000ccH
	push	ebx
	push	esi
	push	edi
	push	ecx
	lea	edi, DWORD PTR [ebp-204]
	mov	ecx, 51					; 00000033H
	mov	eax, -858993460				; ccccccccH
	rep stosd
	pop	ecx
	mov	DWORD PTR _this$[ebp], ecx
	mov	ecx, DWORD PTR _this$[ebp]
	call	??0CWnd@@QAE@XZ				; CWnd::CWnd
	mov	eax, DWORD PTR _this$[ebp]
	mov	DWORD PTR [eax], OFFSET FLAT:??_7CWSpell@@6B@
	mov	eax, DWORD PTR _this$[ebp]
	pop	edi
	pop	esi
	pop	ebx
	add	esp, 204				; 000000ccH
	cmp	ebp, esp
	call	__RTC_CheckEsp
	mov	esp, ebp
	pop	ebp
	ret	0
??0CWSpell@@QAE@XZ ENDP					; CWSpell::CWSpell
_TEXT	ENDS
PUBLIC	?GetClsid@CWSpell@@QAEABU_GUID@@XZ		; CWSpell::GetClsid
EXTRN	?CreateControl@CWnd@@QAEHABU_GUID@@PBGKABUtagRECT@@PAV1@IPAVCFile@@HPAG@Z:NEAR ; CWnd::CreateControl
; Function compile flags: /Odt /RTCcsu /ZI
; File c:\astrow32dev\tbt32\wspell.h
;	COMDAT ?Create@CWSpell@@UAEHPBG0KABUtagRECT@@PAVCWnd@@IPAUCCreateContext@@@Z
_TEXT	SEGMENT
_this$ = -8						; size = 4
_lpszClassName$ = 8					; size = 4
_lpszWindowName$ = 12					; size = 4
_dwStyle$ = 16						; size = 4
_rect$ = 20						; size = 4
_pParentWnd$ = 24					; size = 4
_nID$ = 28						; size = 4
_pContext$ = 32						; size = 4
?Create@CWSpell@@UAEHPBG0KABUtagRECT@@PAVCWnd@@IPAUCCreateContext@@@Z PROC NEAR ; CWSpell::Create, COMDAT
; _this$ = ecx

; 31   : 	{ return CreateControl(GetClsid(), lpszWindowName, dwStyle, rect, pParentWnd, nID); }

	push	ebp
	mov	ebp, esp
	sub	esp, 204				; 000000ccH
	push	ebx
	push	esi
	push	edi
	push	ecx
	lea	edi, DWORD PTR [ebp-204]
	mov	ecx, 51					; 00000033H
	mov	eax, -858993460				; ccccccccH
	rep stosd
	pop	ecx
	mov	DWORD PTR _this$[ebp], ecx
	push	0
	push	0
	push	0
	mov	eax, DWORD PTR _nID$[ebp]
	push	eax
	mov	ecx, DWORD PTR _pParentWnd$[ebp]
	push	ecx
	mov	edx, DWORD PTR _rect$[ebp]
	push	edx
	mov	eax, DWORD PTR _dwStyle$[ebp]
	push	eax
	mov	ecx, DWORD PTR _lpszWindowName$[ebp]
	push	ecx
	mov	ecx, DWORD PTR _this$[ebp]
	call	?GetClsid@CWSpell@@QAEABU_GUID@@XZ	; CWSpell::GetClsid
	push	eax
	mov	ecx, DWORD PTR _this$[ebp]
	call	?CreateControl@CWnd@@QAEHABU_GUID@@PBGKABUtagRECT@@PAV1@IPAVCFile@@HPAG@Z ; CWnd::CreateControl
	pop	edi
	pop	esi
	pop	ebx
	add	esp, 204				; 000000ccH
	cmp	ebp, esp
	call	__RTC_CheckEsp
	mov	esp, ebp
	pop	ebp
	ret	28					; 0000001cH
?Create@CWSpell@@UAEHPBG0KABUtagRECT@@PAVCWnd@@IPAUCCreateContext@@@Z ENDP ; CWSpell::Create
_TEXT	ENDS
PUBLIC	?clsid@?1??GetClsid@CWSpell@@QAEABU_GUID@@XZ@4U3@B ; `CWSpell::GetClsid'::`2'::clsid
;	COMDAT ?clsid@?1??GetClsid@CWSpell@@QAEABU_GUID@@XZ@4U3@B
CONST	SEGMENT
?clsid@?1??GetClsid@CWSpell@@QAEABU_GUID@@XZ@4U3@B DD 0245338c3H ; `CWSpell::GetClsid'::`2'::clsid
	DW	0bca3H
	DW	04a2cH
	DB	0a7H
	DB	0b7H
	DB	053H
	DB	034H
	DB	059H
	DB	099H
	DB	0a8H
	DB	0e8H
; Function compile flags: /Odt /RTCcsu /ZI
CONST	ENDS
;	COMDAT ?GetClsid@CWSpell@@QAEABU_GUID@@XZ
_TEXT	SEGMENT
_this$ = -8						; size = 4
?GetClsid@CWSpell@@QAEABU_GUID@@XZ PROC NEAR		; CWSpell::GetClsid, COMDAT
; _this$ = ecx

; 21   : 	{

	push	ebp
	mov	ebp, esp
	sub	esp, 204				; 000000ccH
	push	ebx
	push	esi
	push	edi
	push	ecx
	lea	edi, DWORD PTR [ebp-204]
	mov	ecx, 51					; 00000033H
	mov	eax, -858993460				; ccccccccH
	rep stosd
	pop	ecx
	mov	DWORD PTR _this$[ebp], ecx

; 22   : 		static CLSID const clsid
; 23   : 			= { 0x245338c3, 0xbca3, 0x4a2c, { 0xa7, 0xb7, 0x53, 0x34, 0x59, 0x99, 0xa8, 0xe8 } };
; 24   : 		return clsid;

	mov	eax, OFFSET FLAT:?clsid@?1??GetClsid@CWSpell@@QAEABU_GUID@@XZ@4U3@B ; `CWSpell::GetClsid'::`2'::clsid

; 25   : 	}

	pop	edi
	pop	esi
	pop	ebx
	mov	esp, ebp
	pop	ebp
	ret	0
?GetClsid@CWSpell@@QAEABU_GUID@@XZ ENDP			; CWSpell::GetClsid
_TEXT	ENDS
EXTRN	??1CWnd@@UAE@XZ:NEAR				; CWnd::~CWnd
; Function compile flags: /Odt /RTCcsu /ZI
;	COMDAT ??1CWSpell@@UAE@XZ
_TEXT	SEGMENT
_this$ = -8						; size = 4
??1CWSpell@@UAE@XZ PROC NEAR				; CWSpell::~CWSpell, COMDAT
; _this$ = ecx
	push	ebp
	mov	ebp, esp
	sub	esp, 204				; 000000ccH
	push	ebx
	push	esi
	push	edi
	push	ecx
	lea	edi, DWORD PTR [ebp-204]
	mov	ecx, 51					; 00000033H
	mov	eax, -858993460				; ccccccccH
	rep stosd
	pop	ecx
	mov	DWORD PTR _this$[ebp], ecx
	mov	ecx, DWORD PTR _this$[ebp]
	call	??1CWnd@@UAE@XZ				; CWnd::~CWnd
	pop	edi
	pop	esi
	pop	ebx
	add	esp, 204				; 000000ccH
	cmp	ebp, esp
	call	__RTC_CheckEsp
	mov	esp, ebp
	pop	ebp
	ret	0
??1CWSpell@@UAE@XZ ENDP					; CWSpell::~CWSpell
_TEXT	ENDS
EXTRN	??1CDaoRecordset@@UAE@XZ:NEAR			; CDaoRecordset::~CDaoRecordset
; Function compile flags: /Odt /RTCcsu /ZI
;	COMDAT ??1CDReportText@@UAE@XZ
_TEXT	SEGMENT
_this$ = -8						; size = 4
??1CDReportText@@UAE@XZ PROC NEAR			; CDReportText::~CDReportText, COMDAT
; _this$ = ecx
	push	ebp
	mov	ebp, esp
	sub	esp, 204				; 000000ccH
	push	ebx
	push	esi
	push	edi
	push	ecx
	lea	edi, DWORD PTR [ebp-204]
	mov	ecx, 51					; 00000033H
	mov	eax, -858993460				; ccccccccH
	rep stosd
	pop	ecx
	mov	DWORD PTR _this$[ebp], ecx
	mov	ecx, DWORD PTR _this$[ebp]
	add	ecx, 168				; 000000a8H
	call	??1?$CStringT@GV?$StrTraitMFC@GV?$ChTraitsCRT@G@ATL@@@@@ATL@@QAE@XZ ; ATL::CStringT<unsigned short,StrTraitMFC<unsigned short,ATL::ChTraitsCRT<unsigned short> > >::~CStringT<unsigned short,StrTraitMFC<unsigned short,ATL::ChTraitsCRT<unsigned short> > >
	mov	ecx, DWORD PTR _this$[ebp]
	add	ecx, 164				; 000000a4H
	call	??1?$CStringT@GV?$StrTraitMFC@GV?$ChTraitsCRT@G@ATL@@@@@ATL@@QAE@XZ ; ATL::CStringT<unsigned short,StrTraitMFC<unsigned short,ATL::ChTraitsCRT<unsigned short> > >::~CStringT<unsigned short,StrTraitMFC<unsigned short,ATL::ChTraitsCRT<unsigned short> > >
	mov	ecx, DWORD PTR _this$[ebp]
	add	ecx, 156				; 0000009cH
	call	??1?$CStringT@GV?$StrTraitMFC@GV?$ChTraitsCRT@G@ATL@@@@@ATL@@QAE@XZ ; ATL::CStringT<unsigned short,StrTraitMFC<unsigned short,ATL::ChTraitsCRT<unsigned short> > >::~CStringT<unsigned short,StrTraitMFC<unsigned short,ATL::ChTraitsCRT<unsigned short> > >
	mov	ecx, DWORD PTR _this$[ebp]
	add	ecx, 152				; 00000098H
	call	??1?$CStringT@GV?$StrTraitMFC@GV?$ChTraitsCRT@G@ATL@@@@@ATL@@QAE@XZ ; ATL::CStringT<unsigned short,StrTraitMFC<unsigned short,ATL::ChTraitsCRT<unsigned short> > >::~CStringT<unsigned short,StrTraitMFC<unsigned short,ATL::ChTraitsCRT<unsigned short> > >
	mov	ecx, DWORD PTR _this$[ebp]
	call	??1CDaoRecordset@@UAE@XZ		; CDaoRecordset::~CDaoRecordset
	pop	edi
	pop	esi
	pop	ebx
	add	esp, 204				; 000000ccH
	cmp	ebp, esp
	call	__RTC_CheckEsp
	mov	esp, ebp
	pop	ebp
	ret	0
??1CDReportText@@UAE@XZ ENDP				; CDReportText::~CDReportText
_TEXT	ENDS
PUBLIC	?Create@CTabctrlctrl1@@UAEHPBG0KABUtagRECT@@PAVCWnd@@IPAUCCreateContext@@@Z ; CTabctrlctrl1::Create
PUBLIC	??_7CTabctrlctrl1@@6B@				; CTabctrlctrl1::`vftable'
PUBLIC	??_GCTabctrlctrl1@@UAEPAXI@Z			; CTabctrlctrl1::`scalar deleting destructor'
EXTRN	?GetRuntimeClass@CTabctrlctrl1@@UBEPAUCRuntimeClass@@XZ:NEAR ; CTabctrlctrl1::GetRuntimeClass
EXTRN	??_ECTabctrlctrl1@@UAEPAXI@Z:NEAR		; CTabctrlctrl1::`vector deleting destructor'
;	COMDAT ??_7CTabctrlctrl1@@6B@
CONST	SEGMENT
??_7CTabctrlctrl1@@6B@ DD FLAT:?GetRuntimeClass@CTabctrlctrl1@@UBEPAUCRuntimeClass@@XZ ; CTabctrlctrl1::`vftable'
	DD	FLAT:??_ECTabctrlctrl1@@UAEPAXI@Z
	DD	FLAT:?Serialize@CObject@@UAEXAAVCArchive@@@Z
	DD	FLAT:?AssertValid@CWnd@@UBEXXZ
	DD	FLAT:?Dump@CWnd@@UBEXAAVCDumpContext@@@Z
	DD	FLAT:?OnCmdMsg@CCmdTarget@@UAEHIHPAXPAUAFX_CMDHANDLERINFO@@@Z
	DD	FLAT:?OnFinalRelease@CWnd@@UAEXXZ
	DD	FLAT:?IsInvokeAllowed@CCmdTarget@@UAEHJ@Z
	DD	FLAT:?GetDispatchIID@CCmdTarget@@UAEHPAU_GUID@@@Z
	DD	FLAT:?GetTypeInfoCount@CCmdTarget@@UAEIXZ
	DD	FLAT:?GetTypeLibCache@CCmdTarget@@UAEPAVCTypeLibCache@@XZ
	DD	FLAT:?GetTypeLib@CCmdTarget@@UAEJKPAPAUITypeLib@@@Z
	DD	FLAT:?GetMessageMap@CWnd@@MBEPBUAFX_MSGMAP@@XZ
	DD	FLAT:?GetCommandMap@CCmdTarget@@MBEPBUAFX_OLECMDMAP@@XZ
	DD	FLAT:?GetDispatchMap@CCmdTarget@@MBEPBUAFX_DISPMAP@@XZ
	DD	FLAT:?GetConnectionMap@CCmdTarget@@MBEPBUAFX_CONNECTIONMAP@@XZ
	DD	FLAT:?GetInterfaceMap@CWnd@@MBEPBUAFX_INTERFACEMAP@@XZ
	DD	FLAT:?GetEventSinkMap@CCmdTarget@@MBEPBUAFX_EVENTSINKMAP@@XZ
	DD	FLAT:?OnCreateAggregates@CCmdTarget@@UAEHXZ
	DD	FLAT:?GetInterfaceHook@CCmdTarget@@UAEPAUIUnknown@@PBX@Z
	DD	FLAT:?GetExtraConnectionPoints@CCmdTarget@@MAEHPAVCPtrArray@@@Z
	DD	FLAT:?GetConnectionHook@CCmdTarget@@MAEPAUIConnectionPoint@@ABU_GUID@@@Z
	DD	FLAT:?PreSubclassWindow@CWnd@@UAEXXZ
	DD	FLAT:?Create@CTabctrlctrl1@@UAEHPBG0KABUtagRECT@@PAVCWnd@@IPAUCCreateContext@@@Z
	DD	FLAT:?CreateEx@CWnd@@UAEHKPBG0KABUtagRECT@@PAV1@IPAX@Z
	DD	FLAT:?CreateEx@CWnd@@UAEHKPBG0KHHHHPAUHWND__@@PAUHMENU__@@PAX@Z
	DD	FLAT:?DestroyWindow@CWnd@@UAEHXZ
	DD	FLAT:?PreCreateWindow@CWnd@@UAEHAAUtagCREATESTRUCTW@@@Z
	DD	FLAT:?CalcWindowRect@CWnd@@UAEXPAUtagRECT@@I@Z
	DD	FLAT:?OnToolHitTest@CWnd@@UBEHVCPoint@@PAUtagTOOLINFOW@@@Z
	DD	FLAT:?GetScrollBarCtrl@CWnd@@UBEPAVCScrollBar@@H@Z
	DD	FLAT:?WinHelpW@CWnd@@UAEXKI@Z
	DD	FLAT:?HtmlHelpW@CWnd@@UAEXKI@Z
	DD	FLAT:?WinHelpInternal@CWnd@@UAEXKI@Z
	DD	FLAT:?ContinueModal@CWnd@@UAEHXZ
	DD	FLAT:?EndModalLoop@CWnd@@UAEXH@Z
	DD	FLAT:?EnsureStdObj@CWnd@@UAEJXZ
	DD	FLAT:?get_accParent@CWnd@@UAEJPAPAUIDispatch@@@Z
	DD	FLAT:?get_accChildCount@CWnd@@UAEJPAJ@Z
	DD	FLAT:?get_accChild@CWnd@@UAEJUtagVARIANT@@PAPAUIDispatch@@@Z
	DD	FLAT:?get_accName@CWnd@@UAEJUtagVARIANT@@PAPAG@Z
	DD	FLAT:?get_accValue@CWnd@@UAEJUtagVARIANT@@PAPAG@Z
	DD	FLAT:?get_accDescription@CWnd@@UAEJUtagVARIANT@@PAPAG@Z
	DD	FLAT:?get_accRole@CWnd@@UAEJUtagVARIANT@@PAU2@@Z
	DD	FLAT:?get_accState@CWnd@@UAEJUtagVARIANT@@PAU2@@Z
	DD	FLAT:?get_accHelp@CWnd@@UAEJUtagVARIANT@@PAPAG@Z
	DD	FLAT:?get_accHelpTopic@CWnd@@UAEJPAPAGUtagVARIANT@@PAJ@Z
	DD	FLAT:?get_accKeyboardShortcut@CWnd@@UAEJUtagVARIANT@@PAPAG@Z
	DD	FLAT:?get_accFocus@CWnd@@UAEJPAUtagVARIANT@@@Z
	DD	FLAT:?get_accSelection@CWnd@@UAEJPAUtagVARIANT@@@Z
	DD	FLAT:?get_accDefaultAction@CWnd@@UAEJUtagVARIANT@@PAPAG@Z
	DD	FLAT:?accSelect@CWnd@@UAEJJUtagVARIANT@@@Z
	DD	FLAT:?accLocation@CWnd@@UAEJPAJ000UtagVARIANT@@@Z
	DD	FLAT:?accNavigate@CWnd@@UAEJJUtagVARIANT@@PAU2@@Z
	DD	FLAT:?accHitTest@CWnd@@UAEJJJPAUtagVARIANT@@@Z
	DD	FLAT:?accDoDefaultAction@CWnd@@UAEJUtagVARIANT@@@Z
	DD	FLAT:?put_accName@CWnd@@UAEJUtagVARIANT@@PAG@Z
	DD	FLAT:?put_accValue@CWnd@@UAEJUtagVARIANT@@PAG@Z
	DD	FLAT:?SetProxy@CWnd@@UAEJPAUIAccessibleProxy@@@Z
	DD	FLAT:?CreateAccessibleProxy@CWnd@@UAEJIJPAJ@Z
	DD	FLAT:?OnCommand@CWnd@@MAEHIJ@Z
	DD	FLAT:?OnNotify@CWnd@@MAEHIJPAJ@Z
	DD	FLAT:?GetSuperWndProcAddr@CWnd@@MAEPAP6GJPAUHWND__@@IIJ@ZXZ
	DD	FLAT:?DoDataExchange@CWnd@@MAEXPAVCDataExchange@@@Z
	DD	FLAT:?BeginModalState@CWnd@@UAEXXZ
	DD	FLAT:?EndModalState@CWnd@@UAEXXZ
	DD	FLAT:?PreTranslateMessage@CWnd@@UAEHPAUtagMSG@@@Z
	DD	FLAT:?OnAmbientProperty@CWnd@@UAEHPAVCOleControlSite@@JPAUtagVARIANT@@@Z
	DD	FLAT:?WindowProc@CWnd@@MAEJIIJ@Z
	DD	FLAT:?OnWndMsg@CWnd@@MAEHIIJPAJ@Z
	DD	FLAT:?DefWindowProcW@CWnd@@MAEJIIJ@Z
	DD	FLAT:?PostNcDestroy@CWnd@@MAEXXZ
	DD	FLAT:?OnChildNotify@CWnd@@MAEHIIJPAJ@Z
	DD	FLAT:?CheckAutoCenter@CWnd@@UAEHXZ
	DD	FLAT:?IsFrameWnd@CWnd@@UBEHXZ
	DD	FLAT:?CreateControlContainer@CWnd@@MAEHPAPAVCOleControlContainer@@@Z
	DD	FLAT:?CreateControlSite@CWnd@@MAEHPAVCOleControlContainer@@PAPAVCOleControlSite@@IABU_GUID@@@Z
	DD	FLAT:?SetOccDialogInfo@CWnd@@MAEHPAU_AFX_OCC_DIALOG_INFO@@@Z
; Function compile flags: /Odt /RTCcsu /ZI
CONST	ENDS
;	COMDAT ??0CTabctrlctrl1@@QAE@XZ
_TEXT	SEGMENT
_this$ = -8						; size = 4
??0CTabctrlctrl1@@QAE@XZ PROC NEAR			; CTabctrlctrl1::CTabctrlctrl1, COMDAT
; _this$ = ecx
	push	ebp
	mov	ebp, esp
	sub	esp, 204				; 000000ccH
	push	ebx
	push	esi
	push	edi
	push	ecx
	lea	edi, DWORD PTR [ebp-204]
	mov	ecx, 51					; 00000033H
	mov	eax, -858993460				; ccccccccH
	rep stosd
	pop	ecx
	mov	DWORD PTR _this$[ebp], ecx
	mov	ecx, DWORD PTR _this$[ebp]
	call	??0CWnd@@QAE@XZ				; CWnd::CWnd
	mov	eax, DWORD PTR _this$[ebp]
	mov	DWORD PTR [eax], OFFSET FLAT:??_7CTabctrlctrl1@@6B@
	mov	eax, DWORD PTR _this$[ebp]
	pop	edi
	pop	esi
	pop	ebx
	add	esp, 204				; 000000ccH
	cmp	ebp, esp
	call	__RTC_CheckEsp
	mov	esp, ebp
	pop	ebp
	ret	0
??0CTabctrlctrl1@@QAE@XZ ENDP				; CTabctrlctrl1::CTabctrlctrl1
_TEXT	ENDS
PUBLIC	?GetClsid@CTabctrlctrl1@@QAEABU_GUID@@XZ	; CTabctrlctrl1::GetClsid
; Function compile flags: /Odt /RTCcsu /ZI
; File c:\astrow32dev\tbt32\tabctrlctrl1.h
;	COMDAT ?Create@CTabctrlctrl1@@UAEHPBG0KABUtagRECT@@PAVCWnd@@IPAUCCreateContext@@@Z
_TEXT	SEGMENT
_this$ = -8						; size = 4
_lpszClassName$ = 8					; size = 4
_lpszWindowName$ = 12					; size = 4
_dwStyle$ = 16						; size = 4
_rect$ = 20						; size = 4
_pParentWnd$ = 24					; size = 4
_nID$ = 28						; size = 4
_pContext$ = 32						; size = 4
?Create@CTabctrlctrl1@@UAEHPBG0KABUtagRECT@@PAVCWnd@@IPAUCCreateContext@@@Z PROC NEAR ; CTabctrlctrl1::Create, COMDAT
; _this$ = ecx

; 25   : 	{ 

	push	ebp
	mov	ebp, esp
	sub	esp, 204				; 000000ccH
	push	ebx
	push	esi
	push	edi
	push	ecx
	lea	edi, DWORD PTR [ebp-204]
	mov	ecx, 51					; 00000033H
	mov	eax, -858993460				; ccccccccH
	rep stosd
	pop	ecx
	mov	DWORD PTR _this$[ebp], ecx

; 26   : 		return CreateControl(GetClsid(), lpszWindowName, dwStyle, rect, pParentWnd, nID); 

	push	0
	push	0
	push	0
	mov	eax, DWORD PTR _nID$[ebp]
	push	eax
	mov	ecx, DWORD PTR _pParentWnd$[ebp]
	push	ecx
	mov	edx, DWORD PTR _rect$[ebp]
	push	edx
	mov	eax, DWORD PTR _dwStyle$[ebp]
	push	eax
	mov	ecx, DWORD PTR _lpszWindowName$[ebp]
	push	ecx
	mov	ecx, DWORD PTR _this$[ebp]
	call	?GetClsid@CTabctrlctrl1@@QAEABU_GUID@@XZ ; CTabctrlctrl1::GetClsid
	push	eax
	mov	ecx, DWORD PTR _this$[ebp]
	call	?CreateControl@CWnd@@QAEHABU_GUID@@PBGKABUtagRECT@@PAV1@IPAVCFile@@HPAG@Z ; CWnd::CreateControl

; 27   : 	}

	pop	edi
	pop	esi
	pop	ebx
	add	esp, 204				; 000000ccH
	cmp	ebp, esp
	call	__RTC_CheckEsp
	mov	esp, ebp
	pop	ebp
	ret	28					; 0000001cH
?Create@CTabctrlctrl1@@UAEHPBG0KABUtagRECT@@PAVCWnd@@IPAUCCreateContext@@@Z ENDP ; CTabctrlctrl1::Create
_TEXT	ENDS
PUBLIC	?clsid@?1??GetClsid@CTabctrlctrl1@@QAEABU_GUID@@XZ@4U3@B ; `CTabctrlctrl1::GetClsid'::`2'::clsid
;	COMDAT ?clsid@?1??GetClsid@CTabctrlctrl1@@QAEABU_GUID@@XZ@4U3@B
CONST	SEGMENT
?clsid@?1??GetClsid@CTabctrlctrl1@@QAEABU_GUID@@XZ@4U3@B DD 05230206eH ; `CTabctrlctrl1::GetClsid'::`2'::clsid
	DW	03e6aH
	DW	0454cH
	DB	099H
	DB	099H
	DB	0eaH
	DB	0daH
	DB	011H
	DB	0aeH
	DB	04fH
	DB	032H
; Function compile flags: /Odt /RTCcsu /ZI
CONST	ENDS
;	COMDAT ?GetClsid@CTabctrlctrl1@@QAEABU_GUID@@XZ
_TEXT	SEGMENT
_this$ = -8						; size = 4
?GetClsid@CTabctrlctrl1@@QAEABU_GUID@@XZ PROC NEAR	; CTabctrlctrl1::GetClsid, COMDAT
; _this$ = ecx

; 17   : 	{

	push	ebp
	mov	ebp, esp
	sub	esp, 204				; 000000ccH
	push	ebx
	push	esi
	push	edi
	push	ecx
	lea	edi, DWORD PTR [ebp-204]
	mov	ecx, 51					; 00000033H
	mov	eax, -858993460				; ccccccccH
	rep stosd
	pop	ecx
	mov	DWORD PTR _this$[ebp], ecx

; 18   : 		static CLSID const clsid
; 19   : 			= { 0x5230206E, 0x3E6A, 0x454C, { 0x99, 0x99, 0xEA, 0xDA, 0x11, 0xAE, 0x4F, 0x32 } };
; 20   : 		return clsid;

	mov	eax, OFFSET FLAT:?clsid@?1??GetClsid@CTabctrlctrl1@@QAEABU_GUID@@XZ@4U3@B ; `CTabctrlctrl1::GetClsid'::`2'::clsid

; 21   : 	}

	pop	edi
	pop	esi
	pop	ebx
	mov	esp, ebp
	pop	ebp
	ret	0
?GetClsid@CTabctrlctrl1@@QAEABU_GUID@@XZ ENDP		; CTabctrlctrl1::GetClsid
; Function compile flags: /Odt /RTCcsu /ZI
_TEXT	ENDS
;	COMDAT ??1CTabctrlctrl1@@UAE@XZ
_TEXT	SEGMENT
_this$ = -8						; size = 4
??1CTabctrlctrl1@@UAE@XZ PROC NEAR			; CTabctrlctrl1::~CTabctrlctrl1, COMDAT
; _this$ = ecx
	push	ebp
	mov	ebp, esp
	sub	esp, 204				; 000000ccH
	push	ebx
	push	esi
	push	edi
	push	ecx
	lea	edi, DWORD PTR [ebp-204]
	mov	ecx, 51					; 00000033H
	mov	eax, -858993460				; ccccccccH
	rep stosd
	pop	ecx
	mov	DWORD PTR _this$[ebp], ecx
	mov	ecx, DWORD PTR _this$[ebp]
	call	??1CWnd@@UAE@XZ				; CWnd::~CWnd
	pop	edi
	pop	esi
	pop	ebx
	add	esp, 204				; 000000ccH
	cmp	ebp, esp
	call	__RTC_CheckEsp
	mov	esp, ebp
	pop	ebp
	ret	0
??1CTabctrlctrl1@@UAE@XZ ENDP				; CTabctrlctrl1::~CTabctrlctrl1
_TEXT	ENDS
;	COMDAT xdata$x
xdata$x	SEGMENT
__unwindtable$??1CReportEdit@@UAE@XZ DD 0ffffffffH
	DD	FLAT:__unwindfunclet$??1CReportEdit@@UAE@XZ$0
	DD	00H
	DD	FLAT:__unwindfunclet$??1CReportEdit@@UAE@XZ$1
	DD	01H
	DD	FLAT:__unwindfunclet$??1CReportEdit@@UAE@XZ$2
	DD	02H
	DD	FLAT:__unwindfunclet$??1CReportEdit@@UAE@XZ$3
	DD	03H
	DD	FLAT:__unwindfunclet$??1CReportEdit@@UAE@XZ$4
	DD	04H
	DD	FLAT:__unwindfunclet$??1CReportEdit@@UAE@XZ$5
__ehfuncinfo$??1CReportEdit@@UAE@XZ DD 019930520H
	DD	06H
	DD	FLAT:__unwindtable$??1CReportEdit@@UAE@XZ
	DD	2 DUP(00H)
	DD	2 DUP(00H)
; Function compile flags: /Odt /RTCcsu /ZI
xdata$x	ENDS
;	COMDAT ??1CReportEdit@@UAE@XZ
_TEXT	SEGMENT
_this$ = -20						; size = 4
__$EHRec$ = -12						; size = 12
??1CReportEdit@@UAE@XZ PROC NEAR			; CReportEdit::~CReportEdit, COMDAT
; _this$ = ecx
	push	ebp
	mov	ebp, esp
	push	-1
	push	__ehhandler$??1CReportEdit@@UAE@XZ
	mov	eax, DWORD PTR fs:__except_list
	push	eax
	mov	DWORD PTR fs:__except_list, esp
	sub	esp, 204				; 000000ccH
	push	ebx
	push	esi
	push	edi
	push	ecx
	lea	edi, DWORD PTR [ebp-216]
	mov	ecx, 51					; 00000033H
	mov	eax, -858993460				; ccccccccH
	rep stosd
	pop	ecx
	mov	DWORD PTR _this$[ebp], ecx
	mov	DWORD PTR __$EHRec$[ebp+8], 5
	mov	ecx, DWORD PTR _this$[ebp]
	add	ecx, 392				; 00000188H
	call	??1CTabctrlctrl1@@UAE@XZ
	mov	BYTE PTR __$EHRec$[ebp+8], 4
	mov	ecx, DWORD PTR _this$[ebp]
	add	ecx, 380				; 0000017cH
	call	??1?$CStringT@GV?$StrTraitMFC@GV?$ChTraitsCRT@G@ATL@@@@@ATL@@QAE@XZ ; ATL::CStringT<unsigned short,StrTraitMFC<unsigned short,ATL::ChTraitsCRT<unsigned short> > >::~CStringT<unsigned short,StrTraitMFC<unsigned short,ATL::ChTraitsCRT<unsigned short> > >
	mov	BYTE PTR __$EHRec$[ebp+8], 3
	mov	ecx, DWORD PTR _this$[ebp]
	add	ecx, 376				; 00000178H
	call	??1?$CStringT@GV?$StrTraitMFC@GV?$ChTraitsCRT@G@ATL@@@@@ATL@@QAE@XZ ; ATL::CStringT<unsigned short,StrTraitMFC<unsigned short,ATL::ChTraitsCRT<unsigned short> > >::~CStringT<unsigned short,StrTraitMFC<unsigned short,ATL::ChTraitsCRT<unsigned short> > >
	mov	BYTE PTR __$EHRec$[ebp+8], 2
	mov	ecx, DWORD PTR _this$[ebp]
	add	ecx, 204				; 000000ccH
	call	??1CDReportText@@UAE@XZ
	mov	BYTE PTR __$EHRec$[ebp+8], 1
	mov	ecx, DWORD PTR _this$[ebp]
	add	ecx, 124				; 0000007cH
	call	??1CWSpell@@UAE@XZ
	mov	BYTE PTR __$EHRec$[ebp+8], 0
	mov	ecx, DWORD PTR _this$[ebp]
	add	ecx, 116				; 00000074H
	call	??1?$CStringT@GV?$StrTraitMFC@GV?$ChTraitsCRT@G@ATL@@@@@ATL@@QAE@XZ ; ATL::CStringT<unsigned short,StrTraitMFC<unsigned short,ATL::ChTraitsCRT<unsigned short> > >::~CStringT<unsigned short,StrTraitMFC<unsigned short,ATL::ChTraitsCRT<unsigned short> > >
	mov	DWORD PTR __$EHRec$[ebp+8], -1
	mov	ecx, DWORD PTR _this$[ebp]
	call	??1CDialog@@UAE@XZ			; CDialog::~CDialog
	mov	ecx, DWORD PTR __$EHRec$[ebp]
	mov	DWORD PTR fs:__except_list, ecx
	pop	edi
	pop	esi
	pop	ebx
	add	esp, 216				; 000000d8H
	cmp	ebp, esp
	call	__RTC_CheckEsp
	mov	esp, ebp
	pop	ebp
	ret	0
_TEXT	ENDS
;	COMDAT text$x
text$x	SEGMENT
__unwindfunclet$??1CReportEdit@@UAE@XZ$0:
	mov	ecx, DWORD PTR _this$[ebp]
	jmp	??1CDialog@@UAE@XZ			; CDialog::~CDialog
__unwindfunclet$??1CReportEdit@@UAE@XZ$1:
	mov	ecx, DWORD PTR _this$[ebp]
	add	ecx, 116				; 00000074H
	jmp	??1?$CStringT@GV?$StrTraitMFC@GV?$ChTraitsCRT@G@ATL@@@@@ATL@@QAE@XZ ; ATL::CStringT<unsigned short,StrTraitMFC<unsigned short,ATL::ChTraitsCRT<unsigned short> > >::~CStringT<unsigned short,StrTraitMFC<unsigned short,ATL::ChTraitsCRT<unsigned short> > >
__unwindfunclet$??1CReportEdit@@UAE@XZ$2:
	mov	ecx, DWORD PTR _this$[ebp]
	add	ecx, 124				; 0000007cH
	jmp	??1CWSpell@@UAE@XZ
__unwindfunclet$??1CReportEdit@@UAE@XZ$3:
	mov	ecx, DWORD PTR _this$[ebp]
	add	ecx, 204				; 000000ccH
	jmp	??1CDReportText@@UAE@XZ
__unwindfunclet$??1CReportEdit@@UAE@XZ$4:
	mov	ecx, DWORD PTR _this$[ebp]
	add	ecx, 376				; 00000178H
	jmp	??1?$CStringT@GV?$StrTraitMFC@GV?$ChTraitsCRT@G@ATL@@@@@ATL@@QAE@XZ ; ATL::CStringT<unsigned short,StrTraitMFC<unsigned short,ATL::ChTraitsCRT<unsigned short> > >::~CStringT<unsigned short,StrTraitMFC<unsigned short,ATL::ChTraitsCRT<unsigned short> > >
__unwindfunclet$??1CReportEdit@@UAE@XZ$5:
	mov	ecx, DWORD PTR _this$[ebp]
	add	ecx, 380				; 0000017cH
	jmp	??1?$CStringT@GV?$StrTraitMFC@GV?$ChTraitsCRT@G@ATL@@@@@ATL@@QAE@XZ ; ATL::CStringT<unsigned short,StrTraitMFC<unsigned short,ATL::ChTraitsCRT<unsigned short> > >::~CStringT<unsigned short,StrTraitMFC<unsigned short,ATL::ChTraitsCRT<unsigned short> > >
__ehhandler$??1CReportEdit@@UAE@XZ:
	mov	eax, OFFSET FLAT:__ehfuncinfo$??1CReportEdit@@UAE@XZ
	jmp	___CxxFrameHandler
text$x	ENDS
??1CReportEdit@@UAE@XZ ENDP				; CReportEdit::~CReportEdit
; Function compile flags: /Odt /RTCcsu /ZI
;	COMDAT ??_GCWSpell@@UAEPAXI@Z
_TEXT	SEGMENT
_this$ = -8						; size = 4
___flags$ = 8						; size = 4
??_GCWSpell@@UAEPAXI@Z PROC NEAR			; CWSpell::`scalar deleting destructor', COMDAT
; _this$ = ecx
	push	ebp
	mov	ebp, esp
	sub	esp, 204				; 000000ccH
	push	ebx
	push	esi
	push	edi
	push	ecx
	lea	edi, DWORD PTR [ebp-204]
	mov	ecx, 51					; 00000033H
	mov	eax, -858993460				; ccccccccH
	rep stosd
	pop	ecx
	mov	DWORD PTR _this$[ebp], ecx
	mov	ecx, DWORD PTR _this$[ebp]
	call	??1CWSpell@@UAE@XZ
	mov	eax, DWORD PTR ___flags$[ebp]
	and	eax, 1
	je	SHORT $L93832
	mov	eax, DWORD PTR _this$[ebp]
	push	eax
	call	??3CObject@@SGXPAX@Z			; CObject::operator delete
$L93832:
	mov	eax, DWORD PTR _this$[ebp]
	pop	edi
	pop	esi
	pop	ebx
	add	esp, 204				; 000000ccH
	cmp	ebp, esp
	call	__RTC_CheckEsp
	mov	esp, ebp
	pop	ebp
	ret	4
??_GCWSpell@@UAEPAXI@Z ENDP				; CWSpell::`scalar deleting destructor'
; Function compile flags: /Odt /RTCcsu /ZI
_TEXT	ENDS
;	COMDAT ??_GCTabctrlctrl1@@UAEPAXI@Z
_TEXT	SEGMENT
_this$ = -8						; size = 4
___flags$ = 8						; size = 4
??_GCTabctrlctrl1@@UAEPAXI@Z PROC NEAR			; CTabctrlctrl1::`scalar deleting destructor', COMDAT
; _this$ = ecx
	push	ebp
	mov	ebp, esp
	sub	esp, 204				; 000000ccH
	push	ebx
	push	esi
	push	edi
	push	ecx
	lea	edi, DWORD PTR [ebp-204]
	mov	ecx, 51					; 00000033H
	mov	eax, -858993460				; ccccccccH
	rep stosd
	pop	ecx
	mov	DWORD PTR _this$[ebp], ecx
	mov	ecx, DWORD PTR _this$[ebp]
	call	??1CTabctrlctrl1@@UAE@XZ
	mov	eax, DWORD PTR ___flags$[ebp]
	and	eax, 1
	je	SHORT $L93835
	mov	eax, DWORD PTR _this$[ebp]
	push	eax
	call	??3CObject@@SGXPAX@Z			; CObject::operator delete
$L93835:
	mov	eax, DWORD PTR _this$[ebp]
	pop	edi
	pop	esi
	pop	ebx
	add	esp, 204				; 000000ccH
	cmp	ebp, esp
	call	__RTC_CheckEsp
	mov	esp, ebp
	pop	ebp
	ret	4
??_GCTabctrlctrl1@@UAEPAXI@Z ENDP			; CTabctrlctrl1::`scalar deleting destructor'
_TEXT	ENDS
EXTRN	?DDX_Text@@YGXPAVCDataExchange@@HAAH@Z:NEAR	; DDX_Text
EXTRN	?DDX_Text@@YGXPAVCDataExchange@@HAAV?$CStringT@GV?$StrTraitMFC@GV?$ChTraitsCRT@G@ATL@@@@@ATL@@@Z:NEAR ; DDX_Text
EXTRN	?DDX_CBIndex@@YGXPAVCDataExchange@@HAAH@Z:NEAR	; DDX_CBIndex
EXTRN	?DDX_Control@@YGXPAVCDataExchange@@HAAVCWnd@@@Z:NEAR ; DDX_Control
; Function compile flags: /Odt /RTCcsu /ZI
; File c:\astrow32dev\tbt32\reportedit.cpp
;	COMDAT ?DoDataExchange@CReportEdit@@MAEXPAVCDataExchange@@@Z
_TEXT	SEGMENT
_this$ = -8						; size = 4
_pDX$ = 8						; size = 4
?DoDataExchange@CReportEdit@@MAEXPAVCDataExchange@@@Z PROC NEAR ; CReportEdit::DoDataExchange, COMDAT
; _this$ = ecx

; 36   : {

	push	ebp
	mov	ebp, esp
	sub	esp, 204				; 000000ccH
	push	ebx
	push	esi
	push	edi
	push	ecx
	lea	edi, DWORD PTR [ebp-204]
	mov	ecx, 51					; 00000033H
	mov	eax, -858993460				; ccccccccH
	rep stosd
	pop	ecx
	mov	DWORD PTR _this$[ebp], ecx

; 37   : 	CDialog::DoDataExchange(pDX);

	mov	eax, DWORD PTR _pDX$[ebp]
	push	eax
	mov	ecx, DWORD PTR _this$[ebp]
	call	?DoDataExchange@CWnd@@MAEXPAVCDataExchange@@@Z ; CWnd::DoDataExchange

; 38   : 	//{{AFX_DATA_MAP(CReportEdit)
; 39   : 	DDX_Text(pDX, IDC_INDEX, m_Index);

	mov	eax, DWORD PTR _this$[ebp]
	add	eax, 112				; 00000070H
	push	eax
	push	1009					; 000003f1H
	mov	ecx, DWORD PTR _pDX$[ebp]
	push	ecx
	call	?DDX_Text@@YGXPAVCDataExchange@@HAAH@Z	; DDX_Text

; 40   : 	DDX_Text(pDX, IDC_TEXT, m_Text);

	mov	eax, DWORD PTR _this$[ebp]
	add	eax, 116				; 00000074H
	push	eax
	push	1004					; 000003ecH
	mov	ecx, DWORD PTR _pDX$[ebp]
	push	ecx
	call	?DDX_Text@@YGXPAVCDataExchange@@HAAV?$CStringT@GV?$StrTraitMFC@GV?$ChTraitsCRT@G@ATL@@@@@ATL@@@Z ; DDX_Text

; 41   : 	DDX_CBIndex(pDX, IDC_TEXTID, m_TextId);

	mov	eax, DWORD PTR _this$[ebp]
	add	eax, 120				; 00000078H
	push	eax
	push	1008					; 000003f0H
	mov	ecx, DWORD PTR _pDX$[ebp]
	push	ecx
	call	?DDX_CBIndex@@YGXPAVCDataExchange@@HAAH@Z ; DDX_CBIndex

; 42   : 	DDX_Control(pDX, IDC_WSPELLCTRL1, m_ctrl);

	mov	eax, DWORD PTR _this$[ebp]
	add	eax, 124				; 0000007cH
	push	eax
	push	1023					; 000003ffH
	mov	ecx, DWORD PTR _pDX$[ebp]
	push	ecx
	call	?DDX_Control@@YGXPAVCDataExchange@@HAAVCWnd@@@Z ; DDX_Control

; 43   : 	//}}AFX_DATA_MAP
; 44   : 	DDX_Control(pDX, IDC_TABCTRLCTRL1, m_tabctrl);

	mov	eax, DWORD PTR _this$[ebp]
	add	eax, 392				; 00000188H
	push	eax
	push	1026					; 00000402H
	mov	ecx, DWORD PTR _pDX$[ebp]
	push	ecx
	call	?DDX_Control@@YGXPAVCDataExchange@@HAAVCWnd@@@Z ; DDX_Control

; 45   : }

	pop	edi
	pop	esi
	pop	ebx
	add	esp, 204				; 000000ccH
	cmp	ebp, esp
	call	__RTC_CheckEsp
	mov	esp, ebp
	pop	ebp
	ret	4
?DoDataExchange@CReportEdit@@MAEXPAVCDataExchange@@@Z ENDP ; CReportEdit::DoDataExchange
; Function compile flags: /Odt /RTCcsu /ZI
_TEXT	ENDS
;	COMDAT ?GetMessageMap@CReportEdit@@MBEPBUAFX_MSGMAP@@XZ
_TEXT	SEGMENT
_this$ = -8						; size = 4
?GetMessageMap@CReportEdit@@MBEPBUAFX_MSGMAP@@XZ PROC NEAR ; CReportEdit::GetMessageMap, COMDAT
; _this$ = ecx

; 48   : BEGIN_MESSAGE_MAP(CReportEdit, CDialog)

	push	ebp
	mov	ebp, esp
	sub	esp, 204				; 000000ccH
	push	ebx
	push	esi
	push	edi
	push	ecx
	lea	edi, DWORD PTR [ebp-204]
	mov	ecx, 51					; 00000033H
	mov	eax, -858993460				; ccccccccH
	rep stosd
	pop	ecx
	mov	DWORD PTR _this$[ebp], ecx
	mov	eax, OFFSET FLAT:?messageMap@CReportEdit@@1UAFX_MSGMAP@@B ; CReportEdit::messageMap
	pop	edi
	pop	esi
	pop	ebx
	mov	esp, ebp
	pop	ebp
	ret	0
?GetMessageMap@CReportEdit@@MBEPBUAFX_MSGMAP@@XZ ENDP	; CReportEdit::GetMessageMap
_TEXT	ENDS
EXTRN	?OnCancel@CDialog@@MAEXXZ:NEAR			; CDialog::OnCancel
; Function compile flags: /Odt /RTCcsu /ZI
;	COMDAT ?OnCancel@CReportEdit@@MAEXXZ
_TEXT	SEGMENT
_this$ = -8						; size = 4
?OnCancel@CReportEdit@@MAEXXZ PROC NEAR			; CReportEdit::OnCancel, COMDAT
; _this$ = ecx

; 85   : {

	push	ebp
	mov	ebp, esp
	sub	esp, 204				; 000000ccH
	push	ebx
	push	esi
	push	edi
	push	ecx
	lea	edi, DWORD PTR [ebp-204]
	mov	ecx, 51					; 00000033H
	mov	eax, -858993460				; ccccccccH
	rep stosd
	pop	ecx
	mov	DWORD PTR _this$[ebp], ecx

; 86   : 	// TODO: Add extra cleanup here
; 87   : 	
; 88   : 	CDialog::OnCancel();

	mov	ecx, DWORD PTR _this$[ebp]
	call	?OnCancel@CDialog@@MAEXXZ		; CDialog::OnCancel

; 89   : }

	pop	edi
	pop	esi
	pop	ebx
	add	esp, 204				; 000000ccH
	cmp	ebp, esp
	call	__RTC_CheckEsp
	mov	esp, ebp
	pop	ebp
	ret	0
?OnCancel@CReportEdit@@MAEXXZ ENDP			; CReportEdit::OnCancel
_TEXT	ENDS
PUBLIC	?Modified@RTFFuncs@@QAEHH@Z			; RTFFuncs::Modified
PUBLIC	?Save@CReportEdit@@IAEHXZ			; CReportEdit::Save
PUBLIC	?GetLength@?$CSimpleStringT@G$0A@@ATL@@QBEHXZ	; ATL::CSimpleStringT<unsigned short,0>::GetLength
PUBLIC	??_C@_1CG@MLINDNFI@?$AAR?$AAe?$AAc?$AAo?$AAr?$AAd?$AA?5?$AAi?$AAs?$AA?5?$AAM?$AAo?$AAd?$AAi?$AAf?$AAi?$AAe?$AAd?$AA?$AA@ ; `string'
PUBLIC	??_C@_1EA@ECMOPAHL@?$AAD?$AAo?$AA?5?$AAY?$AAo?$AAu?$AA?5?$AAW?$AAa?$AAn?$AAt?$AA?5?$AAt?$AAo?$AA?5?$AAS?$AAa?$AAv?$AAe?$AA?5@ ; `string'
EXTRN	?OnOK@CDialog@@MAEXXZ:NEAR			; CDialog::OnOK
EXTRN	?MessageBoxW@CWnd@@QAEHPBG0I@Z:NEAR		; CWnd::MessageBoxW
EXTRN	?UpdateData@CWnd@@QAEHH@Z:NEAR			; CWnd::UpdateData
;	COMDAT ??_C@_1CG@MLINDNFI@?$AAR?$AAe?$AAc?$AAo?$AAr?$AAd?$AA?5?$AAi?$AAs?$AA?5?$AAM?$AAo?$AAd?$AAi?$AAf?$AAi?$AAe?$AAd?$AA?$AA@
CONST	SEGMENT
??_C@_1CG@MLINDNFI@?$AAR?$AAe?$AAc?$AAo?$AAr?$AAd?$AA?5?$AAi?$AAs?$AA?5?$AAM?$AAo?$AAd?$AAi?$AAf?$AAi?$AAe?$AAd?$AA?$AA@ DB 'R'
	DB	00H, 'e', 00H, 'c', 00H, 'o', 00H, 'r', 00H, 'd', 00H, ' ', 00H
	DB	'i', 00H, 's', 00H, ' ', 00H, 'M', 00H, 'o', 00H, 'd', 00H, 'i'
	DB	00H, 'f', 00H, 'i', 00H, 'e', 00H, 'd', 00H, 00H, 00H ; `string'
CONST	ENDS
;	COMDAT ??_C@_1EA@ECMOPAHL@?$AAD?$AAo?$AA?5?$AAY?$AAo?$AAu?$AA?5?$AAW?$AAa?$AAn?$AAt?$AA?5?$AAt?$AAo?$AA?5?$AAS?$AAa?$AAv?$AAe?$AA?5@
CONST	SEGMENT
??_C@_1EA@ECMOPAHL@?$AAD?$AAo?$AA?5?$AAY?$AAo?$AAu?$AA?5?$AAW?$AAa?$AAn?$AAt?$AA?5?$AAt?$AAo?$AA?5?$AAS?$AAa?$AAv?$AAe?$AA?5@ DB 'D'
	DB	00H, 'o', 00H, ' ', 00H, 'Y', 00H, 'o', 00H, 'u', 00H, ' ', 00H
	DB	'W', 00H, 'a', 00H, 'n', 00H, 't', 00H, ' ', 00H, 't', 00H, 'o'
	DB	00H, ' ', 00H, 'S', 00H, 'a', 00H, 'v', 00H, 'e', 00H, ' ', 00H
	DB	'T', 00H, 'h', 00H, 'i', 00H, 's', 00H, ' ', 00H, 'E', 00H, 'n'
	DB	00H, 't', 00H, 'r', 00H, 'y', 00H, '?', 00H, 00H, 00H ; `string'
; Function compile flags: /Odt /RTCcsu /ZI
CONST	ENDS
;	COMDAT ?OnOK@CReportEdit@@MAEXXZ
_TEXT	SEGMENT
_this$ = -8						; size = 4
?OnOK@CReportEdit@@MAEXXZ PROC NEAR			; CReportEdit::OnOK, COMDAT
; _this$ = ecx

; 92   : {

	push	ebp
	mov	ebp, esp
	sub	esp, 204				; 000000ccH
	push	ebx
	push	esi
	push	edi
	push	ecx
	lea	edi, DWORD PTR [ebp-204]
	mov	ecx, 51					; 00000033H
	mov	eax, -858993460				; ccccccccH
	rep stosd
	pop	ecx
	mov	DWORD PTR _this$[ebp], ecx

; 93   : 	// TODO: Add extra validation here
; 94   : 	UpdateData(TRUE);

	push	1
	mov	ecx, DWORD PTR _this$[ebp]
	call	?UpdateData@CWnd@@QAEHH@Z		; CWnd::UpdateData

; 95   : 	if ( m_TextIdStr.GetLength() > 0 ) {

	mov	ecx, DWORD PTR _this$[ebp]
	add	ecx, 376				; 00000178H
	call	?GetLength@?$CSimpleStringT@G$0A@@ATL@@QBEHXZ ; ATL::CSimpleStringT<unsigned short,0>::GetLength
	test	eax, eax
	jle	SHORT $L93974

; 96   : 		if ( pFuncs->Modified(IDC_TEXT) ) {

	push	1004					; 000003ecH
	mov	eax, DWORD PTR _this$[ebp]
	mov	ecx, DWORD PTR [eax+388]
	call	?Modified@RTFFuncs@@QAEHH@Z		; RTFFuncs::Modified
	test	eax, eax
	je	SHORT $L93974

; 97   : 		   if ( MessageBox(_T("Do You Want to Save This Entry?"), _T("Record is Modified"), MB_ICONQUESTION|MB_YESNO ) == IDYES )

	push	36					; 00000024H
	push	OFFSET FLAT:??_C@_1CG@MLINDNFI@?$AAR?$AAe?$AAc?$AAo?$AAr?$AAd?$AA?5?$AAi?$AAs?$AA?5?$AAM?$AAo?$AAd?$AAi?$AAf?$AAi?$AAe?$AAd?$AA?$AA@
	push	OFFSET FLAT:??_C@_1EA@ECMOPAHL@?$AAD?$AAo?$AA?5?$AAY?$AAo?$AAu?$AA?5?$AAW?$AAa?$AAn?$AAt?$AA?5?$AAt?$AAo?$AA?5?$AAS?$AAa?$AAv?$AAe?$AA?5@
	mov	ecx, DWORD PTR _this$[ebp]
	call	?MessageBoxW@CWnd@@QAEHPBG0I@Z		; CWnd::MessageBoxW
	cmp	eax, 6
	jne	SHORT $L93974

; 98   : 			   Save();

	mov	ecx, DWORD PTR _this$[ebp]
	call	?Save@CReportEdit@@IAEHXZ		; CReportEdit::Save
$L93974:

; 99   : 			}
; 100  : 	}
; 101  : 	CDialog::OnOK();

	mov	ecx, DWORD PTR _this$[ebp]
	call	?OnOK@CDialog@@MAEXXZ			; CDialog::OnOK

; 102  : }

	pop	edi
	pop	esi
	pop	ebx
	add	esp, 204				; 000000ccH
	cmp	ebp, esp
	call	__RTC_CheckEsp
	mov	esp, ebp
	pop	ebp
	ret	0
?OnOK@CReportEdit@@MAEXXZ ENDP				; CReportEdit::OnOK
_TEXT	ENDS
PUBLIC	?GetCtrl@RTFFuncs@@AAEPAVCRichEditCtrl@@H@Z	; RTFFuncs::GetCtrl
EXTRN	?GetModify@CRichEditCtrl@@QBEHXZ:NEAR		; CRichEditCtrl::GetModify
; Function compile flags: /Odt /RTCcsu /ZI
; File c:\astrow32dev\tbt32\rtffuncs.h
;	COMDAT ?Modified@RTFFuncs@@QAEHH@Z
_TEXT	SEGMENT
_this$ = -8						; size = 4
_id$ = 8						; size = 4
?Modified@RTFFuncs@@QAEHH@Z PROC NEAR			; RTFFuncs::Modified, COMDAT
; _this$ = ecx

; 36   :    BOOL Modified(int id) { return (GetCtrl(id)->GetModify() ); }

	push	ebp
	mov	ebp, esp
	sub	esp, 204				; 000000ccH
	push	ebx
	push	esi
	push	edi
	push	ecx
	lea	edi, DWORD PTR [ebp-204]
	mov	ecx, 51					; 00000033H
	mov	eax, -858993460				; ccccccccH
	rep stosd
	pop	ecx
	mov	DWORD PTR _this$[ebp], ecx
	mov	eax, DWORD PTR _id$[ebp]
	push	eax
	mov	ecx, DWORD PTR _this$[ebp]
	call	?GetCtrl@RTFFuncs@@AAEPAVCRichEditCtrl@@H@Z ; RTFFuncs::GetCtrl
	mov	ecx, eax
	call	?GetModify@CRichEditCtrl@@QBEHXZ	; CRichEditCtrl::GetModify
	pop	edi
	pop	esi
	pop	ebx
	add	esp, 204				; 000000ccH
	cmp	ebp, esp
	call	__RTC_CheckEsp
	mov	esp, ebp
	pop	ebp
	ret	4
?Modified@RTFFuncs@@QAEHH@Z ENDP			; RTFFuncs::Modified
_TEXT	ENDS
EXTRN	?GetDlgItem@CWnd@@QBEPAV1@H@Z:NEAR		; CWnd::GetDlgItem
; Function compile flags: /Odt /RTCcsu /ZI
;	COMDAT ?GetCtrl@RTFFuncs@@AAEPAVCRichEditCtrl@@H@Z
_TEXT	SEGMENT
_this$ = -8						; size = 4
_id$ = 8						; size = 4
?GetCtrl@RTFFuncs@@AAEPAVCRichEditCtrl@@H@Z PROC NEAR	; RTFFuncs::GetCtrl, COMDAT
; _this$ = ecx

; 16   :    CRichEditCtrl *GetCtrl(int id) { return ((CRichEditCtrl *)pDialog->GetDlgItem(id));}

	push	ebp
	mov	ebp, esp
	sub	esp, 204				; 000000ccH
	push	ebx
	push	esi
	push	edi
	push	ecx
	lea	edi, DWORD PTR [ebp-204]
	mov	ecx, 51					; 00000033H
	mov	eax, -858993460				; ccccccccH
	rep stosd
	pop	ecx
	mov	DWORD PTR _this$[ebp], ecx
	mov	eax, DWORD PTR _id$[ebp]
	push	eax
	mov	ecx, DWORD PTR _this$[ebp]
	mov	ecx, DWORD PTR [ecx+12]
	call	?GetDlgItem@CWnd@@QBEPAV1@H@Z		; CWnd::GetDlgItem
	pop	edi
	pop	esi
	pop	ebx
	add	esp, 204				; 000000ccH
	cmp	ebp, esp
	call	__RTC_CheckEsp
	mov	esp, ebp
	pop	ebp
	ret	4
?GetCtrl@RTFFuncs@@AAEPAVCRichEditCtrl@@H@Z ENDP	; RTFFuncs::GetCtrl
_TEXT	ENDS
PUBLIC	?Find@CReportEdit@@IAEHXZ			; CReportEdit::Find
PUBLIC	??B?$CSimpleStringT@G$0A@@ATL@@QBEPBGXZ		; ATL::CSimpleStringT<unsigned short,0>::operator unsigned short const *
EXTRN	?GetCurSel@CComboBox@@QBEHXZ:NEAR		; CComboBox::GetCurSel
EXTRN	?GetLBText@CComboBox@@QBEXHAAV?$CStringT@GV?$StrTraitMFC@GV?$ChTraitsCRT@G@ATL@@@@@ATL@@@Z:NEAR ; CComboBox::GetLBText
EXTRN	?SelectString@CComboBox@@QAEHHPBG@Z:NEAR	; CComboBox::SelectString
EXTRN	?GetWindowTextW@CWnd@@QBEXAAV?$CStringT@GV?$StrTraitMFC@GV?$ChTraitsCRT@G@ATL@@@@@ATL@@@Z:NEAR ; CWnd::GetWindowTextW
; Function compile flags: /Odt /RTCcsu /ZI
; File c:\astrow32dev\tbt32\reportedit.cpp
;	COMDAT ?OnSelchangeTextid@CReportEdit@@IAEXXZ
_TEXT	SEGMENT
_sel$ = -32						; size = 4
_pbox$ = -20						; size = 4
_this$ = -8						; size = 4
?OnSelchangeTextid@CReportEdit@@IAEXXZ PROC NEAR	; CReportEdit::OnSelchangeTextid, COMDAT
; _this$ = ecx

; 105  : {

	push	ebp
	mov	ebp, esp
	sub	esp, 228				; 000000e4H
	push	ebx
	push	esi
	push	edi
	push	ecx
	lea	edi, DWORD PTR [ebp-228]
	mov	ecx, 57					; 00000039H
	mov	eax, -858993460				; ccccccccH
	rep stosd
	pop	ecx
	mov	DWORD PTR _this$[ebp], ecx

; 106  : 	// TODO: Add your control notification handler code here
; 107  : 	if ( m_TextIdStr.GetLength() > 0 ) {

	mov	ecx, DWORD PTR _this$[ebp]
	add	ecx, 376				; 00000178H
	call	?GetLength@?$CSimpleStringT@G$0A@@ATL@@QBEHXZ ; ATL::CSimpleStringT<unsigned short,0>::GetLength
	test	eax, eax
	jle	SHORT $L93982

; 108  : 		if ( pFuncs->Modified(IDC_TEXT) ) {

	push	1004					; 000003ecH
	mov	eax, DWORD PTR _this$[ebp]
	mov	ecx, DWORD PTR [eax+388]
	call	?Modified@RTFFuncs@@QAEHH@Z		; RTFFuncs::Modified
	test	eax, eax
	je	SHORT $L93982

; 109  : 		   if ( MessageBox(_T("Do You Want to Save This Entry?"), _T("Record is Modified"), MB_ICONQUESTION|MB_YESNO ) == IDYES )

	push	36					; 00000024H
	push	OFFSET FLAT:??_C@_1CG@MLINDNFI@?$AAR?$AAe?$AAc?$AAo?$AAr?$AAd?$AA?5?$AAi?$AAs?$AA?5?$AAM?$AAo?$AAd?$AAi?$AAf?$AAi?$AAe?$AAd?$AA?$AA@
	push	OFFSET FLAT:??_C@_1EA@ECMOPAHL@?$AAD?$AAo?$AA?5?$AAY?$AAo?$AAu?$AA?5?$AAW?$AAa?$AAn?$AAt?$AA?5?$AAt?$AAo?$AA?5?$AAS?$AAa?$AAv?$AAe?$AA?5@
	mov	ecx, DWORD PTR _this$[ebp]
	call	?MessageBoxW@CWnd@@QAEHPBG0I@Z		; CWnd::MessageBoxW
	cmp	eax, 6
	jne	SHORT $L93982

; 110  : 			   Save();

	mov	ecx, DWORD PTR _this$[ebp]
	call	?Save@CReportEdit@@IAEHXZ		; CReportEdit::Save
$L93982:

; 111  : 			}
; 112  : 	}
; 113  : 	CComboBox *pbox = (CComboBox *)GetDlgItem(IDC_TEXTID);

	push	1008					; 000003f0H
	mov	ecx, DWORD PTR _this$[ebp]
	call	?GetDlgItem@CWnd@@QBEPAV1@H@Z		; CWnd::GetDlgItem
	mov	DWORD PTR _pbox$[ebp], eax

; 114  : 	int sel = pbox->GetCurSel();

	mov	ecx, DWORD PTR _pbox$[ebp]
	call	?GetCurSel@CComboBox@@QBEHXZ		; CComboBox::GetCurSel
	mov	DWORD PTR _sel$[ebp], eax

; 115  :     if ( sel != CB_ERR )

	cmp	DWORD PTR _sel$[ebp], -1
	je	SHORT $L93988

; 116  : 		pbox->GetLBText(sel,m_TextIdStr);

	mov	eax, DWORD PTR _this$[ebp]
	add	eax, 376				; 00000178H
	push	eax
	mov	ecx, DWORD PTR _sel$[ebp]
	push	ecx
	mov	ecx, DWORD PTR _pbox$[ebp]
	call	?GetLBText@CComboBox@@QBEXHAAV?$CStringT@GV?$StrTraitMFC@GV?$ChTraitsCRT@G@ATL@@@@@ATL@@@Z ; CComboBox::GetLBText

; 117  : 	else

	jmp	SHORT $L93989
$L93988:

; 118  : 	    pbox->GetWindowText(m_TextIdStr);

	mov	eax, DWORD PTR _this$[ebp]
	add	eax, 376				; 00000178H
	push	eax
	mov	ecx, DWORD PTR _pbox$[ebp]
	call	?GetWindowTextW@CWnd@@QBEXAAV?$CStringT@GV?$StrTraitMFC@GV?$ChTraitsCRT@G@ATL@@@@@ATL@@@Z ; CWnd::GetWindowTextW
$L93989:

; 119  : 	m_Index = 0;

	mov	eax, DWORD PTR _this$[ebp]
	mov	DWORD PTR [eax+112], 0

; 120  : 	UpdateData(FALSE);

	push	0
	mov	ecx, DWORD PTR _this$[ebp]
	call	?UpdateData@CWnd@@QAEHH@Z		; CWnd::UpdateData

; 121  : 	pbox->SelectString(0,m_TextIdStr);

	mov	ecx, DWORD PTR _this$[ebp]
	add	ecx, 376				; 00000178H
	call	??B?$CSimpleStringT@G$0A@@ATL@@QBEPBGXZ	; ATL::CSimpleStringT<unsigned short,0>::operator unsigned short const *
	push	eax
	push	0
	mov	ecx, DWORD PTR _pbox$[ebp]
	call	?SelectString@CComboBox@@QAEHHPBG@Z	; CComboBox::SelectString

; 122  :     Find();

	mov	ecx, DWORD PTR _this$[ebp]
	call	?Find@CReportEdit@@IAEHXZ		; CReportEdit::Find

; 123  :     
; 124  : }

	pop	edi
	pop	esi
	pop	ebx
	add	esp, 228				; 000000e4H
	cmp	ebp, esp
	call	__RTC_CheckEsp
	mov	esp, ebp
	pop	ebp
	ret	0
?OnSelchangeTextid@CReportEdit@@IAEXXZ ENDP		; CReportEdit::OnSelchangeTextid
; Function compile flags: /Odt /RTCcsu /ZI
_TEXT	ENDS
;	COMDAT ?OnChangeIndex@CReportEdit@@IAEXXZ
_TEXT	SEGMENT
_this$ = -8						; size = 4
?OnChangeIndex@CReportEdit@@IAEXXZ PROC NEAR		; CReportEdit::OnChangeIndex, COMDAT
; _this$ = ecx

; 127  : {

	push	ebp
	mov	ebp, esp
	sub	esp, 204				; 000000ccH
	push	ebx
	push	esi
	push	edi
	push	ecx
	lea	edi, DWORD PTR [ebp-204]
	mov	ecx, 51					; 00000033H
	mov	eax, -858993460				; ccccccccH
	rep stosd
	pop	ecx
	mov	DWORD PTR _this$[ebp], ecx

; 128  : 	// TODO: If this is a RICHEDIT control, the control will not
; 129  : 	// send this notification unless you override the CDialog::OnInitDialog()
; 130  : 	// function and call CRichEditCtrl().SetEventMask()
; 131  : 	// with the ENM_CHANGE flag ORed into the mask.
; 132  : 	
; 133  : 	// TODO: Add your control notification handler code here
; 134  :     if ( m_TextIdStr.GetLength() > 0 ) {

	mov	ecx, DWORD PTR _this$[ebp]
	add	ecx, 376				; 00000178H
	call	?GetLength@?$CSimpleStringT@G$0A@@ATL@@QBEHXZ ; ATL::CSimpleStringT<unsigned short,0>::GetLength
	test	eax, eax
	jle	SHORT $L93992

; 135  : 		if ( pFuncs->Modified(IDC_TEXT) ) {

	push	1004					; 000003ecH
	mov	eax, DWORD PTR _this$[ebp]
	mov	ecx, DWORD PTR [eax+388]
	call	?Modified@RTFFuncs@@QAEHH@Z		; RTFFuncs::Modified
	test	eax, eax
	je	SHORT $L93994

; 136  : 		   if ( MessageBox(_T("Do You Want to Save This Entry?"), _T("Record is Modified"), MB_ICONQUESTION|MB_YESNO ) == IDYES )

	push	36					; 00000024H
	push	OFFSET FLAT:??_C@_1CG@MLINDNFI@?$AAR?$AAe?$AAc?$AAo?$AAr?$AAd?$AA?5?$AAi?$AAs?$AA?5?$AAM?$AAo?$AAd?$AAi?$AAf?$AAi?$AAe?$AAd?$AA?$AA@
	push	OFFSET FLAT:??_C@_1EA@ECMOPAHL@?$AAD?$AAo?$AA?5?$AAY?$AAo?$AAu?$AA?5?$AAW?$AAa?$AAn?$AAt?$AA?5?$AAt?$AAo?$AA?5?$AAS?$AAa?$AAv?$AAe?$AA?5@
	mov	ecx, DWORD PTR _this$[ebp]
	call	?MessageBoxW@CWnd@@QAEHPBG0I@Z		; CWnd::MessageBoxW
	cmp	eax, 6
	jne	SHORT $L93994

; 137  : 			   Save();

	mov	ecx, DWORD PTR _this$[ebp]
	call	?Save@CReportEdit@@IAEHXZ		; CReportEdit::Save
$L93994:

; 138  : 			}
; 139  : 	   UpdateData(TRUE);

	push	1
	mov	ecx, DWORD PTR _this$[ebp]
	call	?UpdateData@CWnd@@QAEHH@Z		; CWnd::UpdateData

; 140  : 	   Find();

	mov	ecx, DWORD PTR _this$[ebp]
	call	?Find@CReportEdit@@IAEHXZ		; CReportEdit::Find
$L93992:

; 141  : 	}
; 142  : }

	pop	edi
	pop	esi
	pop	ebx
	add	esp, 204				; 000000ccH
	cmp	ebp, esp
	call	__RTC_CheckEsp
	mov	esp, ebp
	pop	ebp
	ret	0
?OnChangeIndex@CReportEdit@@IAEXXZ ENDP			; CReportEdit::OnChangeIndex
_TEXT	ENDS
PUBLIC	?Paste@RTFFuncs@@QAEXH@Z			; RTFFuncs::Paste
; Function compile flags: /Odt /RTCcsu /ZI
;	COMDAT ?OnPaste@CReportEdit@@IAEXXZ
_TEXT	SEGMENT
_this$ = -8						; size = 4
?OnPaste@CReportEdit@@IAEXXZ PROC NEAR			; CReportEdit::OnPaste, COMDAT
; _this$ = ecx

; 145  : {

	push	ebp
	mov	ebp, esp
	sub	esp, 204				; 000000ccH
	push	ebx
	push	esi
	push	edi
	push	ecx
	lea	edi, DWORD PTR [ebp-204]
	mov	ecx, 51					; 00000033H
	mov	eax, -858993460				; ccccccccH
	rep stosd
	pop	ecx
	mov	DWORD PTR _this$[ebp], ecx

; 146  : 	// TODO: Add your command handler code here
; 147  : 	pFuncs->Paste(IDC_TEXT);

	push	1004					; 000003ecH
	mov	eax, DWORD PTR _this$[ebp]
	mov	ecx, DWORD PTR [eax+388]
	call	?Paste@RTFFuncs@@QAEXH@Z		; RTFFuncs::Paste

; 148  : }

	pop	edi
	pop	esi
	pop	ebx
	add	esp, 204				; 000000ccH
	cmp	ebp, esp
	call	__RTC_CheckEsp
	mov	esp, ebp
	pop	ebp
	ret	0
?OnPaste@CReportEdit@@IAEXXZ ENDP			; CReportEdit::OnPaste
_TEXT	ENDS
EXTRN	?Paste@CRichEditCtrl@@QAEXXZ:NEAR		; CRichEditCtrl::Paste
; Function compile flags: /Odt /RTCcsu /ZI
; File c:\astrow32dev\tbt32\rtffuncs.h
;	COMDAT ?Paste@RTFFuncs@@QAEXH@Z
_TEXT	SEGMENT
_this$ = -8						; size = 4
_id$ = 8						; size = 4
?Paste@RTFFuncs@@QAEXH@Z PROC NEAR			; RTFFuncs::Paste, COMDAT
; _this$ = ecx

; 32   :    void Paste( int id ) { GetCtrl(id)->Paste(); }

	push	ebp
	mov	ebp, esp
	sub	esp, 204				; 000000ccH
	push	ebx
	push	esi
	push	edi
	push	ecx
	lea	edi, DWORD PTR [ebp-204]
	mov	ecx, 51					; 00000033H
	mov	eax, -858993460				; ccccccccH
	rep stosd
	pop	ecx
	mov	DWORD PTR _this$[ebp], ecx
	mov	eax, DWORD PTR _id$[ebp]
	push	eax
	mov	ecx, DWORD PTR _this$[ebp]
	call	?GetCtrl@RTFFuncs@@AAEPAVCRichEditCtrl@@H@Z ; RTFFuncs::GetCtrl
	mov	ecx, eax
	call	?Paste@CRichEditCtrl@@QAEXXZ		; CRichEditCtrl::Paste
	pop	edi
	pop	esi
	pop	ebx
	add	esp, 204				; 000000ccH
	cmp	ebp, esp
	call	__RTC_CheckEsp
	mov	esp, ebp
	pop	ebp
	ret	4
?Paste@RTFFuncs@@QAEXH@Z ENDP				; RTFFuncs::Paste
; Function compile flags: /Odt /RTCcsu /ZI
; File c:\astrow32dev\tbt32\reportedit.cpp
_TEXT	ENDS
;	COMDAT ?OnUpdatePaste@CReportEdit@@IAEXPAVCCmdUI@@@Z
_TEXT	SEGMENT
_this$ = -8						; size = 4
_pCmdUI$ = 8						; size = 4
?OnUpdatePaste@CReportEdit@@IAEXPAVCCmdUI@@@Z PROC NEAR	; CReportEdit::OnUpdatePaste, COMDAT
; _this$ = ecx

; 151  : {

	push	ebp
	mov	ebp, esp
	sub	esp, 204				; 000000ccH
	push	ebx
	push	esi
	push	edi
	push	ecx
	lea	edi, DWORD PTR [ebp-204]
	mov	ecx, 51					; 00000033H
	mov	eax, -858993460				; ccccccccH
	rep stosd
	pop	ecx
	mov	DWORD PTR _this$[ebp], ecx

; 152  : 	// TODO: Add your command update UI handler code here
; 153  : 	pCmdUI->Enable();

	mov	esi, esp
	push	1
	mov	eax, DWORD PTR _pCmdUI$[ebp]
	mov	edx, DWORD PTR [eax]
	mov	ecx, DWORD PTR _pCmdUI$[ebp]
	call	DWORD PTR [edx]
	cmp	esi, esp
	call	__RTC_CheckEsp

; 154  : }

	pop	edi
	pop	esi
	pop	ebx
	add	esp, 204				; 000000ccH
	cmp	ebp, esp
	call	__RTC_CheckEsp
	mov	esp, ebp
	pop	ebp
	ret	4
?OnUpdatePaste@CReportEdit@@IAEXPAVCCmdUI@@@Z ENDP	; CReportEdit::OnUpdatePaste
_TEXT	ENDS
PUBLIC	?Cut@RTFFuncs@@QAEXH@Z				; RTFFuncs::Cut
; Function compile flags: /Odt /RTCcsu /ZI
;	COMDAT ?OnCut@CReportEdit@@IAEXXZ
_TEXT	SEGMENT
_this$ = -8						; size = 4
?OnCut@CReportEdit@@IAEXXZ PROC NEAR			; CReportEdit::OnCut, COMDAT
; _this$ = ecx

; 157  : {

	push	ebp
	mov	ebp, esp
	sub	esp, 204				; 000000ccH
	push	ebx
	push	esi
	push	edi
	push	ecx
	lea	edi, DWORD PTR [ebp-204]
	mov	ecx, 51					; 00000033H
	mov	eax, -858993460				; ccccccccH
	rep stosd
	pop	ecx
	mov	DWORD PTR _this$[ebp], ecx

; 158  : 	// TODO: Add your command handler code here
; 159  :    pFuncs->Cut(IDC_TEXT);

	push	1004					; 000003ecH
	mov	eax, DWORD PTR _this$[ebp]
	mov	ecx, DWORD PTR [eax+388]
	call	?Cut@RTFFuncs@@QAEXH@Z			; RTFFuncs::Cut

; 160  : }

	pop	edi
	pop	esi
	pop	ebx
	add	esp, 204				; 000000ccH
	cmp	ebp, esp
	call	__RTC_CheckEsp
	mov	esp, ebp
	pop	ebp
	ret	0
?OnCut@CReportEdit@@IAEXXZ ENDP				; CReportEdit::OnCut
_TEXT	ENDS
EXTRN	?Cut@CRichEditCtrl@@QAEXXZ:NEAR			; CRichEditCtrl::Cut
; Function compile flags: /Odt /RTCcsu /ZI
; File c:\astrow32dev\tbt32\rtffuncs.h
;	COMDAT ?Cut@RTFFuncs@@QAEXH@Z
_TEXT	SEGMENT
_this$ = -8						; size = 4
_id$ = 8						; size = 4
?Cut@RTFFuncs@@QAEXH@Z PROC NEAR			; RTFFuncs::Cut, COMDAT
; _this$ = ecx

; 31   :    void Cut( int id ) { GetCtrl(id)->Cut(); }

	push	ebp
	mov	ebp, esp
	sub	esp, 204				; 000000ccH
	push	ebx
	push	esi
	push	edi
	push	ecx
	lea	edi, DWORD PTR [ebp-204]
	mov	ecx, 51					; 00000033H
	mov	eax, -858993460				; ccccccccH
	rep stosd
	pop	ecx
	mov	DWORD PTR _this$[ebp], ecx
	mov	eax, DWORD PTR _id$[ebp]
	push	eax
	mov	ecx, DWORD PTR _this$[ebp]
	call	?GetCtrl@RTFFuncs@@AAEPAVCRichEditCtrl@@H@Z ; RTFFuncs::GetCtrl
	mov	ecx, eax
	call	?Cut@CRichEditCtrl@@QAEXXZ		; CRichEditCtrl::Cut
	pop	edi
	pop	esi
	pop	ebx
	add	esp, 204				; 000000ccH
	cmp	ebp, esp
	call	__RTC_CheckEsp
	mov	esp, ebp
	pop	ebp
	ret	4
?Cut@RTFFuncs@@QAEXH@Z ENDP				; RTFFuncs::Cut
; Function compile flags: /Odt /RTCcsu /ZI
; File c:\astrow32dev\tbt32\reportedit.cpp
_TEXT	ENDS
;	COMDAT ?OnUpdateCut@CReportEdit@@IAEXPAVCCmdUI@@@Z
_TEXT	SEGMENT
_this$ = -8						; size = 4
_pCmdUI$ = 8						; size = 4
?OnUpdateCut@CReportEdit@@IAEXPAVCCmdUI@@@Z PROC NEAR	; CReportEdit::OnUpdateCut, COMDAT
; _this$ = ecx

; 163  : {

	push	ebp
	mov	ebp, esp
	sub	esp, 204				; 000000ccH
	push	ebx
	push	esi
	push	edi
	push	ecx
	lea	edi, DWORD PTR [ebp-204]
	mov	ecx, 51					; 00000033H
	mov	eax, -858993460				; ccccccccH
	rep stosd
	pop	ecx
	mov	DWORD PTR _this$[ebp], ecx

; 164  : 	// TODO: Add your command update UI handler code here
; 165  : 	pCmdUI->Enable();

	mov	esi, esp
	push	1
	mov	eax, DWORD PTR _pCmdUI$[ebp]
	mov	edx, DWORD PTR [eax]
	mov	ecx, DWORD PTR _pCmdUI$[ebp]
	call	DWORD PTR [edx]
	cmp	esi, esp
	call	__RTC_CheckEsp

; 166  : }

	pop	edi
	pop	esi
	pop	ebx
	add	esp, 204				; 000000ccH
	cmp	ebp, esp
	call	__RTC_CheckEsp
	mov	esp, ebp
	pop	ebp
	ret	4
?OnUpdateCut@CReportEdit@@IAEXPAVCCmdUI@@@Z ENDP	; CReportEdit::OnUpdateCut
; Function compile flags: /Odt /RTCcsu /ZI
_TEXT	ENDS
;	COMDAT ?OnUpdateCopy@CReportEdit@@IAEXPAVCCmdUI@@@Z
_TEXT	SEGMENT
_this$ = -8						; size = 4
_pCmdUI$ = 8						; size = 4
?OnUpdateCopy@CReportEdit@@IAEXPAVCCmdUI@@@Z PROC NEAR	; CReportEdit::OnUpdateCopy, COMDAT
; _this$ = ecx

; 169  : {

	push	ebp
	mov	ebp, esp
	sub	esp, 204				; 000000ccH
	push	ebx
	push	esi
	push	edi
	push	ecx
	lea	edi, DWORD PTR [ebp-204]
	mov	ecx, 51					; 00000033H
	mov	eax, -858993460				; ccccccccH
	rep stosd
	pop	ecx
	mov	DWORD PTR _this$[ebp], ecx

; 170  : 	// TODO: Add your command update UI handler code here
; 171  : 	pCmdUI->Enable();

	mov	esi, esp
	push	1
	mov	eax, DWORD PTR _pCmdUI$[ebp]
	mov	edx, DWORD PTR [eax]
	mov	ecx, DWORD PTR _pCmdUI$[ebp]
	call	DWORD PTR [edx]
	cmp	esi, esp
	call	__RTC_CheckEsp

; 172  : }

	pop	edi
	pop	esi
	pop	ebx
	add	esp, 204				; 000000ccH
	cmp	ebp, esp
	call	__RTC_CheckEsp
	mov	esp, ebp
	pop	ebp
	ret	4
?OnUpdateCopy@CReportEdit@@IAEXPAVCCmdUI@@@Z ENDP	; CReportEdit::OnUpdateCopy
_TEXT	ENDS
PUBLIC	?Copy@RTFFuncs@@QAEXH@Z				; RTFFuncs::Copy
; Function compile flags: /Odt /RTCcsu /ZI
;	COMDAT ?OnCopy@CReportEdit@@IAEXXZ
_TEXT	SEGMENT
_this$ = -8						; size = 4
?OnCopy@CReportEdit@@IAEXXZ PROC NEAR			; CReportEdit::OnCopy, COMDAT
; _this$ = ecx

; 175  : {

	push	ebp
	mov	ebp, esp
	sub	esp, 204				; 000000ccH
	push	ebx
	push	esi
	push	edi
	push	ecx
	lea	edi, DWORD PTR [ebp-204]
	mov	ecx, 51					; 00000033H
	mov	eax, -858993460				; ccccccccH
	rep stosd
	pop	ecx
	mov	DWORD PTR _this$[ebp], ecx

; 176  : 	// TODO: Add your command handler code here
; 177  :    pFuncs->Copy(IDC_TEXT);

	push	1004					; 000003ecH
	mov	eax, DWORD PTR _this$[ebp]
	mov	ecx, DWORD PTR [eax+388]
	call	?Copy@RTFFuncs@@QAEXH@Z			; RTFFuncs::Copy

; 178  : }

	pop	edi
	pop	esi
	pop	ebx
	add	esp, 204				; 000000ccH
	cmp	ebp, esp
	call	__RTC_CheckEsp
	mov	esp, ebp
	pop	ebp
	ret	0
?OnCopy@CReportEdit@@IAEXXZ ENDP			; CReportEdit::OnCopy
_TEXT	ENDS
EXTRN	?Copy@CRichEditCtrl@@QAEXXZ:NEAR		; CRichEditCtrl::Copy
; Function compile flags: /Odt /RTCcsu /ZI
; File c:\astrow32dev\tbt32\rtffuncs.h
;	COMDAT ?Copy@RTFFuncs@@QAEXH@Z
_TEXT	SEGMENT
_this$ = -8						; size = 4
_id$ = 8						; size = 4
?Copy@RTFFuncs@@QAEXH@Z PROC NEAR			; RTFFuncs::Copy, COMDAT
; _this$ = ecx

; 33   :    void Copy( int id ) { GetCtrl(id)->Copy(); }

	push	ebp
	mov	ebp, esp
	sub	esp, 204				; 000000ccH
	push	ebx
	push	esi
	push	edi
	push	ecx
	lea	edi, DWORD PTR [ebp-204]
	mov	ecx, 51					; 00000033H
	mov	eax, -858993460				; ccccccccH
	rep stosd
	pop	ecx
	mov	DWORD PTR _this$[ebp], ecx
	mov	eax, DWORD PTR _id$[ebp]
	push	eax
	mov	ecx, DWORD PTR _this$[ebp]
	call	?GetCtrl@RTFFuncs@@AAEPAVCRichEditCtrl@@H@Z ; RTFFuncs::GetCtrl
	mov	ecx, eax
	call	?Copy@CRichEditCtrl@@QAEXXZ		; CRichEditCtrl::Copy
	pop	edi
	pop	esi
	pop	ebx
	add	esp, 204				; 000000ccH
	cmp	ebp, esp
	call	__RTC_CheckEsp
	mov	esp, ebp
	pop	ebp
	ret	4
?Copy@RTFFuncs@@QAEXH@Z ENDP				; RTFFuncs::Copy
_TEXT	ENDS
PUBLIC	?Clear@RTFFuncs@@QAEXH@Z			; RTFFuncs::Clear
; Function compile flags: /Odt /RTCcsu /ZI
; File c:\astrow32dev\tbt32\reportedit.cpp
;	COMDAT ?OnClear@CReportEdit@@IAEXXZ
_TEXT	SEGMENT
_this$ = -8						; size = 4
?OnClear@CReportEdit@@IAEXXZ PROC NEAR			; CReportEdit::OnClear, COMDAT
; _this$ = ecx

; 181  : {

	push	ebp
	mov	ebp, esp
	sub	esp, 204				; 000000ccH
	push	ebx
	push	esi
	push	edi
	push	ecx
	lea	edi, DWORD PTR [ebp-204]
	mov	ecx, 51					; 00000033H
	mov	eax, -858993460				; ccccccccH
	rep stosd
	pop	ecx
	mov	DWORD PTR _this$[ebp], ecx

; 182  : 	// TODO: Add your command handler code here
; 183  :    pFuncs->Clear(IDC_TEXT);

	push	1004					; 000003ecH
	mov	eax, DWORD PTR _this$[ebp]
	mov	ecx, DWORD PTR [eax+388]
	call	?Clear@RTFFuncs@@QAEXH@Z		; RTFFuncs::Clear

; 184  : }

	pop	edi
	pop	esi
	pop	ebx
	add	esp, 204				; 000000ccH
	cmp	ebp, esp
	call	__RTC_CheckEsp
	mov	esp, ebp
	pop	ebp
	ret	0
?OnClear@CReportEdit@@IAEXXZ ENDP			; CReportEdit::OnClear
_TEXT	ENDS
EXTRN	?Clear@CRichEditCtrl@@QAEXXZ:NEAR		; CRichEditCtrl::Clear
; Function compile flags: /Odt /RTCcsu /ZI
; File c:\astrow32dev\tbt32\rtffuncs.h
;	COMDAT ?Clear@RTFFuncs@@QAEXH@Z
_TEXT	SEGMENT
_this$ = -8						; size = 4
_id$ = 8						; size = 4
?Clear@RTFFuncs@@QAEXH@Z PROC NEAR			; RTFFuncs::Clear, COMDAT
; _this$ = ecx

; 35   :    void Clear( int id ) { GetCtrl(id)->Clear(); }

	push	ebp
	mov	ebp, esp
	sub	esp, 204				; 000000ccH
	push	ebx
	push	esi
	push	edi
	push	ecx
	lea	edi, DWORD PTR [ebp-204]
	mov	ecx, 51					; 00000033H
	mov	eax, -858993460				; ccccccccH
	rep stosd
	pop	ecx
	mov	DWORD PTR _this$[ebp], ecx
	mov	eax, DWORD PTR _id$[ebp]
	push	eax
	mov	ecx, DWORD PTR _this$[ebp]
	call	?GetCtrl@RTFFuncs@@AAEPAVCRichEditCtrl@@H@Z ; RTFFuncs::GetCtrl
	mov	ecx, eax
	call	?Clear@CRichEditCtrl@@QAEXXZ		; CRichEditCtrl::Clear
	pop	edi
	pop	esi
	pop	ebx
	add	esp, 204				; 000000ccH
	cmp	ebp, esp
	call	__RTC_CheckEsp
	mov	esp, ebp
	pop	ebp
	ret	4
?Clear@RTFFuncs@@QAEXH@Z ENDP				; RTFFuncs::Clear
; Function compile flags: /Odt /RTCcsu /ZI
; File c:\astrow32dev\tbt32\reportedit.cpp
_TEXT	ENDS
;	COMDAT ?OnUpdateClear@CReportEdit@@IAEXPAVCCmdUI@@@Z
_TEXT	SEGMENT
_this$ = -8						; size = 4
_pCmdUI$ = 8						; size = 4
?OnUpdateClear@CReportEdit@@IAEXPAVCCmdUI@@@Z PROC NEAR	; CReportEdit::OnUpdateClear, COMDAT
; _this$ = ecx

; 187  : {

	push	ebp
	mov	ebp, esp
	sub	esp, 204				; 000000ccH
	push	ebx
	push	esi
	push	edi
	push	ecx
	lea	edi, DWORD PTR [ebp-204]
	mov	ecx, 51					; 00000033H
	mov	eax, -858993460				; ccccccccH
	rep stosd
	pop	ecx
	mov	DWORD PTR _this$[ebp], ecx

; 188  : 	// TODO: Add your command update UI handler code here
; 189  : 	pCmdUI->Enable();

	mov	esi, esp
	push	1
	mov	eax, DWORD PTR _pCmdUI$[ebp]
	mov	edx, DWORD PTR [eax]
	mov	ecx, DWORD PTR _pCmdUI$[ebp]
	call	DWORD PTR [edx]
	cmp	esi, esp
	call	__RTC_CheckEsp

; 190  : }

	pop	edi
	pop	esi
	pop	ebx
	add	esp, 204				; 000000ccH
	cmp	ebp, esp
	call	__RTC_CheckEsp
	mov	esp, ebp
	pop	ebp
	ret	4
?OnUpdateClear@CReportEdit@@IAEXPAVCCmdUI@@@Z ENDP	; CReportEdit::OnUpdateClear
; Function compile flags: /Odt /RTCcsu /ZI
_TEXT	ENDS
;	COMDAT ?DestroyWindow@CReportEdit@@UAEHXZ
_TEXT	SEGMENT
tv71 = -232						; size = 4
$T94482 = -224						; size = 4
$T94483 = -212						; size = 4
_this$ = -8						; size = 4
?DestroyWindow@CReportEdit@@UAEHXZ PROC NEAR		; CReportEdit::DestroyWindow, COMDAT
; _this$ = ecx

; 193  : {

	push	ebp
	mov	ebp, esp
	sub	esp, 232				; 000000e8H
	push	ebx
	push	esi
	push	edi
	push	ecx
	lea	edi, DWORD PTR [ebp-232]
	mov	ecx, 58					; 0000003aH
	mov	eax, -858993460				; ccccccccH
	rep stosd
	pop	ecx
	mov	DWORD PTR _this$[ebp], ecx

; 194  : 	// TODO: Add your specialized code here and/or call the base class
; 195  : 	delete pFuncs;

	mov	eax, DWORD PTR _this$[ebp]
	mov	ecx, DWORD PTR [eax+388]
	mov	DWORD PTR $T94483[ebp], ecx
	mov	edx, DWORD PTR $T94483[ebp]
	mov	DWORD PTR $T94482[ebp], edx
	cmp	DWORD PTR $T94482[ebp], 0
	je	SHORT $L94484
	mov	esi, esp
	push	1
	mov	eax, DWORD PTR $T94482[ebp]
	mov	edx, DWORD PTR [eax]
	mov	ecx, DWORD PTR $T94482[ebp]
	call	DWORD PTR [edx]
	cmp	esi, esp
	call	__RTC_CheckEsp
	mov	DWORD PTR tv71[ebp], eax
	jmp	SHORT $L94485
$L94484:
	mov	DWORD PTR tv71[ebp], 0
$L94485:

; 196  : 	return CDialog::DestroyWindow();

	mov	ecx, DWORD PTR _this$[ebp]
	call	?DestroyWindow@CWnd@@UAEHXZ		; CWnd::DestroyWindow

; 197  : }

	pop	edi
	pop	esi
	pop	ebx
	add	esp, 232				; 000000e8H
	cmp	ebp, esp
	call	__RTC_CheckEsp
	mov	esp, ebp
	pop	ebp
	ret	0
?DestroyWindow@CReportEdit@@UAEHXZ ENDP			; CReportEdit::DestroyWindow
_TEXT	ENDS
PUBLIC	?toCombo@CRSymbolAry@@QAEHPAVCComboBox@@HPAD@Z	; CRSymbolAry::toCombo
PUBLIC	?toSymType@CATextTypeAry@@QAEPADAAV?$CStringT@GV?$StrTraitMFC@GV?$ChTraitsCRT@G@ATL@@@@@ATL@@H@Z ; CATextTypeAry::toSymType
EXTRN	?OnInitDialog@CDialog@@UAEHXZ:NEAR		; CDialog::OnInitDialog
EXTRN	?pRepSymbols@@3PAVCRSymbolAry@@A:DWORD		; pRepSymbols
EXTRN	?pATextTypes@@3PAVCATextTypeAry@@A:DWORD	; pATextTypes
; Function compile flags: /Odt /RTCcsu /ZI
;	COMDAT ?OnInitDialog@CReportEdit@@MAEHXZ
_TEXT	SEGMENT
_pt$ = -32						; size = 4
_pbox$ = -20						; size = 4
_this$ = -8						; size = 4
?OnInitDialog@CReportEdit@@MAEHXZ PROC NEAR		; CReportEdit::OnInitDialog, COMDAT
; _this$ = ecx

; 200  : {

	push	ebp
	mov	ebp, esp
	sub	esp, 228				; 000000e4H
	push	ebx
	push	esi
	push	edi
	push	ecx
	lea	edi, DWORD PTR [ebp-228]
	mov	ecx, 57					; 00000039H
	mov	eax, -858993460				; ccccccccH
	rep stosd
	pop	ecx
	mov	DWORD PTR _this$[ebp], ecx

; 201  : 	CDialog::OnInitDialog();

	mov	ecx, DWORD PTR _this$[ebp]
	call	?OnInitDialog@CDialog@@UAEHXZ		; CDialog::OnInitDialog

; 202  : 	CComboBox *pbox = (CComboBox *)GetDlgItem(IDC_TEXTID);

	push	1008					; 000003f0H
	mov	ecx, DWORD PTR _this$[ebp]
	call	?GetDlgItem@CWnd@@QBEPAV1@H@Z		; CWnd::GetDlgItem
	mov	DWORD PTR _pbox$[ebp], eax

; 203  : 	char *pt = pATextTypes->toSymType(m_TextType,1);

	push	1
	mov	eax, DWORD PTR _this$[ebp]
	add	eax, 380				; 0000017cH
	push	eax
	mov	ecx, DWORD PTR ?pATextTypes@@3PAVCATextTypeAry@@A ; pATextTypes
	call	?toSymType@CATextTypeAry@@QAEPADAAV?$CStringT@GV?$StrTraitMFC@GV?$ChTraitsCRT@G@ATL@@@@@ATL@@H@Z ; CATextTypeAry::toSymType
	mov	DWORD PTR _pt$[ebp], eax

; 204  : 	pRepSymbols->toCombo(pbox,1, pt);

	mov	eax, DWORD PTR _pt$[ebp]
	push	eax
	push	1
	mov	ecx, DWORD PTR _pbox$[ebp]
	push	ecx
	mov	ecx, DWORD PTR ?pRepSymbols@@3PAVCRSymbolAry@@A ; pRepSymbols
	call	?toCombo@CRSymbolAry@@QAEHPAVCComboBox@@HPAD@Z ; CRSymbolAry::toCombo

; 205  : 	// TODO: Add extra initialization here
; 206  : 	
; 207  : 	return TRUE;  // return TRUE unless you set the focus to a control

	mov	eax, 1

; 208  : 	              // EXCEPTION: OCX Property Pages should return FALSE
; 209  : }

	pop	edi
	pop	esi
	pop	ebx
	add	esp, 228				; 000000e4H
	cmp	ebp, esp
	call	__RTC_CheckEsp
	mov	esp, ebp
	pop	ebp
	ret	0
?OnInitDialog@CReportEdit@@MAEHXZ ENDP			; CReportEdit::OnInitDialog
_TEXT	ENDS
EXTRN	?toCombo@CSymbolAry@@QAEHPAVCComboBox@@HPADH@Z:NEAR ; CSymbolAry::toCombo
; Function compile flags: /Odt /RTCcsu /ZI
; File c:\astrow32dev\tbt32\symbol.hpp
;	COMDAT ?toCombo@CRSymbolAry@@QAEHPAVCComboBox@@HPAD@Z
_TEXT	SEGMENT
_this$ = -8						; size = 4
_cmb$ = 8						; size = 4
_w$ = 12						; size = 4
_tp$ = 16						; size = 4
?toCombo@CRSymbolAry@@QAEHPAVCComboBox@@HPAD@Z PROC NEAR ; CRSymbolAry::toCombo, COMDAT
; _this$ = ecx

; 55   : 	int toCombo( CComboBox *cmb, int w, char *tp ) { return( CSymbolAry::toCombo(cmb,w,tp)); }   

	push	ebp
	mov	ebp, esp
	sub	esp, 204				; 000000ccH
	push	ebx
	push	esi
	push	edi
	push	ecx
	lea	edi, DWORD PTR [ebp-204]
	mov	ecx, 51					; 00000033H
	mov	eax, -858993460				; ccccccccH
	rep stosd
	pop	ecx
	mov	DWORD PTR _this$[ebp], ecx
	push	-1
	mov	eax, DWORD PTR _tp$[ebp]
	push	eax
	mov	ecx, DWORD PTR _w$[ebp]
	push	ecx
	mov	edx, DWORD PTR _cmb$[ebp]
	push	edx
	mov	ecx, DWORD PTR _this$[ebp]
	call	?toCombo@CSymbolAry@@QAEHPAVCComboBox@@HPADH@Z ; CSymbolAry::toCombo
	pop	edi
	pop	esi
	pop	ebx
	add	esp, 204				; 000000ccH
	cmp	ebp, esp
	call	__RTC_CheckEsp
	mov	esp, ebp
	pop	ebp
	ret	12					; 0000000cH
?toCombo@CRSymbolAry@@QAEHPAVCComboBox@@HPAD@Z ENDP	; CRSymbolAry::toCombo
_TEXT	ENDS
PUBLIC	?symtypes@CATextType@@QAEPADXZ			; CATextType::symtypes
EXTRN	?Find@CATextTypeAry@@QAEPAVCATextType@@AAV?$CStringT@GV?$StrTraitMFC@GV?$ChTraitsCRT@G@ATL@@@@@ATL@@HH@Z:NEAR ; CATextTypeAry::Find
; Function compile flags: /Odt /RTCcsu /ZI
; File c:\astrow32dev\tbt32\texttypeary.hpp
;	COMDAT ?toSymType@CATextTypeAry@@QAEPADAAV?$CStringT@GV?$StrTraitMFC@GV?$ChTraitsCRT@G@ATL@@@@@ATL@@H@Z
_TEXT	SEGMENT
_pf$ = -20						; size = 4
_this$ = -8						; size = 4
_name$ = 8						; size = 4
_tp$ = 12						; size = 4
?toSymType@CATextTypeAry@@QAEPADAAV?$CStringT@GV?$StrTraitMFC@GV?$ChTraitsCRT@G@ATL@@@@@ATL@@H@Z PROC NEAR ; CATextTypeAry::toSymType, COMDAT
; _this$ = ecx

; 40   :     char *toSymType( CString &name, int tp ) { CATextType *pf=Find(name, tp); if ( pf==NULL) return NULL; else return( pf->symtypes() ); }

	push	ebp
	mov	ebp, esp
	sub	esp, 216				; 000000d8H
	push	ebx
	push	esi
	push	edi
	push	ecx
	lea	edi, DWORD PTR [ebp-216]
	mov	ecx, 54					; 00000036H
	mov	eax, -858993460				; ccccccccH
	rep stosd
	pop	ecx
	mov	DWORD PTR _this$[ebp], ecx
	push	0
	mov	eax, DWORD PTR _tp$[ebp]
	push	eax
	mov	ecx, DWORD PTR _name$[ebp]
	push	ecx
	mov	ecx, DWORD PTR _this$[ebp]
	call	?Find@CATextTypeAry@@QAEPAVCATextType@@AAV?$CStringT@GV?$StrTraitMFC@GV?$ChTraitsCRT@G@ATL@@@@@ATL@@HH@Z ; CATextTypeAry::Find
	mov	DWORD PTR _pf$[ebp], eax
	cmp	DWORD PTR _pf$[ebp], 0
	jne	SHORT $L93712
	xor	eax, eax
	jmp	SHORT $L93710
$L93712:
	mov	ecx, DWORD PTR _pf$[ebp]
	call	?symtypes@CATextType@@QAEPADXZ		; CATextType::symtypes
$L93710:
	pop	edi
	pop	esi
	pop	ebx
	add	esp, 216				; 000000d8H
	cmp	ebp, esp
	call	__RTC_CheckEsp
	mov	esp, ebp
	pop	ebp
	ret	8
?toSymType@CATextTypeAry@@QAEPADAAV?$CStringT@GV?$StrTraitMFC@GV?$ChTraitsCRT@G@ATL@@@@@ATL@@H@Z ENDP ; CATextTypeAry::toSymType
; Function compile flags: /Odt /RTCcsu /ZI
_TEXT	ENDS
;	COMDAT ?symtypes@CATextType@@QAEPADXZ
_TEXT	SEGMENT
_this$ = -8						; size = 4
?symtypes@CATextType@@QAEPADXZ PROC NEAR		; CATextType::symtypes, COMDAT
; _this$ = ecx

; 20   :     char *symtypes() { return _symtypes; }

	push	ebp
	mov	ebp, esp
	sub	esp, 204				; 000000ccH
	push	ebx
	push	esi
	push	edi
	push	ecx
	lea	edi, DWORD PTR [ebp-204]
	mov	ecx, 51					; 00000033H
	mov	eax, -858993460				; ccccccccH
	rep stosd
	pop	ecx
	mov	DWORD PTR _this$[ebp], ecx
	mov	eax, DWORD PTR _this$[ebp]
	add	eax, 79					; 0000004fH
	pop	edi
	pop	esi
	pop	ebx
	mov	esp, ebp
	pop	ebp
	ret	0
?symtypes@CATextType@@QAEPADXZ ENDP			; CATextType::symtypes
; Function compile flags: /Odt /RTCcsu /ZI
; File c:\astrow32dev\tbt32\reportedit.cpp
_TEXT	ENDS
;	COMDAT ?OnChangeText@CReportEdit@@IAEXXZ
_TEXT	SEGMENT
_this$ = -8						; size = 4
?OnChangeText@CReportEdit@@IAEXXZ PROC NEAR		; CReportEdit::OnChangeText, COMDAT
; _this$ = ecx

; 212  : {

	push	ebp
	mov	ebp, esp
	sub	esp, 204				; 000000ccH
	push	ebx
	push	esi
	push	edi
	push	ecx
	lea	edi, DWORD PTR [ebp-204]
	mov	ecx, 51					; 00000033H
	mov	eax, -858993460				; ccccccccH
	rep stosd
	pop	ecx
	mov	DWORD PTR _this$[ebp], ecx

; 213  : 	// TODO: If this is a RICHEDIT control, the control will not
; 214  : 	// send this notification unless you override the CDialog::OnInitDialog()
; 215  : 	// function and call CRichEditCtrl().SetEventMask()
; 216  : 	// with the ENM_CHANGE flag ORed into the mask.
; 217  : 	
; 218  : 	// TODO: Add your control notification handler code here
; 219  : 	m_bModified=TRUE;

	mov	eax, DWORD PTR _this$[ebp]
	mov	DWORD PTR [eax+384], 1

; 220  : }

	pop	edi
	pop	esi
	pop	ebx
	mov	esp, ebp
	pop	ebp
	ret	0
?OnChangeText@CReportEdit@@IAEXXZ ENDP			; CReportEdit::OnChangeText
; Function compile flags: /Odt /RTCcsu /ZI
_TEXT	ENDS
;	COMDAT ?OnUndo@CReportEdit@@IAEXXZ
_TEXT	SEGMENT
_this$ = -8						; size = 4
?OnUndo@CReportEdit@@IAEXXZ PROC NEAR			; CReportEdit::OnUndo, COMDAT
; _this$ = ecx

; 223  : {

	push	ebp
	mov	ebp, esp
	sub	esp, 204				; 000000ccH
	push	ebx
	push	esi
	push	edi
	push	ecx
	lea	edi, DWORD PTR [ebp-204]
	mov	ecx, 51					; 00000033H
	mov	eax, -858993460				; ccccccccH
	rep stosd
	pop	ecx
	mov	DWORD PTR _this$[ebp], ecx

; 224  : 	// TODO: Add your command handler code here
; 225  :    pFuncs->Clear(IDC_TEXT);	

	push	1004					; 000003ecH
	mov	eax, DWORD PTR _this$[ebp]
	mov	ecx, DWORD PTR [eax+388]
	call	?Clear@RTFFuncs@@QAEXH@Z		; RTFFuncs::Clear

; 226  : }

	pop	edi
	pop	esi
	pop	ebx
	add	esp, 204				; 000000ccH
	cmp	ebp, esp
	call	__RTC_CheckEsp
	mov	esp, ebp
	pop	ebp
	ret	0
?OnUndo@CReportEdit@@IAEXXZ ENDP			; CReportEdit::OnUndo
; Function compile flags: /Odt /RTCcsu /ZI
_TEXT	ENDS
;	COMDAT ?OnUpdateUndo@CReportEdit@@IAEXPAVCCmdUI@@@Z
_TEXT	SEGMENT
_this$ = -8						; size = 4
_pCmdUI$ = 8						; size = 4
?OnUpdateUndo@CReportEdit@@IAEXPAVCCmdUI@@@Z PROC NEAR	; CReportEdit::OnUpdateUndo, COMDAT
; _this$ = ecx

; 229  : {

	push	ebp
	mov	ebp, esp
	sub	esp, 204				; 000000ccH
	push	ebx
	push	esi
	push	edi
	push	ecx
	lea	edi, DWORD PTR [ebp-204]
	mov	ecx, 51					; 00000033H
	mov	eax, -858993460				; ccccccccH
	rep stosd
	pop	ecx
	mov	DWORD PTR _this$[ebp], ecx

; 230  : 	// TODO: Add your command update UI handler code here
; 231  : 	pCmdUI->Enable();

	mov	esi, esp
	push	1
	mov	eax, DWORD PTR _pCmdUI$[ebp]
	mov	edx, DWORD PTR [eax]
	mov	ecx, DWORD PTR _pCmdUI$[ebp]
	call	DWORD PTR [edx]
	cmp	esi, esp
	call	__RTC_CheckEsp

; 232  : }

	pop	edi
	pop	esi
	pop	ebx
	add	esp, 204				; 000000ccH
	cmp	ebp, esp
	call	__RTC_CheckEsp
	mov	esp, ebp
	pop	ebp
	ret	4
?OnUpdateUndo@CReportEdit@@IAEXPAVCCmdUI@@@Z ENDP	; CReportEdit::OnUpdateUndo
; Function compile flags: /Odt /RTCcsu /ZI
_TEXT	ENDS
;	COMDAT ?OnUpdateText@CReportEdit@@IAEXXZ
_TEXT	SEGMENT
_this$ = -8						; size = 4
?OnUpdateText@CReportEdit@@IAEXXZ PROC NEAR		; CReportEdit::OnUpdateText, COMDAT
; _this$ = ecx

; 235  : {

	push	ebp
	mov	ebp, esp
	sub	esp, 204				; 000000ccH
	push	ebx
	push	esi
	push	edi
	push	ecx
	lea	edi, DWORD PTR [ebp-204]
	mov	ecx, 51					; 00000033H
	mov	eax, -858993460				; ccccccccH
	rep stosd
	pop	ecx
	mov	DWORD PTR _this$[ebp], ecx

; 236  : 	// TODO: If this is a RICHEDIT control, the control will not
; 237  : 	// send this notification unless you override the CDialog::OnInitDialog()
; 238  : 	// function to send the EM_SETEVENTMASK message to the control
; 239  : 	// with the ENM_UPDATE flag ORed into the lParam mask.
; 240  : 	
; 241  : 	// TODO: Add your control notification handler code here
; 242  : 	
; 243  : }

	pop	edi
	pop	esi
	pop	ebx
	mov	esp, ebp
	pop	ebp
	ret	0
?OnUpdateText@CReportEdit@@IAEXXZ ENDP			; CReportEdit::OnUpdateText
_TEXT	ENDS
EXTRN	?DoBold@RTFFuncs@@QAEXH@Z:NEAR			; RTFFuncs::DoBold
; Function compile flags: /Odt /RTCcsu /ZI
;	COMDAT ?OnBold@CReportEdit@@IAEXXZ
_TEXT	SEGMENT
_this$ = -8						; size = 4
?OnBold@CReportEdit@@IAEXXZ PROC NEAR			; CReportEdit::OnBold, COMDAT
; _this$ = ecx

; 246  : {

	push	ebp
	mov	ebp, esp
	sub	esp, 204				; 000000ccH
	push	ebx
	push	esi
	push	edi
	push	ecx
	lea	edi, DWORD PTR [ebp-204]
	mov	ecx, 51					; 00000033H
	mov	eax, -858993460				; ccccccccH
	rep stosd
	pop	ecx
	mov	DWORD PTR _this$[ebp], ecx

; 247  : 	// TODO: Add your command handler code here
; 248  : 	pFuncs->DoBold(IDC_TEXT);

	push	1004					; 000003ecH
	mov	eax, DWORD PTR _this$[ebp]
	mov	ecx, DWORD PTR [eax+388]
	call	?DoBold@RTFFuncs@@QAEXH@Z		; RTFFuncs::DoBold

; 249  : }

	pop	edi
	pop	esi
	pop	ebx
	add	esp, 204				; 000000ccH
	cmp	ebp, esp
	call	__RTC_CheckEsp
	mov	esp, ebp
	pop	ebp
	ret	0
?OnBold@CReportEdit@@IAEXXZ ENDP			; CReportEdit::OnBold
; Function compile flags: /Odt /RTCcsu /ZI
_TEXT	ENDS
;	COMDAT ?OnUpdateBold@CReportEdit@@IAEXPAVCCmdUI@@@Z
_TEXT	SEGMENT
_this$ = -8						; size = 4
_pCmdUI$ = 8						; size = 4
?OnUpdateBold@CReportEdit@@IAEXPAVCCmdUI@@@Z PROC NEAR	; CReportEdit::OnUpdateBold, COMDAT
; _this$ = ecx

; 252  : {

	push	ebp
	mov	ebp, esp
	sub	esp, 204				; 000000ccH
	push	ebx
	push	esi
	push	edi
	push	ecx
	lea	edi, DWORD PTR [ebp-204]
	mov	ecx, 51					; 00000033H
	mov	eax, -858993460				; ccccccccH
	rep stosd
	pop	ecx
	mov	DWORD PTR _this$[ebp], ecx

; 253  : 	// TODO: Add your command update UI handler code here
; 254  : 	pCmdUI->Enable();

	mov	esi, esp
	push	1
	mov	eax, DWORD PTR _pCmdUI$[ebp]
	mov	edx, DWORD PTR [eax]
	mov	ecx, DWORD PTR _pCmdUI$[ebp]
	call	DWORD PTR [edx]
	cmp	esi, esp
	call	__RTC_CheckEsp

; 255  : }

	pop	edi
	pop	esi
	pop	ebx
	add	esp, 204				; 000000ccH
	cmp	ebp, esp
	call	__RTC_CheckEsp
	mov	esp, ebp
	pop	ebp
	ret	4
?OnUpdateBold@CReportEdit@@IAEXPAVCCmdUI@@@Z ENDP	; CReportEdit::OnUpdateBold
_TEXT	ENDS
EXTRN	?DoHeading@RTFFuncs@@QAEXH@Z:NEAR		; RTFFuncs::DoHeading
; Function compile flags: /Odt /RTCcsu /ZI
;	COMDAT ?OnHead@CReportEdit@@IAEXXZ
_TEXT	SEGMENT
_this$ = -8						; size = 4
?OnHead@CReportEdit@@IAEXXZ PROC NEAR			; CReportEdit::OnHead, COMDAT
; _this$ = ecx

; 258  : {

	push	ebp
	mov	ebp, esp
	sub	esp, 204				; 000000ccH
	push	ebx
	push	esi
	push	edi
	push	ecx
	lea	edi, DWORD PTR [ebp-204]
	mov	ecx, 51					; 00000033H
	mov	eax, -858993460				; ccccccccH
	rep stosd
	pop	ecx
	mov	DWORD PTR _this$[ebp], ecx

; 259  : 	// TODO: Add your command handler code here
; 260  : 	pFuncs->DoHeading(IDC_TEXT);

	push	1004					; 000003ecH
	mov	eax, DWORD PTR _this$[ebp]
	mov	ecx, DWORD PTR [eax+388]
	call	?DoHeading@RTFFuncs@@QAEXH@Z		; RTFFuncs::DoHeading

; 261  : }

	pop	edi
	pop	esi
	pop	ebx
	add	esp, 204				; 000000ccH
	cmp	ebp, esp
	call	__RTC_CheckEsp
	mov	esp, ebp
	pop	ebp
	ret	0
?OnHead@CReportEdit@@IAEXXZ ENDP			; CReportEdit::OnHead
; Function compile flags: /Odt /RTCcsu /ZI
_TEXT	ENDS
;	COMDAT ?OnUpdateHead@CReportEdit@@IAEXPAVCCmdUI@@@Z
_TEXT	SEGMENT
_this$ = -8						; size = 4
_pCmdUI$ = 8						; size = 4
?OnUpdateHead@CReportEdit@@IAEXPAVCCmdUI@@@Z PROC NEAR	; CReportEdit::OnUpdateHead, COMDAT
; _this$ = ecx

; 264  : {

	push	ebp
	mov	ebp, esp
	sub	esp, 204				; 000000ccH
	push	ebx
	push	esi
	push	edi
	push	ecx
	lea	edi, DWORD PTR [ebp-204]
	mov	ecx, 51					; 00000033H
	mov	eax, -858993460				; ccccccccH
	rep stosd
	pop	ecx
	mov	DWORD PTR _this$[ebp], ecx

; 265  : 	// TODO: Add your command update UI handler code here
; 266  : 	pCmdUI->Enable();

	mov	esi, esp
	push	1
	mov	eax, DWORD PTR _pCmdUI$[ebp]
	mov	edx, DWORD PTR [eax]
	mov	ecx, DWORD PTR _pCmdUI$[ebp]
	call	DWORD PTR [edx]
	cmp	esi, esp
	call	__RTC_CheckEsp

; 267  : }

	pop	edi
	pop	esi
	pop	ebx
	add	esp, 204				; 000000ccH
	cmp	ebp, esp
	call	__RTC_CheckEsp
	mov	esp, ebp
	pop	ebp
	ret	4
?OnUpdateHead@CReportEdit@@IAEXPAVCCmdUI@@@Z ENDP	; CReportEdit::OnUpdateHead
_TEXT	ENDS
EXTRN	?DoItalic@RTFFuncs@@QAEXH@Z:NEAR		; RTFFuncs::DoItalic
; Function compile flags: /Odt /RTCcsu /ZI
;	COMDAT ?OnItal@CReportEdit@@IAEXXZ
_TEXT	SEGMENT
_this$ = -8						; size = 4
?OnItal@CReportEdit@@IAEXXZ PROC NEAR			; CReportEdit::OnItal, COMDAT
; _this$ = ecx

; 270  : {

	push	ebp
	mov	ebp, esp
	sub	esp, 204				; 000000ccH
	push	ebx
	push	esi
	push	edi
	push	ecx
	lea	edi, DWORD PTR [ebp-204]
	mov	ecx, 51					; 00000033H
	mov	eax, -858993460				; ccccccccH
	rep stosd
	pop	ecx
	mov	DWORD PTR _this$[ebp], ecx

; 271  : 	// TODO: Add your command handler code here
; 272  : 	pFuncs->DoItalic(IDC_TEXT);

	push	1004					; 000003ecH
	mov	eax, DWORD PTR _this$[ebp]
	mov	ecx, DWORD PTR [eax+388]
	call	?DoItalic@RTFFuncs@@QAEXH@Z		; RTFFuncs::DoItalic

; 273  : }

	pop	edi
	pop	esi
	pop	ebx
	add	esp, 204				; 000000ccH
	cmp	ebp, esp
	call	__RTC_CheckEsp
	mov	esp, ebp
	pop	ebp
	ret	0
?OnItal@CReportEdit@@IAEXXZ ENDP			; CReportEdit::OnItal
; Function compile flags: /Odt /RTCcsu /ZI
_TEXT	ENDS
;	COMDAT ?OnUpdateItal@CReportEdit@@IAEXPAVCCmdUI@@@Z
_TEXT	SEGMENT
_this$ = -8						; size = 4
_pCmdUI$ = 8						; size = 4
?OnUpdateItal@CReportEdit@@IAEXPAVCCmdUI@@@Z PROC NEAR	; CReportEdit::OnUpdateItal, COMDAT
; _this$ = ecx

; 276  : {

	push	ebp
	mov	ebp, esp
	sub	esp, 204				; 000000ccH
	push	ebx
	push	esi
	push	edi
	push	ecx
	lea	edi, DWORD PTR [ebp-204]
	mov	ecx, 51					; 00000033H
	mov	eax, -858993460				; ccccccccH
	rep stosd
	pop	ecx
	mov	DWORD PTR _this$[ebp], ecx

; 277  : 	// TODO: Add your command update UI handler code here
; 278  : 	pCmdUI->Enable();

	mov	esi, esp
	push	1
	mov	eax, DWORD PTR _pCmdUI$[ebp]
	mov	edx, DWORD PTR [eax]
	mov	ecx, DWORD PTR _pCmdUI$[ebp]
	call	DWORD PTR [edx]
	cmp	esi, esp
	call	__RTC_CheckEsp

; 279  : }

	pop	edi
	pop	esi
	pop	ebx
	add	esp, 204				; 000000ccH
	cmp	ebp, esp
	call	__RTC_CheckEsp
	mov	esp, ebp
	pop	ebp
	ret	4
?OnUpdateItal@CReportEdit@@IAEXPAVCCmdUI@@@Z ENDP	; CReportEdit::OnUpdateItal
_TEXT	ENDS
EXTRN	?DoUnBold@RTFFuncs@@QAEXH@Z:NEAR		; RTFFuncs::DoUnBold
; Function compile flags: /Odt /RTCcsu /ZI
;	COMDAT ?OnUnbold@CReportEdit@@IAEXXZ
_TEXT	SEGMENT
_this$ = -8						; size = 4
?OnUnbold@CReportEdit@@IAEXXZ PROC NEAR			; CReportEdit::OnUnbold, COMDAT
; _this$ = ecx

; 282  : {

	push	ebp
	mov	ebp, esp
	sub	esp, 204				; 000000ccH
	push	ebx
	push	esi
	push	edi
	push	ecx
	lea	edi, DWORD PTR [ebp-204]
	mov	ecx, 51					; 00000033H
	mov	eax, -858993460				; ccccccccH
	rep stosd
	pop	ecx
	mov	DWORD PTR _this$[ebp], ecx

; 283  : 	// TODO: Add your command handler code here
; 284  : 	pFuncs->DoUnBold(IDC_TEXT);

	push	1004					; 000003ecH
	mov	eax, DWORD PTR _this$[ebp]
	mov	ecx, DWORD PTR [eax+388]
	call	?DoUnBold@RTFFuncs@@QAEXH@Z		; RTFFuncs::DoUnBold

; 285  : }

	pop	edi
	pop	esi
	pop	ebx
	add	esp, 204				; 000000ccH
	cmp	ebp, esp
	call	__RTC_CheckEsp
	mov	esp, ebp
	pop	ebp
	ret	0
?OnUnbold@CReportEdit@@IAEXXZ ENDP			; CReportEdit::OnUnbold
; Function compile flags: /Odt /RTCcsu /ZI
_TEXT	ENDS
;	COMDAT ?OnUpdateUnbold@CReportEdit@@IAEXPAVCCmdUI@@@Z
_TEXT	SEGMENT
_this$ = -8						; size = 4
_pCmdUI$ = 8						; size = 4
?OnUpdateUnbold@CReportEdit@@IAEXPAVCCmdUI@@@Z PROC NEAR ; CReportEdit::OnUpdateUnbold, COMDAT
; _this$ = ecx

; 288  : {

	push	ebp
	mov	ebp, esp
	sub	esp, 204				; 000000ccH
	push	ebx
	push	esi
	push	edi
	push	ecx
	lea	edi, DWORD PTR [ebp-204]
	mov	ecx, 51					; 00000033H
	mov	eax, -858993460				; ccccccccH
	rep stosd
	pop	ecx
	mov	DWORD PTR _this$[ebp], ecx

; 289  : 	// TODO: Add your command update UI handler code here
; 290  : 	pCmdUI->Enable();

	mov	esi, esp
	push	1
	mov	eax, DWORD PTR _pCmdUI$[ebp]
	mov	edx, DWORD PTR [eax]
	mov	ecx, DWORD PTR _pCmdUI$[ebp]
	call	DWORD PTR [edx]
	cmp	esi, esp
	call	__RTC_CheckEsp

; 291  : }

	pop	edi
	pop	esi
	pop	ebx
	add	esp, 204				; 000000ccH
	cmp	ebp, esp
	call	__RTC_CheckEsp
	mov	esp, ebp
	pop	ebp
	ret	4
?OnUpdateUnbold@CReportEdit@@IAEXPAVCCmdUI@@@Z ENDP	; CReportEdit::OnUpdateUnbold
_TEXT	ENDS
EXTRN	?DoUnHeading@RTFFuncs@@QAEXH@Z:NEAR		; RTFFuncs::DoUnHeading
; Function compile flags: /Odt /RTCcsu /ZI
;	COMDAT ?OnUnheading@CReportEdit@@IAEXXZ
_TEXT	SEGMENT
_this$ = -8						; size = 4
?OnUnheading@CReportEdit@@IAEXXZ PROC NEAR		; CReportEdit::OnUnheading, COMDAT
; _this$ = ecx

; 294  : {

	push	ebp
	mov	ebp, esp
	sub	esp, 204				; 000000ccH
	push	ebx
	push	esi
	push	edi
	push	ecx
	lea	edi, DWORD PTR [ebp-204]
	mov	ecx, 51					; 00000033H
	mov	eax, -858993460				; ccccccccH
	rep stosd
	pop	ecx
	mov	DWORD PTR _this$[ebp], ecx

; 295  : 	// TODO: Add your command handler code here
; 296  : 	pFuncs->DoUnHeading(IDC_TEXT);

	push	1004					; 000003ecH
	mov	eax, DWORD PTR _this$[ebp]
	mov	ecx, DWORD PTR [eax+388]
	call	?DoUnHeading@RTFFuncs@@QAEXH@Z		; RTFFuncs::DoUnHeading

; 297  : }

	pop	edi
	pop	esi
	pop	ebx
	add	esp, 204				; 000000ccH
	cmp	ebp, esp
	call	__RTC_CheckEsp
	mov	esp, ebp
	pop	ebp
	ret	0
?OnUnheading@CReportEdit@@IAEXXZ ENDP			; CReportEdit::OnUnheading
; Function compile flags: /Odt /RTCcsu /ZI
_TEXT	ENDS
;	COMDAT ?OnUpdateUnheading@CReportEdit@@IAEXPAVCCmdUI@@@Z
_TEXT	SEGMENT
_this$ = -8						; size = 4
_pCmdUI$ = 8						; size = 4
?OnUpdateUnheading@CReportEdit@@IAEXPAVCCmdUI@@@Z PROC NEAR ; CReportEdit::OnUpdateUnheading, COMDAT
; _this$ = ecx

; 300  : {

	push	ebp
	mov	ebp, esp
	sub	esp, 204				; 000000ccH
	push	ebx
	push	esi
	push	edi
	push	ecx
	lea	edi, DWORD PTR [ebp-204]
	mov	ecx, 51					; 00000033H
	mov	eax, -858993460				; ccccccccH
	rep stosd
	pop	ecx
	mov	DWORD PTR _this$[ebp], ecx

; 301  : 	// TODO: Add your command update UI handler code here
; 302  : 	pCmdUI->Enable();

	mov	esi, esp
	push	1
	mov	eax, DWORD PTR _pCmdUI$[ebp]
	mov	edx, DWORD PTR [eax]
	mov	ecx, DWORD PTR _pCmdUI$[ebp]
	call	DWORD PTR [edx]
	cmp	esi, esp
	call	__RTC_CheckEsp

; 303  : }

	pop	edi
	pop	esi
	pop	ebx
	add	esp, 204				; 000000ccH
	cmp	ebp, esp
	call	__RTC_CheckEsp
	mov	esp, ebp
	pop	ebp
	ret	4
?OnUpdateUnheading@CReportEdit@@IAEXPAVCCmdUI@@@Z ENDP	; CReportEdit::OnUpdateUnheading
_TEXT	ENDS
EXTRN	?DoUnItalic@RTFFuncs@@QAEXH@Z:NEAR		; RTFFuncs::DoUnItalic
; Function compile flags: /Odt /RTCcsu /ZI
;	COMDAT ?OnUnitalic@CReportEdit@@IAEXXZ
_TEXT	SEGMENT
_this$ = -8						; size = 4
?OnUnitalic@CReportEdit@@IAEXXZ PROC NEAR		; CReportEdit::OnUnitalic, COMDAT
; _this$ = ecx

; 306  : {

	push	ebp
	mov	ebp, esp
	sub	esp, 204				; 000000ccH
	push	ebx
	push	esi
	push	edi
	push	ecx
	lea	edi, DWORD PTR [ebp-204]
	mov	ecx, 51					; 00000033H
	mov	eax, -858993460				; ccccccccH
	rep stosd
	pop	ecx
	mov	DWORD PTR _this$[ebp], ecx

; 307  : 	// TODO: Add your command handler code here
; 308  : 	pFuncs->DoUnItalic(IDC_TEXT);

	push	1004					; 000003ecH
	mov	eax, DWORD PTR _this$[ebp]
	mov	ecx, DWORD PTR [eax+388]
	call	?DoUnItalic@RTFFuncs@@QAEXH@Z		; RTFFuncs::DoUnItalic

; 309  : }

	pop	edi
	pop	esi
	pop	ebx
	add	esp, 204				; 000000ccH
	cmp	ebp, esp
	call	__RTC_CheckEsp
	mov	esp, ebp
	pop	ebp
	ret	0
?OnUnitalic@CReportEdit@@IAEXXZ ENDP			; CReportEdit::OnUnitalic
; Function compile flags: /Odt /RTCcsu /ZI
_TEXT	ENDS
;	COMDAT ?OnUpdateUnitalic@CReportEdit@@IAEXPAVCCmdUI@@@Z
_TEXT	SEGMENT
_this$ = -8						; size = 4
_pCmdUI$ = 8						; size = 4
?OnUpdateUnitalic@CReportEdit@@IAEXPAVCCmdUI@@@Z PROC NEAR ; CReportEdit::OnUpdateUnitalic, COMDAT
; _this$ = ecx

; 312  : {

	push	ebp
	mov	ebp, esp
	sub	esp, 204				; 000000ccH
	push	ebx
	push	esi
	push	edi
	push	ecx
	lea	edi, DWORD PTR [ebp-204]
	mov	ecx, 51					; 00000033H
	mov	eax, -858993460				; ccccccccH
	rep stosd
	pop	ecx
	mov	DWORD PTR _this$[ebp], ecx

; 313  : 	// TODO: Add your command update UI handler code here
; 314  : 	pCmdUI->Enable();

	mov	esi, esp
	push	1
	mov	eax, DWORD PTR _pCmdUI$[ebp]
	mov	edx, DWORD PTR [eax]
	mov	ecx, DWORD PTR _pCmdUI$[ebp]
	call	DWORD PTR [edx]
	cmp	esi, esp
	call	__RTC_CheckEsp

; 315  : }

	pop	edi
	pop	esi
	pop	ebx
	add	esp, 204				; 000000ccH
	cmp	ebp, esp
	call	__RTC_CheckEsp
	mov	esp, ebp
	pop	ebp
	ret	4
?OnUpdateUnitalic@CReportEdit@@IAEXPAVCCmdUI@@@Z ENDP	; CReportEdit::OnUpdateUnitalic
_TEXT	ENDS
PUBLIC	?GetTabString@RTFFuncs@@QAEAAV?$CStringT@GV?$StrTraitMFC@GV?$ChTraitsCRT@G@ATL@@@@@ATL@@XZ ; RTFFuncs::GetTabString
PUBLIC	?Set_TabString@CTabctrlctrl1@@QAEXV?$CStringT@GV?$StrTraitMFC@GV?$ChTraitsCRT@G@ATL@@@@@ATL@@@Z ; CTabctrlctrl1::Set_TabString
PUBLIC	??0?$CStringT@GV?$StrTraitMFC@GV?$ChTraitsCRT@G@ATL@@@@@ATL@@QAE@ABV01@@Z ; ATL::CStringT<unsigned short,StrTraitMFC<unsigned short,ATL::ChTraitsCRT<unsigned short> > >::CStringT<unsigned short,StrTraitMFC<unsigned short,ATL::ChTraitsCRT<unsigned short> > >
PUBLIC	??_C@_1O@MJNGOMNI@?$AA?$CF?$AAl?$AA?$FL?$AA?$FO?$AA?9?$AA?$FN?$AA?$AA@ ; `string'
PUBLIC	??_C@_1LK@PBEPKGFF@?$AAs?$AAe?$AAl?$AAe?$AAc?$AAt?$AA?5?$AA?$CK?$AA?5?$AAf?$AAr?$AAo?$AAm?$AA?5?$AAR?$AAe?$AAp?$AAo?$AAr?$AAt@ ; `string'
PUBLIC	??_R0PAVCDaoException@@@8			; CDaoException * `RTTI Type Descriptor'
PUBLIC	??_C@_1CE@OOAKNAGM@?$AAE?$AAr?$AAr?$AAo?$AAr?$AA?5?$AAo?$AAn?$AA?5?$AAD?$AAa?$AAt?$AAa?$AAb?$AAa?$AAs?$AAe?$AA?$AA@ ; `string'
EXTRN	?SetRTF@RTFFuncs@@QAEXHAAV?$CStringT@GV?$StrTraitMFC@GV?$ChTraitsCRT@G@ATL@@@@@ATL@@@Z:NEAR ; RTFFuncs::SetRTF
EXTRN	?NewRTF@RTFFuncs@@QAEXH@Z:NEAR			; RTFFuncs::NewRTF
EXTRN	_swprintf:NEAR
EXTRN	??_7type_info@@6B@:DWORD			; type_info::`vftable'
EXTRN	_swscanf:NEAR
EXTRN	___security_cookie:DWORD
EXTRN	@_RTC_CheckStackVars@8:NEAR
EXTRN	@__security_check_cookie@4:NEAR
EXTRN	?alert_box@@YAHPAGPBGZZ:NEAR			; alert_box
EXTRN	?IsOpen@CDaoRecordset@@QBEHXZ:NEAR		; CDaoRecordset::IsOpen
EXTRN	?IsEOF@CDaoRecordset@@QBEHXZ:NEAR		; CDaoRecordset::IsEOF
EXTRN	?GetCurLanguage@@YAAAV?$CStringT@GV?$StrTraitMFC@GV?$ChTraitsCRT@G@ATL@@@@@ATL@@XZ:NEAR ; GetCurLanguage
EXTRN	?Invalidate@CWnd@@QAEXH@Z:NEAR			; CWnd::Invalidate
;	COMDAT xdata$x
xdata$x	SEGMENT
__unwindtable$?Find@CReportEdit@@IAEHXZ DD 0ffffffffH
	DD	FLAT:__unwindfunclet$?Find@CReportEdit@@IAEHXZ$2
	DD	00H
	DD	00H
	DD	00H
	DD	00H
__catchsym$?Find@CReportEdit@@IAEHXZ$4 DD 00H
	DD	FLAT:??_R0PAVCDaoException@@@8
	DD	0fffffa6cH
	DD	FLAT:__catch$?Find@CReportEdit@@IAEHXZ$0
__tryblocktable$?Find@CReportEdit@@IAEHXZ DD 01H
	DD	01H
	DD	02H
	DD	01H
	DD	FLAT:__catchsym$?Find@CReportEdit@@IAEHXZ$4
__ehfuncinfo$?Find@CReportEdit@@IAEHXZ DD 019930520H
	DD	03H
	DD	FLAT:__unwindtable$?Find@CReportEdit@@IAEHXZ
	DD	01H
	DD	FLAT:__tryblocktable$?Find@CReportEdit@@IAEHXZ
	DD	2 DUP(00H)
xdata$x	ENDS
;	COMDAT ??_C@_1O@MJNGOMNI@?$AA?$CF?$AAl?$AA?$FL?$AA?$FO?$AA?9?$AA?$FN?$AA?$AA@
CONST	SEGMENT
??_C@_1O@MJNGOMNI@?$AA?$CF?$AAl?$AA?$FL?$AA?$FO?$AA?9?$AA?$FN?$AA?$AA@ DB '%'
	DB	00H, 'l', 00H, '[', 00H, '^', 00H, '-', 00H, ']', 00H, 00H, 00H ; `string'
CONST	ENDS
;	COMDAT ??_C@_1LK@PBEPKGFF@?$AAs?$AAe?$AAl?$AAe?$AAc?$AAt?$AA?5?$AA?$CK?$AA?5?$AAf?$AAr?$AAo?$AAm?$AA?5?$AAR?$AAe?$AAp?$AAo?$AAr?$AAt@
CONST	SEGMENT
??_C@_1LK@PBEPKGFF@?$AAs?$AAe?$AAl?$AAe?$AAc?$AAt?$AA?5?$AA?$CK?$AA?5?$AAf?$AAr?$AAo?$AAm?$AA?5?$AAR?$AAe?$AAp?$AAo?$AAr?$AAt@ DB 's'
	DB	00H, 'e', 00H, 'l', 00H, 'e', 00H, 'c', 00H, 't', 00H, ' ', 00H
	DB	'*', 00H, ' ', 00H, 'f', 00H, 'r', 00H, 'o', 00H, 'm', 00H, ' '
	DB	00H, 'R', 00H, 'e', 00H, 'p', 00H, 'o', 00H, 'r', 00H, 't', 00H
	DB	'T', 00H, 'e', 00H, 'x', 00H, 't', 00H, ' ', 00H, 'w', 00H, 'h'
	DB	00H, 'e', 00H, 'r', 00H, 'e', 00H, ' ', 00H, 'T', 00H, 'e', 00H
	DB	'x', 00H, 't', 00H, 'T', 00H, 'y', 00H, 'p', 00H, 'e', 00H, '='
	DB	00H, '''', 00H, '%', 00H, 'l', 00H, 's', 00H, '''', 00H, ' ', 00H
	DB	'a', 00H, 'n', 00H, 'd', 00H, ' ', 00H, 't', 00H, 'e', 00H, 'x'
	DB	00H, 't', 00H, 'k', 00H, 'e', 00H, 'y', 00H, '=', 00H, '''', 00H
	DB	'%', 00H, 'l', 00H, 's', 00H, '''', 00H, ' ', 00H, 'a', 00H, 'n'
	DB	00H, 'd', 00H, ' ', 00H, 'i', 00H, 'I', 00H, 'n', 00H, 'd', 00H
	DB	'e', 00H, 'x', 00H, '=', 00H, '%', 00H, 'd', 00H, ' ', 00H, 'a'
	DB	00H, 'n', 00H, 'd', 00H, ' ', 00H, 'L', 00H, 'a', 00H, 'n', 00H
	DB	'g', 00H, '=', 00H, '''', 00H, '%', 00H, 'l', 00H, 's', 00H, ''''
	DB	00H, 00H, 00H				; `string'
CONST	ENDS
;	COMDAT ??_C@_1CE@OOAKNAGM@?$AAE?$AAr?$AAr?$AAo?$AAr?$AA?5?$AAo?$AAn?$AA?5?$AAD?$AAa?$AAt?$AAa?$AAb?$AAa?$AAs?$AAe?$AA?$AA@
CONST	SEGMENT
??_C@_1CE@OOAKNAGM@?$AAE?$AAr?$AAr?$AAo?$AAr?$AA?5?$AAo?$AAn?$AA?5?$AAD?$AAa?$AAt?$AAa?$AAb?$AAa?$AAs?$AAe?$AA?$AA@ DB 'E'
	DB	00H, 'r', 00H, 'r', 00H, 'o', 00H, 'r', 00H, ' ', 00H, 'o', 00H
	DB	'n', 00H, ' ', 00H, 'D', 00H, 'a', 00H, 't', 00H, 'a', 00H, 'b'
	DB	00H, 'a', 00H, 's', 00H, 'e', 00H, 00H, 00H	; `string'
CONST	ENDS
;	COMDAT ??_R0PAVCDaoException@@@8
_DATA	SEGMENT
??_R0PAVCDaoException@@@8 DD FLAT:??_7type_info@@6B@	; CDaoException * `RTTI Type Descriptor'
	DD	00H
	DB	'.PAVCDaoException@@', 00H
; Function compile flags: /Odt /RTCcsu /ZI
_DATA	ENDS
;	COMDAT ?Find@CReportEdit@@IAEHXZ
_TEXT	SEGMENT
tv187 = -1668						; size = 4
tv192 = -1664						; size = 4
tv191 = -1664						; size = 4
tv65 = -1664						; size = 4
$T94529 = -1656						; size = 4
$T94530 = -1644						; size = 4
$T94531 = -1632						; size = 4
_e$94107 = -1428					; size = 4
_Lang$ = -1416						; size = 4
_key1$ = -1404						; size = 50
_sqlbuf$ = -1344					; size = 300
_errbuf$ = -1036					; size = 1000
_this$ = -28						; size = 4
__$ArrayPad$ = -20					; size = 4
__$EHRec$ = -16						; size = 16
__$ReturnAddr$ = 4					; size = 4
?Find@CReportEdit@@IAEHXZ PROC NEAR			; CReportEdit::Find, COMDAT
; _this$ = ecx

; 318  : {

	push	ebp
	mov	ebp, esp
	push	-1
	push	__ehhandler$?Find@CReportEdit@@IAEHXZ
	mov	eax, DWORD PTR fs:__except_list
	push	eax
	mov	DWORD PTR fs:__except_list, esp
	push	ecx
	sub	esp, 1652				; 00000674H
	push	ebx
	push	esi
	push	edi
	push	ecx
	lea	edi, DWORD PTR [ebp-1668]
	mov	ecx, 413				; 0000019dH
	mov	eax, -858993460				; ccccccccH
	rep stosd
	pop	ecx
	mov	eax, DWORD PTR ___security_cookie
	mov	DWORD PTR __$ArrayPad$[ebp], eax
	mov	DWORD PTR __$EHRec$[ebp], esp
	mov	DWORD PTR _this$[ebp], ecx

; 319  :  TCHAR errbuf[500], sqlbuf[150], key1[25];
; 320  :  CString Lang = GetCurLanguage();

	call	?GetCurLanguage@@YAAAV?$CStringT@GV?$StrTraitMFC@GV?$ChTraitsCRT@G@ATL@@@@@ATL@@XZ ; GetCurLanguage
	push	eax
	lea	ecx, DWORD PTR _Lang$[ebp]
	call	??0?$CStringT@GV?$StrTraitMFC@GV?$ChTraitsCRT@G@ATL@@@@@ATL@@QAE@ABV01@@Z ; ATL::CStringT<unsigned short,StrTraitMFC<unsigned short,ATL::ChTraitsCRT<unsigned short> > >::CStringT<unsigned short,StrTraitMFC<unsigned short,ATL::ChTraitsCRT<unsigned short> > >
	mov	DWORD PTR __$EHRec$[ebp+12], 0

; 321  : try {

	mov	BYTE PTR __$EHRec$[ebp+12], 1

; 322  : #ifdef _UNICODE
; 323  :    _stscanf((const TCHAR *)m_TextIdStr,_T("%l[^-]"), key1 );

	lea	eax, DWORD PTR _key1$[ebp]
	push	eax
	push	OFFSET FLAT:??_C@_1O@MJNGOMNI@?$AA?$CF?$AAl?$AA?$FL?$AA?$FO?$AA?9?$AA?$FN?$AA?$AA@
	mov	ecx, DWORD PTR _this$[ebp]
	add	ecx, 376				; 00000178H
	call	??B?$CSimpleStringT@G$0A@@ATL@@QBEPBGXZ	; ATL::CSimpleStringT<unsigned short,0>::operator unsigned short const *
	push	eax
	call	_swscanf
	add	esp, 12					; 0000000cH

; 324  :    _stprintf( sqlbuf, _T("select * from ReportText where TextType='%ls' and textkey='%ls' and iIndex=%d and Lang='%ls'"),
; 325  :       (LPCTSTR)m_TextType, key1, m_Index, (LPCTSTR)Lang);

	lea	ecx, DWORD PTR _Lang$[ebp]
	call	??B?$CSimpleStringT@G$0A@@ATL@@QBEPBGXZ	; ATL::CSimpleStringT<unsigned short,0>::operator unsigned short const *
	push	eax
	mov	eax, DWORD PTR _this$[ebp]
	mov	ecx, DWORD PTR [eax+112]
	push	ecx
	lea	edx, DWORD PTR _key1$[ebp]
	push	edx
	mov	ecx, DWORD PTR _this$[ebp]
	add	ecx, 380				; 0000017cH
	call	??B?$CSimpleStringT@G$0A@@ATL@@QBEPBGXZ	; ATL::CSimpleStringT<unsigned short,0>::operator unsigned short const *
	push	eax
	push	OFFSET FLAT:??_C@_1LK@PBEPKGFF@?$AAs?$AAe?$AAl?$AAe?$AAc?$AAt?$AA?5?$AA?$CK?$AA?5?$AAf?$AAr?$AAo?$AAm?$AA?5?$AAR?$AAe?$AAp?$AAo?$AAr?$AAt@
	lea	eax, DWORD PTR _sqlbuf$[ebp]
	push	eax
	call	_swprintf
	add	esp, 24					; 00000018H

; 326  : #else
; 327  :    sscanf((const char *)m_TextIdStr,_T("%[^-]"), key1 );
; 328  :    sprintf( sqlbuf, _T("select * from ReportText where TextType='%s' and textkey='%s' and iIndex=%d"),
; 329  :       (LPCTSTR)m_TextType, key1, m_Index);
; 330  : #endif
; 331  : 
; 332  :   
; 333  :    if ( theSet.IsOpen() )

	mov	ecx, DWORD PTR _this$[ebp]
	add	ecx, 204				; 000000ccH
	call	?IsOpen@CDaoRecordset@@QBEHXZ		; CDaoRecordset::IsOpen
	mov	DWORD PTR tv65[ebp], eax
	cmp	DWORD PTR tv65[ebp], 0
	je	SHORT $L94103

; 334  : 	   theSet.Close();

	mov	ecx, DWORD PTR _this$[ebp]
	add	ecx, 204				; 000000ccH
	mov	esi, esp
	mov	eax, DWORD PTR _this$[ebp]
	mov	edx, DWORD PTR [eax+204]
	call	DWORD PTR [edx+32]
	cmp	esi, esp
	call	__RTC_CheckEsp
$L94103:

; 335  :    theSet.Open(dbOpenDynaset,sqlbuf);

	mov	esi, esp
	push	0
	lea	eax, DWORD PTR _sqlbuf$[ebp]
	push	eax
	push	2
	mov	ecx, DWORD PTR _this$[ebp]
	add	ecx, 204				; 000000ccH
	mov	edx, DWORD PTR _this$[ebp]
	mov	eax, DWORD PTR [edx+204]
	call	DWORD PTR [eax+28]
	cmp	esi, esp
	call	__RTC_CheckEsp

; 336  :    if ( theSet.IsEOF() )

	mov	ecx, DWORD PTR _this$[ebp]
	add	ecx, 204				; 000000ccH
	call	?IsEOF@CDaoRecordset@@QBEHXZ		; CDaoRecordset::IsEOF
	mov	DWORD PTR tv191[ebp], eax
	cmp	DWORD PTR tv191[ebp], 0
	je	SHORT $L94104

; 337  : 	   pFuncs->NewRTF(IDC_TEXT);

	push	1004					; 000003ecH
	mov	eax, DWORD PTR _this$[ebp]
	mov	ecx, DWORD PTR [eax+388]
	call	?NewRTF@RTFFuncs@@QAEXH@Z		; RTFFuncs::NewRTF

; 338  :    else

	jmp	SHORT $L94105
$L94104:

; 339  :       pFuncs->SetRTF(IDC_TEXT,theSet.m_text);

	mov	eax, DWORD PTR _this$[ebp]
	add	eax, 368				; 00000170H
	push	eax
	push	1004					; 000003ecH
	mov	ecx, DWORD PTR _this$[ebp]
	mov	ecx, DWORD PTR [ecx+388]
	call	?SetRTF@RTFFuncs@@QAEXHAAV?$CStringT@GV?$StrTraitMFC@GV?$ChTraitsCRT@G@ATL@@@@@ATL@@@Z ; RTFFuncs::SetRTF
$L94105:

; 340  :    m_tabctrl.Set_TabString(pFuncs->GetTabString());

	mov	eax, DWORD PTR _this$[ebp]
	mov	ecx, DWORD PTR [eax+388]
	call	?GetTabString@RTFFuncs@@QAEAAV?$CStringT@GV?$StrTraitMFC@GV?$ChTraitsCRT@G@ATL@@@@@ATL@@XZ ; RTFFuncs::GetTabString
	mov	DWORD PTR tv192[ebp], eax
	push	ecx
	mov	ecx, esp
	mov	DWORD PTR $T94529[ebp], esp
	mov	edx, DWORD PTR tv192[ebp]
	push	edx
	call	??0?$CStringT@GV?$StrTraitMFC@GV?$ChTraitsCRT@G@ATL@@@@@ATL@@QAE@ABV01@@Z ; ATL::CStringT<unsigned short,StrTraitMFC<unsigned short,ATL::ChTraitsCRT<unsigned short> > >::CStringT<unsigned short,StrTraitMFC<unsigned short,ATL::ChTraitsCRT<unsigned short> > >
	mov	DWORD PTR tv187[ebp], eax
	mov	ecx, DWORD PTR _this$[ebp]
	add	ecx, 392				; 00000188H
	call	?Set_TabString@CTabctrlctrl1@@QAEXV?$CStringT@GV?$StrTraitMFC@GV?$ChTraitsCRT@G@ATL@@@@@ATL@@@Z ; CTabctrlctrl1::Set_TabString

; 341  :    Invalidate(FALSE); 

	push	0
	mov	ecx, DWORD PTR _this$[ebp]
	call	?Invalidate@CWnd@@QAEXH@Z		; CWnd::Invalidate
	jmp	SHORT $L94532
__catch$?Find@CReportEdit@@IAEHXZ$0:

; 342  : }
; 343  :  catch ( CDaoException *e ) {
; 344  :    e->GetErrorMessage(errbuf,499);

	mov	esi, esp
	push	0
	push	499					; 000001f3H
	lea	eax, DWORD PTR _errbuf$[ebp]
	push	eax
	mov	ecx, DWORD PTR _e$94107[ebp]
	mov	edx, DWORD PTR [ecx]
	mov	ecx, DWORD PTR _e$94107[ebp]
	call	DWORD PTR [edx+20]
	cmp	esi, esp
	call	__RTC_CheckEsp

; 345  :    alert_box(_T("Error on Database"), errbuf );

	lea	eax, DWORD PTR _errbuf$[ebp]
	push	eax
	push	OFFSET FLAT:??_C@_1CE@OOAKNAGM@?$AAE?$AAr?$AAr?$AAo?$AAr?$AA?5?$AAo?$AAn?$AA?5?$AAD?$AAa?$AAt?$AAa?$AAb?$AAa?$AAs?$AAe?$AA?$AA@
	call	?alert_box@@YAHPAGPBGZZ			; alert_box
	add	esp, 8

; 346  :    return ( 0 );

	mov	DWORD PTR $T94530[ebp], 0
	mov	eax, $L94537
	ret	0
$L94532:

; 347  :   }

	mov	DWORD PTR __$EHRec$[ebp+12], 0

; 346  :    return ( 0 );

	jmp	SHORT __tryend$?Find@CReportEdit@@IAEHXZ$1
$L94537:
	mov	DWORD PTR __$EHRec$[ebp+12], -1
	lea	ecx, DWORD PTR _Lang$[ebp]
	call	??1?$CStringT@GV?$StrTraitMFC@GV?$ChTraitsCRT@G@ATL@@@@@ATL@@QAE@XZ ; ATL::CStringT<unsigned short,StrTraitMFC<unsigned short,ATL::ChTraitsCRT<unsigned short> > >::~CStringT<unsigned short,StrTraitMFC<unsigned short,ATL::ChTraitsCRT<unsigned short> > >
	mov	eax, DWORD PTR $T94530[ebp]
	jmp	SHORT $L94092
__tryend$?Find@CReportEdit@@IAEHXZ$1:

; 348  :  return ( 1 );

	mov	DWORD PTR $T94531[ebp], 1
	mov	DWORD PTR __$EHRec$[ebp+12], -1
	lea	ecx, DWORD PTR _Lang$[ebp]
	call	??1?$CStringT@GV?$StrTraitMFC@GV?$ChTraitsCRT@G@ATL@@@@@ATL@@QAE@XZ ; ATL::CStringT<unsigned short,StrTraitMFC<unsigned short,ATL::ChTraitsCRT<unsigned short> > >::~CStringT<unsigned short,StrTraitMFC<unsigned short,ATL::ChTraitsCRT<unsigned short> > >
	mov	eax, DWORD PTR $T94531[ebp]
$L94092:

; 349  : 
; 350  : }

	push	edx
	mov	ecx, ebp
	push	eax
	lea	edx, DWORD PTR $L94549
	call	@_RTC_CheckStackVars@8
	pop	eax
	pop	edx
	mov	ecx, DWORD PTR __$EHRec$[ebp+4]
	mov	DWORD PTR fs:__except_list, ecx
	mov	ecx, DWORD PTR __$ArrayPad$[ebp]
	call	@__security_check_cookie@4
	pop	edi
	pop	esi
	pop	ebx
	add	esp, 1668				; 00000684H
	cmp	ebp, esp
	call	__RTC_CheckEsp
	mov	esp, ebp
	pop	ebp
	ret	0
$L94549:
	DD	5
	DD	$L94548
$L94548:
	DD	-1036					; fffffbf4H
	DD	1000					; 000003e8H
	DD	$L94540
	DD	-1344					; fffffac0H
	DD	300					; 0000012cH
	DD	$L94541
	DD	-1404					; fffffa84H
	DD	50					; 00000032H
	DD	$L94542
	DD	-1416					; fffffa78H
	DD	4
	DD	$L94543
	DD	-1428					; fffffa6cH
	DD	4
	DD	$L94544
$L94544:
	DB	101					; 00000065H
	DB	0
$L94543:
	DB	76					; 0000004cH
	DB	97					; 00000061H
	DB	110					; 0000006eH
	DB	103					; 00000067H
	DB	0
$L94542:
	DB	107					; 0000006bH
	DB	101					; 00000065H
	DB	121					; 00000079H
	DB	49					; 00000031H
	DB	0
$L94541:
	DB	115					; 00000073H
	DB	113					; 00000071H
	DB	108					; 0000006cH
	DB	98					; 00000062H
	DB	117					; 00000075H
	DB	102					; 00000066H
	DB	0
$L94540:
	DB	101					; 00000065H
	DB	114					; 00000072H
	DB	114					; 00000072H
	DB	98					; 00000062H
	DB	117					; 00000075H
	DB	102					; 00000066H
	DB	0
_TEXT	ENDS
;	COMDAT text$x
text$x	SEGMENT
__unwindfunclet$?Find@CReportEdit@@IAEHXZ$2:
	lea	ecx, DWORD PTR _Lang$[ebp]
	jmp	??1?$CStringT@GV?$StrTraitMFC@GV?$ChTraitsCRT@G@ATL@@@@@ATL@@QAE@XZ ; ATL::CStringT<unsigned short,StrTraitMFC<unsigned short,ATL::ChTraitsCRT<unsigned short> > >::~CStringT<unsigned short,StrTraitMFC<unsigned short,ATL::ChTraitsCRT<unsigned short> > >
__ehhandler$?Find@CReportEdit@@IAEHXZ:
	mov	eax, OFFSET FLAT:__ehfuncinfo$?Find@CReportEdit@@IAEHXZ
	jmp	___CxxFrameHandler
text$x	ENDS
?Find@CReportEdit@@IAEHXZ ENDP				; CReportEdit::Find
; Function compile flags: /Odt /RTCcsu /ZI
; File c:\astrow32dev\tbt32\rtffuncs.h
;	COMDAT ?GetTabString@RTFFuncs@@QAEAAV?$CStringT@GV?$StrTraitMFC@GV?$ChTraitsCRT@G@ATL@@@@@ATL@@XZ
_TEXT	SEGMENT
_this$ = -8						; size = 4
?GetTabString@RTFFuncs@@QAEAAV?$CStringT@GV?$StrTraitMFC@GV?$ChTraitsCRT@G@ATL@@@@@ATL@@XZ PROC NEAR ; RTFFuncs::GetTabString, COMDAT
; _this$ = ecx

; 38   :    CString &GetTabString() { return tabstring; }

	push	ebp
	mov	ebp, esp
	sub	esp, 204				; 000000ccH
	push	ebx
	push	esi
	push	edi
	push	ecx
	lea	edi, DWORD PTR [ebp-204]
	mov	ecx, 51					; 00000033H
	mov	eax, -858993460				; ccccccccH
	rep stosd
	pop	ecx
	mov	DWORD PTR _this$[ebp], ecx
	mov	eax, DWORD PTR _this$[ebp]
	add	eax, 4
	pop	edi
	pop	esi
	pop	ebx
	mov	esp, ebp
	pop	ebp
	ret	0
?GetTabString@RTFFuncs@@QAEAAV?$CStringT@GV?$StrTraitMFC@GV?$ChTraitsCRT@G@ATL@@@@@ATL@@XZ ENDP ; RTFFuncs::GetTabString
_TEXT	ENDS
EXTRN	?SetProperty@CWnd@@QAAXJGZZ:NEAR		; CWnd::SetProperty
;	COMDAT xdata$x
; File c:\astrow32dev\tbt32\tabctrlctrl1.h
xdata$x	SEGMENT
__unwindtable$?Set_TabString@CTabctrlctrl1@@QAEXV?$CStringT@GV?$StrTraitMFC@GV?$ChTraitsCRT@G@ATL@@@@@ATL@@@Z DD 0ffffffffH
	DD	FLAT:__unwindfunclet$?Set_TabString@CTabctrlctrl1@@QAEXV?$CStringT@GV?$StrTraitMFC@GV?$ChTraitsCRT@G@ATL@@@@@ATL@@@Z$0
__ehfuncinfo$?Set_TabString@CTabctrlctrl1@@QAEXV?$CStringT@GV?$StrTraitMFC@GV?$ChTraitsCRT@G@ATL@@@@@ATL@@@Z DD 019930520H
	DD	01H
	DD	FLAT:__unwindtable$?Set_TabString@CTabctrlctrl1@@QAEXV?$CStringT@GV?$StrTraitMFC@GV?$ChTraitsCRT@G@ATL@@@@@ATL@@@Z
	DD	2 DUP(00H)
	DD	2 DUP(00H)
; Function compile flags: /Odt /RTCcsu /ZI
xdata$x	ENDS
;	COMDAT ?Set_TabString@CTabctrlctrl1@@QAEXV?$CStringT@GV?$StrTraitMFC@GV?$ChTraitsCRT@G@ATL@@@@@ATL@@@Z
_TEXT	SEGMENT
_this$ = -20						; size = 4
__$EHRec$ = -12						; size = 12
_propVal$ = 8						; size = 4
?Set_TabString@CTabctrlctrl1@@QAEXV?$CStringT@GV?$StrTraitMFC@GV?$ChTraitsCRT@G@ATL@@@@@ATL@@@Z PROC NEAR ; CTabctrlctrl1::Set_TabString, COMDAT
; _this$ = ecx

; 70   : {

	push	ebp
	mov	ebp, esp
	push	-1
	push	__ehhandler$?Set_TabString@CTabctrlctrl1@@QAEXV?$CStringT@GV?$StrTraitMFC@GV?$ChTraitsCRT@G@ATL@@@@@ATL@@@Z
	mov	eax, DWORD PTR fs:__except_list
	push	eax
	mov	DWORD PTR fs:__except_list, esp
	sub	esp, 204				; 000000ccH
	push	ebx
	push	esi
	push	edi
	push	ecx
	lea	edi, DWORD PTR [ebp-216]
	mov	ecx, 51					; 00000033H
	mov	eax, -858993460				; ccccccccH
	rep stosd
	pop	ecx
	mov	DWORD PTR _this$[ebp], ecx
	mov	DWORD PTR __$EHRec$[ebp+8], 0

; 71   : 	SetProperty(0x0, VT_BSTR, propVal);

	mov	eax, DWORD PTR _propVal$[ebp]
	push	eax
	push	8
	push	0
	mov	ecx, DWORD PTR _this$[ebp]
	push	ecx
	call	?SetProperty@CWnd@@QAAXJGZZ		; CWnd::SetProperty
	add	esp, 16					; 00000010H

; 72   : }

	mov	DWORD PTR __$EHRec$[ebp+8], -1
	lea	ecx, DWORD PTR _propVal$[ebp]
	call	??1?$CStringT@GV?$StrTraitMFC@GV?$ChTraitsCRT@G@ATL@@@@@ATL@@QAE@XZ ; ATL::CStringT<unsigned short,StrTraitMFC<unsigned short,ATL::ChTraitsCRT<unsigned short> > >::~CStringT<unsigned short,StrTraitMFC<unsigned short,ATL::ChTraitsCRT<unsigned short> > >
	mov	ecx, DWORD PTR __$EHRec$[ebp]
	mov	DWORD PTR fs:__except_list, ecx
	pop	edi
	pop	esi
	pop	ebx
	add	esp, 216				; 000000d8H
	cmp	ebp, esp
	call	__RTC_CheckEsp
	mov	esp, ebp
	pop	ebp
	ret	4
_TEXT	ENDS
;	COMDAT text$x
text$x	SEGMENT
__unwindfunclet$?Set_TabString@CTabctrlctrl1@@QAEXV?$CStringT@GV?$StrTraitMFC@GV?$ChTraitsCRT@G@ATL@@@@@ATL@@@Z$0:
	lea	ecx, DWORD PTR _propVal$[ebp]
	jmp	??1?$CStringT@GV?$StrTraitMFC@GV?$ChTraitsCRT@G@ATL@@@@@ATL@@QAE@XZ ; ATL::CStringT<unsigned short,StrTraitMFC<unsigned short,ATL::ChTraitsCRT<unsigned short> > >::~CStringT<unsigned short,StrTraitMFC<unsigned short,ATL::ChTraitsCRT<unsigned short> > >
__ehhandler$?Set_TabString@CTabctrlctrl1@@QAEXV?$CStringT@GV?$StrTraitMFC@GV?$ChTraitsCRT@G@ATL@@@@@ATL@@@Z:
	mov	eax, OFFSET FLAT:__ehfuncinfo$?Set_TabString@CTabctrlctrl1@@QAEXV?$CStringT@GV?$StrTraitMFC@GV?$ChTraitsCRT@G@ATL@@@@@ATL@@@Z
	jmp	___CxxFrameHandler
text$x	ENDS
?Set_TabString@CTabctrlctrl1@@QAEXV?$CStringT@GV?$StrTraitMFC@GV?$ChTraitsCRT@G@ATL@@@@@ATL@@@Z ENDP ; CTabctrlctrl1::Set_TabString
PUBLIC	?SetTabString@RTFFuncs@@QAEXAAV?$CStringT@GV?$StrTraitMFC@GV?$ChTraitsCRT@G@ATL@@@@@ATL@@@Z ; RTFFuncs::SetTabString
PUBLIC	?GetTabString@CTabctrlctrl1@@QAE?AV?$CStringT@GV?$StrTraitMFC@GV?$ChTraitsCRT@G@ATL@@@@@ATL@@XZ ; CTabctrlctrl1::GetTabString
PUBLIC	?value@CSymbol@@QAEAAHXZ			; CSymbol::value
PUBLIC	?Find@CRSymbolAry@@QAEPAVCRSymbol@@PBGH@Z	; CRSymbolAry::Find
PUBLIC	??4?$CStringT@GV?$StrTraitMFC@GV?$ChTraitsCRT@G@ATL@@@@@ATL@@QAEAAV01@ABV01@@Z ; ATL::CStringT<unsigned short,StrTraitMFC<unsigned short,ATL::ChTraitsCRT<unsigned short> > >::operator=
PUBLIC	??_C@_1CK@CLAGECII@?$AAC?$AAa?$AAn?$AA?8?$AAt?$AA?5?$AAF?$AAi?$AAn?$AAd?$AA?5?$AAS?$AAy?$AAm?$AAb?$AAo?$AAl?$AA?5?$AA?$CF?$AAs@ ; `string'
PUBLIC	??_C@_1BG@NOPLIDDJ@?$AAB?$AAa?$AAd?$AA?5?$AAS?$AAy?$AAm?$AAb?$AAo?$AAl?$AA?$AA@ ; `string'
EXTRN	?GetRTF@RTFFuncs@@QAE?AV?$CStringT@GV?$StrTraitMFC@GV?$ChTraitsCRT@G@ATL@@@@@ATL@@H@Z:NEAR ; RTFFuncs::GetRTF
EXTRN	@_RTC_Check_4_to_2@4:NEAR
EXTRN	?TrimTraillfcr@@YAXAAV?$CStringT@GV?$StrTraitMFC@GV?$ChTraitsCRT@G@ATL@@@@@ATL@@@Z:NEAR ; TrimTraillfcr
;	COMDAT xdata$x
; File c:\astrow32dev\tbt32\reportedit.cpp
xdata$x	SEGMENT
__unwindtable$?Save@CReportEdit@@IAEHXZ DD 0ffffffffH
	DD	00H
	DD	00H
	DD	FLAT:__unwindfunclet$?Save@CReportEdit@@IAEHXZ$2
	DD	00H
	DD	FLAT:__unwindfunclet$?Save@CReportEdit@@IAEHXZ$3
	DD	0ffffffffH
	DD	00H
__catchsym$?Save@CReportEdit@@IAEHXZ$4 DD 00H
	DD	FLAT:??_R0PAVCDaoException@@@8
	DD	0fffffba0H
	DD	FLAT:__catch$?Save@CReportEdit@@IAEHXZ$0
__tryblocktable$?Save@CReportEdit@@IAEHXZ DD 00H
	DD	02H
	DD	03H
	DD	01H
	DD	FLAT:__catchsym$?Save@CReportEdit@@IAEHXZ$4
__ehfuncinfo$?Save@CReportEdit@@IAEHXZ DD 019930520H
	DD	04H
	DD	FLAT:__unwindtable$?Save@CReportEdit@@IAEHXZ
	DD	01H
	DD	FLAT:__tryblocktable$?Save@CReportEdit@@IAEHXZ
	DD	2 DUP(00H)
xdata$x	ENDS
;	COMDAT ??_C@_1CK@CLAGECII@?$AAC?$AAa?$AAn?$AA?8?$AAt?$AA?5?$AAF?$AAi?$AAn?$AAd?$AA?5?$AAS?$AAy?$AAm?$AAb?$AAo?$AAl?$AA?5?$AA?$CF?$AAs@
CONST	SEGMENT
??_C@_1CK@CLAGECII@?$AAC?$AAa?$AAn?$AA?8?$AAt?$AA?5?$AAF?$AAi?$AAn?$AAd?$AA?5?$AAS?$AAy?$AAm?$AAb?$AAo?$AAl?$AA?5?$AA?$CF?$AAs@ DB 'C'
	DB	00H, 'a', 00H, 'n', 00H, '''', 00H, 't', 00H, ' ', 00H, 'F', 00H
	DB	'i', 00H, 'n', 00H, 'd', 00H, ' ', 00H, 'S', 00H, 'y', 00H, 'm'
	DB	00H, 'b', 00H, 'o', 00H, 'l', 00H, ' ', 00H, '%', 00H, 's', 00H
	DB	00H, 00H					; `string'
CONST	ENDS
;	COMDAT ??_C@_1BG@NOPLIDDJ@?$AAB?$AAa?$AAd?$AA?5?$AAS?$AAy?$AAm?$AAb?$AAo?$AAl?$AA?$AA@
CONST	SEGMENT
??_C@_1BG@NOPLIDDJ@?$AAB?$AAa?$AAd?$AA?5?$AAS?$AAy?$AAm?$AAb?$AAo?$AAl?$AA?$AA@ DB 'B'
	DB	00H, 'a', 00H, 'd', 00H, ' ', 00H, 'S', 00H, 'y', 00H, 'm', 00H
	DB	'b', 00H, 'o', 00H, 'l', 00H, 00H, 00H	; `string'
; Function compile flags: /Odt /RTCcsu /ZI
CONST	ENDS
;	COMDAT ?Save@CReportEdit@@IAEHXZ
_TEXT	SEGMENT
tv208 = -1360						; size = 4
tv206 = -1360						; size = 4
tv215 = -1356						; size = 4
tv214 = -1356						; size = 4
tv213 = -1356						; size = 4
tv212 = -1356						; size = 4
tv211 = -1356						; size = 4
tv210 = -1356						; size = 4
$T94571 = -1348						; size = 4
$T94572 = -1336						; size = 4
$T94573 = -1324						; size = 4
_e$94128 = -1120					; size = 4
_pSym$94124 = -1108					; size = 4
_key1$ = -1096						; size = 50
_errbuf$ = -1036					; size = 1000
_this$ = -28						; size = 4
__$ArrayPad$ = -20					; size = 4
__$EHRec$ = -16						; size = 16
__$ReturnAddr$ = 4					; size = 4
?Save@CReportEdit@@IAEHXZ PROC NEAR			; CReportEdit::Save, COMDAT
; _this$ = ecx

; 353  : {

	push	ebp
	mov	ebp, esp
	push	-1
	push	__ehhandler$?Save@CReportEdit@@IAEHXZ
	mov	eax, DWORD PTR fs:__except_list
	push	eax
	mov	DWORD PTR fs:__except_list, esp
	push	ecx
	sub	esp, 1344				; 00000540H
	push	ebx
	push	esi
	push	edi
	push	ecx
	lea	edi, DWORD PTR [ebp-1360]
	mov	ecx, 336				; 00000150H
	mov	eax, -858993460				; ccccccccH
	rep stosd
	pop	ecx
	mov	eax, DWORD PTR ___security_cookie
	mov	DWORD PTR __$ArrayPad$[ebp], eax
	mov	DWORD PTR __$EHRec$[ebp], esp
	mov	DWORD PTR _this$[ebp], ecx

; 354  :  TCHAR errbuf[500], key1[25];
; 355  : try {

	mov	DWORD PTR __$EHRec$[ebp+12], 0

; 356  :    if ( !theSet.IsOpen() )

	mov	ecx, DWORD PTR _this$[ebp]
	add	ecx, 204				; 000000ccH
	call	?IsOpen@CDaoRecordset@@QBEHXZ		; CDaoRecordset::IsOpen
	mov	DWORD PTR tv210[ebp], eax
	cmp	DWORD PTR tv210[ebp], 0
	jne	SHORT $L94118

; 357  :       theSet.Open();

	mov	esi, esp
	push	0
	push	0
	push	-1
	mov	ecx, DWORD PTR _this$[ebp]
	add	ecx, 204				; 000000ccH
	mov	eax, DWORD PTR _this$[ebp]
	mov	edx, DWORD PTR [eax+204]
	call	DWORD PTR [edx+28]
	cmp	esi, esp
	call	__RTC_CheckEsp
$L94118:

; 358  :    if ( theSet.IsEOF() )

	mov	ecx, DWORD PTR _this$[ebp]
	add	ecx, 204				; 000000ccH
	call	?IsEOF@CDaoRecordset@@QBEHXZ		; CDaoRecordset::IsEOF
	mov	DWORD PTR tv211[ebp], eax
	cmp	DWORD PTR tv211[ebp], 0
	je	SHORT $L94119

; 359  : 	   theSet.AddNew();

	mov	ecx, DWORD PTR _this$[ebp]
	add	ecx, 204				; 000000ccH
	mov	esi, esp
	mov	eax, DWORD PTR _this$[ebp]
	mov	edx, DWORD PTR [eax+204]
	call	DWORD PTR [edx+44]
	cmp	esi, esp
	call	__RTC_CheckEsp

; 360  :    else

	jmp	SHORT $L94120
$L94119:

; 361  : 	   theSet.Edit();

	mov	ecx, DWORD PTR _this$[ebp]
	add	ecx, 204				; 000000ccH
	mov	esi, esp
	mov	eax, DWORD PTR _this$[ebp]
	mov	edx, DWORD PTR [eax+204]
	call	DWORD PTR [edx+48]
	cmp	esi, esp
	call	__RTC_CheckEsp
$L94120:

; 362  : #ifdef _UNICODE
; 363  :    _stscanf((const TCHAR *)m_TextIdStr,_T("%l[^-]"), key1 );

	lea	eax, DWORD PTR _key1$[ebp]
	push	eax
	push	OFFSET FLAT:??_C@_1O@MJNGOMNI@?$AA?$CF?$AAl?$AA?$FL?$AA?$FO?$AA?9?$AA?$FN?$AA?$AA@
	mov	ecx, DWORD PTR _this$[ebp]
	add	ecx, 376				; 00000178H
	call	??B?$CSimpleStringT@G$0A@@ATL@@QBEPBGXZ	; ATL::CSimpleStringT<unsigned short,0>::operator unsigned short const *
	push	eax
	call	_swscanf
	add	esp, 12					; 0000000cH

; 364  : #else
; 365  :    sscanf((const char *)m_TextIdStr,_T("%[^-]"), key1 );
; 366  : #endif
; 367  : 
; 368  :    theSet.m_textkey = key1;

	lea	eax, DWORD PTR _key1$[ebp]
	push	eax
	mov	ecx, DWORD PTR _this$[ebp]
	add	ecx, 360				; 00000168H
	call	??4?$CStringT@GV?$StrTraitMFC@GV?$ChTraitsCRT@G@ATL@@@@@ATL@@QAEAAV01@PBG@Z ; ATL::CStringT<unsigned short,StrTraitMFC<unsigned short,ATL::ChTraitsCRT<unsigned short> > >::operator=

; 369  :    theSet.m_iIndex = m_Index;

	mov	eax, DWORD PTR _this$[ebp]
	mov	ecx, DWORD PTR [eax+112]
	call	@_RTC_Check_4_to_2@4
	mov	ecx, DWORD PTR _this$[ebp]
	mov	WORD PTR [ecx+364], ax

; 370  :    theSet.m_texttype = m_TextType;

	mov	eax, DWORD PTR _this$[ebp]
	add	eax, 380				; 0000017cH
	push	eax
	mov	ecx, DWORD PTR _this$[ebp]
	add	ecx, 356				; 00000164H
	call	??4?$CStringT@GV?$StrTraitMFC@GV?$ChTraitsCRT@G@ATL@@@@@ATL@@QAEAAV01@ABV01@@Z ; ATL::CStringT<unsigned short,StrTraitMFC<unsigned short,ATL::ChTraitsCRT<unsigned short> > >::operator=

; 371  :    pFuncs->SetTabString(m_tabctrl.GetTabString());

	lea	eax, DWORD PTR $T94571[ebp]
	push	eax
	mov	ecx, DWORD PTR _this$[ebp]
	add	ecx, 392				; 00000188H
	call	?GetTabString@CTabctrlctrl1@@QAE?AV?$CStringT@GV?$StrTraitMFC@GV?$ChTraitsCRT@G@ATL@@@@@ATL@@XZ ; CTabctrlctrl1::GetTabString
	mov	DWORD PTR tv212[ebp], eax
	mov	ecx, DWORD PTR tv212[ebp]
	mov	DWORD PTR tv206[ebp], ecx
	mov	BYTE PTR __$EHRec$[ebp+12], 1
	mov	edx, DWORD PTR tv206[ebp]
	push	edx
	mov	eax, DWORD PTR _this$[ebp]
	mov	ecx, DWORD PTR [eax+388]
	call	?SetTabString@RTFFuncs@@QAEXAAV?$CStringT@GV?$StrTraitMFC@GV?$ChTraitsCRT@G@ATL@@@@@ATL@@@Z ; RTFFuncs::SetTabString
	mov	BYTE PTR __$EHRec$[ebp+12], 0
	lea	ecx, DWORD PTR $T94571[ebp]
	call	??1?$CStringT@GV?$StrTraitMFC@GV?$ChTraitsCRT@G@ATL@@@@@ATL@@QAE@XZ ; ATL::CStringT<unsigned short,StrTraitMFC<unsigned short,ATL::ChTraitsCRT<unsigned short> > >::~CStringT<unsigned short,StrTraitMFC<unsigned short,ATL::ChTraitsCRT<unsigned short> > >

; 372  :    theSet.m_text = pFuncs->GetRTF(IDC_TEXT);

	push	1004					; 000003ecH
	lea	eax, DWORD PTR $T94572[ebp]
	push	eax
	mov	ecx, DWORD PTR _this$[ebp]
	mov	ecx, DWORD PTR [ecx+388]
	call	?GetRTF@RTFFuncs@@QAE?AV?$CStringT@GV?$StrTraitMFC@GV?$ChTraitsCRT@G@ATL@@@@@ATL@@H@Z ; RTFFuncs::GetRTF
	mov	DWORD PTR tv213[ebp], eax
	mov	edx, DWORD PTR tv213[ebp]
	mov	DWORD PTR tv208[ebp], edx
	mov	BYTE PTR __$EHRec$[ebp+12], 2
	mov	eax, DWORD PTR tv208[ebp]
	push	eax
	mov	ecx, DWORD PTR _this$[ebp]
	add	ecx, 368				; 00000170H
	call	??4?$CStringT@GV?$StrTraitMFC@GV?$ChTraitsCRT@G@ATL@@@@@ATL@@QAEAAV01@ABV01@@Z ; ATL::CStringT<unsigned short,StrTraitMFC<unsigned short,ATL::ChTraitsCRT<unsigned short> > >::operator=
	mov	BYTE PTR __$EHRec$[ebp+12], 0
	lea	ecx, DWORD PTR $T94572[ebp]
	call	??1?$CStringT@GV?$StrTraitMFC@GV?$ChTraitsCRT@G@ATL@@@@@ATL@@QAE@XZ ; ATL::CStringT<unsigned short,StrTraitMFC<unsigned short,ATL::ChTraitsCRT<unsigned short> > >::~CStringT<unsigned short,StrTraitMFC<unsigned short,ATL::ChTraitsCRT<unsigned short> > >

; 373  :    TrimTraillfcr(theSet.m_text);

	mov	eax, DWORD PTR _this$[ebp]
	add	eax, 368				; 00000170H
	push	eax
	call	?TrimTraillfcr@@YAXAAV?$CStringT@GV?$StrTraitMFC@GV?$ChTraitsCRT@G@ATL@@@@@ATL@@@Z ; TrimTraillfcr
	add	esp, 4

; 374  :    CSymbol *pSym=pRepSymbols->Find(key1,0);

	push	0
	lea	eax, DWORD PTR _key1$[ebp]
	push	eax
	mov	ecx, DWORD PTR ?pRepSymbols@@3PAVCRSymbolAry@@A ; pRepSymbols
	call	?Find@CRSymbolAry@@QAEPAVCRSymbol@@PBGH@Z ; CRSymbolAry::Find
	mov	DWORD PTR tv214[ebp], eax
	mov	ecx, DWORD PTR tv214[ebp]
	mov	DWORD PTR _pSym$94124[ebp], ecx

; 375  :    if ( pSym == NULL ) {

	cmp	DWORD PTR _pSym$94124[ebp], 0
	jne	SHORT $L94125

; 376  : 	   alert_box(_T("Bad Symbol"), _T("Can't Find Symbol %s"), m_TextIdStr );

	mov	eax, DWORD PTR _this$[ebp]
	mov	ecx, DWORD PTR [eax+376]
	push	ecx
	push	OFFSET FLAT:??_C@_1CK@CLAGECII@?$AAC?$AAa?$AAn?$AA?8?$AAt?$AA?5?$AAF?$AAi?$AAn?$AAd?$AA?5?$AAS?$AAy?$AAm?$AAb?$AAo?$AAl?$AA?5?$AA?$CF?$AAs@
	push	OFFSET FLAT:??_C@_1BG@NOPLIDDJ@?$AAB?$AAa?$AAd?$AA?5?$AAS?$AAy?$AAm?$AAb?$AAo?$AAl?$AA?$AA@
	call	?alert_box@@YAHPAGPBGZZ			; alert_box
	add	esp, 12					; 0000000cH

; 377  :        return( 0 );

	xor	eax, eax
	jmp	$L94114
$L94125:

; 378  : 		}
; 379  :    theSet.m_iTextKey=pSym->value();

	mov	ecx, DWORD PTR _pSym$94124[ebp]
	call	?value@CSymbol@@QAEAAHXZ		; CSymbol::value
	mov	DWORD PTR tv215[ebp], eax
	mov	eax, DWORD PTR tv215[ebp]
	mov	ecx, DWORD PTR [eax]
	call	@_RTC_Check_4_to_2@4
	mov	ecx, DWORD PTR _this$[ebp]
	mov	WORD PTR [ecx+366], ax

; 380  :    theSet.Update();

	mov	ecx, DWORD PTR _this$[ebp]
	add	ecx, 204				; 000000ccH
	mov	esi, esp
	mov	eax, DWORD PTR _this$[ebp]
	mov	edx, DWORD PTR [eax+204]
	call	DWORD PTR [edx+52]
	cmp	esi, esp
	call	__RTC_CheckEsp

; 381  :    theSet.Close();

	mov	ecx, DWORD PTR _this$[ebp]
	add	ecx, 204				; 000000ccH
	mov	esi, esp
	mov	eax, DWORD PTR _this$[ebp]
	mov	edx, DWORD PTR [eax+204]
	call	DWORD PTR [edx+32]
	cmp	esi, esp
	call	__RTC_CheckEsp
	jmp	SHORT $L94574
__catch$?Save@CReportEdit@@IAEHXZ$0:

; 382  :  }
; 383  :  catch ( CDaoException *e ) {
; 384  :    e->GetErrorMessage(errbuf,499);

	mov	esi, esp
	push	0
	push	499					; 000001f3H
	lea	eax, DWORD PTR _errbuf$[ebp]
	push	eax
	mov	ecx, DWORD PTR _e$94128[ebp]
	mov	edx, DWORD PTR [ecx]
	mov	ecx, DWORD PTR _e$94128[ebp]
	call	DWORD PTR [edx+20]
	cmp	esi, esp
	call	__RTC_CheckEsp

; 385  :    alert_box(_T("Error on Database"), errbuf );

	lea	eax, DWORD PTR _errbuf$[ebp]
	push	eax
	push	OFFSET FLAT:??_C@_1CE@OOAKNAGM@?$AAE?$AAr?$AAr?$AAo?$AAr?$AA?5?$AAo?$AAn?$AA?5?$AAD?$AAa?$AAt?$AAa?$AAb?$AAa?$AAs?$AAe?$AA?$AA@
	call	?alert_box@@YAHPAGPBGZZ			; alert_box
	add	esp, 8

; 386  :    return ( 0 );

	mov	DWORD PTR $T94573[ebp], 0
	mov	eax, $L94579
	ret	0
$L94574:

; 387  :   }

	mov	DWORD PTR __$EHRec$[ebp+12], -1

; 386  :    return ( 0 );

	jmp	SHORT __tryend$?Save@CReportEdit@@IAEHXZ$1
$L94579:
	mov	eax, DWORD PTR $T94573[ebp]
	jmp	SHORT $L94114
__tryend$?Save@CReportEdit@@IAEHXZ$1:

; 388  :  return ( 1 );

	mov	eax, 1
$L94114:

; 389  : 
; 390  : 
; 391  : }

	push	edx
	mov	ecx, ebp
	push	eax
	lea	edx, DWORD PTR $L94589
	call	@_RTC_CheckStackVars@8
	pop	eax
	pop	edx
	mov	ecx, DWORD PTR __$EHRec$[ebp+4]
	mov	DWORD PTR fs:__except_list, ecx
	mov	ecx, DWORD PTR __$ArrayPad$[ebp]
	call	@__security_check_cookie@4
	pop	edi
	pop	esi
	pop	ebx
	add	esp, 1360				; 00000550H
	cmp	ebp, esp
	call	__RTC_CheckEsp
	mov	esp, ebp
	pop	ebp
	ret	0
$L94589:
	DD	3
	DD	$L94588
$L94588:
	DD	-1036					; fffffbf4H
	DD	1000					; 000003e8H
	DD	$L94583
	DD	-1096					; fffffbb8H
	DD	50					; 00000032H
	DD	$L94584
	DD	-1120					; fffffba0H
	DD	4
	DD	$L94585
$L94585:
	DB	101					; 00000065H
	DB	0
$L94584:
	DB	107					; 0000006bH
	DB	101					; 00000065H
	DB	121					; 00000079H
	DB	49					; 00000031H
	DB	0
$L94583:
	DB	101					; 00000065H
	DB	114					; 00000072H
	DB	114					; 00000072H
	DB	98					; 00000062H
	DB	117					; 00000075H
	DB	102					; 00000066H
	DB	0
_TEXT	ENDS
;	COMDAT text$x
text$x	SEGMENT
__unwindfunclet$?Save@CReportEdit@@IAEHXZ$2:
	lea	ecx, DWORD PTR $T94571[ebp]
	jmp	??1?$CStringT@GV?$StrTraitMFC@GV?$ChTraitsCRT@G@ATL@@@@@ATL@@QAE@XZ ; ATL::CStringT<unsigned short,StrTraitMFC<unsigned short,ATL::ChTraitsCRT<unsigned short> > >::~CStringT<unsigned short,StrTraitMFC<unsigned short,ATL::ChTraitsCRT<unsigned short> > >
__unwindfunclet$?Save@CReportEdit@@IAEHXZ$3:
	lea	ecx, DWORD PTR $T94572[ebp]
	jmp	??1?$CStringT@GV?$StrTraitMFC@GV?$ChTraitsCRT@G@ATL@@@@@ATL@@QAE@XZ ; ATL::CStringT<unsigned short,StrTraitMFC<unsigned short,ATL::ChTraitsCRT<unsigned short> > >::~CStringT<unsigned short,StrTraitMFC<unsigned short,ATL::ChTraitsCRT<unsigned short> > >
__ehhandler$?Save@CReportEdit@@IAEHXZ:
	mov	eax, OFFSET FLAT:__ehfuncinfo$?Save@CReportEdit@@IAEHXZ
	jmp	___CxxFrameHandler
text$x	ENDS
?Save@CReportEdit@@IAEHXZ ENDP				; CReportEdit::Save
; Function compile flags: /Odt /RTCcsu /ZI
; File c:\astrow32dev\tbt32\rtffuncs.h
;	COMDAT ?SetTabString@RTFFuncs@@QAEXAAV?$CStringT@GV?$StrTraitMFC@GV?$ChTraitsCRT@G@ATL@@@@@ATL@@@Z
_TEXT	SEGMENT
_this$ = -8						; size = 4
_s$ = 8							; size = 4
?SetTabString@RTFFuncs@@QAEXAAV?$CStringT@GV?$StrTraitMFC@GV?$ChTraitsCRT@G@ATL@@@@@ATL@@@Z PROC NEAR ; RTFFuncs::SetTabString, COMDAT
; _this$ = ecx

; 37   :    void SetTabString(CString &s) { tabstring = s; }

	push	ebp
	mov	ebp, esp
	sub	esp, 204				; 000000ccH
	push	ebx
	push	esi
	push	edi
	push	ecx
	lea	edi, DWORD PTR [ebp-204]
	mov	ecx, 51					; 00000033H
	mov	eax, -858993460				; ccccccccH
	rep stosd
	pop	ecx
	mov	DWORD PTR _this$[ebp], ecx
	mov	eax, DWORD PTR _s$[ebp]
	push	eax
	mov	ecx, DWORD PTR _this$[ebp]
	add	ecx, 4
	call	??4?$CStringT@GV?$StrTraitMFC@GV?$ChTraitsCRT@G@ATL@@@@@ATL@@QAEAAV01@ABV01@@Z ; ATL::CStringT<unsigned short,StrTraitMFC<unsigned short,ATL::ChTraitsCRT<unsigned short> > >::operator=
	pop	edi
	pop	esi
	pop	ebx
	add	esp, 204				; 000000ccH
	cmp	ebp, esp
	call	__RTC_CheckEsp
	mov	esp, ebp
	pop	ebp
	ret	4
?SetTabString@RTFFuncs@@QAEXAAV?$CStringT@GV?$StrTraitMFC@GV?$ChTraitsCRT@G@ATL@@@@@ATL@@@Z ENDP ; RTFFuncs::SetTabString
_TEXT	ENDS
EXTRN	?GetProperty@CWnd@@QBEXJGPAX@Z:NEAR		; CWnd::GetProperty
;	COMDAT xdata$x
; File c:\astrow32dev\tbt32\tabctrlctrl1.h
xdata$x	SEGMENT
__unwindtable$?GetTabString@CTabctrlctrl1@@QAE?AV?$CStringT@GV?$StrTraitMFC@GV?$ChTraitsCRT@G@ATL@@@@@ATL@@XZ DD 0ffffffffH
	DD	FLAT:__unwindfunclet$?GetTabString@CTabctrlctrl1@@QAE?AV?$CStringT@GV?$StrTraitMFC@GV?$ChTraitsCRT@G@ATL@@@@@ATL@@XZ$0
__ehfuncinfo$?GetTabString@CTabctrlctrl1@@QAE?AV?$CStringT@GV?$StrTraitMFC@GV?$ChTraitsCRT@G@ATL@@@@@ATL@@XZ DD 019930520H
	DD	01H
	DD	FLAT:__unwindtable$?GetTabString@CTabctrlctrl1@@QAE?AV?$CStringT@GV?$StrTraitMFC@GV?$ChTraitsCRT@G@ATL@@@@@ATL@@XZ
	DD	2 DUP(00H)
	DD	2 DUP(00H)
; Function compile flags: /Odt /RTCcsu /ZI
xdata$x	ENDS
;	COMDAT ?GetTabString@CTabctrlctrl1@@QAE?AV?$CStringT@GV?$StrTraitMFC@GV?$ChTraitsCRT@G@ATL@@@@@ATL@@XZ
_TEXT	SEGMENT
$T94601 = -236						; size = 4
_result$ = -32						; size = 4
_this$ = -20						; size = 4
__$EHRec$ = -12						; size = 12
___$ReturnUdt$ = 8					; size = 4
?GetTabString@CTabctrlctrl1@@QAE?AV?$CStringT@GV?$StrTraitMFC@GV?$ChTraitsCRT@G@ATL@@@@@ATL@@XZ PROC NEAR ; CTabctrlctrl1::GetTabString, COMDAT
; _this$ = ecx

; 54   : {

	push	ebp
	mov	ebp, esp
	push	-1
	push	__ehhandler$?GetTabString@CTabctrlctrl1@@QAE?AV?$CStringT@GV?$StrTraitMFC@GV?$ChTraitsCRT@G@ATL@@@@@ATL@@XZ
	mov	eax, DWORD PTR fs:__except_list
	push	eax
	mov	DWORD PTR fs:__except_list, esp
	sub	esp, 228				; 000000e4H
	push	ebx
	push	esi
	push	edi
	push	ecx
	lea	edi, DWORD PTR [ebp-240]
	mov	ecx, 57					; 00000039H
	mov	eax, -858993460				; ccccccccH
	rep stosd
	pop	ecx
	mov	DWORD PTR _this$[ebp], ecx
	mov	DWORD PTR $T94601[ebp], 0

; 55   : 	CString result;

	lea	ecx, DWORD PTR _result$[ebp]
	call	??0?$CStringT@GV?$StrTraitMFC@GV?$ChTraitsCRT@G@ATL@@@@@ATL@@QAE@XZ ; ATL::CStringT<unsigned short,StrTraitMFC<unsigned short,ATL::ChTraitsCRT<unsigned short> > >::CStringT<unsigned short,StrTraitMFC<unsigned short,ATL::ChTraitsCRT<unsigned short> > >
	mov	DWORD PTR __$EHRec$[ebp+8], 0

; 56   : 	GetProperty(0x1, VT_BSTR, (void*)&result);

	lea	eax, DWORD PTR _result$[ebp]
	push	eax
	push	8
	push	1
	mov	ecx, DWORD PTR _this$[ebp]
	call	?GetProperty@CWnd@@QBEXJGPAX@Z		; CWnd::GetProperty

; 57   : 	return result;

	lea	eax, DWORD PTR _result$[ebp]
	push	eax
	mov	ecx, DWORD PTR ___$ReturnUdt$[ebp]
	call	??0?$CStringT@GV?$StrTraitMFC@GV?$ChTraitsCRT@G@ATL@@@@@ATL@@QAE@ABV01@@Z ; ATL::CStringT<unsigned short,StrTraitMFC<unsigned short,ATL::ChTraitsCRT<unsigned short> > >::CStringT<unsigned short,StrTraitMFC<unsigned short,ATL::ChTraitsCRT<unsigned short> > >
	mov	ecx, DWORD PTR $T94601[ebp]
	or	ecx, 1
	mov	DWORD PTR $T94601[ebp], ecx
	mov	DWORD PTR __$EHRec$[ebp+8], -1
	lea	ecx, DWORD PTR _result$[ebp]
	call	??1?$CStringT@GV?$StrTraitMFC@GV?$ChTraitsCRT@G@ATL@@@@@ATL@@QAE@XZ ; ATL::CStringT<unsigned short,StrTraitMFC<unsigned short,ATL::ChTraitsCRT<unsigned short> > >::~CStringT<unsigned short,StrTraitMFC<unsigned short,ATL::ChTraitsCRT<unsigned short> > >
	mov	eax, DWORD PTR ___$ReturnUdt$[ebp]

; 58   : }

	push	edx
	mov	ecx, ebp
	push	eax
	lea	edx, DWORD PTR $L94608
	call	@_RTC_CheckStackVars@8
	pop	eax
	pop	edx
	mov	ecx, DWORD PTR __$EHRec$[ebp]
	mov	DWORD PTR fs:__except_list, ecx
	pop	edi
	pop	esi
	pop	ebx
	add	esp, 240				; 000000f0H
	cmp	ebp, esp
	call	__RTC_CheckEsp
	mov	esp, ebp
	pop	ebp
	ret	4
$L94608:
	DD	1
	DD	$L94607
$L94607:
	DD	-32					; ffffffe0H
	DD	4
	DD	$L94605
$L94605:
	DB	114					; 00000072H
	DB	101					; 00000065H
	DB	115					; 00000073H
	DB	117					; 00000075H
	DB	108					; 0000006cH
	DB	116					; 00000074H
	DB	0
_TEXT	ENDS
;	COMDAT text$x
text$x	SEGMENT
__unwindfunclet$?GetTabString@CTabctrlctrl1@@QAE?AV?$CStringT@GV?$StrTraitMFC@GV?$ChTraitsCRT@G@ATL@@@@@ATL@@XZ$0:
	lea	ecx, DWORD PTR _result$[ebp]
	jmp	??1?$CStringT@GV?$StrTraitMFC@GV?$ChTraitsCRT@G@ATL@@@@@ATL@@QAE@XZ ; ATL::CStringT<unsigned short,StrTraitMFC<unsigned short,ATL::ChTraitsCRT<unsigned short> > >::~CStringT<unsigned short,StrTraitMFC<unsigned short,ATL::ChTraitsCRT<unsigned short> > >
__ehhandler$?GetTabString@CTabctrlctrl1@@QAE?AV?$CStringT@GV?$StrTraitMFC@GV?$ChTraitsCRT@G@ATL@@@@@ATL@@XZ:
	mov	eax, OFFSET FLAT:__ehfuncinfo$?GetTabString@CTabctrlctrl1@@QAE?AV?$CStringT@GV?$StrTraitMFC@GV?$ChTraitsCRT@G@ATL@@@@@ATL@@XZ
	jmp	___CxxFrameHandler
text$x	ENDS
?GetTabString@CTabctrlctrl1@@QAE?AV?$CStringT@GV?$StrTraitMFC@GV?$ChTraitsCRT@G@ATL@@@@@ATL@@XZ ENDP ; CTabctrlctrl1::GetTabString
; Function compile flags: /Odt /RTCcsu /ZI
; File c:\astrow32dev\tbt32\symbol.hpp
;	COMDAT ?value@CSymbol@@QAEAAHXZ
_TEXT	SEGMENT
_this$ = -8						; size = 4
?value@CSymbol@@QAEAAHXZ PROC NEAR			; CSymbol::value, COMDAT
; _this$ = ecx

; 17   : 	int &value() { return _value; }

	push	ebp
	mov	ebp, esp
	sub	esp, 204				; 000000ccH
	push	ebx
	push	esi
	push	edi
	push	ecx
	lea	edi, DWORD PTR [ebp-204]
	mov	ecx, 51					; 00000033H
	mov	eax, -858993460				; ccccccccH
	rep stosd
	pop	ecx
	mov	DWORD PTR _this$[ebp], ecx
	mov	eax, DWORD PTR _this$[ebp]
	add	eax, 120				; 00000078H
	pop	edi
	pop	esi
	pop	ebx
	mov	esp, ebp
	pop	ebp
	ret	0
?value@CSymbol@@QAEAAHXZ ENDP				; CSymbol::value
_TEXT	ENDS
EXTRN	?Find@CSymbolAry@@QAEPAVCSymbol@@PBGHH@Z:NEAR	; CSymbolAry::Find
; Function compile flags: /Odt /RTCcsu /ZI
;	COMDAT ?Find@CRSymbolAry@@QAEPAVCRSymbol@@PBGH@Z
_TEXT	SEGMENT
_this$ = -8						; size = 4
_sym$ = 8						; size = 4
_lin$ = 12						; size = 4
?Find@CRSymbolAry@@QAEPAVCRSymbol@@PBGH@Z PROC NEAR	; CRSymbolAry::Find, COMDAT
; _this$ = ecx

; 54   :         CRSymbol *Find( const wchar_t *sym, int lin=0 ) { return((CRSymbol *) CSymbolAry::Find(sym, -1, lin ) ); }

	push	ebp
	mov	ebp, esp
	sub	esp, 204				; 000000ccH
	push	ebx
	push	esi
	push	edi
	push	ecx
	lea	edi, DWORD PTR [ebp-204]
	mov	ecx, 51					; 00000033H
	mov	eax, -858993460				; ccccccccH
	rep stosd
	pop	ecx
	mov	DWORD PTR _this$[ebp], ecx
	mov	eax, DWORD PTR _lin$[ebp]
	push	eax
	push	-1
	mov	ecx, DWORD PTR _sym$[ebp]
	push	ecx
	mov	ecx, DWORD PTR _this$[ebp]
	call	?Find@CSymbolAry@@QAEPAVCSymbol@@PBGHH@Z ; CSymbolAry::Find
	pop	edi
	pop	esi
	pop	ebx
	add	esp, 204				; 000000ccH
	cmp	ebp, esp
	call	__RTC_CheckEsp
	mov	esp, ebp
	pop	ebp
	ret	8
?Find@CRSymbolAry@@QAEPAVCRSymbol@@PBGH@Z ENDP		; CRSymbolAry::Find
_TEXT	ENDS
PUBLIC	?getBasicString@RTFFuncs@@QAEAAV?$CStringT@GV?$StrTraitMFC@GV?$ChTraitsCRT@G@ATL@@@@@ATL@@XZ ; RTFFuncs::getBasicString
PUBLIC	??Y?$CStringT@GV?$StrTraitMFC@GV?$ChTraitsCRT@G@ATL@@@@@ATL@@QAEAAV01@ABV?$CSimpleStringT@G$0A@@1@@Z ; ATL::CStringT<unsigned short,StrTraitMFC<unsigned short,ATL::ChTraitsCRT<unsigned short> > >::operator+=
EXTRN	?GetText@CWSpell@@QAE?AV?$CStringT@GV?$StrTraitMFC@GV?$ChTraitsCRT@G@ATL@@@@@ATL@@XZ:NEAR ; CWSpell::GetText
EXTRN	?SetText@CWSpell@@QAEXPBG@Z:NEAR		; CWSpell::SetText
EXTRN	?SetShowContext@CWSpell@@QAEXH@Z:NEAR		; CWSpell::SetShowContext
EXTRN	?SetShowDialog@CWSpell@@QAEXH@Z:NEAR		; CWSpell::SetShowDialog
EXTRN	?Start@CWSpell@@QAEFXZ:NEAR			; CWSpell::Start
;	COMDAT xdata$x
; File c:\astrow32dev\tbt32\reportedit.cpp
xdata$x	SEGMENT
__unwindtable$?OnSpell@CReportEdit@@IAEXXZ DD 0ffffffffH
	DD	FLAT:__unwindfunclet$?OnSpell@CReportEdit@@IAEXXZ$0
	DD	00H
	DD	FLAT:__unwindfunclet$?OnSpell@CReportEdit@@IAEXXZ$1
	DD	01H
	DD	FLAT:__unwindfunclet$?OnSpell@CReportEdit@@IAEXXZ$2
__ehfuncinfo$?OnSpell@CReportEdit@@IAEXXZ DD 019930520H
	DD	03H
	DD	FLAT:__unwindtable$?OnSpell@CReportEdit@@IAEXXZ
	DD	2 DUP(00H)
	DD	2 DUP(00H)
; Function compile flags: /Odt /RTCcsu /ZI
xdata$x	ENDS
;	COMDAT ?OnSpell@CReportEdit@@IAEXXZ
_TEXT	SEGMENT
tv147 = -260						; size = 4
tv92 = -256						; size = 4
$T94618 = -248						; size = 4
_checked$94136 = -44					; size = 4
_str$ = -32						; size = 4
_this$ = -20						; size = 4
__$EHRec$ = -12						; size = 12
?OnSpell@CReportEdit@@IAEXXZ PROC NEAR			; CReportEdit::OnSpell, COMDAT
; _this$ = ecx

; 394  : {

	push	ebp
	mov	ebp, esp
	push	-1
	push	__ehhandler$?OnSpell@CReportEdit@@IAEXXZ
	mov	eax, DWORD PTR fs:__except_list
	push	eax
	mov	DWORD PTR fs:__except_list, esp
	sub	esp, 248				; 000000f8H
	push	ebx
	push	esi
	push	edi
	push	ecx
	lea	edi, DWORD PTR [ebp-260]
	mov	ecx, 62					; 0000003eH
	mov	eax, -858993460				; ccccccccH
	rep stosd
	pop	ecx
	mov	DWORD PTR _this$[ebp], ecx

; 395  : 	// TODO: Add your command handler code here
; 396  : 	CString str = pFuncs->GetRTF(IDC_TEXT);

	push	1004					; 000003ecH
	lea	eax, DWORD PTR _str$[ebp]
	push	eax
	mov	ecx, DWORD PTR _this$[ebp]
	mov	ecx, DWORD PTR [ecx+388]
	call	?GetRTF@RTFFuncs@@QAE?AV?$CStringT@GV?$StrTraitMFC@GV?$ChTraitsCRT@G@ATL@@@@@ATL@@H@Z ; RTFFuncs::GetRTF
	mov	DWORD PTR __$EHRec$[ebp+8], 0

; 397  :     
; 398  : 	// Interactively check the spelling of the CString.
; 399  : 	// The CString's contents will be displayed so the user can see
; 400  : 	// errors in context. Any corrections made by the user will update
; 401  : 	// the CString.
; 402  : 	// Note that WSpell's ShowContext property has been set to True.
; 403  : 	m_ctrl.SetText(pFuncs->getBasicString());

	mov	eax, DWORD PTR _this$[ebp]
	mov	ecx, DWORD PTR [eax+388]
	call	?getBasicString@RTFFuncs@@QAEAAV?$CStringT@GV?$StrTraitMFC@GV?$ChTraitsCRT@G@ATL@@@@@ATL@@XZ ; RTFFuncs::getBasicString
	mov	ecx, eax
	call	??B?$CSimpleStringT@G$0A@@ATL@@QBEPBGXZ	; ATL::CSimpleStringT<unsigned short,0>::operator unsigned short const *
	push	eax
	mov	ecx, DWORD PTR _this$[ebp]
	add	ecx, 124				; 0000007cH
	call	?SetText@CWSpell@@QAEXPBG@Z		; CWSpell::SetText

; 404  : 	m_ctrl.SetShowDialog(TRUE);

	push	1
	mov	ecx, DWORD PTR _this$[ebp]
	add	ecx, 124				; 0000007cH
	call	?SetShowDialog@CWSpell@@QAEXH@Z		; CWSpell::SetShowDialog

; 405  : 	m_ctrl.SetShowContext(TRUE);

	push	1
	mov	ecx, DWORD PTR _this$[ebp]
	add	ecx, 124				; 0000007cH
	call	?SetShowContext@CWSpell@@QAEXH@Z	; CWSpell::SetShowContext

; 406  : 	if (m_ctrl.Start() >= 0) {

	mov	ecx, DWORD PTR _this$[ebp]
	add	ecx, 124				; 0000007cH
	call	?Start@CWSpell@@QAEFXZ			; CWSpell::Start
	movsx	eax, ax
	test	eax, eax
	jl	$L94135

; 407  : 		CString checked = pFuncs->GetTabString();

	mov	eax, DWORD PTR _this$[ebp]
	mov	ecx, DWORD PTR [eax+388]
	call	?GetTabString@RTFFuncs@@QAEAAV?$CStringT@GV?$StrTraitMFC@GV?$ChTraitsCRT@G@ATL@@@@@ATL@@XZ ; RTFFuncs::GetTabString
	push	eax
	lea	ecx, DWORD PTR _checked$94136[ebp]
	call	??0?$CStringT@GV?$StrTraitMFC@GV?$ChTraitsCRT@G@ATL@@@@@ATL@@QAE@ABV01@@Z ; ATL::CStringT<unsigned short,StrTraitMFC<unsigned short,ATL::ChTraitsCRT<unsigned short> > >::CStringT<unsigned short,StrTraitMFC<unsigned short,ATL::ChTraitsCRT<unsigned short> > >
	mov	BYTE PTR __$EHRec$[ebp+8], 1

; 408  : 		checked += m_ctrl.GetText();

	lea	eax, DWORD PTR $T94618[ebp]
	push	eax
	mov	ecx, DWORD PTR _this$[ebp]
	add	ecx, 124				; 0000007cH
	call	?GetText@CWSpell@@QAE?AV?$CStringT@GV?$StrTraitMFC@GV?$ChTraitsCRT@G@ATL@@@@@ATL@@XZ ; CWSpell::GetText
	mov	DWORD PTR tv92[ebp], eax
	mov	ecx, DWORD PTR tv92[ebp]
	mov	DWORD PTR tv147[ebp], ecx
	mov	BYTE PTR __$EHRec$[ebp+8], 2
	mov	edx, DWORD PTR tv147[ebp]
	push	edx
	lea	ecx, DWORD PTR _checked$94136[ebp]
	call	??Y?$CStringT@GV?$StrTraitMFC@GV?$ChTraitsCRT@G@ATL@@@@@ATL@@QAEAAV01@ABV?$CSimpleStringT@G$0A@@1@@Z ; ATL::CStringT<unsigned short,StrTraitMFC<unsigned short,ATL::ChTraitsCRT<unsigned short> > >::operator+=
	mov	BYTE PTR __$EHRec$[ebp+8], 1
	lea	ecx, DWORD PTR $T94618[ebp]
	call	??1?$CStringT@GV?$StrTraitMFC@GV?$ChTraitsCRT@G@ATL@@@@@ATL@@QAE@XZ ; ATL::CStringT<unsigned short,StrTraitMFC<unsigned short,ATL::ChTraitsCRT<unsigned short> > >::~CStringT<unsigned short,StrTraitMFC<unsigned short,ATL::ChTraitsCRT<unsigned short> > >

; 409  : 		// Put the corrected text back into the edit control.
; 410  : 		pFuncs->SetRTF(IDC_TEXT,checked);

	lea	eax, DWORD PTR _checked$94136[ebp]
	push	eax
	push	1004					; 000003ecH
	mov	ecx, DWORD PTR _this$[ebp]
	mov	ecx, DWORD PTR [ecx+388]
	call	?SetRTF@RTFFuncs@@QAEXHAAV?$CStringT@GV?$StrTraitMFC@GV?$ChTraitsCRT@G@ATL@@@@@ATL@@@Z ; RTFFuncs::SetRTF

; 411  : 	}

	mov	BYTE PTR __$EHRec$[ebp+8], 0
	lea	ecx, DWORD PTR _checked$94136[ebp]
	call	??1?$CStringT@GV?$StrTraitMFC@GV?$ChTraitsCRT@G@ATL@@@@@ATL@@QAE@XZ ; ATL::CStringT<unsigned short,StrTraitMFC<unsigned short,ATL::ChTraitsCRT<unsigned short> > >::~CStringT<unsigned short,StrTraitMFC<unsigned short,ATL::ChTraitsCRT<unsigned short> > >
$L94135:

; 412  : }

	mov	DWORD PTR __$EHRec$[ebp+8], -1
	lea	ecx, DWORD PTR _str$[ebp]
	call	??1?$CStringT@GV?$StrTraitMFC@GV?$ChTraitsCRT@G@ATL@@@@@ATL@@QAE@XZ ; ATL::CStringT<unsigned short,StrTraitMFC<unsigned short,ATL::ChTraitsCRT<unsigned short> > >::~CStringT<unsigned short,StrTraitMFC<unsigned short,ATL::ChTraitsCRT<unsigned short> > >
	push	edx
	mov	ecx, ebp
	push	eax
	lea	edx, DWORD PTR $L94628
	call	@_RTC_CheckStackVars@8
	pop	eax
	pop	edx
	mov	ecx, DWORD PTR __$EHRec$[ebp]
	mov	DWORD PTR fs:__except_list, ecx
	pop	edi
	pop	esi
	pop	ebx
	add	esp, 260				; 00000104H
	cmp	ebp, esp
	call	__RTC_CheckEsp
	mov	esp, ebp
	pop	ebp
	ret	0
$L94628:
	DD	2
	DD	$L94627
$L94627:
	DD	-32					; ffffffe0H
	DD	4
	DD	$L94624
	DD	-44					; ffffffd4H
	DD	4
	DD	$L94625
$L94625:
	DB	99					; 00000063H
	DB	104					; 00000068H
	DB	101					; 00000065H
	DB	99					; 00000063H
	DB	107					; 0000006bH
	DB	101					; 00000065H
	DB	100					; 00000064H
	DB	0
$L94624:
	DB	115					; 00000073H
	DB	116					; 00000074H
	DB	114					; 00000072H
	DB	0
_TEXT	ENDS
;	COMDAT text$x
text$x	SEGMENT
__unwindfunclet$?OnSpell@CReportEdit@@IAEXXZ$0:
	lea	ecx, DWORD PTR _str$[ebp]
	jmp	??1?$CStringT@GV?$StrTraitMFC@GV?$ChTraitsCRT@G@ATL@@@@@ATL@@QAE@XZ ; ATL::CStringT<unsigned short,StrTraitMFC<unsigned short,ATL::ChTraitsCRT<unsigned short> > >::~CStringT<unsigned short,StrTraitMFC<unsigned short,ATL::ChTraitsCRT<unsigned short> > >
__unwindfunclet$?OnSpell@CReportEdit@@IAEXXZ$1:
	lea	ecx, DWORD PTR _checked$94136[ebp]
	jmp	??1?$CStringT@GV?$StrTraitMFC@GV?$ChTraitsCRT@G@ATL@@@@@ATL@@QAE@XZ ; ATL::CStringT<unsigned short,StrTraitMFC<unsigned short,ATL::ChTraitsCRT<unsigned short> > >::~CStringT<unsigned short,StrTraitMFC<unsigned short,ATL::ChTraitsCRT<unsigned short> > >
__unwindfunclet$?OnSpell@CReportEdit@@IAEXXZ$2:
	lea	ecx, DWORD PTR $T94618[ebp]
	jmp	??1?$CStringT@GV?$StrTraitMFC@GV?$ChTraitsCRT@G@ATL@@@@@ATL@@QAE@XZ ; ATL::CStringT<unsigned short,StrTraitMFC<unsigned short,ATL::ChTraitsCRT<unsigned short> > >::~CStringT<unsigned short,StrTraitMFC<unsigned short,ATL::ChTraitsCRT<unsigned short> > >
__ehhandler$?OnSpell@CReportEdit@@IAEXXZ:
	mov	eax, OFFSET FLAT:__ehfuncinfo$?OnSpell@CReportEdit@@IAEXXZ
	jmp	___CxxFrameHandler
text$x	ENDS
?OnSpell@CReportEdit@@IAEXXZ ENDP			; CReportEdit::OnSpell
; Function compile flags: /Odt /RTCcsu /ZI
; File c:\astrow32dev\tbt32\rtffuncs.h
;	COMDAT ?getBasicString@RTFFuncs@@QAEAAV?$CStringT@GV?$StrTraitMFC@GV?$ChTraitsCRT@G@ATL@@@@@ATL@@XZ
_TEXT	SEGMENT
_this$ = -8						; size = 4
?getBasicString@RTFFuncs@@QAEAAV?$CStringT@GV?$StrTraitMFC@GV?$ChTraitsCRT@G@ATL@@@@@ATL@@XZ PROC NEAR ; RTFFuncs::getBasicString, COMDAT
; _this$ = ecx

; 41   :    CString &getBasicString() { return BasicString; }

	push	ebp
	mov	ebp, esp
	sub	esp, 204				; 000000ccH
	push	ebx
	push	esi
	push	edi
	push	ecx
	lea	edi, DWORD PTR [ebp-204]
	mov	ecx, 51					; 00000033H
	mov	eax, -858993460				; ccccccccH
	rep stosd
	pop	ecx
	mov	DWORD PTR _this$[ebp], ecx
	mov	eax, DWORD PTR _this$[ebp]
	add	eax, 8
	pop	edi
	pop	esi
	pop	ebx
	mov	esp, ebp
	pop	ebp
	ret	0
?getBasicString@RTFFuncs@@QAEAAV?$CStringT@GV?$StrTraitMFC@GV?$ChTraitsCRT@G@ATL@@@@@ATL@@XZ ENDP ; RTFFuncs::getBasicString
; Function compile flags: /Odt /RTCcsu /ZI
; File c:\astrow32dev\tbt32\reportedit.cpp
_TEXT	ENDS
;	COMDAT ?OnUpdateSpell@CReportEdit@@IAEXPAVCCmdUI@@@Z
_TEXT	SEGMENT
_this$ = -8						; size = 4
_pCmdUI$ = 8						; size = 4
?OnUpdateSpell@CReportEdit@@IAEXPAVCCmdUI@@@Z PROC NEAR	; CReportEdit::OnUpdateSpell, COMDAT
; _this$ = ecx

; 415  : {

	push	ebp
	mov	ebp, esp
	sub	esp, 204				; 000000ccH
	push	ebx
	push	esi
	push	edi
	push	ecx
	lea	edi, DWORD PTR [ebp-204]
	mov	ecx, 51					; 00000033H
	mov	eax, -858993460				; ccccccccH
	rep stosd
	pop	ecx
	mov	DWORD PTR _this$[ebp], ecx

; 416  : 	// TODO: Add your command update UI handler code here
; 417  : 	pCmdUI->Enable();

	mov	esi, esp
	push	1
	mov	eax, DWORD PTR _pCmdUI$[ebp]
	mov	edx, DWORD PTR [eax]
	mov	ecx, DWORD PTR _pCmdUI$[ebp]
	call	DWORD PTR [edx]
	cmp	esi, esp
	call	__RTC_CheckEsp

; 418  : }

	pop	edi
	pop	esi
	pop	ebx
	add	esp, 204				; 000000ccH
	cmp	ebp, esp
	call	__RTC_CheckEsp
	mov	esp, ebp
	pop	ebp
	ret	4
?OnUpdateSpell@CReportEdit@@IAEXPAVCCmdUI@@@Z ENDP	; CReportEdit::OnUpdateSpell
_TEXT	ENDS
PUBLIC	??4?$CSimpleStringT@G$0A@@ATL@@QAEAAV01@ABV01@@Z ; ATL::CSimpleStringT<unsigned short,0>::operator=
; Function compile flags: /Odt /RTCcsu /ZI
; File c:\program files\microsoft visual studio .net 2003\vc7\atlmfc\include\cstringt.h
;	COMDAT ??4?$CStringT@GV?$StrTraitMFC@GV?$ChTraitsCRT@G@ATL@@@@@ATL@@QAEAAV01@ABV01@@Z
_TEXT	SEGMENT
_this$ = -8						; size = 4
_strSrc$ = 8						; size = 4
??4?$CStringT@GV?$StrTraitMFC@GV?$ChTraitsCRT@G@ATL@@@@@ATL@@QAEAAV01@ABV01@@Z PROC NEAR ; ATL::CStringT<unsigned short,StrTraitMFC<unsigned short,ATL::ChTraitsCRT<unsigned short> > >::operator=, COMDAT
; _this$ = ecx

; 967  : 	{

	push	ebp
	mov	ebp, esp
	sub	esp, 204				; 000000ccH
	push	ebx
	push	esi
	push	edi
	push	ecx
	lea	edi, DWORD PTR [ebp-204]
	mov	ecx, 51					; 00000033H
	mov	eax, -858993460				; ccccccccH
	rep stosd
	pop	ecx
	mov	DWORD PTR _this$[ebp], ecx

; 968  : 		CThisSimpleString::operator=( strSrc );

	mov	eax, DWORD PTR _strSrc$[ebp]
	push	eax
	mov	ecx, DWORD PTR _this$[ebp]
	call	??4?$CSimpleStringT@G$0A@@ATL@@QAEAAV01@ABV01@@Z ; ATL::CSimpleStringT<unsigned short,0>::operator=

; 969  : 
; 970  : 		return( *this );

	mov	eax, DWORD PTR _this$[ebp]

; 971  : 	}

	pop	edi
	pop	esi
	pop	ebx
	add	esp, 204				; 000000ccH
	cmp	ebp, esp
	call	__RTC_CheckEsp
	mov	esp, ebp
	pop	ebp
	ret	4
??4?$CStringT@GV?$StrTraitMFC@GV?$ChTraitsCRT@G@ATL@@@@@ATL@@QAEAAV01@ABV01@@Z ENDP ; ATL::CStringT<unsigned short,StrTraitMFC<unsigned short,ATL::ChTraitsCRT<unsigned short> > >::operator=
_TEXT	ENDS
PUBLIC	??Y?$CSimpleStringT@G$0A@@ATL@@QAEAAV01@ABV01@@Z ; ATL::CSimpleStringT<unsigned short,0>::operator+=
; Function compile flags: /Odt /RTCcsu /ZI
;	COMDAT ??Y?$CStringT@GV?$StrTraitMFC@GV?$ChTraitsCRT@G@ATL@@@@@ATL@@QAEAAV01@ABV?$CSimpleStringT@G$0A@@1@@Z
_TEXT	SEGMENT
_this$ = -8						; size = 4
_str$ = 8						; size = 4
??Y?$CStringT@GV?$StrTraitMFC@GV?$ChTraitsCRT@G@ATL@@@@@ATL@@QAEAAV01@ABV?$CSimpleStringT@G$0A@@1@@Z PROC NEAR ; ATL::CStringT<unsigned short,StrTraitMFC<unsigned short,ATL::ChTraitsCRT<unsigned short> > >::operator+=, COMDAT
; _this$ = ecx

; 1028 : 	{

	push	ebp
	mov	ebp, esp
	sub	esp, 204				; 000000ccH
	push	ebx
	push	esi
	push	edi
	push	ecx
	lea	edi, DWORD PTR [ebp-204]
	mov	ecx, 51					; 00000033H
	mov	eax, -858993460				; ccccccccH
	rep stosd
	pop	ecx
	mov	DWORD PTR _this$[ebp], ecx

; 1029 : 		CThisSimpleString::operator+=( str );

	mov	eax, DWORD PTR _str$[ebp]
	push	eax
	mov	ecx, DWORD PTR _this$[ebp]
	call	??Y?$CSimpleStringT@G$0A@@ATL@@QAEAAV01@ABV01@@Z ; ATL::CSimpleStringT<unsigned short,0>::operator+=

; 1030 : 
; 1031 : 		return( *this );

	mov	eax, DWORD PTR _this$[ebp]

; 1032 : 	}

	pop	edi
	pop	esi
	pop	ebx
	add	esp, 204				; 000000ccH
	cmp	ebp, esp
	call	__RTC_CheckEsp
	mov	esp, ebp
	pop	ebp
	ret	4
??Y?$CStringT@GV?$StrTraitMFC@GV?$ChTraitsCRT@G@ATL@@@@@ATL@@QAEAAV01@ABV?$CSimpleStringT@G$0A@@1@@Z ENDP ; ATL::CStringT<unsigned short,StrTraitMFC<unsigned short,ATL::ChTraitsCRT<unsigned short> > >::operator+=
_TEXT	ENDS
PUBLIC	?IsLocked@CStringData@ATL@@QBE_NXZ		; ATL::CStringData::IsLocked
PUBLIC	?Release@CStringData@ATL@@QAEXXZ		; ATL::CStringData::Release
PUBLIC	?GetString@?$CSimpleStringT@G$0A@@ATL@@QBEPBGXZ	; ATL::CSimpleStringT<unsigned short,0>::GetString
PUBLIC	?SetString@?$CSimpleStringT@G$0A@@ATL@@QAEXPBGH@Z ; ATL::CSimpleStringT<unsigned short,0>::SetString
PUBLIC	?Attach@?$CSimpleStringT@G$0A@@ATL@@AAEXPAUCStringData@2@@Z ; ATL::CSimpleStringT<unsigned short,0>::Attach
PUBLIC	?GetData@?$CSimpleStringT@G$0A@@ATL@@ABEPAUCStringData@2@XZ ; ATL::CSimpleStringT<unsigned short,0>::GetData
PUBLIC	?CloneData@?$CSimpleStringT@G$0A@@ATL@@CAPAUCStringData@2@PAU32@@Z ; ATL::CSimpleStringT<unsigned short,0>::CloneData
; Function compile flags: /Odt /RTCcsu /ZI
; File c:\program files\microsoft visual studio .net 2003\vc7\atlmfc\include\atlsimpstr.h
;	COMDAT ??4?$CSimpleStringT@G$0A@@ATL@@QAEAAV01@ABV01@@Z
_TEXT	SEGMENT
_pNewData$94160 = -44					; size = 4
_pOldData$ = -32					; size = 4
_pSrcData$ = -20					; size = 4
_this$ = -8						; size = 4
_strSrc$ = 8						; size = 4
??4?$CSimpleStringT@G$0A@@ATL@@QAEAAV01@ABV01@@Z PROC NEAR ; ATL::CSimpleStringT<unsigned short,0>::operator=, COMDAT
; _this$ = ecx

; 273  : 	{

	push	ebp
	mov	ebp, esp
	sub	esp, 240				; 000000f0H
	push	ebx
	push	esi
	push	edi
	push	ecx
	lea	edi, DWORD PTR [ebp-240]
	mov	ecx, 60					; 0000003cH
	mov	eax, -858993460				; ccccccccH
	rep stosd
	pop	ecx
	mov	DWORD PTR _this$[ebp], ecx

; 274  : 		CStringData* pSrcData = strSrc.GetData();

	mov	ecx, DWORD PTR _strSrc$[ebp]
	call	?GetData@?$CSimpleStringT@G$0A@@ATL@@ABEPAUCStringData@2@XZ ; ATL::CSimpleStringT<unsigned short,0>::GetData
	mov	DWORD PTR _pSrcData$[ebp], eax

; 275  : 		CStringData* pOldData = GetData();

	mov	ecx, DWORD PTR _this$[ebp]
	call	?GetData@?$CSimpleStringT@G$0A@@ATL@@ABEPAUCStringData@2@XZ ; ATL::CSimpleStringT<unsigned short,0>::GetData
	mov	DWORD PTR _pOldData$[ebp], eax

; 276  : 		if( pSrcData != pOldData)

	mov	eax, DWORD PTR _pSrcData$[ebp]
	cmp	eax, DWORD PTR _pOldData$[ebp]
	je	SHORT $L94156

; 277  : 		{
; 278  : 			if( pOldData->IsLocked() || pSrcData->pStringMgr != pOldData->pStringMgr )

	mov	ecx, DWORD PTR _pOldData$[ebp]
	call	?IsLocked@CStringData@ATL@@QBE_NXZ	; ATL::CStringData::IsLocked
	movzx	eax, al
	test	eax, eax
	jne	SHORT $L94158
	mov	eax, DWORD PTR _pSrcData$[ebp]
	mov	ecx, DWORD PTR _pOldData$[ebp]
	mov	edx, DWORD PTR [eax]
	cmp	edx, DWORD PTR [ecx]
	je	SHORT $L94157
$L94158:

; 279  : 			{
; 280  : 				SetString( strSrc.GetString(), strSrc.GetLength() );

	mov	ecx, DWORD PTR _strSrc$[ebp]
	call	?GetLength@?$CSimpleStringT@G$0A@@ATL@@QBEHXZ ; ATL::CSimpleStringT<unsigned short,0>::GetLength
	push	eax
	mov	ecx, DWORD PTR _strSrc$[ebp]
	call	?GetString@?$CSimpleStringT@G$0A@@ATL@@QBEPBGXZ ; ATL::CSimpleStringT<unsigned short,0>::GetString
	push	eax
	mov	ecx, DWORD PTR _this$[ebp]
	call	?SetString@?$CSimpleStringT@G$0A@@ATL@@QAEXPBGH@Z ; ATL::CSimpleStringT<unsigned short,0>::SetString

; 281  : 			}
; 282  : 			else

	jmp	SHORT $L94156
$L94157:

; 283  : 			{
; 284  : 				CStringData* pNewData = CloneData( pSrcData );

	mov	eax, DWORD PTR _pSrcData$[ebp]
	push	eax
	call	?CloneData@?$CSimpleStringT@G$0A@@ATL@@CAPAUCStringData@2@PAU32@@Z ; ATL::CSimpleStringT<unsigned short,0>::CloneData
	add	esp, 4
	mov	DWORD PTR _pNewData$94160[ebp], eax

; 285  : 				pOldData->Release();

	mov	ecx, DWORD PTR _pOldData$[ebp]
	call	?Release@CStringData@ATL@@QAEXXZ	; ATL::CStringData::Release

; 286  : 				Attach( pNewData );

	mov	eax, DWORD PTR _pNewData$94160[ebp]
	push	eax
	mov	ecx, DWORD PTR _this$[ebp]
	call	?Attach@?$CSimpleStringT@G$0A@@ATL@@AAEXPAUCStringData@2@@Z ; ATL::CSimpleStringT<unsigned short,0>::Attach
$L94156:

; 287  : 			}
; 288  : 		}
; 289  : 
; 290  : 		return( *this );

	mov	eax, DWORD PTR _this$[ebp]

; 291  : 	}

	pop	edi
	pop	esi
	pop	ebx
	add	esp, 240				; 000000f0H
	cmp	ebp, esp
	call	__RTC_CheckEsp
	mov	esp, ebp
	pop	ebp
	ret	4
??4?$CSimpleStringT@G$0A@@ATL@@QAEAAV01@ABV01@@Z ENDP	; ATL::CSimpleStringT<unsigned short,0>::operator=
_TEXT	ENDS
PUBLIC	?Append@?$CSimpleStringT@G$0A@@ATL@@QAEXABV12@@Z ; ATL::CSimpleStringT<unsigned short,0>::Append
; Function compile flags: /Odt /RTCcsu /ZI
;	COMDAT ??Y?$CSimpleStringT@G$0A@@ATL@@QAEAAV01@ABV01@@Z
_TEXT	SEGMENT
_this$ = -8						; size = 4
_strSrc$ = 8						; size = 4
??Y?$CSimpleStringT@G$0A@@ATL@@QAEAAV01@ABV01@@Z PROC NEAR ; ATL::CSimpleStringT<unsigned short,0>::operator+=, COMDAT
; _this$ = ecx

; 322  : 	{

	push	ebp
	mov	ebp, esp
	sub	esp, 204				; 000000ccH
	push	ebx
	push	esi
	push	edi
	push	ecx
	lea	edi, DWORD PTR [ebp-204]
	mov	ecx, 51					; 00000033H
	mov	eax, -858993460				; ccccccccH
	rep stosd
	pop	ecx
	mov	DWORD PTR _this$[ebp], ecx

; 323  : 		Append( strSrc );

	mov	eax, DWORD PTR _strSrc$[ebp]
	push	eax
	mov	ecx, DWORD PTR _this$[ebp]
	call	?Append@?$CSimpleStringT@G$0A@@ATL@@QAEXABV12@@Z ; ATL::CSimpleStringT<unsigned short,0>::Append

; 324  : 
; 325  : 		return( *this );

	mov	eax, DWORD PTR _this$[ebp]

; 326  : 	}

	pop	edi
	pop	esi
	pop	ebx
	add	esp, 204				; 000000ccH
	cmp	ebp, esp
	call	__RTC_CheckEsp
	mov	esp, ebp
	pop	ebp
	ret	4
??Y?$CSimpleStringT@G$0A@@ATL@@QAEAAV01@ABV01@@Z ENDP	; ATL::CSimpleStringT<unsigned short,0>::operator+=
_TEXT	ENDS
PUBLIC	?Append@?$CSimpleStringT@G$0A@@ATL@@QAEXPBGH@Z	; ATL::CSimpleStringT<unsigned short,0>::Append
; Function compile flags: /Odt /RTCcsu /ZI
;	COMDAT ?Append@?$CSimpleStringT@G$0A@@ATL@@QAEXABV12@@Z
_TEXT	SEGMENT
_this$ = -8						; size = 4
_strSrc$ = 8						; size = 4
?Append@?$CSimpleStringT@G$0A@@ATL@@QAEXABV12@@Z PROC NEAR ; ATL::CSimpleStringT<unsigned short,0>::Append, COMDAT
; _this$ = ecx

; 412  : 	{

	push	ebp
	mov	ebp, esp
	sub	esp, 204				; 000000ccH
	push	ebx
	push	esi
	push	edi
	push	ecx
	lea	edi, DWORD PTR [ebp-204]
	mov	ecx, 51					; 00000033H
	mov	eax, -858993460				; ccccccccH
	rep stosd
	pop	ecx
	mov	DWORD PTR _this$[ebp], ecx

; 413  : 		Append( strSrc.GetString(), strSrc.GetLength() );

	mov	ecx, DWORD PTR _strSrc$[ebp]
	call	?GetLength@?$CSimpleStringT@G$0A@@ATL@@QBEHXZ ; ATL::CSimpleStringT<unsigned short,0>::GetLength
	push	eax
	mov	ecx, DWORD PTR _strSrc$[ebp]
	call	?GetString@?$CSimpleStringT@G$0A@@ATL@@QBEPBGXZ ; ATL::CSimpleStringT<unsigned short,0>::GetString
	push	eax
	mov	ecx, DWORD PTR _this$[ebp]
	call	?Append@?$CSimpleStringT@G$0A@@ATL@@QAEXPBGH@Z ; ATL::CSimpleStringT<unsigned short,0>::Append

; 414  : 	}

	pop	edi
	pop	esi
	pop	ebx
	add	esp, 204				; 000000ccH
	cmp	ebp, esp
	call	__RTC_CheckEsp
	mov	esp, ebp
	pop	ebp
	ret	4
?Append@?$CSimpleStringT@G$0A@@ATL@@QAEXABV12@@Z ENDP	; ATL::CSimpleStringT<unsigned short,0>::Append
_TEXT	ENDS
PUBLIC	?GetBuffer@?$CSimpleStringT@G$0A@@ATL@@QAEPAGH@Z ; ATL::CSimpleStringT<unsigned short,0>::GetBuffer
PUBLIC	?ReleaseBufferSetLength@?$CSimpleStringT@G$0A@@ATL@@QAEXH@Z ; ATL::CSimpleStringT<unsigned short,0>::ReleaseBufferSetLength
PUBLIC	?CopyChars@?$CSimpleStringT@G$0A@@ATL@@SAXPAGPBGH@Z ; ATL::CSimpleStringT<unsigned short,0>::CopyChars
; Function compile flags: /Odt /RTCcsu /ZI
;	COMDAT ?Append@?$CSimpleStringT@G$0A@@ATL@@QAEXPBGH@Z
_TEXT	SEGMENT
_pszBuffer$ = -56					; size = 4
_nNewLength$ = -44					; size = 4
_nOldLength$ = -32					; size = 4
_nOffset$ = -20						; size = 4
_this$ = -8						; size = 4
_pszSrc$ = 8						; size = 4
_nLength$ = 12						; size = 4
?Append@?$CSimpleStringT@G$0A@@ATL@@QAEXPBGH@Z PROC NEAR ; ATL::CSimpleStringT<unsigned short,0>::Append, COMDAT
; _this$ = ecx

; 387  : 	{

	push	ebp
	mov	ebp, esp
	sub	esp, 252				; 000000fcH
	push	ebx
	push	esi
	push	edi
	push	ecx
	lea	edi, DWORD PTR [ebp-252]
	mov	ecx, 63					; 0000003fH
	mov	eax, -858993460				; ccccccccH
	rep stosd
	pop	ecx
	mov	DWORD PTR _this$[ebp], ecx

; 388  : 		// See comment in SetString() about why we do this
; 389  : 		UINT_PTR nOffset = pszSrc-GetString();

	mov	ecx, DWORD PTR _this$[ebp]
	call	?GetString@?$CSimpleStringT@G$0A@@ATL@@QBEPBGXZ ; ATL::CSimpleStringT<unsigned short,0>::GetString
	mov	ecx, DWORD PTR _pszSrc$[ebp]
	sub	ecx, eax
	sar	ecx, 1
	mov	DWORD PTR _nOffset$[ebp], ecx

; 390  : 
; 391  : 		UINT nOldLength = GetLength();

	mov	ecx, DWORD PTR _this$[ebp]
	call	?GetLength@?$CSimpleStringT@G$0A@@ATL@@QBEHXZ ; ATL::CSimpleStringT<unsigned short,0>::GetLength
	mov	DWORD PTR _nOldLength$[ebp], eax

; 392  : 		int nNewLength = nOldLength+nLength;

	mov	eax, DWORD PTR _nOldLength$[ebp]
	add	eax, DWORD PTR _nLength$[ebp]
	mov	DWORD PTR _nNewLength$[ebp], eax

; 393  : 		PXSTR pszBuffer = GetBuffer( nNewLength );

	mov	eax, DWORD PTR _nNewLength$[ebp]
	push	eax
	mov	ecx, DWORD PTR _this$[ebp]
	call	?GetBuffer@?$CSimpleStringT@G$0A@@ATL@@QAEPAGH@Z ; ATL::CSimpleStringT<unsigned short,0>::GetBuffer
	mov	DWORD PTR _pszBuffer$[ebp], eax

; 394  : 		if( nOffset <= nOldLength )

	mov	eax, DWORD PTR _nOffset$[ebp]
	cmp	eax, DWORD PTR _nOldLength$[ebp]
	ja	SHORT $L94174

; 395  : 		{
; 396  : 			pszSrc = pszBuffer+nOffset;

	mov	eax, DWORD PTR _nOffset$[ebp]
	mov	ecx, DWORD PTR _pszBuffer$[ebp]
	lea	edx, DWORD PTR [ecx+eax*2]
	mov	DWORD PTR _pszSrc$[ebp], edx
$L94174:

; 397  : 			// No need to call CopyCharsOverlapped, since the destination is
; 398  : 			// beyond the end of the original buffer
; 399  : 		}
; 400  : 		CopyChars( pszBuffer+nOldLength, pszSrc, nLength );

	mov	eax, DWORD PTR _nLength$[ebp]
	push	eax
	mov	ecx, DWORD PTR _pszSrc$[ebp]
	push	ecx
	mov	edx, DWORD PTR _nOldLength$[ebp]
	mov	eax, DWORD PTR _pszBuffer$[ebp]
	lea	ecx, DWORD PTR [eax+edx*2]
	push	ecx
	call	?CopyChars@?$CSimpleStringT@G$0A@@ATL@@SAXPAGPBGH@Z ; ATL::CSimpleStringT<unsigned short,0>::CopyChars
	add	esp, 12					; 0000000cH

; 401  : 		ReleaseBufferSetLength( nNewLength );

	mov	eax, DWORD PTR _nNewLength$[ebp]
	push	eax
	mov	ecx, DWORD PTR _this$[ebp]
	call	?ReleaseBufferSetLength@?$CSimpleStringT@G$0A@@ATL@@QAEXH@Z ; ATL::CSimpleStringT<unsigned short,0>::ReleaseBufferSetLength

; 402  : 	}

	pop	edi
	pop	esi
	pop	ebx
	add	esp, 252				; 000000fcH
	cmp	ebp, esp
	call	__RTC_CheckEsp
	mov	esp, ebp
	pop	ebp
	ret	8
?Append@?$CSimpleStringT@G$0A@@ATL@@QAEXPBGH@Z ENDP	; ATL::CSimpleStringT<unsigned short,0>::Append
_TEXT	ENDS
EXTRN	@_RTC_Check_4_to_1@4:NEAR
; Function compile flags: /Odt /RTCcsu /ZI
;	COMDAT ?IsLocked@CStringData@ATL@@QBE_NXZ
_TEXT	SEGMENT
_this$ = -8						; size = 4
?IsLocked@CStringData@ATL@@QBE_NXZ PROC NEAR		; ATL::CStringData::IsLocked, COMDAT
; _this$ = ecx

; 75   : 	{

	push	ebp
	mov	ebp, esp
	sub	esp, 204				; 000000ccH
	push	ebx
	push	esi
	push	edi
	push	ecx
	lea	edi, DWORD PTR [ebp-204]
	mov	ecx, 51					; 00000033H
	mov	eax, -858993460				; ccccccccH
	rep stosd
	pop	ecx
	mov	DWORD PTR _this$[ebp], ecx

; 76   : 		return nRefs < 0;

	mov	eax, DWORD PTR _this$[ebp]
	xor	ecx, ecx
	cmp	DWORD PTR [eax+12], 0
	setl	cl
	call	@_RTC_Check_4_to_1@4

; 77   : 	}

	pop	edi
	pop	esi
	pop	ebx
	add	esp, 204				; 000000ccH
	cmp	ebp, esp
	call	__RTC_CheckEsp
	mov	esp, ebp
	pop	ebp
	ret	0
?IsLocked@CStringData@ATL@@QBE_NXZ ENDP			; ATL::CStringData::IsLocked
_TEXT	ENDS
PUBLIC	??_C@_0FD@JDCNPMMG@c?3?2program?5files?2microsoft?5visua@ ; `string'
PUBLIC	??_C@_0L@OIIMFBNE@nRefs?5?$CB?$DN?50?$AA@	; `string'
EXTRN	__CrtDbgReport:NEAR
;	COMDAT ??_C@_0L@OIIMFBNE@nRefs?5?$CB?$DN?50?$AA@
CONST	SEGMENT
??_C@_0L@OIIMFBNE@nRefs?5?$CB?$DN?50?$AA@ DB 'nRefs != 0', 00H ; `string'
CONST	ENDS
;	COMDAT ??_C@_0FD@JDCNPMMG@c?3?2program?5files?2microsoft?5visua@
CONST	SEGMENT
??_C@_0FD@JDCNPMMG@c?3?2program?5files?2microsoft?5visua@ DB 'c:\program '
	DB	'files\microsoft visual studio .net 2003\vc7\atlmfc\include\at'
	DB	'lsimpstr.h', 00H				; `string'
; Function compile flags: /Odt /RTCcsu /ZI
CONST	ENDS
;	COMDAT ?Release@CStringData@ATL@@QAEXXZ
_TEXT	SEGMENT
_this$ = -8						; size = 4
?Release@CStringData@ATL@@QAEXXZ PROC NEAR		; ATL::CStringData::Release, COMDAT
; _this$ = ecx

; 92   : 	{

	push	ebp
	mov	ebp, esp
	sub	esp, 204				; 000000ccH
	push	ebx
	push	esi
	push	edi
	push	ecx
	lea	edi, DWORD PTR [ebp-204]
	mov	ecx, 51					; 00000033H
	mov	eax, -858993460				; ccccccccH
	rep stosd
	pop	ecx
	mov	DWORD PTR _this$[ebp], ecx

; 93   : 		ATLASSERT( nRefs != 0 );

	mov	eax, DWORD PTR _this$[ebp]
	cmp	DWORD PTR [eax+12], 0
	jne	SHORT $L94653
	push	OFFSET FLAT:??_C@_0L@OIIMFBNE@nRefs?5?$CB?$DN?50?$AA@
	push	0
	push	93					; 0000005dH
	push	OFFSET FLAT:??_C@_0FD@JDCNPMMG@c?3?2program?5files?2microsoft?5visua@
	push	2
	call	__CrtDbgReport
	add	esp, 20					; 00000014H
	cmp	eax, 1
	jne	SHORT $L94653
	int	3
$L94653:

; 94   : 
; 95   : 		if( _InterlockedDecrement( &nRefs ) <= 0 )

	mov	eax, DWORD PTR _this$[ebp]
	add	eax, 12					; 0000000cH
	or	ecx, -1
	lock	 xadd	 DWORD PTR [eax], ecx
	dec	ecx
	test	ecx, ecx
	jg	SHORT $L26116

; 96   : 		{
; 97   : 			pStringMgr->Free( this );

	mov	esi, esp
	mov	eax, DWORD PTR _this$[ebp]
	push	eax
	mov	ecx, DWORD PTR _this$[ebp]
	mov	edx, DWORD PTR [ecx]
	mov	eax, DWORD PTR _this$[ebp]
	mov	ecx, DWORD PTR [eax]
	mov	edx, DWORD PTR [edx]
	call	DWORD PTR [edx+4]
	cmp	esi, esp
	call	__RTC_CheckEsp
$L26116:

; 98   : 		}
; 99   : 	}

	pop	edi
	pop	esi
	pop	ebx
	add	esp, 204				; 000000ccH
	cmp	ebp, esp
	call	__RTC_CheckEsp
	mov	esp, ebp
	pop	ebp
	ret	0
?Release@CStringData@ATL@@QAEXXZ ENDP			; ATL::CStringData::Release
_TEXT	ENDS
PUBLIC	??0?$CSimpleStringT@G$0A@@ATL@@QAE@PAUIAtlStringMgr@1@@Z ; ATL::CSimpleStringT<unsigned short,0>::CSimpleStringT<unsigned short,0>
PUBLIC	?GetDefaultManager@?$StrTraitMFC@GV?$ChTraitsCRT@G@ATL@@@@SAPAUIAtlStringMgr@ATL@@XZ ; StrTraitMFC<unsigned short,ATL::ChTraitsCRT<unsigned short> >::GetDefaultManager
; Function compile flags: /Odt /RTCcsu /ZI
; File c:\program files\microsoft visual studio .net 2003\vc7\atlmfc\include\cstringt.h
;	COMDAT ??0?$CStringT@GV?$StrTraitMFC@GV?$ChTraitsCRT@G@ATL@@@@@ATL@@QAE@XZ
_TEXT	SEGMENT
_this$ = -8						; size = 4
??0?$CStringT@GV?$StrTraitMFC@GV?$ChTraitsCRT@G@ATL@@@@@ATL@@QAE@XZ PROC NEAR ; ATL::CStringT<unsigned short,StrTraitMFC<unsigned short,ATL::ChTraitsCRT<unsigned short> > >::CStringT<unsigned short,StrTraitMFC<unsigned short,ATL::ChTraitsCRT<unsigned short> > >, COMDAT
; _this$ = ecx

; 796  : 	{

	push	ebp
	mov	ebp, esp
	sub	esp, 204				; 000000ccH
	push	ebx
	push	esi
	push	edi
	push	ecx
	lea	edi, DWORD PTR [ebp-204]
	mov	ecx, 51					; 00000033H
	mov	eax, -858993460				; ccccccccH
	rep stosd
	pop	ecx
	mov	DWORD PTR _this$[ebp], ecx
	call	?GetDefaultManager@?$StrTraitMFC@GV?$ChTraitsCRT@G@ATL@@@@SAPAUIAtlStringMgr@ATL@@XZ ; StrTraitMFC<unsigned short,ATL::ChTraitsCRT<unsigned short> >::GetDefaultManager
	push	eax
	mov	ecx, DWORD PTR _this$[ebp]
	call	??0?$CSimpleStringT@G$0A@@ATL@@QAE@PAUIAtlStringMgr@1@@Z ; ATL::CSimpleStringT<unsigned short,0>::CSimpleStringT<unsigned short,0>

; 797  : 	}

	mov	eax, DWORD PTR _this$[ebp]
	pop	edi
	pop	esi
	pop	ebx
	add	esp, 204				; 000000ccH
	cmp	ebp, esp
	call	__RTC_CheckEsp
	mov	esp, ebp
	pop	ebp
	ret	0
??0?$CStringT@GV?$StrTraitMFC@GV?$ChTraitsCRT@G@ATL@@@@@ATL@@QAE@XZ ENDP ; ATL::CStringT<unsigned short,StrTraitMFC<unsigned short,ATL::ChTraitsCRT<unsigned short> > >::CStringT<unsigned short,StrTraitMFC<unsigned short,ATL::ChTraitsCRT<unsigned short> > >
_TEXT	ENDS
PUBLIC	??0?$CSimpleStringT@G$0A@@ATL@@QAE@ABV01@@Z	; ATL::CSimpleStringT<unsigned short,0>::CSimpleStringT<unsigned short,0>
; Function compile flags: /Odt /RTCcsu /ZI
;	COMDAT ??0?$CStringT@GV?$StrTraitMFC@GV?$ChTraitsCRT@G@ATL@@@@@ATL@@QAE@ABV01@@Z
_TEXT	SEGMENT
_this$ = -8						; size = 4
_strSrc$ = 8						; size = 4
??0?$CStringT@GV?$StrTraitMFC@GV?$ChTraitsCRT@G@ATL@@@@@ATL@@QAE@ABV01@@Z PROC NEAR ; ATL::CStringT<unsigned short,StrTraitMFC<unsigned short,ATL::ChTraitsCRT<unsigned short> > >::CStringT<unsigned short,StrTraitMFC<unsigned short,ATL::ChTraitsCRT<unsigned short> > >, COMDAT
; _this$ = ecx

; 814  : 	{

	push	ebp
	mov	ebp, esp
	sub	esp, 204				; 000000ccH
	push	ebx
	push	esi
	push	edi
	push	ecx
	lea	edi, DWORD PTR [ebp-204]
	mov	ecx, 51					; 00000033H
	mov	eax, -858993460				; ccccccccH
	rep stosd
	pop	ecx
	mov	DWORD PTR _this$[ebp], ecx
	mov	eax, DWORD PTR _strSrc$[ebp]
	push	eax
	mov	ecx, DWORD PTR _this$[ebp]
	call	??0?$CSimpleStringT@G$0A@@ATL@@QAE@ABV01@@Z ; ATL::CSimpleStringT<unsigned short,0>::CSimpleStringT<unsigned short,0>

; 815  : 	}

	mov	eax, DWORD PTR _this$[ebp]
	pop	edi
	pop	esi
	pop	ebx
	add	esp, 204				; 000000ccH
	cmp	ebp, esp
	call	__RTC_CheckEsp
	mov	esp, ebp
	pop	ebp
	ret	4
??0?$CStringT@GV?$StrTraitMFC@GV?$ChTraitsCRT@G@ATL@@@@@ATL@@QAE@ABV01@@Z ENDP ; ATL::CStringT<unsigned short,StrTraitMFC<unsigned short,ATL::ChTraitsCRT<unsigned short> > >::CStringT<unsigned short,StrTraitMFC<unsigned short,ATL::ChTraitsCRT<unsigned short> > >
_TEXT	ENDS
PUBLIC	??1?$CSimpleStringT@G$0A@@ATL@@QAE@XZ		; ATL::CSimpleStringT<unsigned short,0>::~CSimpleStringT<unsigned short,0>
; Function compile flags: /Odt /RTCcsu /ZI
;	COMDAT ??1?$CStringT@GV?$StrTraitMFC@GV?$ChTraitsCRT@G@ATL@@@@@ATL@@QAE@XZ
_TEXT	SEGMENT
_this$ = -8						; size = 4
??1?$CStringT@GV?$StrTraitMFC@GV?$ChTraitsCRT@G@ATL@@@@@ATL@@QAE@XZ PROC NEAR ; ATL::CStringT<unsigned short,StrTraitMFC<unsigned short,ATL::ChTraitsCRT<unsigned short> > >::~CStringT<unsigned short,StrTraitMFC<unsigned short,ATL::ChTraitsCRT<unsigned short> > >, COMDAT
; _this$ = ecx

; 962  : 	{

	push	ebp
	mov	ebp, esp
	sub	esp, 204				; 000000ccH
	push	ebx
	push	esi
	push	edi
	push	ecx
	lea	edi, DWORD PTR [ebp-204]
	mov	ecx, 51					; 00000033H
	mov	eax, -858993460				; ccccccccH
	rep stosd
	pop	ecx
	mov	DWORD PTR _this$[ebp], ecx

; 963  : 	}

	mov	ecx, DWORD PTR _this$[ebp]
	call	??1?$CSimpleStringT@G$0A@@ATL@@QAE@XZ	; ATL::CSimpleStringT<unsigned short,0>::~CSimpleStringT<unsigned short,0>
	pop	edi
	pop	esi
	pop	ebx
	add	esp, 204				; 000000ccH
	cmp	ebp, esp
	call	__RTC_CheckEsp
	mov	esp, ebp
	pop	ebp
	ret	0
??1?$CStringT@GV?$StrTraitMFC@GV?$ChTraitsCRT@G@ATL@@@@@ATL@@QAE@XZ ENDP ; ATL::CStringT<unsigned short,StrTraitMFC<unsigned short,ATL::ChTraitsCRT<unsigned short> > >::~CStringT<unsigned short,StrTraitMFC<unsigned short,ATL::ChTraitsCRT<unsigned short> > >
_TEXT	ENDS
PUBLIC	??4?$CSimpleStringT@G$0A@@ATL@@QAEAAV01@PBG@Z	; ATL::CSimpleStringT<unsigned short,0>::operator=
; Function compile flags: /Odt /RTCcsu /ZI
;	COMDAT ??4?$CStringT@GV?$StrTraitMFC@GV?$ChTraitsCRT@G@ATL@@@@@ATL@@QAEAAV01@PBG@Z
_TEXT	SEGMENT
_this$ = -8						; size = 4
_pszSrc$ = 8						; size = 4
??4?$CStringT@GV?$StrTraitMFC@GV?$ChTraitsCRT@G@ATL@@@@@ATL@@QAEAAV01@PBG@Z PROC NEAR ; ATL::CStringT<unsigned short,StrTraitMFC<unsigned short,ATL::ChTraitsCRT<unsigned short> > >::operator=, COMDAT
; _this$ = ecx

; 982  : 	{

	push	ebp
	mov	ebp, esp
	sub	esp, 204				; 000000ccH
	push	ebx
	push	esi
	push	edi
	push	ecx
	lea	edi, DWORD PTR [ebp-204]
	mov	ecx, 51					; 00000033H
	mov	eax, -858993460				; ccccccccH
	rep stosd
	pop	ecx
	mov	DWORD PTR _this$[ebp], ecx

; 983  : 		CThisSimpleString::operator=( pszSrc );

	mov	eax, DWORD PTR _pszSrc$[ebp]
	push	eax
	mov	ecx, DWORD PTR _this$[ebp]
	call	??4?$CSimpleStringT@G$0A@@ATL@@QAEAAV01@PBG@Z ; ATL::CSimpleStringT<unsigned short,0>::operator=

; 984  : 
; 985  : 		return( *this );

	mov	eax, DWORD PTR _this$[ebp]

; 986  : 	}

	pop	edi
	pop	esi
	pop	ebx
	add	esp, 204				; 000000ccH
	cmp	ebp, esp
	call	__RTC_CheckEsp
	mov	esp, ebp
	pop	ebp
	ret	4
??4?$CStringT@GV?$StrTraitMFC@GV?$ChTraitsCRT@G@ATL@@@@@ATL@@QAEAAV01@PBG@Z ENDP ; ATL::CStringT<unsigned short,StrTraitMFC<unsigned short,ATL::ChTraitsCRT<unsigned short> > >::operator=
; Function compile flags: /Odt /RTCcsu /ZI
; File c:\program files\microsoft visual studio .net 2003\vc7\atlmfc\include\atlsimpstr.h
_TEXT	ENDS
;	COMDAT ??B?$CSimpleStringT@G$0A@@ATL@@QBEPBGXZ
_TEXT	SEGMENT
_this$ = -8						; size = 4
??B?$CSimpleStringT@G$0A@@ATL@@QBEPBGXZ PROC NEAR	; ATL::CSimpleStringT<unsigned short,0>::operator unsigned short const *, COMDAT
; _this$ = ecx

; 378  : 	{

	push	ebp
	mov	ebp, esp
	sub	esp, 204				; 000000ccH
	push	ebx
	push	esi
	push	edi
	push	ecx
	lea	edi, DWORD PTR [ebp-204]
	mov	ecx, 51					; 00000033H
	mov	eax, -858993460				; ccccccccH
	rep stosd
	pop	ecx
	mov	DWORD PTR _this$[ebp], ecx

; 379  : 		return( m_pszData );

	mov	eax, DWORD PTR _this$[ebp]
	mov	eax, DWORD PTR [eax]

; 380  : 	}

	pop	edi
	pop	esi
	pop	ebx
	mov	esp, ebp
	pop	ebp
	ret	0
??B?$CSimpleStringT@G$0A@@ATL@@QBEPBGXZ ENDP		; ATL::CSimpleStringT<unsigned short,0>::operator unsigned short const *
; Function compile flags: /Odt /RTCcsu /ZI
_TEXT	ENDS
;	COMDAT ?GetLength@?$CSimpleStringT@G$0A@@ATL@@QBEHXZ
_TEXT	SEGMENT
_this$ = -8						; size = 4
?GetLength@?$CSimpleStringT@G$0A@@ATL@@QBEHXZ PROC NEAR	; ATL::CSimpleStringT<unsigned short,0>::GetLength, COMDAT
; _this$ = ecx

; 500  : 	{

	push	ebp
	mov	ebp, esp
	sub	esp, 204				; 000000ccH
	push	ebx
	push	esi
	push	edi
	push	ecx
	lea	edi, DWORD PTR [ebp-204]
	mov	ecx, 51					; 00000033H
	mov	eax, -858993460				; ccccccccH
	rep stosd
	pop	ecx
	mov	DWORD PTR _this$[ebp], ecx

; 501  : 		return( GetData()->nDataLength );

	mov	ecx, DWORD PTR _this$[ebp]
	call	?GetData@?$CSimpleStringT@G$0A@@ATL@@ABEPAUCStringData@2@XZ ; ATL::CSimpleStringT<unsigned short,0>::GetData
	mov	eax, DWORD PTR [eax+4]

; 502  : 	}

	pop	edi
	pop	esi
	pop	ebx
	add	esp, 204				; 000000ccH
	cmp	ebp, esp
	call	__RTC_CheckEsp
	mov	esp, ebp
	pop	ebp
	ret	0
?GetLength@?$CSimpleStringT@G$0A@@ATL@@QBEHXZ ENDP	; ATL::CSimpleStringT<unsigned short,0>::GetLength
_TEXT	ENDS
PUBLIC	??_C@_0BA@GOIMFHNK@pStringMgr?5?$CB?$DN?50?$AA@	; `string'
;	COMDAT ??_C@_0BA@GOIMFHNK@pStringMgr?5?$CB?$DN?50?$AA@
CONST	SEGMENT
??_C@_0BA@GOIMFHNK@pStringMgr?5?$CB?$DN?50?$AA@ DB 'pStringMgr != 0', 00H ; `string'
; Function compile flags: /Odt /RTCcsu /ZI
CONST	ENDS
;	COMDAT ??0?$CSimpleStringT@G$0A@@ATL@@QAE@PAUIAtlStringMgr@1@@Z
_TEXT	SEGMENT
_pData$ = -20						; size = 4
_this$ = -8						; size = 4
_pStringMgr$ = 8					; size = 4
??0?$CSimpleStringT@G$0A@@ATL@@QAE@PAUIAtlStringMgr@1@@Z PROC NEAR ; ATL::CSimpleStringT<unsigned short,0>::CSimpleStringT<unsigned short,0>, COMDAT
; _this$ = ecx

; 210  : 	explicit CSimpleStringT( IAtlStringMgr* pStringMgr ) throw()

	push	ebp
	mov	ebp, esp
	sub	esp, 216				; 000000d8H
	push	ebx
	push	esi
	push	edi
	push	ecx
	lea	edi, DWORD PTR [ebp-216]
	mov	ecx, 54					; 00000036H
	mov	eax, -858993460				; ccccccccH
	rep stosd
	pop	ecx
	mov	DWORD PTR _this$[ebp], ecx

; 211  : 	{
; 212  : 		ATLASSERT( pStringMgr != NULL );

	cmp	DWORD PTR _pStringMgr$[ebp], 0
	jne	SHORT $L94669
	push	OFFSET FLAT:??_C@_0BA@GOIMFHNK@pStringMgr?5?$CB?$DN?50?$AA@
	push	0
	push	212					; 000000d4H
	push	OFFSET FLAT:??_C@_0FD@JDCNPMMG@c?3?2program?5files?2microsoft?5visua@
	push	2
	call	__CrtDbgReport
	add	esp, 20					; 00000014H
	cmp	eax, 1
	jne	SHORT $L94669
	int	3
$L94669:

; 213  : 		CStringData* pData = pStringMgr->GetNilString();

	mov	eax, DWORD PTR _pStringMgr$[ebp]
	mov	edx, DWORD PTR [eax]
	mov	esi, esp
	mov	ecx, DWORD PTR _pStringMgr$[ebp]
	call	DWORD PTR [edx+12]
	cmp	esi, esp
	call	__RTC_CheckEsp
	mov	DWORD PTR _pData$[ebp], eax

; 214  : 		Attach( pData );

	mov	eax, DWORD PTR _pData$[ebp]
	push	eax
	mov	ecx, DWORD PTR _this$[ebp]
	call	?Attach@?$CSimpleStringT@G$0A@@ATL@@AAEXPAUCStringData@2@@Z ; ATL::CSimpleStringT<unsigned short,0>::Attach

; 215  : 	}

	mov	eax, DWORD PTR _this$[ebp]
	pop	edi
	pop	esi
	pop	ebx
	add	esp, 216				; 000000d8H
	cmp	ebp, esp
	call	__RTC_CheckEsp
	mov	esp, ebp
	pop	ebp
	ret	4
??0?$CSimpleStringT@G$0A@@ATL@@QAE@PAUIAtlStringMgr@1@@Z ENDP ; ATL::CSimpleStringT<unsigned short,0>::CSimpleStringT<unsigned short,0>
; Function compile flags: /Odt /RTCcsu /ZI
_TEXT	ENDS
;	COMDAT ??0?$CSimpleStringT@G$0A@@ATL@@QAE@ABV01@@Z
_TEXT	SEGMENT
_pNewData$ = -32					; size = 4
_pSrcData$ = -20					; size = 4
_this$ = -8						; size = 4
_strSrc$ = 8						; size = 4
??0?$CSimpleStringT@G$0A@@ATL@@QAE@ABV01@@Z PROC NEAR	; ATL::CSimpleStringT<unsigned short,0>::CSimpleStringT<unsigned short,0>, COMDAT
; _this$ = ecx

; 217  : 	CSimpleStringT( const CSimpleStringT& strSrc )

	push	ebp
	mov	ebp, esp
	sub	esp, 228				; 000000e4H
	push	ebx
	push	esi
	push	edi
	push	ecx
	lea	edi, DWORD PTR [ebp-228]
	mov	ecx, 57					; 00000039H
	mov	eax, -858993460				; ccccccccH
	rep stosd
	pop	ecx
	mov	DWORD PTR _this$[ebp], ecx

; 218  : 	{
; 219  : 		CStringData* pSrcData = strSrc.GetData();

	mov	ecx, DWORD PTR _strSrc$[ebp]
	call	?GetData@?$CSimpleStringT@G$0A@@ATL@@ABEPAUCStringData@2@XZ ; ATL::CSimpleStringT<unsigned short,0>::GetData
	mov	DWORD PTR _pSrcData$[ebp], eax

; 220  : 		CStringData* pNewData = CloneData( pSrcData );

	mov	eax, DWORD PTR _pSrcData$[ebp]
	push	eax
	call	?CloneData@?$CSimpleStringT@G$0A@@ATL@@CAPAUCStringData@2@PAU32@@Z ; ATL::CSimpleStringT<unsigned short,0>::CloneData
	add	esp, 4
	mov	DWORD PTR _pNewData$[ebp], eax

; 221  : 		Attach( pNewData );

	mov	eax, DWORD PTR _pNewData$[ebp]
	push	eax
	mov	ecx, DWORD PTR _this$[ebp]
	call	?Attach@?$CSimpleStringT@G$0A@@ATL@@AAEXPAUCStringData@2@@Z ; ATL::CSimpleStringT<unsigned short,0>::Attach

; 222  : 	}

	mov	eax, DWORD PTR _this$[ebp]
	pop	edi
	pop	esi
	pop	ebx
	add	esp, 228				; 000000e4H
	cmp	ebp, esp
	call	__RTC_CheckEsp
	mov	esp, ebp
	pop	ebp
	ret	4
??0?$CSimpleStringT@G$0A@@ATL@@QAE@ABV01@@Z ENDP	; ATL::CSimpleStringT<unsigned short,0>::CSimpleStringT<unsigned short,0>
; Function compile flags: /Odt /RTCcsu /ZI
_TEXT	ENDS
;	COMDAT ??1?$CSimpleStringT@G$0A@@ATL@@QAE@XZ
_TEXT	SEGMENT
_pData$ = -20						; size = 4
_this$ = -8						; size = 4
??1?$CSimpleStringT@G$0A@@ATL@@QAE@XZ PROC NEAR		; ATL::CSimpleStringT<unsigned short,0>::~CSimpleStringT<unsigned short,0>, COMDAT
; _this$ = ecx

; 262  : 	{

	push	ebp
	mov	ebp, esp
	sub	esp, 216				; 000000d8H
	push	ebx
	push	esi
	push	edi
	push	ecx
	lea	edi, DWORD PTR [ebp-216]
	mov	ecx, 54					; 00000036H
	mov	eax, -858993460				; ccccccccH
	rep stosd
	pop	ecx
	mov	DWORD PTR _this$[ebp], ecx

; 263  : 		CStringData* pData = GetData();

	mov	ecx, DWORD PTR _this$[ebp]
	call	?GetData@?$CSimpleStringT@G$0A@@ATL@@ABEPAUCStringData@2@XZ ; ATL::CSimpleStringT<unsigned short,0>::GetData
	mov	DWORD PTR _pData$[ebp], eax

; 264  : 		pData->Release();

	mov	ecx, DWORD PTR _pData$[ebp]
	call	?Release@CStringData@ATL@@QAEXXZ	; ATL::CStringData::Release

; 265  : 	}

	pop	edi
	pop	esi
	pop	ebx
	add	esp, 216				; 000000d8H
	cmp	ebp, esp
	call	__RTC_CheckEsp
	mov	esp, ebp
	pop	ebp
	ret	0
??1?$CSimpleStringT@G$0A@@ATL@@QAE@XZ ENDP		; ATL::CSimpleStringT<unsigned short,0>::~CSimpleStringT<unsigned short,0>
_TEXT	ENDS
PUBLIC	?SetString@?$CSimpleStringT@G$0A@@ATL@@QAEXPBG@Z ; ATL::CSimpleStringT<unsigned short,0>::SetString
; Function compile flags: /Odt /RTCcsu /ZI
;	COMDAT ??4?$CSimpleStringT@G$0A@@ATL@@QAEAAV01@PBG@Z
_TEXT	SEGMENT
_this$ = -8						; size = 4
_pszSrc$ = 8						; size = 4
??4?$CSimpleStringT@G$0A@@ATL@@QAEAAV01@PBG@Z PROC NEAR	; ATL::CSimpleStringT<unsigned short,0>::operator=, COMDAT
; _this$ = ecx

; 315  : 	{

	push	ebp
	mov	ebp, esp
	sub	esp, 204				; 000000ccH
	push	ebx
	push	esi
	push	edi
	push	ecx
	lea	edi, DWORD PTR [ebp-204]
	mov	ecx, 51					; 00000033H
	mov	eax, -858993460				; ccccccccH
	rep stosd
	pop	ecx
	mov	DWORD PTR _this$[ebp], ecx

; 316  : 		SetString( pszSrc );

	mov	eax, DWORD PTR _pszSrc$[ebp]
	push	eax
	mov	ecx, DWORD PTR _this$[ebp]
	call	?SetString@?$CSimpleStringT@G$0A@@ATL@@QAEXPBG@Z ; ATL::CSimpleStringT<unsigned short,0>::SetString

; 317  : 
; 318  : 		return( *this );

	mov	eax, DWORD PTR _this$[ebp]

; 319  : 	}

	pop	edi
	pop	esi
	pop	ebx
	add	esp, 204				; 000000ccH
	cmp	ebp, esp
	call	__RTC_CheckEsp
	mov	esp, ebp
	pop	ebp
	ret	4
??4?$CSimpleStringT@G$0A@@ATL@@QAEAAV01@PBG@Z ENDP	; ATL::CSimpleStringT<unsigned short,0>::operator=
_TEXT	ENDS
PUBLIC	?PrepareWrite@?$CSimpleStringT@G$0A@@ATL@@AAEPAGH@Z ; ATL::CSimpleStringT<unsigned short,0>::PrepareWrite
; Function compile flags: /Odt /RTCcsu /ZI
;	COMDAT ?GetBuffer@?$CSimpleStringT@G$0A@@ATL@@QAEPAGH@Z
_TEXT	SEGMENT
_this$ = -8						; size = 4
_nMinBufferLength$ = 8					; size = 4
?GetBuffer@?$CSimpleStringT@G$0A@@ATL@@QAEPAGH@Z PROC NEAR ; ATL::CSimpleStringT<unsigned short,0>::GetBuffer, COMDAT
; _this$ = ecx

; 489  : 	{

	push	ebp
	mov	ebp, esp
	sub	esp, 204				; 000000ccH
	push	ebx
	push	esi
	push	edi
	push	ecx
	lea	edi, DWORD PTR [ebp-204]
	mov	ecx, 51					; 00000033H
	mov	eax, -858993460				; ccccccccH
	rep stosd
	pop	ecx
	mov	DWORD PTR _this$[ebp], ecx

; 490  : 		return( PrepareWrite( nMinBufferLength ) );

	mov	eax, DWORD PTR _nMinBufferLength$[ebp]
	push	eax
	mov	ecx, DWORD PTR _this$[ebp]
	call	?PrepareWrite@?$CSimpleStringT@G$0A@@ATL@@AAEPAGH@Z ; ATL::CSimpleStringT<unsigned short,0>::PrepareWrite

; 491  : 	}

	pop	edi
	pop	esi
	pop	ebx
	add	esp, 204				; 000000ccH
	cmp	ebp, esp
	call	__RTC_CheckEsp
	mov	esp, ebp
	pop	ebp
	ret	4
?GetBuffer@?$CSimpleStringT@G$0A@@ATL@@QAEPAGH@Z ENDP	; ATL::CSimpleStringT<unsigned short,0>::GetBuffer
; Function compile flags: /Odt /RTCcsu /ZI
_TEXT	ENDS
;	COMDAT ?GetData@?$CSimpleStringT@G$0A@@ATL@@ABEPAUCStringData@2@XZ
_TEXT	SEGMENT
_this$ = -8						; size = 4
?GetData@?$CSimpleStringT@G$0A@@ATL@@ABEPAUCStringData@2@XZ PROC NEAR ; ATL::CSimpleStringT<unsigned short,0>::GetData, COMDAT
; _this$ = ecx

; 730  : 	{

	push	ebp
	mov	ebp, esp
	sub	esp, 204				; 000000ccH
	push	ebx
	push	esi
	push	edi
	push	ecx
	lea	edi, DWORD PTR [ebp-204]
	mov	ecx, 51					; 00000033H
	mov	eax, -858993460				; ccccccccH
	rep stosd
	pop	ecx
	mov	DWORD PTR _this$[ebp], ecx

; 731  : 		return( reinterpret_cast< CStringData* >( m_pszData )-1 );

	mov	eax, DWORD PTR _this$[ebp]
	mov	eax, DWORD PTR [eax]
	sub	eax, 16					; 00000010H

; 732  : 	}

	pop	edi
	pop	esi
	pop	ebx
	mov	esp, ebp
	pop	ebp
	ret	0
?GetData@?$CSimpleStringT@G$0A@@ATL@@ABEPAUCStringData@2@XZ ENDP ; ATL::CSimpleStringT<unsigned short,0>::GetData
_TEXT	ENDS
PUBLIC	?PrepareWrite2@?$CSimpleStringT@G$0A@@ATL@@AAEXH@Z ; ATL::CSimpleStringT<unsigned short,0>::PrepareWrite2
; Function compile flags: /Odt /RTCcsu /ZI
;	COMDAT ?PrepareWrite@?$CSimpleStringT@G$0A@@ATL@@AAEPAGH@Z
_TEXT	SEGMENT
_nTooShort$ = -44					; size = 4
_nShared$ = -32						; size = 4
_pOldData$ = -20					; size = 4
_this$ = -8						; size = 4
_nLength$ = 8						; size = 4
?PrepareWrite@?$CSimpleStringT@G$0A@@ATL@@AAEPAGH@Z PROC NEAR ; ATL::CSimpleStringT<unsigned short,0>::PrepareWrite, COMDAT
; _this$ = ecx

; 734  : 	{

	push	ebp
	mov	ebp, esp
	sub	esp, 240				; 000000f0H
	push	ebx
	push	esi
	push	edi
	push	ecx
	lea	edi, DWORD PTR [ebp-240]
	mov	ecx, 60					; 0000003cH
	mov	eax, -858993460				; ccccccccH
	rep stosd
	pop	ecx
	mov	DWORD PTR _this$[ebp], ecx

; 735  : 		CStringData* pOldData = GetData();

	mov	ecx, DWORD PTR _this$[ebp]
	call	?GetData@?$CSimpleStringT@G$0A@@ATL@@ABEPAUCStringData@2@XZ ; ATL::CSimpleStringT<unsigned short,0>::GetData
	mov	DWORD PTR _pOldData$[ebp], eax

; 736  : 		int nShared = 1-pOldData->nRefs;  // nShared < 0 means true, >= 0 means false

	mov	eax, DWORD PTR _pOldData$[ebp]
	mov	ecx, 1
	sub	ecx, DWORD PTR [eax+12]
	mov	DWORD PTR _nShared$[ebp], ecx

; 737  : 		int nTooShort = pOldData->nAllocLength-nLength;  // nTooShort < 0 means true, >= 0 means false

	mov	eax, DWORD PTR _pOldData$[ebp]
	mov	ecx, DWORD PTR [eax+8]
	sub	ecx, DWORD PTR _nLength$[ebp]
	mov	DWORD PTR _nTooShort$[ebp], ecx

; 738  : 		if( (nShared|nTooShort) < 0 )  // If either sign bit is set (i.e. either is less than zero), we need to copy data

	mov	eax, DWORD PTR _nShared$[ebp]
	or	eax, DWORD PTR _nTooShort$[ebp]
	jge	SHORT $L92761

; 739  : 		{
; 740  : 			PrepareWrite2( nLength );

	mov	eax, DWORD PTR _nLength$[ebp]
	push	eax
	mov	ecx, DWORD PTR _this$[ebp]
	call	?PrepareWrite2@?$CSimpleStringT@G$0A@@ATL@@AAEXH@Z ; ATL::CSimpleStringT<unsigned short,0>::PrepareWrite2
$L92761:

; 741  : 		}
; 742  : 
; 743  : 		return( m_pszData );

	mov	eax, DWORD PTR _this$[ebp]
	mov	eax, DWORD PTR [eax]

; 744  : 	}

	pop	edi
	pop	esi
	pop	ebx
	add	esp, 240				; 000000f0H
	cmp	ebp, esp
	call	__RTC_CheckEsp
	mov	esp, ebp
	pop	ebp
	ret	4
?PrepareWrite@?$CSimpleStringT@G$0A@@ATL@@AAEPAGH@Z ENDP ; ATL::CSimpleStringT<unsigned short,0>::PrepareWrite
_TEXT	ENDS
EXTRN	?AfxGetStringManager@@YGPAUIAtlStringMgr@ATL@@XZ:NEAR ; AfxGetStringManager
; Function compile flags: /Odt /RTCcsu /ZI
; File c:\program files\microsoft visual studio .net 2003\vc7\atlmfc\include\afxstr.h
;	COMDAT ?GetDefaultManager@?$StrTraitMFC@GV?$ChTraitsCRT@G@ATL@@@@SAPAUIAtlStringMgr@ATL@@XZ
_TEXT	SEGMENT
?GetDefaultManager@?$StrTraitMFC@GV?$ChTraitsCRT@G@ATL@@@@SAPAUIAtlStringMgr@ATL@@XZ PROC NEAR ; StrTraitMFC<unsigned short,ATL::ChTraitsCRT<unsigned short> >::GetDefaultManager, COMDAT

; 49   : 	{

	push	ebp
	mov	ebp, esp
	sub	esp, 192				; 000000c0H
	push	ebx
	push	esi
	push	edi
	lea	edi, DWORD PTR [ebp-192]
	mov	ecx, 48					; 00000030H
	mov	eax, -858993460				; ccccccccH
	rep stosd

; 50   : 		return( AfxGetStringManager() );

	call	?AfxGetStringManager@@YGPAUIAtlStringMgr@ATL@@XZ ; AfxGetStringManager

; 51   : 	}

	pop	edi
	pop	esi
	pop	ebx
	add	esp, 192				; 000000c0H
	cmp	ebp, esp
	call	__RTC_CheckEsp
	mov	esp, ebp
	pop	ebp
	ret	0
?GetDefaultManager@?$StrTraitMFC@GV?$ChTraitsCRT@G@ATL@@@@SAPAUIAtlStringMgr@ATL@@XZ ENDP ; StrTraitMFC<unsigned short,ATL::ChTraitsCRT<unsigned short> >::GetDefaultManager
_TEXT	ENDS
PUBLIC	??_C@_0BA@GNIEOBOF@nNewLength?5?$DO?$DN?50?$AA@	; `string'
PUBLIC	?SetLength@?$CSimpleStringT@G$0A@@ATL@@AAEXH@Z	; ATL::CSimpleStringT<unsigned short,0>::SetLength
;	COMDAT ??_C@_0BA@GNIEOBOF@nNewLength?5?$DO?$DN?50?$AA@
; File c:\program files\microsoft visual studio .net 2003\vc7\atlmfc\include\atlsimpstr.h
CONST	SEGMENT
??_C@_0BA@GNIEOBOF@nNewLength?5?$DO?$DN?50?$AA@ DB 'nNewLength >= 0', 00H ; `string'
; Function compile flags: /Odt /RTCcsu /ZI
CONST	ENDS
;	COMDAT ?ReleaseBufferSetLength@?$CSimpleStringT@G$0A@@ATL@@QAEXH@Z
_TEXT	SEGMENT
_this$ = -8						; size = 4
_nNewLength$ = 8					; size = 4
?ReleaseBufferSetLength@?$CSimpleStringT@G$0A@@ATL@@QAEXH@Z PROC NEAR ; ATL::CSimpleStringT<unsigned short,0>::ReleaseBufferSetLength, COMDAT
; _this$ = ecx

; 546  : 	{

	push	ebp
	mov	ebp, esp
	sub	esp, 204				; 000000ccH
	push	ebx
	push	esi
	push	edi
	push	ecx
	lea	edi, DWORD PTR [ebp-204]
	mov	ecx, 51					; 00000033H
	mov	eax, -858993460				; ccccccccH
	rep stosd
	pop	ecx
	mov	DWORD PTR _this$[ebp], ecx

; 547  : 		ATLASSERT( nNewLength >= 0 );

	cmp	DWORD PTR _nNewLength$[ebp], 0
	jge	SHORT $L94686
	push	OFFSET FLAT:??_C@_0BA@GNIEOBOF@nNewLength?5?$DO?$DN?50?$AA@
	push	0
	push	547					; 00000223H
	push	OFFSET FLAT:??_C@_0FD@JDCNPMMG@c?3?2program?5files?2microsoft?5visua@
	push	2
	call	__CrtDbgReport
	add	esp, 20					; 00000014H
	cmp	eax, 1
	jne	SHORT $L94686
	int	3
$L94686:

; 548  : 		SetLength( nNewLength );

	mov	eax, DWORD PTR _nNewLength$[ebp]
	push	eax
	mov	ecx, DWORD PTR _this$[ebp]
	call	?SetLength@?$CSimpleStringT@G$0A@@ATL@@AAEXH@Z ; ATL::CSimpleStringT<unsigned short,0>::SetLength

; 549  : 	}

	pop	edi
	pop	esi
	pop	ebx
	add	esp, 204				; 000000ccH
	cmp	ebp, esp
	call	__RTC_CheckEsp
	mov	esp, ebp
	pop	ebp
	ret	4
?ReleaseBufferSetLength@?$CSimpleStringT@G$0A@@ATL@@QAEXH@Z ENDP ; ATL::CSimpleStringT<unsigned short,0>::ReleaseBufferSetLength
_TEXT	ENDS
PUBLIC	??_C@_0N@ILOMLJGA@nLength?5?$DO?$DN?50?$AA@	; `string'
PUBLIC	??_C@_0CD@EEFFJEGJ@nLength?5?$DM?$DN?5GetData?$CI?$CJ?9?$DOnAllocLeng@ ; `string'
PUBLIC	?AtlThrow@ATL@@YGXJ@Z				; ATL::AtlThrow
;	COMDAT ??_C@_0N@ILOMLJGA@nLength?5?$DO?$DN?50?$AA@
CONST	SEGMENT
??_C@_0N@ILOMLJGA@nLength?5?$DO?$DN?50?$AA@ DB 'nLength >= 0', 00H ; `string'
CONST	ENDS
;	COMDAT ??_C@_0CD@EEFFJEGJ@nLength?5?$DM?$DN?5GetData?$CI?$CJ?9?$DOnAllocLeng@
CONST	SEGMENT
??_C@_0CD@EEFFJEGJ@nLength?5?$DM?$DN?5GetData?$CI?$CJ?9?$DOnAllocLeng@ DB 'n'
	DB	'Length <= GetData()->nAllocLength', 00H	; `string'
; Function compile flags: /Odt /RTCcsu /ZI
CONST	ENDS
;	COMDAT ?SetLength@?$CSimpleStringT@G$0A@@ATL@@AAEXH@Z
_TEXT	SEGMENT
_this$ = -8						; size = 4
_nLength$ = 8						; size = 4
?SetLength@?$CSimpleStringT@G$0A@@ATL@@AAEXH@Z PROC NEAR ; ATL::CSimpleStringT<unsigned short,0>::SetLength, COMDAT
; _this$ = ecx

; 789  : 	{

	push	ebp
	mov	ebp, esp
	sub	esp, 204				; 000000ccH
	push	ebx
	push	esi
	push	edi
	push	ecx
	lea	edi, DWORD PTR [ebp-204]
	mov	ecx, 51					; 00000033H
	mov	eax, -858993460				; ccccccccH
	rep stosd
	pop	ecx
	mov	DWORD PTR _this$[ebp], ecx

; 790  : 		ATLASSERT( nLength >= 0 );

	cmp	DWORD PTR _nLength$[ebp], 0
	jge	SHORT $L94689
	push	OFFSET FLAT:??_C@_0N@ILOMLJGA@nLength?5?$DO?$DN?50?$AA@
	push	0
	push	790					; 00000316H
	push	OFFSET FLAT:??_C@_0FD@JDCNPMMG@c?3?2program?5files?2microsoft?5visua@
	push	2
	call	__CrtDbgReport
	add	esp, 20					; 00000014H
	cmp	eax, 1
	jne	SHORT $L94689
	int	3
$L94689:

; 791  : 		ATLASSERT( nLength <= GetData()->nAllocLength );

	mov	ecx, DWORD PTR _this$[ebp]
	call	?GetData@?$CSimpleStringT@G$0A@@ATL@@ABEPAUCStringData@2@XZ ; ATL::CSimpleStringT<unsigned short,0>::GetData
	mov	ecx, DWORD PTR _nLength$[ebp]
	cmp	ecx, DWORD PTR [eax+8]
	jle	SHORT $L94690
	push	OFFSET FLAT:??_C@_0CD@EEFFJEGJ@nLength?5?$DM?$DN?5GetData?$CI?$CJ?9?$DOnAllocLeng@
	push	0
	push	791					; 00000317H
	push	OFFSET FLAT:??_C@_0FD@JDCNPMMG@c?3?2program?5files?2microsoft?5visua@
	push	2
	call	__CrtDbgReport
	add	esp, 20					; 00000014H
	cmp	eax, 1
	jne	SHORT $L94690
	int	3
$L94690:

; 792  : 
; 793  : 		if( nLength < 0 || nLength > GetData()->nAllocLength)

	cmp	DWORD PTR _nLength$[ebp], 0
	jl	SHORT $L92769
	mov	ecx, DWORD PTR _this$[ebp]
	call	?GetData@?$CSimpleStringT@G$0A@@ATL@@ABEPAUCStringData@2@XZ ; ATL::CSimpleStringT<unsigned short,0>::GetData
	mov	ecx, DWORD PTR _nLength$[ebp]
	cmp	ecx, DWORD PTR [eax+8]
	jle	SHORT $L92768
$L92769:

; 794  : 			AtlThrow(E_INVALIDARG);

	push	-2147024809				; 80070057H
	call	?AtlThrow@ATL@@YGXJ@Z			; ATL::AtlThrow
$L92768:

; 795  : 			
; 796  : 		GetData()->nDataLength = nLength;

	mov	ecx, DWORD PTR _this$[ebp]
	call	?GetData@?$CSimpleStringT@G$0A@@ATL@@ABEPAUCStringData@2@XZ ; ATL::CSimpleStringT<unsigned short,0>::GetData
	mov	ecx, DWORD PTR _nLength$[ebp]
	mov	DWORD PTR [eax+4], ecx

; 797  : 		m_pszData[nLength] = 0;

	mov	eax, DWORD PTR _this$[ebp]
	mov	ecx, DWORD PTR [eax]
	mov	edx, DWORD PTR _nLength$[ebp]
	mov	WORD PTR [ecx+edx*2], 0
$L94688:

; 798  : 	}

	pop	edi
	pop	esi
	pop	ebx
	add	esp, 204				; 000000ccH
	cmp	ebp, esp
	call	__RTC_CheckEsp
	mov	esp, ebp
	pop	ebp
	ret	4
?SetLength@?$CSimpleStringT@G$0A@@ATL@@AAEXH@Z ENDP	; ATL::CSimpleStringT<unsigned short,0>::SetLength
_TEXT	ENDS
PUBLIC	??BCTraceCategory@ATL@@QBEKXZ			; ATL::CTraceCategory::operator unsigned long
PUBLIC	??0CTraceFileAndLineInfo@ATL@@QAE@PBDH@Z	; ATL::CTraceFileAndLineInfo::CTraceFileAndLineInfo
PUBLIC	??RCTraceFileAndLineInfo@ATL@@QBAXKIPBGZZ	; ATL::CTraceFileAndLineInfo::operator()
PUBLIC	?__LINE__Var@?1??AtlThrow@ATL@@YGXJ@Z@4JA	; `ATL::AtlThrow'::`2'::__LINE__Var
PUBLIC	??_C@_0FC@IPKABFFL@c?3?2program?5files?2microsoft?5visua@ ; `string'
PUBLIC	??_C@_1CK@DFMKPFAK@?$AAA?$AAt?$AAl?$AAT?$AAh?$AAr?$AAo?$AAw?$AA?3?$AA?5?$AAh?$AAr?$AA?5?$AA?$DN?$AA?5?$AA0?$AAx?$AA?$CF?$AAx?$AA?6@ ; `string'
EXTRN	?atlTraceException@ATL@@3VCTraceCategory@1@A:DWORD ; ATL::atlTraceException
EXTRN	?AfxThrowMemoryException@@YGXXZ:NEAR		; AfxThrowMemoryException
EXTRN	?AfxThrowOleException@@YGXJ@Z:NEAR		; AfxThrowOleException
;	COMDAT ??_C@_1CK@DFMKPFAK@?$AAA?$AAt?$AAl?$AAT?$AAh?$AAr?$AAo?$AAw?$AA?3?$AA?5?$AAh?$AAr?$AA?5?$AA?$DN?$AA?5?$AA0?$AAx?$AA?$CF?$AAx?$AA?6@
; File c:\program files\microsoft visual studio .net 2003\vc7\atlmfc\include\atlexcept.h
CONST	SEGMENT
??_C@_1CK@DFMKPFAK@?$AAA?$AAt?$AAl?$AAT?$AAh?$AAr?$AAo?$AAw?$AA?3?$AA?5?$AAh?$AAr?$AA?5?$AA?$DN?$AA?5?$AA0?$AAx?$AA?$CF?$AAx?$AA?6@ DB 'A'
	DB	00H, 't', 00H, 'l', 00H, 'T', 00H, 'h', 00H, 'r', 00H, 'o', 00H
	DB	'w', 00H, ':', 00H, ' ', 00H, 'h', 00H, 'r', 00H, ' ', 00H, '='
	DB	00H, ' ', 00H, '0', 00H, 'x', 00H, '%', 00H, 'x', 00H, 0aH, 00H
	DB	00H, 00H					; `string'
CONST	ENDS
;	COMDAT ?__LINE__Var@?1??AtlThrow@ATL@@YGXJ@Z@4JA
_DATA	SEGMENT
?__LINE__Var@?1??AtlThrow@ATL@@YGXJ@Z@4JA DD 03dH	; `ATL::AtlThrow'::`2'::__LINE__Var
_DATA	ENDS
;	COMDAT ??_C@_0FC@IPKABFFL@c?3?2program?5files?2microsoft?5visua@
CONST	SEGMENT
??_C@_0FC@IPKABFFL@c?3?2program?5files?2microsoft?5visua@ DB 'c:\program '
	DB	'files\microsoft visual studio .net 2003\vc7\atlmfc\include\at'
	DB	'lexcept.h', 00H				; `string'
; Function compile flags: /Odt /RTCcsu /ZI
CONST	ENDS
;	COMDAT ?AtlThrow@ATL@@YGXJ@Z
_TEXT	SEGMENT
$T94693 = -204						; size = 8
_hr$ = 8						; size = 4
?AtlThrow@ATL@@YGXJ@Z PROC NEAR				; ATL::AtlThrow, COMDAT

; 61   : {

	push	ebp
	mov	ebp, esp
	sub	esp, 208				; 000000d0H
	push	ebx
	push	esi
	push	edi
	lea	edi, DWORD PTR [ebp-208]
	mov	ecx, 52					; 00000034H
	mov	eax, -858993460				; ccccccccH
	rep stosd

; 62   : 	ATLTRACE(atlTraceException, 0, _T("AtlThrow: hr = 0x%x\n"), hr );

	mov	eax, DWORD PTR _hr$[ebp]
	push	eax
	push	OFFSET FLAT:??_C@_1CK@DFMKPFAK@?$AAA?$AAt?$AAl?$AAT?$AAh?$AAr?$AAo?$AAw?$AA?3?$AA?5?$AAh?$AAr?$AA?5?$AA?$DN?$AA?5?$AA0?$AAx?$AA?$CF?$AAx?$AA?6@
	push	0
	mov	ecx, OFFSET FLAT:?atlTraceException@ATL@@3VCTraceCategory@1@A ; ATL::atlTraceException
	call	??BCTraceCategory@ATL@@QBEKXZ		; ATL::CTraceCategory::operator unsigned long
	push	eax
	mov	ecx, DWORD PTR ?__LINE__Var@?1??AtlThrow@ATL@@YGXJ@Z@4JA
	add	ecx, 1
	push	ecx
	push	OFFSET FLAT:??_C@_0FC@IPKABFFL@c?3?2program?5files?2microsoft?5visua@
	lea	ecx, DWORD PTR $T94693[ebp]
	call	??0CTraceFileAndLineInfo@ATL@@QAE@PBDH@Z ; ATL::CTraceFileAndLineInfo::CTraceFileAndLineInfo
	push	eax
	call	??RCTraceFileAndLineInfo@ATL@@QBAXKIPBGZZ ; ATL::CTraceFileAndLineInfo::operator()
	add	esp, 20					; 00000014H

; 63   : #ifdef _AFX
; 64   : 	if( hr == E_OUTOFMEMORY )

	cmp	DWORD PTR _hr$[ebp], -2147024882	; 8007000eH
	jne	SHORT $L25398

; 65   : 	{
; 66   : 		AfxThrowMemoryException();

	call	?AfxThrowMemoryException@@YGXXZ		; AfxThrowMemoryException
$L25398:

; 67   : 	}
; 68   : 	else
; 69   : 	{
; 70   : 		AfxThrowOleException( hr );

	mov	eax, DWORD PTR _hr$[ebp]
	push	eax
	call	?AfxThrowOleException@@YGXJ@Z		; AfxThrowOleException
$L94692:

; 71   : 	}
; 72   : #else
; 73   : 	throw CAtlException( hr );
; 74   : #endif
; 75   : };

	pop	edi
	pop	esi
	pop	ebx
	add	esp, 208				; 000000d0H
	cmp	ebp, esp
	call	__RTC_CheckEsp
	mov	esp, ebp
	pop	ebp
	ret	4
?AtlThrow@ATL@@YGXJ@Z ENDP				; ATL::AtlThrow
; Function compile flags: /Odt /RTCcsu /ZI
; File c:\program files\microsoft visual studio .net 2003\vc7\atlmfc\include\atltrace.h
_TEXT	ENDS
;	COMDAT ??0CTraceFileAndLineInfo@ATL@@QAE@PBDH@Z
_TEXT	SEGMENT
_this$ = -8						; size = 4
_pszFileName$ = 8					; size = 4
_nLineNo$ = 12						; size = 4
??0CTraceFileAndLineInfo@ATL@@QAE@PBDH@Z PROC NEAR	; ATL::CTraceFileAndLineInfo::CTraceFileAndLineInfo, COMDAT
; _this$ = ecx

; 158  : 	{}

	push	ebp
	mov	ebp, esp
	sub	esp, 204				; 000000ccH
	push	ebx
	push	esi
	push	edi
	push	ecx
	lea	edi, DWORD PTR [ebp-204]
	mov	ecx, 51					; 00000033H
	mov	eax, -858993460				; ccccccccH
	rep stosd
	pop	ecx
	mov	DWORD PTR _this$[ebp], ecx
	mov	eax, DWORD PTR _this$[ebp]
	mov	ecx, DWORD PTR _pszFileName$[ebp]
	mov	DWORD PTR [eax], ecx
	mov	eax, DWORD PTR _this$[ebp]
	mov	ecx, DWORD PTR _nLineNo$[ebp]
	mov	DWORD PTR [eax+4], ecx
	mov	eax, DWORD PTR _this$[ebp]
	pop	edi
	pop	esi
	pop	ebx
	mov	esp, ebp
	pop	ebp
	ret	8
??0CTraceFileAndLineInfo@ATL@@QAE@PBDH@Z ENDP		; ATL::CTraceFileAndLineInfo::CTraceFileAndLineInfo
_TEXT	ENDS
PUBLIC	?TraceV@CTrace@ATL@@QBAXPBDHKIPBGPAD@Z		; ATL::CTrace::TraceV
EXTRN	?s_trace@CTrace@ATL@@2V12@A:QWORD		; ATL::CTrace::s_trace
; Function compile flags: /Odt /RTCcsu /ZI
;	COMDAT ??RCTraceFileAndLineInfo@ATL@@QBAXKIPBGZZ
_TEXT	SEGMENT
_ptr$ = -8						; size = 4
_this$ = 8						; size = 4
_dwCategory$ = 12					; size = 4
_nLevel$ = 16						; size = 4
_pszFmt$ = 20						; size = 4
??RCTraceFileAndLineInfo@ATL@@QBAXKIPBGZZ PROC NEAR	; ATL::CTraceFileAndLineInfo::operator(), COMDAT

; 167  : 	{

	push	ebp
	mov	ebp, esp
	sub	esp, 204				; 000000ccH
	push	ebx
	push	esi
	push	edi
	lea	edi, DWORD PTR [ebp-204]
	mov	ecx, 51					; 00000033H
	mov	eax, -858993460				; ccccccccH
	rep stosd

; 168  : 		va_list ptr; va_start(ptr, pszFmt);

	lea	eax, DWORD PTR _pszFmt$[ebp+4]
	mov	DWORD PTR _ptr$[ebp], eax

; 169  : 		ATL::CTrace::s_trace.TraceV(m_pszFileName, m_nLineNo, dwCategory, nLevel, pszFmt, ptr);

	mov	eax, DWORD PTR _ptr$[ebp]
	push	eax
	mov	ecx, DWORD PTR _pszFmt$[ebp]
	push	ecx
	mov	edx, DWORD PTR _nLevel$[ebp]
	push	edx
	mov	eax, DWORD PTR _dwCategory$[ebp]
	push	eax
	mov	ecx, DWORD PTR _this$[ebp]
	mov	edx, DWORD PTR [ecx+4]
	push	edx
	mov	eax, DWORD PTR _this$[ebp]
	mov	ecx, DWORD PTR [eax]
	push	ecx
	push	OFFSET FLAT:?s_trace@CTrace@ATL@@2V12@A
	call	?TraceV@CTrace@ATL@@QBAXPBDHKIPBGPAD@Z	; ATL::CTrace::TraceV
	add	esp, 28					; 0000001cH

; 170  : 		va_end(ptr);

	mov	DWORD PTR _ptr$[ebp], 0

; 171  : 	}

	pop	edi
	pop	esi
	pop	ebx
	add	esp, 204				; 000000ccH
	cmp	ebp, esp
	call	__RTC_CheckEsp
	mov	esp, ebp
	pop	ebp
	ret	0
??RCTraceFileAndLineInfo@ATL@@QBAXKIPBGZZ ENDP		; ATL::CTraceFileAndLineInfo::operator()
_TEXT	ENDS
EXTRN	_AtlTraceVU:NEAR
; Function compile flags: /Odt /RTCcsu /ZI
;	COMDAT ?TraceV@CTrace@ATL@@QBAXPBDHKIPBGPAD@Z
_TEXT	SEGMENT
_this$ = 8						; size = 4
_pszFileName$ = 12					; size = 4
_nLine$ = 16						; size = 4
_dwCategory$ = 20					; size = 4
_nLevel$ = 24						; size = 4
_pszFmt$ = 28						; size = 4
_args$ = 32						; size = 4
?TraceV@CTrace@ATL@@QBAXPBDHKIPBGPAD@Z PROC NEAR	; ATL::CTrace::TraceV, COMDAT

; 126  : 	{

	push	ebp
	mov	ebp, esp
	sub	esp, 192				; 000000c0H
	push	ebx
	push	esi
	push	edi
	lea	edi, DWORD PTR [ebp-192]
	mov	ecx, 48					; 00000030H
	mov	eax, -858993460				; ccccccccH
	rep stosd

; 127  : 		AtlTraceVU(m_dwModule, pszFileName, nLine, dwCategory, nLevel, pszFmt, args);

	mov	eax, DWORD PTR _args$[ebp]
	push	eax
	mov	ecx, DWORD PTR _pszFmt$[ebp]
	push	ecx
	mov	edx, DWORD PTR _nLevel$[ebp]
	push	edx
	mov	eax, DWORD PTR _dwCategory$[ebp]
	push	eax
	mov	ecx, DWORD PTR _nLine$[ebp]
	push	ecx
	mov	edx, DWORD PTR _pszFileName$[ebp]
	push	edx
	mov	eax, DWORD PTR _this$[ebp]
	mov	ecx, DWORD PTR [eax+4]
	push	ecx
	call	_AtlTraceVU
	add	esp, 28					; 0000001cH

; 128  : 	}

	pop	edi
	pop	esi
	pop	ebx
	add	esp, 192				; 000000c0H
	cmp	ebp, esp
	call	__RTC_CheckEsp
	mov	esp, ebp
	pop	ebp
	ret	0
?TraceV@CTrace@ATL@@QBAXPBDHKIPBGPAD@Z ENDP		; ATL::CTrace::TraceV
; Function compile flags: /Odt /RTCcsu /ZI
_TEXT	ENDS
;	COMDAT ??BCTraceCategory@ATL@@QBEKXZ
_TEXT	SEGMENT
_this$ = -8						; size = 4
??BCTraceCategory@ATL@@QBEKXZ PROC NEAR			; ATL::CTraceCategory::operator unsigned long, COMDAT
; _this$ = ecx

; 202  : {

	push	ebp
	mov	ebp, esp
	sub	esp, 204				; 000000ccH
	push	ebx
	push	esi
	push	edi
	push	ecx
	lea	edi, DWORD PTR [ebp-204]
	mov	ecx, 51					; 00000033H
	mov	eax, -858993460				; ccccccccH
	rep stosd
	pop	ecx
	mov	DWORD PTR _this$[ebp], ecx

; 203  : 	return( m_dwCategory );

	mov	eax, DWORD PTR _this$[ebp]
	mov	eax, DWORD PTR [eax]

; 204  : }

	pop	edi
	pop	esi
	pop	ebx
	mov	esp, ebp
	pop	ebp
	ret	0
??BCTraceCategory@ATL@@QBEKXZ ENDP			; ATL::CTraceCategory::operator unsigned long
_TEXT	ENDS
PUBLIC	?StringLength@?$CSimpleStringT@G$0A@@ATL@@SAHPBG@Z ; ATL::CSimpleStringT<unsigned short,0>::StringLength
; Function compile flags: /Odt /RTCcsu /ZI
; File c:\program files\microsoft visual studio .net 2003\vc7\atlmfc\include\atlsimpstr.h
;	COMDAT ?SetString@?$CSimpleStringT@G$0A@@ATL@@QAEXPBG@Z
_TEXT	SEGMENT
_this$ = -8						; size = 4
_pszSrc$ = 8						; size = 4
?SetString@?$CSimpleStringT@G$0A@@ATL@@QAEXPBG@Z PROC NEAR ; ATL::CSimpleStringT<unsigned short,0>::SetString, COMDAT
; _this$ = ecx

; 579  : 	{

	push	ebp
	mov	ebp, esp
	sub	esp, 204				; 000000ccH
	push	ebx
	push	esi
	push	edi
	push	ecx
	lea	edi, DWORD PTR [ebp-204]
	mov	ecx, 51					; 00000033H
	mov	eax, -858993460				; ccccccccH
	rep stosd
	pop	ecx
	mov	DWORD PTR _this$[ebp], ecx

; 580  : 		SetString( pszSrc, StringLength( pszSrc ) );

	mov	eax, DWORD PTR _pszSrc$[ebp]
	push	eax
	call	?StringLength@?$CSimpleStringT@G$0A@@ATL@@SAHPBG@Z ; ATL::CSimpleStringT<unsigned short,0>::StringLength
	add	esp, 4
	push	eax
	mov	ecx, DWORD PTR _pszSrc$[ebp]
	push	ecx
	mov	ecx, DWORD PTR _this$[ebp]
	call	?SetString@?$CSimpleStringT@G$0A@@ATL@@QAEXPBGH@Z ; ATL::CSimpleStringT<unsigned short,0>::SetString

; 581  : 	}

	pop	edi
	pop	esi
	pop	ebx
	add	esp, 204				; 000000ccH
	cmp	ebp, esp
	call	__RTC_CheckEsp
	mov	esp, ebp
	pop	ebp
	ret	4
?SetString@?$CSimpleStringT@G$0A@@ATL@@QAEXPBG@Z ENDP	; ATL::CSimpleStringT<unsigned short,0>::SetString
_TEXT	ENDS
EXTRN	_wcslen:NEAR
; Function compile flags: /Odt /RTCcsu /ZI
;	COMDAT ?StringLength@?$CSimpleStringT@G$0A@@ATL@@SAHPBG@Z
_TEXT	SEGMENT
_psz$ = 8						; size = 4
?StringLength@?$CSimpleStringT@G$0A@@ATL@@SAHPBG@Z PROC NEAR ; ATL::CSimpleStringT<unsigned short,0>::StringLength, COMDAT

; 685  : 	{

	push	ebp
	mov	ebp, esp
	sub	esp, 192				; 000000c0H
	push	ebx
	push	esi
	push	edi
	lea	edi, DWORD PTR [ebp-192]
	mov	ecx, 48					; 00000030H
	mov	eax, -858993460				; ccccccccH
	rep stosd

; 686  : 		if( psz == NULL )

	cmp	DWORD PTR _psz$[ebp], 0
	jne	SHORT $L92752

; 687  : 		{
; 688  : 			return( 0 );

	xor	eax, eax
	jmp	SHORT $L92751
$L92752:

; 689  : 		}
; 690  : 		return( int( wcslen( psz ) ) );

	mov	eax, DWORD PTR _psz$[ebp]
	push	eax
	call	_wcslen
	add	esp, 4
$L92751:

; 691  : 	}

	pop	edi
	pop	esi
	pop	ebx
	add	esp, 192				; 000000c0H
	cmp	ebp, esp
	call	__RTC_CheckEsp
	mov	esp, ebp
	pop	ebp
	ret	0
?StringLength@?$CSimpleStringT@G$0A@@ATL@@SAHPBG@Z ENDP	; ATL::CSimpleStringT<unsigned short,0>::StringLength
_TEXT	ENDS
PUBLIC	?data@CStringData@ATL@@QAEPAXXZ			; ATL::CStringData::data
; Function compile flags: /Odt /RTCcsu /ZI
;	COMDAT ?Attach@?$CSimpleStringT@G$0A@@ATL@@AAEXPAUCStringData@2@@Z
_TEXT	SEGMENT
_this$ = -8						; size = 4
_pData$ = 8						; size = 4
?Attach@?$CSimpleStringT@G$0A@@ATL@@AAEXPAUCStringData@2@@Z PROC NEAR ; ATL::CSimpleStringT<unsigned short,0>::Attach, COMDAT
; _this$ = ecx

; 711  : 	{

	push	ebp
	mov	ebp, esp
	sub	esp, 204				; 000000ccH
	push	ebx
	push	esi
	push	edi
	push	ecx
	lea	edi, DWORD PTR [ebp-204]
	mov	ecx, 51					; 00000033H
	mov	eax, -858993460				; ccccccccH
	rep stosd
	pop	ecx
	mov	DWORD PTR _this$[ebp], ecx

; 712  : 		m_pszData = static_cast< PXSTR >( pData->data() );

	mov	ecx, DWORD PTR _pData$[ebp]
	call	?data@CStringData@ATL@@QAEPAXXZ		; ATL::CStringData::data
	mov	ecx, DWORD PTR _this$[ebp]
	mov	DWORD PTR [ecx], eax

; 713  : 	}

	pop	edi
	pop	esi
	pop	ebx
	add	esp, 204				; 000000ccH
	cmp	ebp, esp
	call	__RTC_CheckEsp
	mov	esp, ebp
	pop	ebp
	ret	4
?Attach@?$CSimpleStringT@G$0A@@ATL@@AAEXPAUCStringData@2@@Z ENDP ; ATL::CSimpleStringT<unsigned short,0>::Attach
; Function compile flags: /Odt /RTCcsu /ZI
_TEXT	ENDS
;	COMDAT ?data@CStringData@ATL@@QAEPAXXZ
_TEXT	SEGMENT
_this$ = -8						; size = 4
?data@CStringData@ATL@@QAEPAXXZ PROC NEAR		; ATL::CStringData::data, COMDAT
; _this$ = ecx

; 65   : 	{

	push	ebp
	mov	ebp, esp
	sub	esp, 204				; 000000ccH
	push	ebx
	push	esi
	push	edi
	push	ecx
	lea	edi, DWORD PTR [ebp-204]
	mov	ecx, 51					; 00000033H
	mov	eax, -858993460				; ccccccccH
	rep stosd
	pop	ecx
	mov	DWORD PTR _this$[ebp], ecx

; 66   : 		return (this+1);

	mov	eax, DWORD PTR _this$[ebp]
	add	eax, 16					; 00000010H

; 67   : 	}

	pop	edi
	pop	esi
	pop	ebx
	mov	esp, ebp
	pop	ebp
	ret	0
?data@CStringData@ATL@@QAEPAXXZ ENDP			; ATL::CStringData::data
_TEXT	ENDS
PUBLIC	?IsShared@CStringData@ATL@@QBE_NXZ		; ATL::CStringData::IsShared
PUBLIC	?Fork@?$CSimpleStringT@G$0A@@ATL@@AAEXH@Z	; ATL::CSimpleStringT<unsigned short,0>::Fork
