; Listing generated by Microsoft (R) Optimizing Compiler Version 13.10.3077 

	TITLE	.\wspell.cpp
	.386P
include listing.inc
if @Version gt 510
.model FLAT
else
_TEXT	SEGMENT PARA USE32 PUBLIC 'CODE'
_TEXT	ENDS
_DATA	SEGMENT DWORD USE32 PUBLIC 'DATA'
_DATA	ENDS
CONST	SEGMENT DWORD USE32 PUBLIC 'CONST'
CONST	ENDS
_BSS	SEGMENT DWORD USE32 PUBLIC 'BSS'
_BSS	ENDS
$$SYMBOLS	SEGMENT BYTE USE32 'DEBSYM'
$$SYMBOLS	ENDS
$$TYPES	SEGMENT BYTE USE32 'DEBTYP'
$$TYPES	ENDS
_TLS	SEGMENT DWORD USE32 PUBLIC 'TLS'
_TLS	ENDS
;	COMDAT ??_C@_07CMAILJOJ@CWSpell?$AA@
CONST	SEGMENT DWORD USE32 PUBLIC 'CONST'
CONST	ENDS
;	COMDAT ??_C@_01KICIPPFI@?2?$AA@
CONST	SEGMENT DWORD USE32 PUBLIC 'CONST'
CONST	ENDS
;	COMDAT ??_C@_05PGMGPAMI@2?4clx?$AA@
CONST	SEGMENT DWORD USE32 PUBLIC 'CONST'
CONST	ENDS
;	COMDAT ??_C@_05GNOKGGOI@?4tlx?0?$AA@
CONST	SEGMENT DWORD USE32 PUBLIC 'CONST'
CONST	ENDS
;	COMDAT ??_C@_06HJIJCLAJ@ssceam?$AA@
CONST	SEGMENT DWORD USE32 PUBLIC 'CONST'
CONST	ENDS
;	COMDAT ??_C@_01IHBHIGKO@?0?$AA@
CONST	SEGMENT DWORD USE32 PUBLIC 'CONST'
CONST	ENDS
;	COMDAT ??_C@_06NGLILAGL@ssceca?$AA@
CONST	SEGMENT DWORD USE32 PUBLIC 'CONST'
CONST	ENDS
;	COMDAT ??_C@_06LGJFJLMO@sscebr?$AA@
CONST	SEGMENT DWORD USE32 PUBLIC 'CONST'
CONST	ENDS
;	COMDAT ??_C@_0L@HIGENLHL@accent?4clx?$AA@
CONST	SEGMENT DWORD USE32 PUBLIC 'CONST'
CONST	ENDS
;	COMDAT ??_C@_0M@HHIMOECC@correct?4clx?$AA@
CONST	SEGMENT DWORD USE32 PUBLIC 'CONST'
CONST	ENDS
;	COMDAT ??_C@_08EOMMGLAM@tech?4tlx?$AA@
CONST	SEGMENT DWORD USE32 PUBLIC 'CONST'
CONST	ENDS
;	COMDAT ??_C@_0M@EOPAGCHG@userdic?4tlx?$AA@
CONST	SEGMENT DWORD USE32 PUBLIC 'CONST'
CONST	ENDS
;	COMDAT ??_C@_0CH@KENCKLIF@?$CIiChar?5?$DO?$DN?50?$CJ?5?$CG?$CG?5?$CIiChar?5?$DM?$DN?5GetLen@
CONST	SEGMENT DWORD USE32 PUBLIC 'CONST'
CONST	ENDS
;	COMDAT ?GetClsid@CWSpell@@QAEABU_GUID@@XZ
_TEXT	SEGMENT PARA USE32 PUBLIC 'CODE'
_TEXT	ENDS
;	COMDAT ?Create@CWSpell@@UAEHPBG0KABUtagRECT@@PAVCWnd@@IPAUCCreateContext@@@Z
_TEXT	SEGMENT PARA USE32 PUBLIC 'CODE'
_TEXT	ENDS
;	COMDAT ?CreateObject@CWSpell@@SGPAVCObject@@XZ
_TEXT	SEGMENT PARA USE32 PUBLIC 'CODE'
_TEXT	ENDS
;	COMDAT ??0CWSpell@@QAE@XZ
_TEXT	SEGMENT PARA USE32 PUBLIC 'CODE'
_TEXT	ENDS
;	COMDAT ??_GCWSpell@@UAEPAXI@Z
_TEXT	SEGMENT PARA USE32 PUBLIC 'CODE'
_TEXT	ENDS
;	COMDAT ??1CWSpell@@UAE@XZ
_TEXT	SEGMENT PARA USE32 PUBLIC 'CODE'
_TEXT	ENDS
;	COMDAT ?GetRuntimeClass@CWSpell@@UBEPAUCRuntimeClass@@XZ
_TEXT	SEGMENT PARA USE32 PUBLIC 'CODE'
_TEXT	ENDS
;	COMDAT ?MakeName@@YA?AV?$CStringT@GV?$StrTraitMFC@GV?$ChTraitsCRT@G@ATL@@@@@ATL@@PADH@Z
_TEXT	SEGMENT PARA USE32 PUBLIC 'CODE'
_TEXT	ENDS
;	COMDAT ?MakeDics@@YA?AV?$CStringT@GV?$StrTraitMFC@GV?$ChTraitsCRT@G@ATL@@@@@ATL@@XZ
_TEXT	SEGMENT PARA USE32 PUBLIC 'CODE'
_TEXT	ENDS
;	COMDAT ?GetSuggestionCount@CWSpell@@QAEFXZ
_TEXT	SEGMENT PARA USE32 PUBLIC 'CODE'
_TEXT	ENDS
;	COMDAT ?SetSuggestionCount@CWSpell@@QAEXF@Z
_TEXT	SEGMENT PARA USE32 PUBLIC 'CODE'
_TEXT	ENDS
;	COMDAT ?GetMisspelledWord@CWSpell@@QAE?AV?$CStringT@GV?$StrTraitMFC@GV?$ChTraitsCRT@G@ATL@@@@@ATL@@XZ
_TEXT	SEGMENT PARA USE32 PUBLIC 'CODE'
_TEXT	ENDS
;	COMDAT ?SetMisspelledWord@CWSpell@@QAEXPBG@Z
_TEXT	SEGMENT PARA USE32 PUBLIC 'CODE'
_TEXT	ENDS
;	COMDAT ?GetReplacementWord@CWSpell@@QAE?AV?$CStringT@GV?$StrTraitMFC@GV?$ChTraitsCRT@G@ATL@@@@@ATL@@XZ
_TEXT	SEGMENT PARA USE32 PUBLIC 'CODE'
_TEXT	ENDS
;	COMDAT ?SetReplacementWord@CWSpell@@QAEXPBG@Z
_TEXT	SEGMENT PARA USE32 PUBLIC 'CODE'
_TEXT	ENDS
;	COMDAT ?GetText@CWSpell@@QAE?AV?$CStringT@GV?$StrTraitMFC@GV?$ChTraitsCRT@G@ATL@@@@@ATL@@XZ
_TEXT	SEGMENT PARA USE32 PUBLIC 'CODE'
_TEXT	ENDS
;	COMDAT ?SetText@CWSpell@@QAEXPBG@Z
_TEXT	SEGMENT PARA USE32 PUBLIC 'CODE'
_TEXT	ENDS
;	COMDAT ?GetWordOffset@CWSpell@@QAEJXZ
_TEXT	SEGMENT PARA USE32 PUBLIC 'CODE'
_TEXT	ENDS
;	COMDAT ?SetWordOffset@CWSpell@@QAEXJ@Z
_TEXT	SEGMENT PARA USE32 PUBLIC 'CODE'
_TEXT	ENDS
;	COMDAT ?GetWordCount@CWSpell@@QAEJXZ
_TEXT	SEGMENT PARA USE32 PUBLIC 'CODE'
_TEXT	ENDS
;	COMDAT ?SetWordCount@CWSpell@@QAEXJ@Z
_TEXT	SEGMENT PARA USE32 PUBLIC 'CODE'
_TEXT	ENDS
;	COMDAT ?GetWordsReplacedCount@CWSpell@@QAEJXZ
_TEXT	SEGMENT PARA USE32 PUBLIC 'CODE'
_TEXT	ENDS
;	COMDAT ?SetWordsReplacedCount@CWSpell@@QAEXJ@Z
_TEXT	SEGMENT PARA USE32 PUBLIC 'CODE'
_TEXT	ENDS
;	COMDAT ?GetCaseSensitive@CWSpell@@QAEHXZ
_TEXT	SEGMENT PARA USE32 PUBLIC 'CODE'
_TEXT	ENDS
;	COMDAT ?SetCaseSensitive@CWSpell@@QAEXH@Z
_TEXT	SEGMENT PARA USE32 PUBLIC 'CODE'
_TEXT	ENDS
;	COMDAT ?GetCanUndo@CWSpell@@QAEHXZ
_TEXT	SEGMENT PARA USE32 PUBLIC 'CODE'
_TEXT	ENDS
;	COMDAT ?SetCanUndo@CWSpell@@QAEXH@Z
_TEXT	SEGMENT PARA USE32 PUBLIC 'CODE'
_TEXT	ENDS
;	COMDAT ?GetCatchDoubledWords@CWSpell@@QAEHXZ
_TEXT	SEGMENT PARA USE32 PUBLIC 'CODE'
_TEXT	ENDS
;	COMDAT ?SetCatchDoubledWords@CWSpell@@QAEXH@Z
_TEXT	SEGMENT PARA USE32 PUBLIC 'CODE'
_TEXT	ENDS
;	COMDAT ?GetCatchMixedCaseWords@CWSpell@@QAEHXZ
_TEXT	SEGMENT PARA USE32 PUBLIC 'CODE'
_TEXT	ENDS
;	COMDAT ?SetCatchMixedCaseWords@CWSpell@@QAEXH@Z
_TEXT	SEGMENT PARA USE32 PUBLIC 'CODE'
_TEXT	ENDS
;	COMDAT ?GetCatchWordsWithDigits@CWSpell@@QAEHXZ
_TEXT	SEGMENT PARA USE32 PUBLIC 'CODE'
_TEXT	ENDS
;	COMDAT ?SetCatchWordsWithDigits@CWSpell@@QAEXH@Z
_TEXT	SEGMENT PARA USE32 PUBLIC 'CODE'
_TEXT	ENDS
;	COMDAT ?GetCurrentWord@CWSpell@@QAE?AV?$CStringT@GV?$StrTraitMFC@GV?$ChTraitsCRT@G@ATL@@@@@ATL@@XZ
_TEXT	SEGMENT PARA USE32 PUBLIC 'CODE'
_TEXT	ENDS
;	COMDAT ?SetCurrentWord@CWSpell@@QAEXPBG@Z
_TEXT	SEGMENT PARA USE32 PUBLIC 'CODE'
_TEXT	ENDS
;	COMDAT ?GetIgnoreAllCapsWords@CWSpell@@QAEHXZ
_TEXT	SEGMENT PARA USE32 PUBLIC 'CODE'
_TEXT	ENDS
;	COMDAT ?SetIgnoreAllCapsWords@CWSpell@@QAEXH@Z
_TEXT	SEGMENT PARA USE32 PUBLIC 'CODE'
_TEXT	ENDS
;	COMDAT ?GetIgnoreMixedCaseWords@CWSpell@@QAEHXZ
_TEXT	SEGMENT PARA USE32 PUBLIC 'CODE'
_TEXT	ENDS
;	COMDAT ?SetIgnoreMixedCaseWords@CWSpell@@QAEXH@Z
_TEXT	SEGMENT PARA USE32 PUBLIC 'CODE'
_TEXT	ENDS
;	COMDAT ?GetIgnoreWordsWithDigits@CWSpell@@QAEHXZ
_TEXT	SEGMENT PARA USE32 PUBLIC 'CODE'
_TEXT	ENDS
;	COMDAT ?SetIgnoreWordsWithDigits@CWSpell@@QAEXH@Z
_TEXT	SEGMENT PARA USE32 PUBLIC 'CODE'
_TEXT	ENDS
;	COMDAT ?GetMainDictionaryCount@CWSpell@@QAEFXZ
_TEXT	SEGMENT PARA USE32 PUBLIC 'CODE'
_TEXT	ENDS
;	COMDAT ?SetMainDictionaryCount@CWSpell@@QAEXF@Z
_TEXT	SEGMENT PARA USE32 PUBLIC 'CODE'
_TEXT	ENDS
;	COMDAT ?GetMainDictionaryFiles@CWSpell@@QAE?AV?$CStringT@GV?$StrTraitMFC@GV?$ChTraitsCRT@G@ATL@@@@@ATL@@XZ
_TEXT	SEGMENT PARA USE32 PUBLIC 'CODE'
_TEXT	ENDS
;	COMDAT ?SetMainDictionaryFiles@CWSpell@@QAEXPBG@Z
_TEXT	SEGMENT PARA USE32 PUBLIC 'CODE'
_TEXT	ENDS
;	COMDAT ?GetMaxSuggestions@CWSpell@@QAEFXZ
_TEXT	SEGMENT PARA USE32 PUBLIC 'CODE'
_TEXT	ENDS
;	COMDAT ?SetMaxSuggestions@CWSpell@@QAEXF@Z
_TEXT	SEGMENT PARA USE32 PUBLIC 'CODE'
_TEXT	ENDS
;	COMDAT ?GetMinSuggestionDepth@CWSpell@@QAEFXZ
_TEXT	SEGMENT PARA USE32 PUBLIC 'CODE'
_TEXT	ENDS
;	COMDAT ?SetMinSuggestionDepth@CWSpell@@QAEXF@Z
_TEXT	SEGMENT PARA USE32 PUBLIC 'CODE'
_TEXT	ENDS
;	COMDAT ?GetPhoneticSuggestions@CWSpell@@QAEHXZ
_TEXT	SEGMENT PARA USE32 PUBLIC 'CODE'
_TEXT	ENDS
;	COMDAT ?SetPhoneticSuggestions@CWSpell@@QAEXH@Z
_TEXT	SEGMENT PARA USE32 PUBLIC 'CODE'
_TEXT	ENDS
;	COMDAT ?GetSplitContractedWords@CWSpell@@QAEHXZ
_TEXT	SEGMENT PARA USE32 PUBLIC 'CODE'
_TEXT	ENDS
;	COMDAT ?SetSplitContractedWords@CWSpell@@QAEXH@Z
_TEXT	SEGMENT PARA USE32 PUBLIC 'CODE'
_TEXT	ENDS
;	COMDAT ?GetSplitHyphenatedWords@CWSpell@@QAEHXZ
_TEXT	SEGMENT PARA USE32 PUBLIC 'CODE'
_TEXT	ENDS
;	COMDAT ?SetSplitHyphenatedWords@CWSpell@@QAEXH@Z
_TEXT	SEGMENT PARA USE32 PUBLIC 'CODE'
_TEXT	ENDS
;	COMDAT ?GetSplitWords@CWSpell@@QAEHXZ
_TEXT	SEGMENT PARA USE32 PUBLIC 'CODE'
_TEXT	ENDS
;	COMDAT ?SetSplitWords@CWSpell@@QAEXH@Z
_TEXT	SEGMENT PARA USE32 PUBLIC 'CODE'
_TEXT	ENDS
;	COMDAT ?GetStripPossessives@CWSpell@@QAEHXZ
_TEXT	SEGMENT PARA USE32 PUBLIC 'CODE'
_TEXT	ENDS
;	COMDAT ?SetStripPossessives@CWSpell@@QAEXH@Z
_TEXT	SEGMENT PARA USE32 PUBLIC 'CODE'
_TEXT	ENDS
;	COMDAT ?GetSuggestionDepth@CWSpell@@QAEFXZ
_TEXT	SEGMENT PARA USE32 PUBLIC 'CODE'
_TEXT	ENDS
;	COMDAT ?SetSuggestionDepth@CWSpell@@QAEXF@Z
_TEXT	SEGMENT PARA USE32 PUBLIC 'CODE'
_TEXT	ENDS
;	COMDAT ?GetSuggestionDepthIncrement@CWSpell@@QAEFXZ
_TEXT	SEGMENT PARA USE32 PUBLIC 'CODE'
_TEXT	ENDS
;	COMDAT ?SetSuggestionDepthIncrement@CWSpell@@QAEXF@Z
_TEXT	SEGMENT PARA USE32 PUBLIC 'CODE'
_TEXT	ENDS
;	COMDAT ?GetSuggestSplitWords@CWSpell@@QAEHXZ
_TEXT	SEGMENT PARA USE32 PUBLIC 'CODE'
_TEXT	ENDS
;	COMDAT ?SetSuggestSplitWords@CWSpell@@QAEXH@Z
_TEXT	SEGMENT PARA USE32 PUBLIC 'CODE'
_TEXT	ENDS
;	COMDAT ?GetTextLength@CWSpell@@QAEJXZ
_TEXT	SEGMENT PARA USE32 PUBLIC 'CODE'
_TEXT	ENDS
;	COMDAT ?SetTextLength@CWSpell@@QAEXJ@Z
_TEXT	SEGMENT PARA USE32 PUBLIC 'CODE'
_TEXT	ENDS
;	COMDAT ?GetTypographicalSuggestions@CWSpell@@QAEHXZ
_TEXT	SEGMENT PARA USE32 PUBLIC 'CODE'
_TEXT	ENDS
;	COMDAT ?SetTypographicalSuggestions@CWSpell@@QAEXH@Z
_TEXT	SEGMENT PARA USE32 PUBLIC 'CODE'
_TEXT	ENDS
;	COMDAT ?GetUndoNewText@CWSpell@@QAE?AV?$CStringT@GV?$StrTraitMFC@GV?$ChTraitsCRT@G@ATL@@@@@ATL@@XZ
_TEXT	SEGMENT PARA USE32 PUBLIC 'CODE'
_TEXT	ENDS
;	COMDAT ?SetUndoNewText@CWSpell@@QAEXPBG@Z
_TEXT	SEGMENT PARA USE32 PUBLIC 'CODE'
_TEXT	ENDS
;	COMDAT ?GetUndoOffset@CWSpell@@QAEJXZ
_TEXT	SEGMENT PARA USE32 PUBLIC 'CODE'
_TEXT	ENDS
;	COMDAT ?SetUndoOffset@CWSpell@@QAEXJ@Z
_TEXT	SEGMENT PARA USE32 PUBLIC 'CODE'
_TEXT	ENDS
;	COMDAT ?GetUndoOldText@CWSpell@@QAE?AV?$CStringT@GV?$StrTraitMFC@GV?$ChTraitsCRT@G@ATL@@@@@ATL@@XZ
_TEXT	SEGMENT PARA USE32 PUBLIC 'CODE'
_TEXT	ENDS
;	COMDAT ?SetUndoOldText@CWSpell@@QAEXPBG@Z
_TEXT	SEGMENT PARA USE32 PUBLIC 'CODE'
_TEXT	ENDS
;	COMDAT ?GetUserDictionaryCount@CWSpell@@QAEFXZ
_TEXT	SEGMENT PARA USE32 PUBLIC 'CODE'
_TEXT	ENDS
;	COMDAT ?SetUserDictionaryCount@CWSpell@@QAEXF@Z
_TEXT	SEGMENT PARA USE32 PUBLIC 'CODE'
_TEXT	ENDS
;	COMDAT ?GetUserDictionaryFiles@CWSpell@@QAE?AV?$CStringT@GV?$StrTraitMFC@GV?$ChTraitsCRT@G@ATL@@@@@ATL@@XZ
_TEXT	SEGMENT PARA USE32 PUBLIC 'CODE'
_TEXT	ENDS
;	COMDAT ?SetUserDictionaryFiles@CWSpell@@QAEXPBG@Z
_TEXT	SEGMENT PARA USE32 PUBLIC 'CODE'
_TEXT	ENDS
;	COMDAT ?GetIgnoreCapitalizedWords@CWSpell@@QAEHXZ
_TEXT	SEGMENT PARA USE32 PUBLIC 'CODE'
_TEXT	ENDS
;	COMDAT ?SetIgnoreCapitalizedWords@CWSpell@@QAEXH@Z
_TEXT	SEGMENT PARA USE32 PUBLIC 'CODE'
_TEXT	ENDS
;	COMDAT ?GetShowContext@CWSpell@@QAEHXZ
_TEXT	SEGMENT PARA USE32 PUBLIC 'CODE'
_TEXT	ENDS
;	COMDAT ?SetShowContext@CWSpell@@QAEXH@Z
_TEXT	SEGMENT PARA USE32 PUBLIC 'CODE'
_TEXT	ENDS
;	COMDAT ?GetShowDialog@CWSpell@@QAEHXZ
_TEXT	SEGMENT PARA USE32 PUBLIC 'CODE'
_TEXT	ENDS
;	COMDAT ?SetShowDialog@CWSpell@@QAEXH@Z
_TEXT	SEGMENT PARA USE32 PUBLIC 'CODE'
_TEXT	ENDS
;	COMDAT ?GetTextControlHWnd@CWSpell@@QAEJXZ
_TEXT	SEGMENT PARA USE32 PUBLIC 'CODE'
_TEXT	ENDS
;	COMDAT ?SetTextControlHWnd@CWSpell@@QAEXJ@Z
_TEXT	SEGMENT PARA USE32 PUBLIC 'CODE'
_TEXT	ENDS
;	COMDAT ?GetDialogLeft@CWSpell@@QAEJXZ
_TEXT	SEGMENT PARA USE32 PUBLIC 'CODE'
_TEXT	ENDS
;	COMDAT ?SetDialogLeft@CWSpell@@QAEXJ@Z
_TEXT	SEGMENT PARA USE32 PUBLIC 'CODE'
_TEXT	ENDS
;	COMDAT ?GetDialogTop@CWSpell@@QAEJXZ
_TEXT	SEGMENT PARA USE32 PUBLIC 'CODE'
_TEXT	ENDS
;	COMDAT ?SetDialogTop@CWSpell@@QAEXJ@Z
_TEXT	SEGMENT PARA USE32 PUBLIC 'CODE'
_TEXT	ENDS
;	COMDAT ?GetSuggestionScoreRange@CWSpell@@QAEFXZ
_TEXT	SEGMENT PARA USE32 PUBLIC 'CODE'
_TEXT	ENDS
;	COMDAT ?SetSuggestionScoreRange@CWSpell@@QAEXF@Z
_TEXT	SEGMENT PARA USE32 PUBLIC 'CODE'
_TEXT	ENDS
;	COMDAT ?GetMinSuggestionScore@CWSpell@@QAEFXZ
_TEXT	SEGMENT PARA USE32 PUBLIC 'CODE'
_TEXT	ENDS
;	COMDAT ?SetMinSuggestionScore@CWSpell@@QAEXF@Z
_TEXT	SEGMENT PARA USE32 PUBLIC 'CODE'
_TEXT	ENDS
;	COMDAT ?GetAutoCorrect@CWSpell@@QAEHXZ
_TEXT	SEGMENT PARA USE32 PUBLIC 'CODE'
_TEXT	ENDS
;	COMDAT ?SetAutoCorrect@CWSpell@@QAEXH@Z
_TEXT	SEGMENT PARA USE32 PUBLIC 'CODE'
_TEXT	ENDS
;	COMDAT ?GetVersion@CWSpell@@QAE?AV?$CStringT@GV?$StrTraitMFC@GV?$ChTraitsCRT@G@ATL@@@@@ATL@@XZ
_TEXT	SEGMENT PARA USE32 PUBLIC 'CODE'
_TEXT	ENDS
;	COMDAT ?SetVersion@CWSpell@@QAEXPBG@Z
_TEXT	SEGMENT PARA USE32 PUBLIC 'CODE'
_TEXT	ENDS
;	COMDAT ?GetMisspelledWordCount@CWSpell@@QAEJXZ
_TEXT	SEGMENT PARA USE32 PUBLIC 'CODE'
_TEXT	ENDS
;	COMDAT ?SetMisspelledWordCount@CWSpell@@QAEXJ@Z
_TEXT	SEGMENT PARA USE32 PUBLIC 'CODE'
_TEXT	ENDS
;	COMDAT ?GetErrorCode@CWSpell@@QAEFXZ
_TEXT	SEGMENT PARA USE32 PUBLIC 'CODE'
_TEXT	ENDS
;	COMDAT ?SetErrorCode@CWSpell@@QAEXF@Z
_TEXT	SEGMENT PARA USE32 PUBLIC 'CODE'
_TEXT	ENDS
;	COMDAT ?GetIgnoreNonAlphaWords@CWSpell@@QAEHXZ
_TEXT	SEGMENT PARA USE32 PUBLIC 'CODE'
_TEXT	ENDS
;	COMDAT ?SetIgnoreNonAlphaWords@CWSpell@@QAEXH@Z
_TEXT	SEGMENT PARA USE32 PUBLIC 'CODE'
_TEXT	ENDS
;	COMDAT ?GetIgnoreDomainNames@CWSpell@@QAEHXZ
_TEXT	SEGMENT PARA USE32 PUBLIC 'CODE'
_TEXT	ENDS
;	COMDAT ?SetIgnoreDomainNames@CWSpell@@QAEXH@Z
_TEXT	SEGMENT PARA USE32 PUBLIC 'CODE'
_TEXT	ENDS
;	COMDAT ?GetAllowAccentedCaps@CWSpell@@QAEHXZ
_TEXT	SEGMENT PARA USE32 PUBLIC 'CODE'
_TEXT	ENDS
;	COMDAT ?SetAllowAccentedCaps@CWSpell@@QAEXH@Z
_TEXT	SEGMENT PARA USE32 PUBLIC 'CODE'
_TEXT	ENDS
;	COMDAT ?GetIgnoreHTMLMarkups@CWSpell@@QAEHXZ
_TEXT	SEGMENT PARA USE32 PUBLIC 'CODE'
_TEXT	ENDS
;	COMDAT ?SetIgnoreHTMLMarkups@CWSpell@@QAEXH@Z
_TEXT	SEGMENT PARA USE32 PUBLIC 'CODE'
_TEXT	ENDS
;	COMDAT ?GetCharacterSet@CWSpell@@QAEFXZ
_TEXT	SEGMENT PARA USE32 PUBLIC 'CODE'
_TEXT	ENDS
;	COMDAT ?SetCharacterSet@CWSpell@@QAEXF@Z
_TEXT	SEGMENT PARA USE32 PUBLIC 'CODE'
_TEXT	ENDS
;	COMDAT ?GetBackupUserDictionary@CWSpell@@QAEHXZ
_TEXT	SEGMENT PARA USE32 PUBLIC 'CODE'
_TEXT	ENDS
;	COMDAT ?SetBackupUserDictionary@CWSpell@@QAEXH@Z
_TEXT	SEGMENT PARA USE32 PUBLIC 'CODE'
_TEXT	ENDS
;	COMDAT ?GetShowOptionsButton@CWSpell@@QAEHXZ
_TEXT	SEGMENT PARA USE32 PUBLIC 'CODE'
_TEXT	ENDS
;	COMDAT ?SetShowOptionsButton@CWSpell@@QAEXH@Z
_TEXT	SEGMENT PARA USE32 PUBLIC 'CODE'
_TEXT	ENDS
;	COMDAT ?GetShowDictionariesButton@CWSpell@@QAEHXZ
_TEXT	SEGMENT PARA USE32 PUBLIC 'CODE'
_TEXT	ENDS
;	COMDAT ?SetShowDictionariesButton@CWSpell@@QAEXH@Z
_TEXT	SEGMENT PARA USE32 PUBLIC 'CODE'
_TEXT	ENDS
;	COMDAT ?GetSuggestion@CWSpell@@QAE?AV?$CStringT@GV?$StrTraitMFC@GV?$ChTraitsCRT@G@ATL@@@@@ATL@@F@Z
_TEXT	SEGMENT PARA USE32 PUBLIC 'CODE'
_TEXT	ENDS
;	COMDAT ?GetMainDictionary@CWSpell@@QAE?AV?$CStringT@GV?$StrTraitMFC@GV?$ChTraitsCRT@G@ATL@@@@@ATL@@F@Z
_TEXT	SEGMENT PARA USE32 PUBLIC 'CODE'
_TEXT	ENDS
;	COMDAT ?GetUserDictionary@CWSpell@@QAE?AV?$CStringT@GV?$StrTraitMFC@GV?$ChTraitsCRT@G@ATL@@@@@ATL@@F@Z
_TEXT	SEGMENT PARA USE32 PUBLIC 'CODE'
_TEXT	ENDS
;	COMDAT ?AddMainDictionary@CWSpell@@QAEXPBG@Z
_TEXT	SEGMENT PARA USE32 PUBLIC 'CODE'
_TEXT	ENDS
;	COMDAT ?AddUserDictionary@CWSpell@@QAEXPBG@Z
_TEXT	SEGMENT PARA USE32 PUBLIC 'CODE'
_TEXT	ENDS
;	COMDAT ?ClearTempDictionary@CWSpell@@QAEXXZ
_TEXT	SEGMENT PARA USE32 PUBLIC 'CODE'
_TEXT	ENDS
;	COMDAT ?Close@CWSpell@@QAEXXZ
_TEXT	SEGMENT PARA USE32 PUBLIC 'CODE'
_TEXT	ENDS
;	COMDAT ?CreateUserDictionary@CWSpell@@QAEFPBGF@Z
_TEXT	SEGMENT PARA USE32 PUBLIC 'CODE'
_TEXT	ENDS
;	COMDAT ?DeleteFromUserDictionary@CWSpell@@QAEXPBG0@Z
_TEXT	SEGMENT PARA USE32 PUBLIC 'CODE'
_TEXT	ENDS
;	COMDAT ?IgnoreAllWord@CWSpell@@QAEXXZ
_TEXT	SEGMENT PARA USE32 PUBLIC 'CODE'
_TEXT	ENDS
;	COMDAT ?IgnoreWord@CWSpell@@QAEXXZ
_TEXT	SEGMENT PARA USE32 PUBLIC 'CODE'
_TEXT	ENDS
;	COMDAT ?NextWord@CWSpell@@QAEHXZ
_TEXT	SEGMENT PARA USE32 PUBLIC 'CODE'
_TEXT	ENDS
;	COMDAT ?RemoveMainDictionary@CWSpell@@QAEXPBG@Z
_TEXT	SEGMENT PARA USE32 PUBLIC 'CODE'
_TEXT	ENDS
;	COMDAT ?RemoveUserDictionary@CWSpell@@QAEXPBG@Z
_TEXT	SEGMENT PARA USE32 PUBLIC 'CODE'
_TEXT	ENDS
;	COMDAT ?ReplaceAllWord@CWSpell@@QAEFXZ
_TEXT	SEGMENT PARA USE32 PUBLIC 'CODE'
_TEXT	ENDS
;	COMDAT ?ReplaceWord@CWSpell@@QAEFXZ
_TEXT	SEGMENT PARA USE32 PUBLIC 'CODE'
_TEXT	ENDS
;	COMDAT ?Resume@CWSpell@@QAEFXZ
_TEXT	SEGMENT PARA USE32 PUBLIC 'CODE'
_TEXT	ENDS
;	COMDAT ?Start@CWSpell@@QAEFXZ
_TEXT	SEGMENT PARA USE32 PUBLIC 'CODE'
_TEXT	ENDS
;	COMDAT ?Suggest@CWSpell@@QAEXXZ
_TEXT	SEGMENT PARA USE32 PUBLIC 'CODE'
_TEXT	ENDS
;	COMDAT ?TestWord@CWSpell@@QAEHPBG@Z
_TEXT	SEGMENT PARA USE32 PUBLIC 'CODE'
_TEXT	ENDS
;	COMDAT ?Undo@CWSpell@@QAEXXZ
_TEXT	SEGMENT PARA USE32 PUBLIC 'CODE'
_TEXT	ENDS
;	COMDAT ?ShowUserDictionaryDialog@CWSpell@@QAEXXZ
_TEXT	SEGMENT PARA USE32 PUBLIC 'CODE'
_TEXT	ENDS
;	COMDAT ?ShowOptionsDialog@CWSpell@@QAEXXZ
_TEXT	SEGMENT PARA USE32 PUBLIC 'CODE'
_TEXT	ENDS
;	COMDAT ?GetUserDictionaryWord@CWSpell@@QAE?AV?$CStringT@GV?$StrTraitMFC@GV?$ChTraitsCRT@G@ATL@@@@@ATL@@PBGJ@Z
_TEXT	SEGMENT PARA USE32 PUBLIC 'CODE'
_TEXT	ENDS
;	COMDAT ?GetUserDictionaryWordCount@CWSpell@@QAEJPBG@Z
_TEXT	SEGMENT PARA USE32 PUBLIC 'CODE'
_TEXT	ENDS
;	COMDAT ?GetUserDictionaryWordAction@CWSpell@@QAEFPBG0@Z
_TEXT	SEGMENT PARA USE32 PUBLIC 'CODE'
_TEXT	ENDS
;	COMDAT ?GetUserDictionaryOtherWord@CWSpell@@QAE?AV?$CStringT@GV?$StrTraitMFC@GV?$ChTraitsCRT@G@ATL@@@@@ATL@@PBG0@Z
_TEXT	SEGMENT PARA USE32 PUBLIC 'CODE'
_TEXT	ENDS
;	COMDAT ?DeleteWord@CWSpell@@QAEJXZ
_TEXT	SEGMENT PARA USE32 PUBLIC 'CODE'
_TEXT	ENDS
;	COMDAT ?AddToUserDictionary@CWSpell@@QAEFPBG0F0@Z
_TEXT	SEGMENT PARA USE32 PUBLIC 'CODE'
_TEXT	ENDS
;	COMDAT ?CheckBackgroundNotify@CWSpell@@QAEJJHHHHJ@Z
_TEXT	SEGMENT PARA USE32 PUBLIC 'CODE'
_TEXT	ENDS
;	COMDAT ?CheckBackgroundRecheck@CWSpell@@QAEJJHHHHJ@Z
_TEXT	SEGMENT PARA USE32 PUBLIC 'CODE'
_TEXT	ENDS
;	COMDAT ?CheckBackgroundMenu@CWSpell@@QAEJJJJJHHHHJ@Z
_TEXT	SEGMENT PARA USE32 PUBLIC 'CODE'
_TEXT	ENDS
;	COMDAT ?AboutBox@CWSpell@@QAEXXZ
_TEXT	SEGMENT PARA USE32 PUBLIC 'CODE'
_TEXT	ENDS
;	COMDAT ??4?$CStringT@GV?$StrTraitMFC@GV?$ChTraitsCRT@G@ATL@@@@@ATL@@QAEAAV01@ABV01@@Z
_TEXT	SEGMENT PARA USE32 PUBLIC 'CODE'
_TEXT	ENDS
;	COMDAT ??Y?$CStringT@GV?$StrTraitMFC@GV?$ChTraitsCRT@G@ATL@@@@@ATL@@QAEAAV01@ABV?$CSimpleStringT@G$0A@@1@@Z
_TEXT	SEGMENT PARA USE32 PUBLIC 'CODE'
_TEXT	ENDS
;	COMDAT ??Y?$CStringT@GV?$StrTraitMFC@GV?$ChTraitsCRT@G@ATL@@@@@ATL@@QAEAAV01@PBD@Z
_TEXT	SEGMENT PARA USE32 PUBLIC 'CODE'
_TEXT	ENDS
;	COMDAT ??HATL@@YA?AV?$CStringT@GV?$StrTraitMFC@GV?$ChTraitsCRT@G@ATL@@@@@0@ABV10@0@Z
_TEXT	SEGMENT PARA USE32 PUBLIC 'CODE'
_TEXT	ENDS
;	COMDAT ??A?$CSimpleStringT@G$0A@@ATL@@QBEGH@Z
_TEXT	SEGMENT PARA USE32 PUBLIC 'CODE'
_TEXT	ENDS
;	COMDAT ??0?$CStringT@GV?$StrTraitMFC@GV?$ChTraitsCRT@G@ATL@@@@@ATL@@QAE@PAUIAtlStringMgr@1@@Z
_TEXT	SEGMENT PARA USE32 PUBLIC 'CODE'
_TEXT	ENDS
;	COMDAT ??0?$CStringT@GV?$StrTraitMFC@GV?$ChTraitsCRT@G@ATL@@@@@ATL@@QAE@PBDPAUIAtlStringMgr@1@@Z
_TEXT	SEGMENT PARA USE32 PUBLIC 'CODE'
_TEXT	ENDS
;	COMDAT ??4?$CSimpleStringT@G$0A@@ATL@@QAEAAV01@ABV01@@Z
_TEXT	SEGMENT PARA USE32 PUBLIC 'CODE'
_TEXT	ENDS
;	COMDAT ??Y?$CSimpleStringT@G$0A@@ATL@@QAEAAV01@ABV01@@Z
_TEXT	SEGMENT PARA USE32 PUBLIC 'CODE'
_TEXT	ENDS
;	COMDAT ?GetManager@?$CSimpleStringT@G$0A@@ATL@@QBEPAUIAtlStringMgr@2@XZ
_TEXT	SEGMENT PARA USE32 PUBLIC 'CODE'
_TEXT	ENDS
;	COMDAT ?Concatenate@?$CSimpleStringT@G$0A@@ATL@@KAXAAV12@PBGH1H@Z
_TEXT	SEGMENT PARA USE32 PUBLIC 'CODE'
_TEXT	ENDS
;	COMDAT ?Append@?$CSimpleStringT@G$0A@@ATL@@QAEXABV12@@Z
_TEXT	SEGMENT PARA USE32 PUBLIC 'CODE'
_TEXT	ENDS
;	COMDAT ?Append@?$CSimpleStringT@G$0A@@ATL@@QAEXPBGH@Z
_TEXT	SEGMENT PARA USE32 PUBLIC 'CODE'
_TEXT	ENDS
;	COMDAT ?ReleaseBufferSetLength@?$CSimpleStringT@G$0A@@ATL@@QAEXH@Z
_TEXT	SEGMENT PARA USE32 PUBLIC 'CODE'
_TEXT	ENDS
;	COMDAT ??_C@_0BA@GNIEOBOF@nNewLength?5?$DO?$DN?50?$AA@
CONST	SEGMENT DWORD USE32 PUBLIC 'CONST'
CONST	ENDS
;	COMDAT ?SetLength@?$CSimpleStringT@G$0A@@ATL@@AAEXH@Z
_TEXT	SEGMENT PARA USE32 PUBLIC 'CODE'
_TEXT	ENDS
;	COMDAT ??_C@_0N@ILOMLJGA@nLength?5?$DO?$DN?50?$AA@
CONST	SEGMENT DWORD USE32 PUBLIC 'CONST'
CONST	ENDS
;	COMDAT ??_C@_0CD@EEFFJEGJ@nLength?5?$DM?$DN?5GetData?$CI?$CJ?9?$DOnAllocLeng@
CONST	SEGMENT DWORD USE32 PUBLIC 'CONST'
CONST	ENDS
;	COMDAT ?CopyChars@?$CSimpleStringT@G$0A@@ATL@@SAXPAGPBGH@Z
_TEXT	SEGMENT PARA USE32 PUBLIC 'CODE'
_TEXT	ENDS
;	COMDAT ?GetBuffer@?$CSimpleStringT@G$0A@@ATL@@QAEPAGH@Z
_TEXT	SEGMENT PARA USE32 PUBLIC 'CODE'
_TEXT	ENDS
;	COMDAT ?PrepareWrite@?$CSimpleStringT@G$0A@@ATL@@AAEPAGH@Z
_TEXT	SEGMENT PARA USE32 PUBLIC 'CODE'
_TEXT	ENDS
;	COMDAT ?PrepareWrite2@?$CSimpleStringT@G$0A@@ATL@@AAEXH@Z
_TEXT	SEGMENT PARA USE32 PUBLIC 'CODE'
_TEXT	ENDS
;	COMDAT ?IsShared@CStringData@ATL@@QBE_NXZ
_TEXT	SEGMENT PARA USE32 PUBLIC 'CODE'
_TEXT	ENDS
;	COMDAT ?Fork@?$CSimpleStringT@G$0A@@ATL@@AAEXH@Z
_TEXT	SEGMENT PARA USE32 PUBLIC 'CODE'
_TEXT	ENDS
;	COMDAT ?ThrowMemoryException@?$CSimpleStringT@G$0A@@ATL@@KAXXZ
_TEXT	SEGMENT PARA USE32 PUBLIC 'CODE'
_TEXT	ENDS
;	COMDAT ?data@CStringData@ATL@@QAEPAXXZ
_TEXT	SEGMENT PARA USE32 PUBLIC 'CODE'
_TEXT	ENDS
;	COMDAT ?Reallocate@?$CSimpleStringT@G$0A@@ATL@@AAEXH@Z
_TEXT	SEGMENT PARA USE32 PUBLIC 'CODE'
_TEXT	ENDS
;	COMDAT ??_C@_0CB@GFHAPKDK@pOldData?9?$DOnAllocLength?5?$DM?5nLength@
CONST	SEGMENT DWORD USE32 PUBLIC 'CONST'
CONST	ENDS
;	COMDAT ?Attach@?$CSimpleStringT@G$0A@@ATL@@AAEXPAUCStringData@2@@Z
_TEXT	SEGMENT PARA USE32 PUBLIC 'CODE'
_TEXT	ENDS
;	COMDAT ?Release@CStringData@ATL@@QAEXXZ
_TEXT	SEGMENT PARA USE32 PUBLIC 'CODE'
_TEXT	ENDS
;	COMDAT ??_C@_0L@OIIMFBNE@nRefs?5?$CB?$DN?50?$AA@
CONST	SEGMENT DWORD USE32 PUBLIC 'CONST'
CONST	ENDS
;	COMDAT ?CloneData@?$CSimpleStringT@G$0A@@ATL@@CAPAUCStringData@2@PAU32@@Z
_TEXT	SEGMENT PARA USE32 PUBLIC 'CODE'
_TEXT	ENDS
;	COMDAT ?AddRef@CStringData@ATL@@QAEXXZ
_TEXT	SEGMENT PARA USE32 PUBLIC 'CODE'
_TEXT	ENDS
;	COMDAT ??_C@_09EEBKLCFA@nRefs?5?$DO?50?$AA@
CONST	SEGMENT DWORD USE32 PUBLIC 'CONST'
CONST	ENDS
;	COMDAT ?GetString@?$CSimpleStringT@G$0A@@ATL@@QBEPBGXZ
_TEXT	SEGMENT PARA USE32 PUBLIC 'CODE'
_TEXT	ENDS
;	COMDAT ?SetString@?$CSimpleStringT@G$0A@@ATL@@QAEXPBGH@Z
_TEXT	SEGMENT PARA USE32 PUBLIC 'CODE'
_TEXT	ENDS
;	COMDAT ?Empty@?$CSimpleStringT@G$0A@@ATL@@QAEXXZ
_TEXT	SEGMENT PARA USE32 PUBLIC 'CODE'
_TEXT	ENDS
;	COMDAT ?CopyCharsOverlapped@?$CSimpleStringT@G$0A@@ATL@@SAXPAGPBGH@Z
_TEXT	SEGMENT PARA USE32 PUBLIC 'CODE'
_TEXT	ENDS
;	COMDAT ?IsLocked@CStringData@ATL@@QBE_NXZ
_TEXT	SEGMENT PARA USE32 PUBLIC 'CODE'
_TEXT	ENDS
;	COMDAT ?GetData@?$CSimpleStringT@G$0A@@ATL@@ABEPAUCStringData@2@XZ
_TEXT	SEGMENT PARA USE32 PUBLIC 'CODE'
_TEXT	ENDS
;	COMDAT ?CheckImplicitLoad@?$CStringT@GV?$StrTraitMFC@GV?$ChTraitsCRT@G@ATL@@@@@ATL@@AAE_NPBX@Z
_TEXT	SEGMENT PARA USE32 PUBLIC 'CODE'
_TEXT	ENDS
;	COMDAT ?LoadStringW@?$CStringT@GV?$StrTraitMFC@GV?$ChTraitsCRT@G@ATL@@@@@ATL@@QAEHI@Z
_TEXT	SEGMENT PARA USE32 PUBLIC 'CODE'
_TEXT	ENDS
;	COMDAT ?FindStringResourceInstance@?$StrTraitMFC@GV?$ChTraitsCRT@G@ATL@@@@SAPAUHINSTANCE__@@I@Z
_TEXT	SEGMENT PARA USE32 PUBLIC 'CODE'
_TEXT	ENDS
;	COMDAT ?LoadStringW@?$CStringT@GV?$StrTraitMFC@GV?$ChTraitsCRT@G@ATL@@@@@ATL@@QAEHPAUHINSTANCE__@@I@Z
_TEXT	SEGMENT PARA USE32 PUBLIC 'CODE'
_TEXT	ENDS
;	COMDAT ?AtlGetStringResourceImage@ATL@@YAPBUATLSTRINGRESOURCEIMAGE@1@PAUHINSTANCE__@@I@Z
_TEXT	SEGMENT PARA USE32 PUBLIC 'CODE'
_TEXT	ENDS
;	COMDAT ?_AtlGetStringResourceImage@ATL@@YAPBUATLSTRINGRESOURCEIMAGE@1@PAUHINSTANCE__@@PAUHRSRC__@@I@Z
_TEXT	SEGMENT PARA USE32 PUBLIC 'CODE'
_TEXT	ENDS
;	COMDAT ?GetBaseTypeLength@?$ChTraitsCRT@G@ATL@@SAHPBGH@Z
_TEXT	SEGMENT PARA USE32 PUBLIC 'CODE'
_TEXT	ENDS
;	COMDAT ?ConvertToBaseType@?$ChTraitsCRT@G@ATL@@SAXPAGHPBGH@Z
_TEXT	SEGMENT PARA USE32 PUBLIC 'CODE'
_TEXT	ENDS
;	COMDAT ??RCTraceFileAndLineInfo@ATL@@QBAXKIPBGZZ
_TEXT	SEGMENT PARA USE32 PUBLIC 'CODE'
_TEXT	ENDS
;	COMDAT ?TraceV@CTrace@ATL@@QBAXPBDHKIPBGPAD@Z
_TEXT	SEGMENT PARA USE32 PUBLIC 'CODE'
_TEXT	ENDS
;	COMDAT ??0CTraceFileAndLineInfo@ATL@@QAE@PBDH@Z
_TEXT	SEGMENT PARA USE32 PUBLIC 'CODE'
_TEXT	ENDS
;	COMDAT ??_C@_0FB@BCKJDECD@c?3?2program?5files?2microsoft?5visua@
CONST	SEGMENT DWORD USE32 PUBLIC 'CONST'
CONST	ENDS
;	COMDAT ??_C@_1FC@BMOLDHIO@?$AAW?$AAa?$AAr?$AAn?$AAi?$AAn?$AAg?$AA?3?$AA?5?$AAi?$AAm?$AAp?$AAl?$AAi?$AAc?$AAi?$AAt?$AA?5?$AAL?$AAo@
CONST	SEGMENT DWORD USE32 PUBLIC 'CONST'
CONST	ENDS
;	COMDAT ??BCTraceCategory@ATL@@QBEKXZ
_TEXT	SEGMENT PARA USE32 PUBLIC 'CODE'
_TEXT	ENDS
;	COMDAT ??1?$CSimpleStringT@G$0A@@ATL@@QAE@XZ
_TEXT	SEGMENT PARA USE32 PUBLIC 'CODE'
_TEXT	ENDS
;	COMDAT ??0?$CSimpleStringT@G$0A@@ATL@@QAE@PAUIAtlStringMgr@1@@Z
_TEXT	SEGMENT PARA USE32 PUBLIC 'CODE'
_TEXT	ENDS
;	COMDAT ??_C@_0BA@GOIMFHNK@pStringMgr?5?$CB?$DN?50?$AA@
CONST	SEGMENT DWORD USE32 PUBLIC 'CONST'
CONST	ENDS
;	COMDAT ?AtlThrow@ATL@@YGXJ@Z
_TEXT	SEGMENT PARA USE32 PUBLIC 'CODE'
_TEXT	ENDS
;	COMDAT ?__LINE__Var@?1??AtlThrow@ATL@@YGXJ@Z@4JA
_DATA	SEGMENT DWORD USE32 PUBLIC 'DATA'
_DATA	ENDS
;	COMDAT ??_C@_0FC@IPKABFFL@c?3?2program?5files?2microsoft?5visua@
CONST	SEGMENT DWORD USE32 PUBLIC 'CONST'
CONST	ENDS
;	COMDAT ??_C@_1CK@DFMKPFAK@?$AAA?$AAt?$AAl?$AAT?$AAh?$AAr?$AAo?$AAw?$AA?3?$AA?5?$AAh?$AAr?$AA?5?$AA?$DN?$AA?5?$AA0?$AAx?$AA?$CF?$AAx?$AA?6@
CONST	SEGMENT DWORD USE32 PUBLIC 'CONST'
CONST	ENDS
;	COMDAT ??_C@_0FD@JDCNPMMG@c?3?2program?5files?2microsoft?5visua@
CONST	SEGMENT DWORD USE32 PUBLIC 'CONST'
CONST	ENDS
;	COMDAT ??B?$CSimpleStringT@G$0A@@ATL@@QBEPBGXZ
_TEXT	SEGMENT PARA USE32 PUBLIC 'CODE'
_TEXT	ENDS
;	COMDAT ??0?$CStringT@GV?$StrTraitMFC@GV?$ChTraitsCRT@G@ATL@@@@@ATL@@QAE@ABV01@@Z
_TEXT	SEGMENT PARA USE32 PUBLIC 'CODE'
_TEXT	ENDS
;	COMDAT ??0?$CSimpleStringT@G$0A@@ATL@@QAE@ABV01@@Z
_TEXT	SEGMENT PARA USE32 PUBLIC 'CODE'
_TEXT	ENDS
;	COMDAT ??0?$CStringT@GV?$StrTraitMFC@GV?$ChTraitsCRT@G@ATL@@@@@ATL@@QAE@PBD@Z
_TEXT	SEGMENT PARA USE32 PUBLIC 'CODE'
_TEXT	ENDS
;	COMDAT ?GetDefaultManager@?$StrTraitMFC@GV?$ChTraitsCRT@G@ATL@@@@SAPAUIAtlStringMgr@ATL@@XZ
_TEXT	SEGMENT PARA USE32 PUBLIC 'CODE'
_TEXT	ENDS
;	COMDAT ?GetLength@?$CSimpleStringT@G$0A@@ATL@@QBEHXZ
_TEXT	SEGMENT PARA USE32 PUBLIC 'CODE'
_TEXT	ENDS
;	COMDAT ?classCWSpell@CWSpell@@2UCRuntimeClass@@B
CONST	SEGMENT DWORD USE32 PUBLIC 'CONST'
CONST	ENDS
;	COMDAT ??_7CWSpell@@6B@
CONST	SEGMENT DWORD USE32 PUBLIC 'CONST'
CONST	ENDS
;	COMDAT ??4?$CStringT@GV?$StrTraitMFC@GV?$ChTraitsCRT@G@ATL@@@@@ATL@@QAEAAV01@PBD@Z
_TEXT	SEGMENT PARA USE32 PUBLIC 'CODE'
_TEXT	ENDS
;	COMDAT ?GetBaseTypeLength@?$ChTraitsCRT@G@ATL@@SAHPBD@Z
_TEXT	SEGMENT PARA USE32 PUBLIC 'CODE'
_TEXT	ENDS
;	COMDAT ?_AtlGetConversionACP@ATL@@YGIXZ
_TEXT	SEGMENT PARA USE32 PUBLIC 'CODE'
_TEXT	ENDS
;	COMDAT ?g_pfnGetThreadACP@ATL@@3P6GIXZA
_DATA	SEGMENT DWORD USE32 PUBLIC 'DATA'
_DATA	ENDS
;	COMDAT ?_AtlGetThreadACPThunk@ATL@@YGIXZ
_TEXT	SEGMENT PARA USE32 PUBLIC 'CODE'
_TEXT	ENDS
;	COMDAT ?_AtlGetThreadACPReal@ATL@@YGIXZ
_TEXT	SEGMENT PARA USE32 PUBLIC 'CODE'
_TEXT	ENDS
;	COMDAT ?_AtlGetThreadACPFake@ATL@@YGIXZ
_TEXT	SEGMENT PARA USE32 PUBLIC 'CODE'
_TEXT	ENDS
;	COMDAT ?InterlockedExchangePointer@@YGPAXPAPAXPAX@Z
_TEXT	SEGMENT PARA USE32 PUBLIC 'CODE'
_TEXT	ENDS
;	COMDAT ?ConvertToBaseType@?$ChTraitsCRT@G@ATL@@SAXPAGHPBDH@Z
_TEXT	SEGMENT PARA USE32 PUBLIC 'CODE'
_TEXT	ENDS
;	COMDAT ??1?$CStringT@GV?$StrTraitMFC@GV?$ChTraitsCRT@G@ATL@@@@@ATL@@QAE@XZ
_TEXT	SEGMENT PARA USE32 PUBLIC 'CODE'
_TEXT	ENDS
;	COMDAT ??0?$CStringT@GV?$StrTraitMFC@GV?$ChTraitsCRT@G@ATL@@@@@ATL@@QAE@XZ
_TEXT	SEGMENT PARA USE32 PUBLIC 'CODE'
_TEXT	ENDS
;	COMDAT ?clsid@?1??GetClsid@CWSpell@@QAEABU_GUID@@XZ@4U3@B
CONST	SEGMENT DWORD USE32 PUBLIC 'CONST'
CONST	ENDS
sxdata	SEGMENT DWORD USE32 'SXDATA'
sxdata	ENDS
FLAT	GROUP _DATA, CONST, _BSS
	ASSUME	CS: FLAT, DS: FLAT, SS: FLAT
endif

INCLUDELIB LIBCMTD
INCLUDELIB OLDNAMES

PUBLIC	??_C@_07CMAILJOJ@CWSpell?$AA@			; `string'
PUBLIC	?g_pfnGetThreadACP@ATL@@3P6GIXZA		; ATL::g_pfnGetThreadACP
PUBLIC	?_AtlGetThreadACPThunk@ATL@@YGIXZ		; ATL::_AtlGetThreadACPThunk
PUBLIC	?classCWSpell@CWSpell@@2UCRuntimeClass@@B	; CWSpell::classCWSpell
PUBLIC	?CreateObject@CWSpell@@SGPAVCObject@@XZ		; CWSpell::CreateObject
EXTRN	?classCWnd@CWnd@@2UCRuntimeClass@@B:BYTE	; CWnd::classCWnd
;	COMDAT ??_C@_07CMAILJOJ@CWSpell?$AA@
CONST	SEGMENT
??_C@_07CMAILJOJ@CWSpell?$AA@ DB 'CWSpell', 00H		; `string'
CONST	ENDS
;	COMDAT ?classCWSpell@CWSpell@@2UCRuntimeClass@@B
CONST	SEGMENT
?classCWSpell@CWSpell@@2UCRuntimeClass@@B DD FLAT:??_C@_07CMAILJOJ@CWSpell?$AA@ ; CWSpell::classCWSpell
	DD	050H
	DD	0ffffH
	DD	FLAT:?CreateObject@CWSpell@@SGPAVCObject@@XZ
	DD	FLAT:?classCWnd@CWnd@@2UCRuntimeClass@@B
	DD	00H
	DD	00H
CONST	ENDS
_DATA	SEGMENT
?parms@?1??GetSuggestion@CWSpell@@QAE?AV?$CStringT@GV?$StrTraitMFC@GV?$ChTraitsCRT@G@ATL@@@@@ATL@@F@Z@4PAEA DB 02H
	DB	00H						; `CWSpell::GetSuggestion'::`2'::parms
	ORG $+2
?parms@?1??GetMainDictionary@CWSpell@@QAE?AV?$CStringT@GV?$StrTraitMFC@GV?$ChTraitsCRT@G@ATL@@@@@ATL@@F@Z@4PAEA DB 02H
	DB	00H						; `CWSpell::GetMainDictionary'::`2'::parms
	ORG $+2
?parms@?1??GetUserDictionary@CWSpell@@QAE?AV?$CStringT@GV?$StrTraitMFC@GV?$ChTraitsCRT@G@ATL@@@@@ATL@@F@Z@4PAEA DB 02H
	DB	00H						; `CWSpell::GetUserDictionary'::`2'::parms
	ORG $+2
?parms@?1??AddMainDictionary@CWSpell@@QAEXPBG@Z@4PAEA DB 08H, 00H ; `CWSpell::AddMainDictionary'::`2'::parms
	ORG $+2
?parms@?1??AddUserDictionary@CWSpell@@QAEXPBG@Z@4PAEA DB 08H, 00H ; `CWSpell::AddUserDictionary'::`2'::parms
	ORG $+2
?parms@?1??CreateUserDictionary@CWSpell@@QAEFPBGF@Z@4PAEA DB 08H, 02H, 00H ; `CWSpell::CreateUserDictionary'::`2'::parms
	ORG $+1
?parms@?1??DeleteFromUserDictionary@CWSpell@@QAEXPBG0@Z@4PAEA DB 08H, 08H
	DB	00H						; `CWSpell::DeleteFromUserDictionary'::`2'::parms
	ORG $+1
?parms@?1??RemoveMainDictionary@CWSpell@@QAEXPBG@Z@4PAEA DB 08H, 00H ; `CWSpell::RemoveMainDictionary'::`2'::parms
	ORG $+2
?parms@?1??RemoveUserDictionary@CWSpell@@QAEXPBG@Z@4PAEA DB 08H, 00H ; `CWSpell::RemoveUserDictionary'::`2'::parms
	ORG $+2
?parms@?1??TestWord@CWSpell@@QAEHPBG@Z@4PAEA DB 08H, 00H ; `CWSpell::TestWord'::`2'::parms
	ORG $+2
?parms@?1??GetUserDictionaryWord@CWSpell@@QAE?AV?$CStringT@GV?$StrTraitMFC@GV?$ChTraitsCRT@G@ATL@@@@@ATL@@PBGJ@Z@4PAEA DB 08H
	DB	03H, 00H					; `CWSpell::GetUserDictionaryWord'::`2'::parms
	ORG $+1
?parms@?1??GetUserDictionaryWordCount@CWSpell@@QAEJPBG@Z@4PAEA DB 08H, 00H ; `CWSpell::GetUserDictionaryWordCount'::`2'::parms
	ORG $+2
?parms@?1??GetUserDictionaryWordAction@CWSpell@@QAEFPBG0@Z@4PAEA DB 08H, 08H
	DB	00H						; `CWSpell::GetUserDictionaryWordAction'::`2'::parms
	ORG $+1
?parms@?1??GetUserDictionaryOtherWord@CWSpell@@QAE?AV?$CStringT@GV?$StrTraitMFC@GV?$ChTraitsCRT@G@ATL@@@@@ATL@@PBG0@Z@4PAEA DB 08H
	DB	08H, 00H					; `CWSpell::GetUserDictionaryOtherWord'::`2'::parms
	ORG $+1
?parms@?1??AddToUserDictionary@CWSpell@@QAEFPBG0F0@Z@4PAEA DB 08H, 08H, 02H
	DB	08H, 00H					; `CWSpell::AddToUserDictionary'::`2'::parms
	ORG $+3
?parms@?1??CheckBackgroundNotify@CWSpell@@QAEJJHHHHJ@Z@4PAEA DB 03H, 0bH, 0bH
	DB	0bH, 0bH, 03H, 00H				; `CWSpell::CheckBackgroundNotify'::`2'::parms
	ORG $+1
?parms@?1??CheckBackgroundRecheck@CWSpell@@QAEJJHHHHJ@Z@4PAEA DB 03H, 0bH
	DB	0bH, 0bH, 0bH, 03H, 00H			; `CWSpell::CheckBackgroundRecheck'::`2'::parms
	ORG $+1
?parms@?1??CheckBackgroundMenu@CWSpell@@QAEJJJJJHHHHJ@Z@4PAEA DB 03H, 03H
	DB	03H, 03H, 0bH, 0bH, 0bH, 0bH, 03H, 00H	; `CWSpell::CheckBackgroundMenu'::`2'::parms
_DATA	ENDS
;	COMDAT ?g_pfnGetThreadACP@ATL@@3P6GIXZA
_DATA	SEGMENT
?g_pfnGetThreadACP@ATL@@3P6GIXZA DD FLAT:?_AtlGetThreadACPThunk@ATL@@YGIXZ ; ATL::g_pfnGetThreadACP
_DATA	ENDS
PUBLIC	??0CWSpell@@QAE@XZ				; CWSpell::CWSpell
EXTRN	__RTC_InitBase:NEAR
EXTRN	__RTC_Shutdown:NEAR
EXTRN	__except_list:DWORD
EXTRN	__RTC_CheckEsp:NEAR
EXTRN	___CxxFrameHandler:NEAR
EXTRN	??2CObject@@SGPAXI@Z:NEAR			; CObject::operator new
EXTRN	??3CObject@@SGXPAX@Z:NEAR			; CObject::operator delete
;	COMDAT rtc$IMZ
; File c:\astrow32dev\tbt32\wspell.cpp
rtc$IMZ	SEGMENT
__RTC_InitBase.rtc$IMZ DD FLAT:__RTC_InitBase
rtc$IMZ	ENDS
;	COMDAT rtc$TMZ
rtc$TMZ	SEGMENT
__RTC_Shutdown.rtc$TMZ DD FLAT:__RTC_Shutdown
rtc$TMZ	ENDS
;	COMDAT xdata$x
xdata$x	SEGMENT
__unwindtable$?CreateObject@CWSpell@@SGPAVCObject@@XZ DD 0ffffffffH
	DD	FLAT:__unwindfunclet$?CreateObject@CWSpell@@SGPAVCObject@@XZ$0
__ehfuncinfo$?CreateObject@CWSpell@@SGPAVCObject@@XZ DD 019930520H
	DD	01H
	DD	FLAT:__unwindtable$?CreateObject@CWSpell@@SGPAVCObject@@XZ
	DD	2 DUP(00H)
	DD	2 DUP(00H)
; Function compile flags: /Odt /RTCcsu /ZI
xdata$x	ENDS
;	COMDAT ?CreateObject@CWSpell@@SGPAVCObject@@XZ
_TEXT	SEGMENT
tv71 = -232						; size = 4
$T94395 = -224						; size = 4
$T94396 = -212						; size = 4
__$EHRec$ = -12						; size = 12
?CreateObject@CWSpell@@SGPAVCObject@@XZ PROC NEAR	; CWSpell::CreateObject, COMDAT

; 16   : IMPLEMENT_DYNCREATE(CWSpell, CWnd)

	push	ebp
	mov	ebp, esp
	push	-1
	push	__ehhandler$?CreateObject@CWSpell@@SGPAVCObject@@XZ
	mov	eax, DWORD PTR fs:__except_list
	push	eax
	mov	DWORD PTR fs:__except_list, esp
	sub	esp, 220				; 000000dcH
	push	ebx
	push	esi
	push	edi
	lea	edi, DWORD PTR [ebp-232]
	mov	ecx, 55					; 00000037H
	mov	eax, -858993460				; ccccccccH
	rep stosd
	push	80					; 00000050H
	call	??2CObject@@SGPAXI@Z			; CObject::operator new
	mov	DWORD PTR $T94396[ebp], eax
	mov	DWORD PTR __$EHRec$[ebp+8], 0
	cmp	DWORD PTR $T94396[ebp], 0
	je	SHORT $L94397
	mov	ecx, DWORD PTR $T94396[ebp]
	call	??0CWSpell@@QAE@XZ
	mov	DWORD PTR tv71[ebp], eax
	jmp	SHORT $L94398
$L94397:
	mov	DWORD PTR tv71[ebp], 0
$L94398:
	mov	eax, DWORD PTR tv71[ebp]
	mov	DWORD PTR $T94395[ebp], eax
	mov	DWORD PTR __$EHRec$[ebp+8], -1
	mov	eax, DWORD PTR $T94395[ebp]
	mov	ecx, DWORD PTR __$EHRec$[ebp]
	mov	DWORD PTR fs:__except_list, ecx
	pop	edi
	pop	esi
	pop	ebx
	add	esp, 232				; 000000e8H
	cmp	ebp, esp
	call	__RTC_CheckEsp
	mov	esp, ebp
	pop	ebp
	ret	0
_TEXT	ENDS
;	COMDAT text$x
text$x	SEGMENT
__unwindfunclet$?CreateObject@CWSpell@@SGPAVCObject@@XZ$0:
	mov	eax, DWORD PTR $T94396[ebp]
	push	eax
	call	??3CObject@@SGXPAX@Z			; CObject::operator delete
	ret	0
__ehhandler$?CreateObject@CWSpell@@SGPAVCObject@@XZ:
	mov	eax, OFFSET FLAT:__ehfuncinfo$?CreateObject@CWSpell@@SGPAVCObject@@XZ
	jmp	___CxxFrameHandler
text$x	ENDS
?CreateObject@CWSpell@@SGPAVCObject@@XZ ENDP		; CWSpell::CreateObject
PUBLIC	?GetRuntimeClass@CWSpell@@UBEPAUCRuntimeClass@@XZ ; CWSpell::GetRuntimeClass
PUBLIC	?Create@CWSpell@@UAEHPBG0KABUtagRECT@@PAVCWnd@@IPAUCCreateContext@@@Z ; CWSpell::Create
PUBLIC	??_7CWSpell@@6B@				; CWSpell::`vftable'
PUBLIC	??_GCWSpell@@UAEPAXI@Z				; CWSpell::`scalar deleting destructor'
EXTRN	?OnToolHitTest@CWnd@@UBEHVCPoint@@PAUtagTOOLINFOW@@@Z:NEAR ; CWnd::OnToolHitTest
EXTRN	?GetScrollBarCtrl@CWnd@@UBEPAVCScrollBar@@H@Z:NEAR ; CWnd::GetScrollBarCtrl
EXTRN	?WinHelpW@CWnd@@UAEXKI@Z:NEAR			; CWnd::WinHelpW
EXTRN	?HtmlHelpW@CWnd@@UAEXKI@Z:NEAR			; CWnd::HtmlHelpW
EXTRN	?WinHelpInternal@CWnd@@UAEXKI@Z:NEAR		; CWnd::WinHelpInternal
EXTRN	?ContinueModal@CWnd@@UAEHXZ:NEAR		; CWnd::ContinueModal
EXTRN	?EndModalLoop@CWnd@@UAEXH@Z:NEAR		; CWnd::EndModalLoop
EXTRN	?GetInterfaceMap@CWnd@@MBEPBUAFX_INTERFACEMAP@@XZ:NEAR ; CWnd::GetInterfaceMap
EXTRN	?EnsureStdObj@CWnd@@UAEJXZ:NEAR			; CWnd::EnsureStdObj
EXTRN	?get_accParent@CWnd@@UAEJPAPAUIDispatch@@@Z:NEAR ; CWnd::get_accParent
EXTRN	?get_accChildCount@CWnd@@UAEJPAJ@Z:NEAR		; CWnd::get_accChildCount
EXTRN	?get_accChild@CWnd@@UAEJUtagVARIANT@@PAPAUIDispatch@@@Z:NEAR ; CWnd::get_accChild
EXTRN	?get_accName@CWnd@@UAEJUtagVARIANT@@PAPAG@Z:NEAR ; CWnd::get_accName
EXTRN	?get_accValue@CWnd@@UAEJUtagVARIANT@@PAPAG@Z:NEAR ; CWnd::get_accValue
EXTRN	?OnCmdMsg@CCmdTarget@@UAEHIHPAXPAUAFX_CMDHANDLERINFO@@@Z:NEAR ; CCmdTarget::OnCmdMsg
EXTRN	?get_accDescription@CWnd@@UAEJUtagVARIANT@@PAPAG@Z:NEAR ; CWnd::get_accDescription
EXTRN	?IsInvokeAllowed@CCmdTarget@@UAEHJ@Z:NEAR	; CCmdTarget::IsInvokeAllowed
EXTRN	?get_accRole@CWnd@@UAEJUtagVARIANT@@PAU2@@Z:NEAR ; CWnd::get_accRole
EXTRN	?get_accState@CWnd@@UAEJUtagVARIANT@@PAU2@@Z:NEAR ; CWnd::get_accState
EXTRN	?get_accHelp@CWnd@@UAEJUtagVARIANT@@PAPAG@Z:NEAR ; CWnd::get_accHelp
EXTRN	?GetDispatchIID@CCmdTarget@@UAEHPAU_GUID@@@Z:NEAR ; CCmdTarget::GetDispatchIID
EXTRN	?GetTypeInfoCount@CCmdTarget@@UAEIXZ:NEAR	; CCmdTarget::GetTypeInfoCount
EXTRN	?GetTypeLibCache@CCmdTarget@@UAEPAVCTypeLibCache@@XZ:NEAR ; CCmdTarget::GetTypeLibCache
EXTRN	?get_accHelpTopic@CWnd@@UAEJPAPAGUtagVARIANT@@PAJ@Z:NEAR ; CWnd::get_accHelpTopic
EXTRN	?GetTypeLib@CCmdTarget@@UAEJKPAPAUITypeLib@@@Z:NEAR ; CCmdTarget::GetTypeLib
EXTRN	?get_accKeyboardShortcut@CWnd@@UAEJUtagVARIANT@@PAPAG@Z:NEAR ; CWnd::get_accKeyboardShortcut
EXTRN	?get_accFocus@CWnd@@UAEJPAUtagVARIANT@@@Z:NEAR	; CWnd::get_accFocus
EXTRN	?get_accSelection@CWnd@@UAEJPAUtagVARIANT@@@Z:NEAR ; CWnd::get_accSelection
EXTRN	?get_accDefaultAction@CWnd@@UAEJUtagVARIANT@@PAPAG@Z:NEAR ; CWnd::get_accDefaultAction
EXTRN	?accSelect@CWnd@@UAEJJUtagVARIANT@@@Z:NEAR	; CWnd::accSelect
EXTRN	?accLocation@CWnd@@UAEJPAJ000UtagVARIANT@@@Z:NEAR ; CWnd::accLocation
EXTRN	?GetCommandMap@CCmdTarget@@MBEPBUAFX_OLECMDMAP@@XZ:NEAR ; CCmdTarget::GetCommandMap
EXTRN	?accNavigate@CWnd@@UAEJJUtagVARIANT@@PAU2@@Z:NEAR ; CWnd::accNavigate
EXTRN	?accHitTest@CWnd@@UAEJJJPAUtagVARIANT@@@Z:NEAR	; CWnd::accHitTest
EXTRN	?accDoDefaultAction@CWnd@@UAEJUtagVARIANT@@@Z:NEAR ; CWnd::accDoDefaultAction
EXTRN	?GetDispatchMap@CCmdTarget@@MBEPBUAFX_DISPMAP@@XZ:NEAR ; CCmdTarget::GetDispatchMap
EXTRN	?put_accName@CWnd@@UAEJUtagVARIANT@@PAG@Z:NEAR	; CWnd::put_accName
EXTRN	?put_accValue@CWnd@@UAEJUtagVARIANT@@PAG@Z:NEAR	; CWnd::put_accValue
EXTRN	?GetConnectionMap@CCmdTarget@@MBEPBUAFX_CONNECTIONMAP@@XZ:NEAR ; CCmdTarget::GetConnectionMap
EXTRN	?SetProxy@CWnd@@UAEJPAUIAccessibleProxy@@@Z:NEAR ; CWnd::SetProxy
EXTRN	?CreateAccessibleProxy@CWnd@@UAEJIJPAJ@Z:NEAR	; CWnd::CreateAccessibleProxy
EXTRN	?GetEventSinkMap@CCmdTarget@@MBEPBUAFX_EVENTSINKMAP@@XZ:NEAR ; CCmdTarget::GetEventSinkMap
EXTRN	?OnCommand@CWnd@@MAEHIJ@Z:NEAR			; CWnd::OnCommand
EXTRN	?Serialize@CObject@@UAEXAAVCArchive@@@Z:NEAR	; CObject::Serialize
EXTRN	?OnNotify@CWnd@@MAEHIJPAJ@Z:NEAR		; CWnd::OnNotify
EXTRN	?OnCreateAggregates@CCmdTarget@@UAEHXZ:NEAR	; CCmdTarget::OnCreateAggregates
EXTRN	?GetInterfaceHook@CCmdTarget@@UAEPAUIUnknown@@PBX@Z:NEAR ; CCmdTarget::GetInterfaceHook
EXTRN	?GetExtraConnectionPoints@CCmdTarget@@MAEHPAVCPtrArray@@@Z:NEAR ; CCmdTarget::GetExtraConnectionPoints
EXTRN	?GetConnectionHook@CCmdTarget@@MAEPAUIConnectionPoint@@ABU_GUID@@@Z:NEAR ; CCmdTarget::GetConnectionHook
EXTRN	??0CWnd@@QAE@XZ:NEAR				; CWnd::CWnd
EXTRN	?PreSubclassWindow@CWnd@@UAEXXZ:NEAR		; CWnd::PreSubclassWindow
EXTRN	?CreateEx@CWnd@@UAEHKPBG0KHHHHPAUHWND__@@PAUHMENU__@@PAX@Z:NEAR ; CWnd::CreateEx
EXTRN	?CreateEx@CWnd@@UAEHKPBG0KABUtagRECT@@PAV1@IPAX@Z:NEAR ; CWnd::CreateEx
EXTRN	?DestroyWindow@CWnd@@UAEHXZ:NEAR		; CWnd::DestroyWindow
EXTRN	?PreCreateWindow@CWnd@@UAEHAAUtagCREATESTRUCTW@@@Z:NEAR ; CWnd::PreCreateWindow
EXTRN	?CalcWindowRect@CWnd@@UAEXPAUtagRECT@@I@Z:NEAR	; CWnd::CalcWindowRect
EXTRN	?GetSuperWndProcAddr@CWnd@@MAEPAP6GJPAUHWND__@@IIJ@ZXZ:NEAR ; CWnd::GetSuperWndProcAddr
EXTRN	?DoDataExchange@CWnd@@MAEXPAVCDataExchange@@@Z:NEAR ; CWnd::DoDataExchange
EXTRN	?BeginModalState@CWnd@@UAEXXZ:NEAR		; CWnd::BeginModalState
EXTRN	?EndModalState@CWnd@@UAEXXZ:NEAR		; CWnd::EndModalState
EXTRN	?PreTranslateMessage@CWnd@@UAEHPAUtagMSG@@@Z:NEAR ; CWnd::PreTranslateMessage
EXTRN	?OnAmbientProperty@CWnd@@UAEHPAVCOleControlSite@@JPAUtagVARIANT@@@Z:NEAR ; CWnd::OnAmbientProperty
EXTRN	?WindowProc@CWnd@@MAEJIIJ@Z:NEAR		; CWnd::WindowProc
EXTRN	?OnWndMsg@CWnd@@MAEHIIJPAJ@Z:NEAR		; CWnd::OnWndMsg
EXTRN	?DefWindowProcW@CWnd@@MAEJIIJ@Z:NEAR		; CWnd::DefWindowProcW
EXTRN	?PostNcDestroy@CWnd@@MAEXXZ:NEAR		; CWnd::PostNcDestroy
EXTRN	?OnChildNotify@CWnd@@MAEHIIJPAJ@Z:NEAR		; CWnd::OnChildNotify
EXTRN	?CheckAutoCenter@CWnd@@UAEHXZ:NEAR		; CWnd::CheckAutoCenter
EXTRN	?AssertValid@CWnd@@UBEXXZ:NEAR			; CWnd::AssertValid
EXTRN	?Dump@CWnd@@UBEXAAVCDumpContext@@@Z:NEAR	; CWnd::Dump
EXTRN	?IsFrameWnd@CWnd@@UBEHXZ:NEAR			; CWnd::IsFrameWnd
EXTRN	?OnFinalRelease@CWnd@@UAEXXZ:NEAR		; CWnd::OnFinalRelease
EXTRN	?CreateControlContainer@CWnd@@MAEHPAPAVCOleControlContainer@@@Z:NEAR ; CWnd::CreateControlContainer
EXTRN	?CreateControlSite@CWnd@@MAEHPAVCOleControlContainer@@PAPAVCOleControlSite@@IABU_GUID@@@Z:NEAR ; CWnd::CreateControlSite
EXTRN	?SetOccDialogInfo@CWnd@@MAEHPAU_AFX_OCC_DIALOG_INFO@@@Z:NEAR ; CWnd::SetOccDialogInfo
EXTRN	??_ECWSpell@@UAEPAXI@Z:NEAR			; CWSpell::`vector deleting destructor'
EXTRN	?GetMessageMap@CWnd@@MBEPBUAFX_MSGMAP@@XZ:NEAR	; CWnd::GetMessageMap
;	COMDAT ??_7CWSpell@@6B@
CONST	SEGMENT
??_7CWSpell@@6B@ DD FLAT:?GetRuntimeClass@CWSpell@@UBEPAUCRuntimeClass@@XZ ; CWSpell::`vftable'
	DD	FLAT:??_ECWSpell@@UAEPAXI@Z
	DD	FLAT:?Serialize@CObject@@UAEXAAVCArchive@@@Z
	DD	FLAT:?AssertValid@CWnd@@UBEXXZ
	DD	FLAT:?Dump@CWnd@@UBEXAAVCDumpContext@@@Z
	DD	FLAT:?OnCmdMsg@CCmdTarget@@UAEHIHPAXPAUAFX_CMDHANDLERINFO@@@Z
	DD	FLAT:?OnFinalRelease@CWnd@@UAEXXZ
	DD	FLAT:?IsInvokeAllowed@CCmdTarget@@UAEHJ@Z
	DD	FLAT:?GetDispatchIID@CCmdTarget@@UAEHPAU_GUID@@@Z
	DD	FLAT:?GetTypeInfoCount@CCmdTarget@@UAEIXZ
	DD	FLAT:?GetTypeLibCache@CCmdTarget@@UAEPAVCTypeLibCache@@XZ
	DD	FLAT:?GetTypeLib@CCmdTarget@@UAEJKPAPAUITypeLib@@@Z
	DD	FLAT:?GetMessageMap@CWnd@@MBEPBUAFX_MSGMAP@@XZ
	DD	FLAT:?GetCommandMap@CCmdTarget@@MBEPBUAFX_OLECMDMAP@@XZ
	DD	FLAT:?GetDispatchMap@CCmdTarget@@MBEPBUAFX_DISPMAP@@XZ
	DD	FLAT:?GetConnectionMap@CCmdTarget@@MBEPBUAFX_CONNECTIONMAP@@XZ
	DD	FLAT:?GetInterfaceMap@CWnd@@MBEPBUAFX_INTERFACEMAP@@XZ
	DD	FLAT:?GetEventSinkMap@CCmdTarget@@MBEPBUAFX_EVENTSINKMAP@@XZ
	DD	FLAT:?OnCreateAggregates@CCmdTarget@@UAEHXZ
	DD	FLAT:?GetInterfaceHook@CCmdTarget@@UAEPAUIUnknown@@PBX@Z
	DD	FLAT:?GetExtraConnectionPoints@CCmdTarget@@MAEHPAVCPtrArray@@@Z
	DD	FLAT:?GetConnectionHook@CCmdTarget@@MAEPAUIConnectionPoint@@ABU_GUID@@@Z
	DD	FLAT:?PreSubclassWindow@CWnd@@UAEXXZ
	DD	FLAT:?Create@CWSpell@@UAEHPBG0KABUtagRECT@@PAVCWnd@@IPAUCCreateContext@@@Z
	DD	FLAT:?CreateEx@CWnd@@UAEHKPBG0KABUtagRECT@@PAV1@IPAX@Z
	DD	FLAT:?CreateEx@CWnd@@UAEHKPBG0KHHHHPAUHWND__@@PAUHMENU__@@PAX@Z
	DD	FLAT:?DestroyWindow@CWnd@@UAEHXZ
	DD	FLAT:?PreCreateWindow@CWnd@@UAEHAAUtagCREATESTRUCTW@@@Z
	DD	FLAT:?CalcWindowRect@CWnd@@UAEXPAUtagRECT@@I@Z
	DD	FLAT:?OnToolHitTest@CWnd@@UBEHVCPoint@@PAUtagTOOLINFOW@@@Z
	DD	FLAT:?GetScrollBarCtrl@CWnd@@UBEPAVCScrollBar@@H@Z
	DD	FLAT:?WinHelpW@CWnd@@UAEXKI@Z
	DD	FLAT:?HtmlHelpW@CWnd@@UAEXKI@Z
	DD	FLAT:?WinHelpInternal@CWnd@@UAEXKI@Z
	DD	FLAT:?ContinueModal@CWnd@@UAEHXZ
	DD	FLAT:?EndModalLoop@CWnd@@UAEXH@Z
	DD	FLAT:?EnsureStdObj@CWnd@@UAEJXZ
	DD	FLAT:?get_accParent@CWnd@@UAEJPAPAUIDispatch@@@Z
	DD	FLAT:?get_accChildCount@CWnd@@UAEJPAJ@Z
	DD	FLAT:?get_accChild@CWnd@@UAEJUtagVARIANT@@PAPAUIDispatch@@@Z
	DD	FLAT:?get_accName@CWnd@@UAEJUtagVARIANT@@PAPAG@Z
	DD	FLAT:?get_accValue@CWnd@@UAEJUtagVARIANT@@PAPAG@Z
	DD	FLAT:?get_accDescription@CWnd@@UAEJUtagVARIANT@@PAPAG@Z
	DD	FLAT:?get_accRole@CWnd@@UAEJUtagVARIANT@@PAU2@@Z
	DD	FLAT:?get_accState@CWnd@@UAEJUtagVARIANT@@PAU2@@Z
	DD	FLAT:?get_accHelp@CWnd@@UAEJUtagVARIANT@@PAPAG@Z
	DD	FLAT:?get_accHelpTopic@CWnd@@UAEJPAPAGUtagVARIANT@@PAJ@Z
	DD	FLAT:?get_accKeyboardShortcut@CWnd@@UAEJUtagVARIANT@@PAPAG@Z
	DD	FLAT:?get_accFocus@CWnd@@UAEJPAUtagVARIANT@@@Z
	DD	FLAT:?get_accSelection@CWnd@@UAEJPAUtagVARIANT@@@Z
	DD	FLAT:?get_accDefaultAction@CWnd@@UAEJUtagVARIANT@@PAPAG@Z
	DD	FLAT:?accSelect@CWnd@@UAEJJUtagVARIANT@@@Z
	DD	FLAT:?accLocation@CWnd@@UAEJPAJ000UtagVARIANT@@@Z
	DD	FLAT:?accNavigate@CWnd@@UAEJJUtagVARIANT@@PAU2@@Z
	DD	FLAT:?accHitTest@CWnd@@UAEJJJPAUtagVARIANT@@@Z
	DD	FLAT:?accDoDefaultAction@CWnd@@UAEJUtagVARIANT@@@Z
	DD	FLAT:?put_accName@CWnd@@UAEJUtagVARIANT@@PAG@Z
	DD	FLAT:?put_accValue@CWnd@@UAEJUtagVARIANT@@PAG@Z
	DD	FLAT:?SetProxy@CWnd@@UAEJPAUIAccessibleProxy@@@Z
	DD	FLAT:?CreateAccessibleProxy@CWnd@@UAEJIJPAJ@Z
	DD	FLAT:?OnCommand@CWnd@@MAEHIJ@Z
	DD	FLAT:?OnNotify@CWnd@@MAEHIJPAJ@Z
	DD	FLAT:?GetSuperWndProcAddr@CWnd@@MAEPAP6GJPAUHWND__@@IIJ@ZXZ
	DD	FLAT:?DoDataExchange@CWnd@@MAEXPAVCDataExchange@@@Z
	DD	FLAT:?BeginModalState@CWnd@@UAEXXZ
	DD	FLAT:?EndModalState@CWnd@@UAEXXZ
	DD	FLAT:?PreTranslateMessage@CWnd@@UAEHPAUtagMSG@@@Z
	DD	FLAT:?OnAmbientProperty@CWnd@@UAEHPAVCOleControlSite@@JPAUtagVARIANT@@@Z
	DD	FLAT:?WindowProc@CWnd@@MAEJIIJ@Z
	DD	FLAT:?OnWndMsg@CWnd@@MAEHIIJPAJ@Z
	DD	FLAT:?DefWindowProcW@CWnd@@MAEJIIJ@Z
	DD	FLAT:?PostNcDestroy@CWnd@@MAEXXZ
	DD	FLAT:?OnChildNotify@CWnd@@MAEHIIJPAJ@Z
	DD	FLAT:?CheckAutoCenter@CWnd@@UAEHXZ
	DD	FLAT:?IsFrameWnd@CWnd@@UBEHXZ
	DD	FLAT:?CreateControlContainer@CWnd@@MAEHPAPAVCOleControlContainer@@@Z
	DD	FLAT:?CreateControlSite@CWnd@@MAEHPAVCOleControlContainer@@PAPAVCOleControlSite@@IABU_GUID@@@Z
	DD	FLAT:?SetOccDialogInfo@CWnd@@MAEHPAU_AFX_OCC_DIALOG_INFO@@@Z
; Function compile flags: /Odt /RTCcsu /ZI
CONST	ENDS
;	COMDAT ??0CWSpell@@QAE@XZ
_TEXT	SEGMENT
_this$ = -8						; size = 4
??0CWSpell@@QAE@XZ PROC NEAR				; CWSpell::CWSpell, COMDAT
; _this$ = ecx
	push	ebp
	mov	ebp, esp
	sub	esp, 204				; 000000ccH
	push	ebx
	push	esi
	push	edi
	push	ecx
	lea	edi, DWORD PTR [ebp-204]
	mov	ecx, 51					; 00000033H
	mov	eax, -858993460				; ccccccccH
	rep stosd
	pop	ecx
	mov	DWORD PTR _this$[ebp], ecx
	mov	ecx, DWORD PTR _this$[ebp]
	call	??0CWnd@@QAE@XZ				; CWnd::CWnd
	mov	eax, DWORD PTR _this$[ebp]
	mov	DWORD PTR [eax], OFFSET FLAT:??_7CWSpell@@6B@
	mov	eax, DWORD PTR _this$[ebp]
	pop	edi
	pop	esi
	pop	ebx
	add	esp, 204				; 000000ccH
	cmp	ebp, esp
	call	__RTC_CheckEsp
	mov	esp, ebp
	pop	ebp
	ret	0
??0CWSpell@@QAE@XZ ENDP					; CWSpell::CWSpell
_TEXT	ENDS
PUBLIC	?GetClsid@CWSpell@@QAEABU_GUID@@XZ		; CWSpell::GetClsid
EXTRN	?CreateControl@CWnd@@QAEHABU_GUID@@PBGKABUtagRECT@@PAV1@IPAVCFile@@HPAG@Z:NEAR ; CWnd::CreateControl
; Function compile flags: /Odt /RTCcsu /ZI
; File c:\astrow32dev\tbt32\wspell.h
;	COMDAT ?Create@CWSpell@@UAEHPBG0KABUtagRECT@@PAVCWnd@@IPAUCCreateContext@@@Z
_TEXT	SEGMENT
_this$ = -8						; size = 4
_lpszClassName$ = 8					; size = 4
_lpszWindowName$ = 12					; size = 4
_dwStyle$ = 16						; size = 4
_rect$ = 20						; size = 4
_pParentWnd$ = 24					; size = 4
_nID$ = 28						; size = 4
_pContext$ = 32						; size = 4
?Create@CWSpell@@UAEHPBG0KABUtagRECT@@PAVCWnd@@IPAUCCreateContext@@@Z PROC NEAR ; CWSpell::Create, COMDAT
; _this$ = ecx

; 31   : 	{ return CreateControl(GetClsid(), lpszWindowName, dwStyle, rect, pParentWnd, nID); }

	push	ebp
	mov	ebp, esp
	sub	esp, 204				; 000000ccH
	push	ebx
	push	esi
	push	edi
	push	ecx
	lea	edi, DWORD PTR [ebp-204]
	mov	ecx, 51					; 00000033H
	mov	eax, -858993460				; ccccccccH
	rep stosd
	pop	ecx
	mov	DWORD PTR _this$[ebp], ecx
	push	0
	push	0
	push	0
	mov	eax, DWORD PTR _nID$[ebp]
	push	eax
	mov	ecx, DWORD PTR _pParentWnd$[ebp]
	push	ecx
	mov	edx, DWORD PTR _rect$[ebp]
	push	edx
	mov	eax, DWORD PTR _dwStyle$[ebp]
	push	eax
	mov	ecx, DWORD PTR _lpszWindowName$[ebp]
	push	ecx
	mov	ecx, DWORD PTR _this$[ebp]
	call	?GetClsid@CWSpell@@QAEABU_GUID@@XZ	; CWSpell::GetClsid
	push	eax
	mov	ecx, DWORD PTR _this$[ebp]
	call	?CreateControl@CWnd@@QAEHABU_GUID@@PBGKABUtagRECT@@PAV1@IPAVCFile@@HPAG@Z ; CWnd::CreateControl
	pop	edi
	pop	esi
	pop	ebx
	add	esp, 204				; 000000ccH
	cmp	ebp, esp
	call	__RTC_CheckEsp
	mov	esp, ebp
	pop	ebp
	ret	28					; 0000001cH
?Create@CWSpell@@UAEHPBG0KABUtagRECT@@PAVCWnd@@IPAUCCreateContext@@@Z ENDP ; CWSpell::Create
_TEXT	ENDS
PUBLIC	?clsid@?1??GetClsid@CWSpell@@QAEABU_GUID@@XZ@4U3@B ; `CWSpell::GetClsid'::`2'::clsid
;	COMDAT ?clsid@?1??GetClsid@CWSpell@@QAEABU_GUID@@XZ@4U3@B
CONST	SEGMENT
?clsid@?1??GetClsid@CWSpell@@QAEABU_GUID@@XZ@4U3@B DD 0245338c3H ; `CWSpell::GetClsid'::`2'::clsid
	DW	0bca3H
	DW	04a2cH
	DB	0a7H
	DB	0b7H
	DB	053H
	DB	034H
	DB	059H
	DB	099H
	DB	0a8H
	DB	0e8H
; Function compile flags: /Odt /RTCcsu /ZI
CONST	ENDS
;	COMDAT ?GetClsid@CWSpell@@QAEABU_GUID@@XZ
_TEXT	SEGMENT
_this$ = -8						; size = 4
?GetClsid@CWSpell@@QAEABU_GUID@@XZ PROC NEAR		; CWSpell::GetClsid, COMDAT
; _this$ = ecx

; 21   : 	{

	push	ebp
	mov	ebp, esp
	sub	esp, 204				; 000000ccH
	push	ebx
	push	esi
	push	edi
	push	ecx
	lea	edi, DWORD PTR [ebp-204]
	mov	ecx, 51					; 00000033H
	mov	eax, -858993460				; ccccccccH
	rep stosd
	pop	ecx
	mov	DWORD PTR _this$[ebp], ecx

; 22   : 		static CLSID const clsid
; 23   : 			= { 0x245338c3, 0xbca3, 0x4a2c, { 0xa7, 0xb7, 0x53, 0x34, 0x59, 0x99, 0xa8, 0xe8 } };
; 24   : 		return clsid;

	mov	eax, OFFSET FLAT:?clsid@?1??GetClsid@CWSpell@@QAEABU_GUID@@XZ@4U3@B ; `CWSpell::GetClsid'::`2'::clsid

; 25   : 	}

	pop	edi
	pop	esi
	pop	ebx
	mov	esp, ebp
	pop	ebp
	ret	0
?GetClsid@CWSpell@@QAEABU_GUID@@XZ ENDP			; CWSpell::GetClsid
_TEXT	ENDS
PUBLIC	??1CWSpell@@UAE@XZ				; CWSpell::~CWSpell
; Function compile flags: /Odt /RTCcsu /ZI
;	COMDAT ??_GCWSpell@@UAEPAXI@Z
_TEXT	SEGMENT
_this$ = -8						; size = 4
___flags$ = 8						; size = 4
??_GCWSpell@@UAEPAXI@Z PROC NEAR			; CWSpell::`scalar deleting destructor', COMDAT
; _this$ = ecx
	push	ebp
	mov	ebp, esp
	sub	esp, 204				; 000000ccH
	push	ebx
	push	esi
	push	edi
	push	ecx
	lea	edi, DWORD PTR [ebp-204]
	mov	ecx, 51					; 00000033H
	mov	eax, -858993460				; ccccccccH
	rep stosd
	pop	ecx
	mov	DWORD PTR _this$[ebp], ecx
	mov	ecx, DWORD PTR _this$[ebp]
	call	??1CWSpell@@UAE@XZ
	mov	eax, DWORD PTR ___flags$[ebp]
	and	eax, 1
	je	SHORT $L93297
	mov	eax, DWORD PTR _this$[ebp]
	push	eax
	call	??3CObject@@SGXPAX@Z			; CObject::operator delete
$L93297:
	mov	eax, DWORD PTR _this$[ebp]
	pop	edi
	pop	esi
	pop	ebx
	add	esp, 204				; 000000ccH
	cmp	ebp, esp
	call	__RTC_CheckEsp
	mov	esp, ebp
	pop	ebp
	ret	4
??_GCWSpell@@UAEPAXI@Z ENDP				; CWSpell::`scalar deleting destructor'
_TEXT	ENDS
EXTRN	??1CWnd@@UAE@XZ:NEAR				; CWnd::~CWnd
; Function compile flags: /Odt /RTCcsu /ZI
;	COMDAT ??1CWSpell@@UAE@XZ
_TEXT	SEGMENT
_this$ = -8						; size = 4
??1CWSpell@@UAE@XZ PROC NEAR				; CWSpell::~CWSpell, COMDAT
; _this$ = ecx
	push	ebp
	mov	ebp, esp
	sub	esp, 204				; 000000ccH
	push	ebx
	push	esi
	push	edi
	push	ecx
	lea	edi, DWORD PTR [ebp-204]
	mov	ecx, 51					; 00000033H
	mov	eax, -858993460				; ccccccccH
	rep stosd
	pop	ecx
	mov	DWORD PTR _this$[ebp], ecx
	mov	ecx, DWORD PTR _this$[ebp]
	call	??1CWnd@@UAE@XZ				; CWnd::~CWnd
	pop	edi
	pop	esi
	pop	ebx
	add	esp, 204				; 000000ccH
	cmp	ebp, esp
	call	__RTC_CheckEsp
	mov	esp, ebp
	pop	ebp
	ret	0
??1CWSpell@@UAE@XZ ENDP					; CWSpell::~CWSpell
; Function compile flags: /Odt /RTCcsu /ZI
; File c:\astrow32dev\tbt32\wspell.cpp
_TEXT	ENDS
;	COMDAT ?GetRuntimeClass@CWSpell@@UBEPAUCRuntimeClass@@XZ
_TEXT	SEGMENT
_this$ = -8						; size = 4
?GetRuntimeClass@CWSpell@@UBEPAUCRuntimeClass@@XZ PROC NEAR ; CWSpell::GetRuntimeClass, COMDAT
; _this$ = ecx

; 16   : IMPLEMENT_DYNCREATE(CWSpell, CWnd)

	push	ebp
	mov	ebp, esp
	sub	esp, 204				; 000000ccH
	push	ebx
	push	esi
	push	edi
	push	ecx
	lea	edi, DWORD PTR [ebp-204]
	mov	ecx, 51					; 00000033H
	mov	eax, -858993460				; ccccccccH
	rep stosd
	pop	ecx
	mov	DWORD PTR _this$[ebp], ecx
	mov	eax, OFFSET FLAT:?classCWSpell@CWSpell@@2UCRuntimeClass@@B ; CWSpell::classCWSpell
	pop	edi
	pop	esi
	pop	ebx
	mov	esp, ebp
	pop	ebp
	ret	0
?GetRuntimeClass@CWSpell@@UBEPAUCRuntimeClass@@XZ ENDP	; CWSpell::GetRuntimeClass
_TEXT	ENDS
PUBLIC	??HATL@@YA?AV?$CStringT@GV?$StrTraitMFC@GV?$ChTraitsCRT@G@ATL@@@@@0@ABV10@0@Z ; ATL::operator+
PUBLIC	?MakeName@@YA?AV?$CStringT@GV?$StrTraitMFC@GV?$ChTraitsCRT@G@ATL@@@@@ATL@@PADH@Z ; MakeName
PUBLIC	??_C@_01KICIPPFI@?2?$AA@			; `string'
PUBLIC	??_C@_05PGMGPAMI@2?4clx?$AA@			; `string'
PUBLIC	??_C@_05GNOKGGOI@?4tlx?0?$AA@			; `string'
PUBLIC	??A?$CSimpleStringT@G$0A@@ATL@@QBEGH@Z		; ATL::CSimpleStringT<unsigned short,0>::operator[]
PUBLIC	?GetLength@?$CSimpleStringT@G$0A@@ATL@@QBEHXZ	; ATL::CSimpleStringT<unsigned short,0>::GetLength
PUBLIC	??0?$CStringT@GV?$StrTraitMFC@GV?$ChTraitsCRT@G@ATL@@@@@ATL@@QAE@XZ ; ATL::CStringT<unsigned short,StrTraitMFC<unsigned short,ATL::ChTraitsCRT<unsigned short> > >::CStringT<unsigned short,StrTraitMFC<unsigned short,ATL::ChTraitsCRT<unsigned short> > >
PUBLIC	??0?$CStringT@GV?$StrTraitMFC@GV?$ChTraitsCRT@G@ATL@@@@@ATL@@QAE@ABV01@@Z ; ATL::CStringT<unsigned short,StrTraitMFC<unsigned short,ATL::ChTraitsCRT<unsigned short> > >::CStringT<unsigned short,StrTraitMFC<unsigned short,ATL::ChTraitsCRT<unsigned short> > >
PUBLIC	??0?$CStringT@GV?$StrTraitMFC@GV?$ChTraitsCRT@G@ATL@@@@@ATL@@QAE@PBD@Z ; ATL::CStringT<unsigned short,StrTraitMFC<unsigned short,ATL::ChTraitsCRT<unsigned short> > >::CStringT<unsigned short,StrTraitMFC<unsigned short,ATL::ChTraitsCRT<unsigned short> > >
PUBLIC	??1?$CStringT@GV?$StrTraitMFC@GV?$ChTraitsCRT@G@ATL@@@@@ATL@@QAE@XZ ; ATL::CStringT<unsigned short,StrTraitMFC<unsigned short,ATL::ChTraitsCRT<unsigned short> > >::~CStringT<unsigned short,StrTraitMFC<unsigned short,ATL::ChTraitsCRT<unsigned short> > >
PUBLIC	??4?$CStringT@GV?$StrTraitMFC@GV?$ChTraitsCRT@G@ATL@@@@@ATL@@QAEAAV01@ABV01@@Z ; ATL::CStringT<unsigned short,StrTraitMFC<unsigned short,ATL::ChTraitsCRT<unsigned short> > >::operator=
PUBLIC	??4?$CStringT@GV?$StrTraitMFC@GV?$ChTraitsCRT@G@ATL@@@@@ATL@@QAEAAV01@PBD@Z ; ATL::CStringT<unsigned short,StrTraitMFC<unsigned short,ATL::ChTraitsCRT<unsigned short> > >::operator=
PUBLIC	??Y?$CStringT@GV?$StrTraitMFC@GV?$ChTraitsCRT@G@ATL@@@@@ATL@@QAEAAV01@PBD@Z ; ATL::CStringT<unsigned short,StrTraitMFC<unsigned short,ATL::ChTraitsCRT<unsigned short> > >::operator+=
EXTRN	_getcwd:NEAR
EXTRN	___security_cookie:DWORD
EXTRN	@_RTC_CheckStackVars@8:NEAR
EXTRN	@__security_check_cookie@4:NEAR
;	COMDAT xdata$x
xdata$x	SEGMENT
__unwindtable$?MakeName@@YA?AV?$CStringT@GV?$StrTraitMFC@GV?$ChTraitsCRT@G@ATL@@@@@ATL@@PADH@Z DD 0ffffffffH
	DD	FLAT:__unwindfunclet$?MakeName@@YA?AV?$CStringT@GV?$StrTraitMFC@GV?$ChTraitsCRT@G@ATL@@@@@ATL@@PADH@Z$0
	DD	00H
	DD	FLAT:__unwindfunclet$?MakeName@@YA?AV?$CStringT@GV?$StrTraitMFC@GV?$ChTraitsCRT@G@ATL@@@@@ATL@@PADH@Z$1
	DD	01H
	DD	FLAT:__unwindfunclet$?MakeName@@YA?AV?$CStringT@GV?$StrTraitMFC@GV?$ChTraitsCRT@G@ATL@@@@@ATL@@PADH@Z$2
	DD	02H
	DD	FLAT:__unwindfunclet$?MakeName@@YA?AV?$CStringT@GV?$StrTraitMFC@GV?$ChTraitsCRT@G@ATL@@@@@ATL@@PADH@Z$3
	DD	03H
	DD	FLAT:__unwindfunclet$?MakeName@@YA?AV?$CStringT@GV?$StrTraitMFC@GV?$ChTraitsCRT@G@ATL@@@@@ATL@@PADH@Z$4
	DD	04H
	DD	FLAT:__unwindfunclet$?MakeName@@YA?AV?$CStringT@GV?$StrTraitMFC@GV?$ChTraitsCRT@G@ATL@@@@@ATL@@PADH@Z$5
	DD	05H
	DD	FLAT:__unwindfunclet$?MakeName@@YA?AV?$CStringT@GV?$StrTraitMFC@GV?$ChTraitsCRT@G@ATL@@@@@ATL@@PADH@Z$6
__ehfuncinfo$?MakeName@@YA?AV?$CStringT@GV?$StrTraitMFC@GV?$ChTraitsCRT@G@ATL@@@@@ATL@@PADH@Z DD 019930520H
	DD	07H
	DD	FLAT:__unwindtable$?MakeName@@YA?AV?$CStringT@GV?$StrTraitMFC@GV?$ChTraitsCRT@G@ATL@@@@@ATL@@PADH@Z
	DD	2 DUP(00H)
	DD	2 DUP(00H)
xdata$x	ENDS
;	COMDAT ??_C@_01KICIPPFI@?2?$AA@
CONST	SEGMENT
??_C@_01KICIPPFI@?2?$AA@ DB '\', 00H			; `string'
CONST	ENDS
;	COMDAT ??_C@_05PGMGPAMI@2?4clx?$AA@
CONST	SEGMENT
??_C@_05PGMGPAMI@2?4clx?$AA@ DB '2.clx', 00H		; `string'
CONST	ENDS
;	COMDAT ??_C@_05GNOKGGOI@?4tlx?0?$AA@
CONST	SEGMENT
??_C@_05GNOKGGOI@?4tlx?0?$AA@ DB '.tlx,', 00H		; `string'
; Function compile flags: /Odt /RTCcsu /ZI
CONST	ENDS
;	COMDAT ?MakeName@@YA?AV?$CStringT@GV?$StrTraitMFC@GV?$ChTraitsCRT@G@ATL@@@@@ATL@@PADH@Z
_TEXT	SEGMENT
tv163 = -588						; size = 4
tv68 = -584						; size = 4
tv161 = -580						; size = 4
tv92 = -576						; size = 4
tv159 = -572						; size = 4
tv132 = -568						; size = 4
$T94436 = -560						; size = 4
$T94437 = -548						; size = 4
$T94438 = -536						; size = 4
$T94439 = -524						; size = 4
$T94440 = -512						; size = 4
$T94449 = -500						; size = 4
_str$ = -296						; size = 4
_ret$ = -284						; size = 4
_buf$ = -272						; size = 250
__$ArrayPad$ = -16					; size = 4
__$EHRec$ = -12						; size = 12
__$ReturnAddr$ = 4					; size = 4
___$ReturnUdt$ = 8					; size = 4
_p$ = 12						; size = 4
_one$ = 16						; size = 4
?MakeName@@YA?AV?$CStringT@GV?$StrTraitMFC@GV?$ChTraitsCRT@G@ATL@@@@@ATL@@PADH@Z PROC NEAR ; MakeName, COMDAT

; 22   : {

	push	ebp
	mov	ebp, esp
	push	-1
	push	__ehhandler$?MakeName@@YA?AV?$CStringT@GV?$StrTraitMFC@GV?$ChTraitsCRT@G@ATL@@@@@ATL@@PADH@Z
	mov	eax, DWORD PTR fs:__except_list
	push	eax
	mov	DWORD PTR fs:__except_list, esp
	sub	esp, 576				; 00000240H
	push	ebx
	push	esi
	push	edi
	lea	edi, DWORD PTR [ebp-588]
	mov	ecx, 144				; 00000090H
	mov	eax, -858993460				; ccccccccH
	rep stosd
	mov	eax, DWORD PTR ___security_cookie
	mov	DWORD PTR __$ArrayPad$[ebp], eax
	mov	DWORD PTR $T94449[ebp], 0

; 23   :   char buf[250];
; 24   :   CString ret, str;

	lea	ecx, DWORD PTR _ret$[ebp]
	call	??0?$CStringT@GV?$StrTraitMFC@GV?$ChTraitsCRT@G@ATL@@@@@ATL@@QAE@XZ ; ATL::CStringT<unsigned short,StrTraitMFC<unsigned short,ATL::ChTraitsCRT<unsigned short> > >::CStringT<unsigned short,StrTraitMFC<unsigned short,ATL::ChTraitsCRT<unsigned short> > >
	mov	DWORD PTR __$EHRec$[ebp+8], 0
	lea	ecx, DWORD PTR _str$[ebp]
	call	??0?$CStringT@GV?$StrTraitMFC@GV?$ChTraitsCRT@G@ATL@@@@@ATL@@QAE@XZ ; ATL::CStringT<unsigned short,StrTraitMFC<unsigned short,ATL::ChTraitsCRT<unsigned short> > >::CStringT<unsigned short,StrTraitMFC<unsigned short,ATL::ChTraitsCRT<unsigned short> > >
	mov	BYTE PTR __$EHRec$[ebp+8], 1

; 25   : #ifndef TBT32
; 26   :   str= theDirectories.getMain();
; 27   : #else
; 28   :   str = getcwd(buf,249);

	push	249					; 000000f9H
	lea	eax, DWORD PTR _buf$[ebp]
	push	eax
	call	_getcwd
	add	esp, 8
	push	eax
	lea	ecx, DWORD PTR _str$[ebp]
	call	??4?$CStringT@GV?$StrTraitMFC@GV?$ChTraitsCRT@G@ATL@@@@@ATL@@QAEAAV01@PBD@Z ; ATL::CStringT<unsigned short,StrTraitMFC<unsigned short,ATL::ChTraitsCRT<unsigned short> > >::operator=

; 29   : #endif
; 30   :   if ( str[str.GetLength()-1] != '\\' )

	lea	ecx, DWORD PTR _str$[ebp]
	call	?GetLength@?$CSimpleStringT@G$0A@@ATL@@QBEHXZ ; ATL::CSimpleStringT<unsigned short,0>::GetLength
	sub	eax, 1
	push	eax
	lea	ecx, DWORD PTR _str$[ebp]
	call	??A?$CSimpleStringT@G$0A@@ATL@@QBEGH@Z	; ATL::CSimpleStringT<unsigned short,0>::operator[]
	movzx	eax, ax
	cmp	eax, 92					; 0000005cH
	je	SHORT $L93315

; 31   : 	  str += "\\";

	push	OFFSET FLAT:??_C@_01KICIPPFI@?2?$AA@
	lea	ecx, DWORD PTR _str$[ebp]
	call	??Y?$CStringT@GV?$StrTraitMFC@GV?$ChTraitsCRT@G@ATL@@@@@ATL@@QAEAAV01@PBD@Z ; ATL::CStringT<unsigned short,StrTraitMFC<unsigned short,ATL::ChTraitsCRT<unsigned short> > >::operator+=
$L93315:

; 32   :   str += p;

	mov	eax, DWORD PTR _p$[ebp]
	push	eax
	lea	ecx, DWORD PTR _str$[ebp]
	call	??Y?$CStringT@GV?$StrTraitMFC@GV?$ChTraitsCRT@G@ATL@@@@@ATL@@QAEAAV01@PBD@Z ; ATL::CStringT<unsigned short,StrTraitMFC<unsigned short,ATL::ChTraitsCRT<unsigned short> > >::operator+=

; 33   :   if ( !one )

	cmp	DWORD PTR _one$[ebp], 0
	jne	$L93317

; 34   :     ret = str + ".tlx," + str + "2.clx";

	push	OFFSET FLAT:??_C@_05PGMGPAMI@2?4clx?$AA@
	lea	ecx, DWORD PTR $T94436[ebp]
	call	??0?$CStringT@GV?$StrTraitMFC@GV?$ChTraitsCRT@G@ATL@@@@@ATL@@QAE@PBD@Z ; ATL::CStringT<unsigned short,StrTraitMFC<unsigned short,ATL::ChTraitsCRT<unsigned short> > >::CStringT<unsigned short,StrTraitMFC<unsigned short,ATL::ChTraitsCRT<unsigned short> > >
	mov	BYTE PTR __$EHRec$[ebp+8], 2
	push	OFFSET FLAT:??_C@_05GNOKGGOI@?4tlx?0?$AA@
	lea	ecx, DWORD PTR $T94437[ebp]
	call	??0?$CStringT@GV?$StrTraitMFC@GV?$ChTraitsCRT@G@ATL@@@@@ATL@@QAE@PBD@Z ; ATL::CStringT<unsigned short,StrTraitMFC<unsigned short,ATL::ChTraitsCRT<unsigned short> > >::CStringT<unsigned short,StrTraitMFC<unsigned short,ATL::ChTraitsCRT<unsigned short> > >
	mov	BYTE PTR __$EHRec$[ebp+8], 3
	lea	eax, DWORD PTR $T94437[ebp]
	push	eax
	lea	ecx, DWORD PTR _str$[ebp]
	push	ecx
	lea	edx, DWORD PTR $T94438[ebp]
	push	edx
	call	??HATL@@YA?AV?$CStringT@GV?$StrTraitMFC@GV?$ChTraitsCRT@G@ATL@@@@@0@ABV10@0@Z ; ATL::operator+
	add	esp, 12					; 0000000cH
	mov	DWORD PTR tv132[ebp], eax
	mov	eax, DWORD PTR tv132[ebp]
	mov	DWORD PTR tv159[ebp], eax
	mov	BYTE PTR __$EHRec$[ebp+8], 4
	lea	ecx, DWORD PTR _str$[ebp]
	push	ecx
	mov	edx, DWORD PTR tv159[ebp]
	push	edx
	lea	eax, DWORD PTR $T94439[ebp]
	push	eax
	call	??HATL@@YA?AV?$CStringT@GV?$StrTraitMFC@GV?$ChTraitsCRT@G@ATL@@@@@0@ABV10@0@Z ; ATL::operator+
	add	esp, 12					; 0000000cH
	mov	DWORD PTR tv92[ebp], eax
	mov	ecx, DWORD PTR tv92[ebp]
	mov	DWORD PTR tv161[ebp], ecx
	mov	BYTE PTR __$EHRec$[ebp+8], 5
	lea	edx, DWORD PTR $T94436[ebp]
	push	edx
	mov	eax, DWORD PTR tv161[ebp]
	push	eax
	lea	ecx, DWORD PTR $T94440[ebp]
	push	ecx
	call	??HATL@@YA?AV?$CStringT@GV?$StrTraitMFC@GV?$ChTraitsCRT@G@ATL@@@@@0@ABV10@0@Z ; ATL::operator+
	add	esp, 12					; 0000000cH
	mov	DWORD PTR tv68[ebp], eax
	mov	edx, DWORD PTR tv68[ebp]
	mov	DWORD PTR tv163[ebp], edx
	mov	BYTE PTR __$EHRec$[ebp+8], 6
	mov	eax, DWORD PTR tv163[ebp]
	push	eax
	lea	ecx, DWORD PTR _ret$[ebp]
	call	??4?$CStringT@GV?$StrTraitMFC@GV?$ChTraitsCRT@G@ATL@@@@@ATL@@QAEAAV01@ABV01@@Z ; ATL::CStringT<unsigned short,StrTraitMFC<unsigned short,ATL::ChTraitsCRT<unsigned short> > >::operator=
	mov	BYTE PTR __$EHRec$[ebp+8], 5
	lea	ecx, DWORD PTR $T94440[ebp]
	call	??1?$CStringT@GV?$StrTraitMFC@GV?$ChTraitsCRT@G@ATL@@@@@ATL@@QAE@XZ ; ATL::CStringT<unsigned short,StrTraitMFC<unsigned short,ATL::ChTraitsCRT<unsigned short> > >::~CStringT<unsigned short,StrTraitMFC<unsigned short,ATL::ChTraitsCRT<unsigned short> > >
	mov	BYTE PTR __$EHRec$[ebp+8], 4
	lea	ecx, DWORD PTR $T94439[ebp]
	call	??1?$CStringT@GV?$StrTraitMFC@GV?$ChTraitsCRT@G@ATL@@@@@ATL@@QAE@XZ ; ATL::CStringT<unsigned short,StrTraitMFC<unsigned short,ATL::ChTraitsCRT<unsigned short> > >::~CStringT<unsigned short,StrTraitMFC<unsigned short,ATL::ChTraitsCRT<unsigned short> > >
	mov	BYTE PTR __$EHRec$[ebp+8], 3
	lea	ecx, DWORD PTR $T94438[ebp]
	call	??1?$CStringT@GV?$StrTraitMFC@GV?$ChTraitsCRT@G@ATL@@@@@ATL@@QAE@XZ ; ATL::CStringT<unsigned short,StrTraitMFC<unsigned short,ATL::ChTraitsCRT<unsigned short> > >::~CStringT<unsigned short,StrTraitMFC<unsigned short,ATL::ChTraitsCRT<unsigned short> > >
	mov	BYTE PTR __$EHRec$[ebp+8], 2
	lea	ecx, DWORD PTR $T94437[ebp]
	call	??1?$CStringT@GV?$StrTraitMFC@GV?$ChTraitsCRT@G@ATL@@@@@ATL@@QAE@XZ ; ATL::CStringT<unsigned short,StrTraitMFC<unsigned short,ATL::ChTraitsCRT<unsigned short> > >::~CStringT<unsigned short,StrTraitMFC<unsigned short,ATL::ChTraitsCRT<unsigned short> > >
	mov	BYTE PTR __$EHRec$[ebp+8], 1
	lea	ecx, DWORD PTR $T94436[ebp]
	call	??1?$CStringT@GV?$StrTraitMFC@GV?$ChTraitsCRT@G@ATL@@@@@ATL@@QAE@XZ ; ATL::CStringT<unsigned short,StrTraitMFC<unsigned short,ATL::ChTraitsCRT<unsigned short> > >::~CStringT<unsigned short,StrTraitMFC<unsigned short,ATL::ChTraitsCRT<unsigned short> > >

; 35   :   else

	jmp	SHORT $L93328
$L93317:

; 36   :     ret = str;

	lea	eax, DWORD PTR _str$[ebp]
	push	eax
	lea	ecx, DWORD PTR _ret$[ebp]
	call	??4?$CStringT@GV?$StrTraitMFC@GV?$ChTraitsCRT@G@ATL@@@@@ATL@@QAEAAV01@ABV01@@Z ; ATL::CStringT<unsigned short,StrTraitMFC<unsigned short,ATL::ChTraitsCRT<unsigned short> > >::operator=
$L93328:

; 37   :   return( ret );

	lea	eax, DWORD PTR _ret$[ebp]
	push	eax
	mov	ecx, DWORD PTR ___$ReturnUdt$[ebp]
	call	??0?$CStringT@GV?$StrTraitMFC@GV?$ChTraitsCRT@G@ATL@@@@@ATL@@QAE@ABV01@@Z ; ATL::CStringT<unsigned short,StrTraitMFC<unsigned short,ATL::ChTraitsCRT<unsigned short> > >::CStringT<unsigned short,StrTraitMFC<unsigned short,ATL::ChTraitsCRT<unsigned short> > >
	mov	ecx, DWORD PTR $T94449[ebp]
	or	ecx, 1
	mov	DWORD PTR $T94449[ebp], ecx
	mov	BYTE PTR __$EHRec$[ebp+8], 0
	lea	ecx, DWORD PTR _str$[ebp]
	call	??1?$CStringT@GV?$StrTraitMFC@GV?$ChTraitsCRT@G@ATL@@@@@ATL@@QAE@XZ ; ATL::CStringT<unsigned short,StrTraitMFC<unsigned short,ATL::ChTraitsCRT<unsigned short> > >::~CStringT<unsigned short,StrTraitMFC<unsigned short,ATL::ChTraitsCRT<unsigned short> > >
	mov	DWORD PTR __$EHRec$[ebp+8], -1
	lea	ecx, DWORD PTR _ret$[ebp]
	call	??1?$CStringT@GV?$StrTraitMFC@GV?$ChTraitsCRT@G@ATL@@@@@ATL@@QAE@XZ ; ATL::CStringT<unsigned short,StrTraitMFC<unsigned short,ATL::ChTraitsCRT<unsigned short> > >::~CStringT<unsigned short,StrTraitMFC<unsigned short,ATL::ChTraitsCRT<unsigned short> > >
	mov	eax, DWORD PTR ___$ReturnUdt$[ebp]

; 38   : }

	push	edx
	mov	ecx, ebp
	push	eax
	lea	edx, DWORD PTR $L94460
	call	@_RTC_CheckStackVars@8
	pop	eax
	pop	edx
	mov	ecx, DWORD PTR __$EHRec$[ebp]
	mov	DWORD PTR fs:__except_list, ecx
	mov	ecx, DWORD PTR __$ArrayPad$[ebp]
	call	@__security_check_cookie@4
	pop	edi
	pop	esi
	pop	ebx
	add	esp, 588				; 0000024cH
	cmp	ebp, esp
	call	__RTC_CheckEsp
	mov	esp, ebp
	pop	ebp
	ret	0
$L94460:
	DD	3
	DD	$L94459
$L94459:
	DD	-272					; fffffef0H
	DD	250					; 000000faH
	DD	$L94453
	DD	-284					; fffffee4H
	DD	4
	DD	$L94454
	DD	-296					; fffffed8H
	DD	4
	DD	$L94455
$L94455:
	DB	115					; 00000073H
	DB	116					; 00000074H
	DB	114					; 00000072H
	DB	0
$L94454:
	DB	114					; 00000072H
	DB	101					; 00000065H
	DB	116					; 00000074H
	DB	0
$L94453:
	DB	98					; 00000062H
	DB	117					; 00000075H
	DB	102					; 00000066H
	DB	0
_TEXT	ENDS
;	COMDAT text$x
text$x	SEGMENT
__unwindfunclet$?MakeName@@YA?AV?$CStringT@GV?$StrTraitMFC@GV?$ChTraitsCRT@G@ATL@@@@@ATL@@PADH@Z$0:
	lea	ecx, DWORD PTR _ret$[ebp]
	jmp	??1?$CStringT@GV?$StrTraitMFC@GV?$ChTraitsCRT@G@ATL@@@@@ATL@@QAE@XZ ; ATL::CStringT<unsigned short,StrTraitMFC<unsigned short,ATL::ChTraitsCRT<unsigned short> > >::~CStringT<unsigned short,StrTraitMFC<unsigned short,ATL::ChTraitsCRT<unsigned short> > >
__unwindfunclet$?MakeName@@YA?AV?$CStringT@GV?$StrTraitMFC@GV?$ChTraitsCRT@G@ATL@@@@@ATL@@PADH@Z$1:
	lea	ecx, DWORD PTR _str$[ebp]
	jmp	??1?$CStringT@GV?$StrTraitMFC@GV?$ChTraitsCRT@G@ATL@@@@@ATL@@QAE@XZ ; ATL::CStringT<unsigned short,StrTraitMFC<unsigned short,ATL::ChTraitsCRT<unsigned short> > >::~CStringT<unsigned short,StrTraitMFC<unsigned short,ATL::ChTraitsCRT<unsigned short> > >
__unwindfunclet$?MakeName@@YA?AV?$CStringT@GV?$StrTraitMFC@GV?$ChTraitsCRT@G@ATL@@@@@ATL@@PADH@Z$2:
	lea	ecx, DWORD PTR $T94436[ebp]
	jmp	??1?$CStringT@GV?$StrTraitMFC@GV?$ChTraitsCRT@G@ATL@@@@@ATL@@QAE@XZ ; ATL::CStringT<unsigned short,StrTraitMFC<unsigned short,ATL::ChTraitsCRT<unsigned short> > >::~CStringT<unsigned short,StrTraitMFC<unsigned short,ATL::ChTraitsCRT<unsigned short> > >
__unwindfunclet$?MakeName@@YA?AV?$CStringT@GV?$StrTraitMFC@GV?$ChTraitsCRT@G@ATL@@@@@ATL@@PADH@Z$3:
	lea	ecx, DWORD PTR $T94437[ebp]
	jmp	??1?$CStringT@GV?$StrTraitMFC@GV?$ChTraitsCRT@G@ATL@@@@@ATL@@QAE@XZ ; ATL::CStringT<unsigned short,StrTraitMFC<unsigned short,ATL::ChTraitsCRT<unsigned short> > >::~CStringT<unsigned short,StrTraitMFC<unsigned short,ATL::ChTraitsCRT<unsigned short> > >
__unwindfunclet$?MakeName@@YA?AV?$CStringT@GV?$StrTraitMFC@GV?$ChTraitsCRT@G@ATL@@@@@ATL@@PADH@Z$4:
	lea	ecx, DWORD PTR $T94438[ebp]
	jmp	??1?$CStringT@GV?$StrTraitMFC@GV?$ChTraitsCRT@G@ATL@@@@@ATL@@QAE@XZ ; ATL::CStringT<unsigned short,StrTraitMFC<unsigned short,ATL::ChTraitsCRT<unsigned short> > >::~CStringT<unsigned short,StrTraitMFC<unsigned short,ATL::ChTraitsCRT<unsigned short> > >
__unwindfunclet$?MakeName@@YA?AV?$CStringT@GV?$StrTraitMFC@GV?$ChTraitsCRT@G@ATL@@@@@ATL@@PADH@Z$5:
	lea	ecx, DWORD PTR $T94439[ebp]
	jmp	??1?$CStringT@GV?$StrTraitMFC@GV?$ChTraitsCRT@G@ATL@@@@@ATL@@QAE@XZ ; ATL::CStringT<unsigned short,StrTraitMFC<unsigned short,ATL::ChTraitsCRT<unsigned short> > >::~CStringT<unsigned short,StrTraitMFC<unsigned short,ATL::ChTraitsCRT<unsigned short> > >
__unwindfunclet$?MakeName@@YA?AV?$CStringT@GV?$StrTraitMFC@GV?$ChTraitsCRT@G@ATL@@@@@ATL@@PADH@Z$6:
	lea	ecx, DWORD PTR $T94440[ebp]
	jmp	??1?$CStringT@GV?$StrTraitMFC@GV?$ChTraitsCRT@G@ATL@@@@@ATL@@QAE@XZ ; ATL::CStringT<unsigned short,StrTraitMFC<unsigned short,ATL::ChTraitsCRT<unsigned short> > >::~CStringT<unsigned short,StrTraitMFC<unsigned short,ATL::ChTraitsCRT<unsigned short> > >
__ehhandler$?MakeName@@YA?AV?$CStringT@GV?$StrTraitMFC@GV?$ChTraitsCRT@G@ATL@@@@@ATL@@PADH@Z:
	mov	eax, OFFSET FLAT:__ehfuncinfo$?MakeName@@YA?AV?$CStringT@GV?$StrTraitMFC@GV?$ChTraitsCRT@G@ATL@@@@@ATL@@PADH@Z
	jmp	___CxxFrameHandler
text$x	ENDS
?MakeName@@YA?AV?$CStringT@GV?$StrTraitMFC@GV?$ChTraitsCRT@G@ATL@@@@@ATL@@PADH@Z ENDP ; MakeName
PUBLIC	?MakeDics@@YA?AV?$CStringT@GV?$StrTraitMFC@GV?$ChTraitsCRT@G@ATL@@@@@ATL@@XZ ; MakeDics
PUBLIC	??_C@_06HJIJCLAJ@ssceam?$AA@			; `string'
PUBLIC	??_C@_01IHBHIGKO@?0?$AA@			; `string'
PUBLIC	??_C@_06NGLILAGL@ssceca?$AA@			; `string'
PUBLIC	??_C@_06LGJFJLMO@sscebr?$AA@			; `string'
PUBLIC	??_C@_0L@HIGENLHL@accent?4clx?$AA@		; `string'
PUBLIC	??_C@_0M@HHIMOECC@correct?4clx?$AA@		; `string'
PUBLIC	??_C@_08EOMMGLAM@tech?4tlx?$AA@			; `string'
PUBLIC	??Y?$CStringT@GV?$StrTraitMFC@GV?$ChTraitsCRT@G@ATL@@@@@ATL@@QAEAAV01@ABV?$CSimpleStringT@G$0A@@1@@Z ; ATL::CStringT<unsigned short,StrTraitMFC<unsigned short,ATL::ChTraitsCRT<unsigned short> > >::operator+=
;	COMDAT xdata$x
xdata$x	SEGMENT
__unwindtable$?MakeDics@@YA?AV?$CStringT@GV?$StrTraitMFC@GV?$ChTraitsCRT@G@ATL@@@@@ATL@@XZ DD 0ffffffffH
	DD	FLAT:__unwindfunclet$?MakeDics@@YA?AV?$CStringT@GV?$StrTraitMFC@GV?$ChTraitsCRT@G@ATL@@@@@ATL@@XZ$0
	DD	00H
	DD	FLAT:__unwindfunclet$?MakeDics@@YA?AV?$CStringT@GV?$StrTraitMFC@GV?$ChTraitsCRT@G@ATL@@@@@ATL@@XZ$1
	DD	00H
	DD	FLAT:__unwindfunclet$?MakeDics@@YA?AV?$CStringT@GV?$StrTraitMFC@GV?$ChTraitsCRT@G@ATL@@@@@ATL@@XZ$2
	DD	00H
	DD	FLAT:__unwindfunclet$?MakeDics@@YA?AV?$CStringT@GV?$StrTraitMFC@GV?$ChTraitsCRT@G@ATL@@@@@ATL@@XZ$3
	DD	00H
	DD	FLAT:__unwindfunclet$?MakeDics@@YA?AV?$CStringT@GV?$StrTraitMFC@GV?$ChTraitsCRT@G@ATL@@@@@ATL@@XZ$4
	DD	00H
	DD	FLAT:__unwindfunclet$?MakeDics@@YA?AV?$CStringT@GV?$StrTraitMFC@GV?$ChTraitsCRT@G@ATL@@@@@ATL@@XZ$5
	DD	00H
	DD	FLAT:__unwindfunclet$?MakeDics@@YA?AV?$CStringT@GV?$StrTraitMFC@GV?$ChTraitsCRT@G@ATL@@@@@ATL@@XZ$6
__ehfuncinfo$?MakeDics@@YA?AV?$CStringT@GV?$StrTraitMFC@GV?$ChTraitsCRT@G@ATL@@@@@ATL@@XZ DD 019930520H
	DD	07H
	DD	FLAT:__unwindtable$?MakeDics@@YA?AV?$CStringT@GV?$StrTraitMFC@GV?$ChTraitsCRT@G@ATL@@@@@ATL@@XZ
	DD	2 DUP(00H)
	DD	2 DUP(00H)
xdata$x	ENDS
;	COMDAT ??_C@_06HJIJCLAJ@ssceam?$AA@
CONST	SEGMENT
??_C@_06HJIJCLAJ@ssceam?$AA@ DB 'ssceam', 00H		; `string'
CONST	ENDS
;	COMDAT ??_C@_01IHBHIGKO@?0?$AA@
CONST	SEGMENT
??_C@_01IHBHIGKO@?0?$AA@ DB ',', 00H			; `string'
CONST	ENDS
;	COMDAT ??_C@_06NGLILAGL@ssceca?$AA@
CONST	SEGMENT
??_C@_06NGLILAGL@ssceca?$AA@ DB 'ssceca', 00H		; `string'
CONST	ENDS
;	COMDAT ??_C@_06LGJFJLMO@sscebr?$AA@
CONST	SEGMENT
??_C@_06LGJFJLMO@sscebr?$AA@ DB 'sscebr', 00H		; `string'
CONST	ENDS
;	COMDAT ??_C@_0L@HIGENLHL@accent?4clx?$AA@
CONST	SEGMENT
??_C@_0L@HIGENLHL@accent?4clx?$AA@ DB 'accent.clx', 00H	; `string'
CONST	ENDS
;	COMDAT ??_C@_0M@HHIMOECC@correct?4clx?$AA@
CONST	SEGMENT
??_C@_0M@HHIMOECC@correct?4clx?$AA@ DB 'correct.clx', 00H ; `string'
CONST	ENDS
;	COMDAT ??_C@_08EOMMGLAM@tech?4tlx?$AA@
CONST	SEGMENT
??_C@_08EOMMGLAM@tech?4tlx?$AA@ DB 'tech.tlx', 00H	; `string'
; Function compile flags: /Odt /RTCcsu /ZI
CONST	ENDS
;	COMDAT ?MakeDics@@YA?AV?$CStringT@GV?$StrTraitMFC@GV?$ChTraitsCRT@G@ATL@@@@@ATL@@XZ
_TEXT	SEGMENT
tv173 = -308						; size = 4
tv171 = -308						; size = 4
tv169 = -308						; size = 4
tv167 = -308						; size = 4
tv165 = -308						; size = 4
tv163 = -308						; size = 4
tv182 = -304						; size = 4
tv181 = -304						; size = 4
tv180 = -304						; size = 4
tv179 = -304						; size = 4
tv158 = -304						; size = 4
tv65 = -304						; size = 4
$T94468 = -296						; size = 4
$T94469 = -284						; size = 4
$T94470 = -272						; size = 4
$T94471 = -260						; size = 4
$T94472 = -248						; size = 4
$T94473 = -236						; size = 4
$T94482 = -224						; size = 4
_dirs$ = -20						; size = 4
__$EHRec$ = -12						; size = 12
___$ReturnUdt$ = 8					; size = 4
?MakeDics@@YA?AV?$CStringT@GV?$StrTraitMFC@GV?$ChTraitsCRT@G@ATL@@@@@ATL@@XZ PROC NEAR ; MakeDics, COMDAT

; 41   : {

	push	ebp
	mov	ebp, esp
	push	-1
	push	__ehhandler$?MakeDics@@YA?AV?$CStringT@GV?$StrTraitMFC@GV?$ChTraitsCRT@G@ATL@@@@@ATL@@XZ
	mov	eax, DWORD PTR fs:__except_list
	push	eax
	mov	DWORD PTR fs:__except_list, esp
	sub	esp, 296				; 00000128H
	push	ebx
	push	esi
	push	edi
	lea	edi, DWORD PTR [ebp-308]
	mov	ecx, 74					; 0000004aH
	mov	eax, -858993460				; ccccccccH
	rep stosd
	mov	DWORD PTR $T94482[ebp], 0

; 42   :  CString dirs;

	lea	ecx, DWORD PTR _dirs$[ebp]
	call	??0?$CStringT@GV?$StrTraitMFC@GV?$ChTraitsCRT@G@ATL@@@@@ATL@@QAE@XZ ; ATL::CStringT<unsigned short,StrTraitMFC<unsigned short,ATL::ChTraitsCRT<unsigned short> > >::CStringT<unsigned short,StrTraitMFC<unsigned short,ATL::ChTraitsCRT<unsigned short> > >
	mov	DWORD PTR __$EHRec$[ebp+8], 0

; 43   : 
; 44   :  dirs = MakeName("ssceam",0);

	push	0
	push	OFFSET FLAT:??_C@_06HJIJCLAJ@ssceam?$AA@
	lea	eax, DWORD PTR $T94468[ebp]
	push	eax
	call	?MakeName@@YA?AV?$CStringT@GV?$StrTraitMFC@GV?$ChTraitsCRT@G@ATL@@@@@ATL@@PADH@Z ; MakeName
	add	esp, 12					; 0000000cH
	mov	DWORD PTR tv65[ebp], eax
	mov	ecx, DWORD PTR tv65[ebp]
	mov	DWORD PTR tv163[ebp], ecx
	mov	BYTE PTR __$EHRec$[ebp+8], 1
	mov	edx, DWORD PTR tv163[ebp]
	push	edx
	lea	ecx, DWORD PTR _dirs$[ebp]
	call	??4?$CStringT@GV?$StrTraitMFC@GV?$ChTraitsCRT@G@ATL@@@@@ATL@@QAEAAV01@ABV01@@Z ; ATL::CStringT<unsigned short,StrTraitMFC<unsigned short,ATL::ChTraitsCRT<unsigned short> > >::operator=
	mov	BYTE PTR __$EHRec$[ebp+8], 0
	lea	ecx, DWORD PTR $T94468[ebp]
	call	??1?$CStringT@GV?$StrTraitMFC@GV?$ChTraitsCRT@G@ATL@@@@@ATL@@QAE@XZ ; ATL::CStringT<unsigned short,StrTraitMFC<unsigned short,ATL::ChTraitsCRT<unsigned short> > >::~CStringT<unsigned short,StrTraitMFC<unsigned short,ATL::ChTraitsCRT<unsigned short> > >

; 45   :  dirs += ",";

	push	OFFSET FLAT:??_C@_01IHBHIGKO@?0?$AA@
	lea	ecx, DWORD PTR _dirs$[ebp]
	call	??Y?$CStringT@GV?$StrTraitMFC@GV?$ChTraitsCRT@G@ATL@@@@@ATL@@QAEAAV01@PBD@Z ; ATL::CStringT<unsigned short,StrTraitMFC<unsigned short,ATL::ChTraitsCRT<unsigned short> > >::operator+=

; 46   :  dirs += MakeName("ssceca",0);

	push	0
	push	OFFSET FLAT:??_C@_06NGLILAGL@ssceca?$AA@
	lea	eax, DWORD PTR $T94469[ebp]
	push	eax
	call	?MakeName@@YA?AV?$CStringT@GV?$StrTraitMFC@GV?$ChTraitsCRT@G@ATL@@@@@ATL@@PADH@Z ; MakeName
	add	esp, 12					; 0000000cH
	mov	DWORD PTR tv158[ebp], eax
	mov	ecx, DWORD PTR tv158[ebp]
	mov	DWORD PTR tv165[ebp], ecx
	mov	BYTE PTR __$EHRec$[ebp+8], 2
	mov	edx, DWORD PTR tv165[ebp]
	push	edx
	lea	ecx, DWORD PTR _dirs$[ebp]
	call	??Y?$CStringT@GV?$StrTraitMFC@GV?$ChTraitsCRT@G@ATL@@@@@ATL@@QAEAAV01@ABV?$CSimpleStringT@G$0A@@1@@Z ; ATL::CStringT<unsigned short,StrTraitMFC<unsigned short,ATL::ChTraitsCRT<unsigned short> > >::operator+=
	mov	BYTE PTR __$EHRec$[ebp+8], 0
	lea	ecx, DWORD PTR $T94469[ebp]
	call	??1?$CStringT@GV?$StrTraitMFC@GV?$ChTraitsCRT@G@ATL@@@@@ATL@@QAE@XZ ; ATL::CStringT<unsigned short,StrTraitMFC<unsigned short,ATL::ChTraitsCRT<unsigned short> > >::~CStringT<unsigned short,StrTraitMFC<unsigned short,ATL::ChTraitsCRT<unsigned short> > >

; 47   :  dirs += ",";

	push	OFFSET FLAT:??_C@_01IHBHIGKO@?0?$AA@
	lea	ecx, DWORD PTR _dirs$[ebp]
	call	??Y?$CStringT@GV?$StrTraitMFC@GV?$ChTraitsCRT@G@ATL@@@@@ATL@@QAEAAV01@PBD@Z ; ATL::CStringT<unsigned short,StrTraitMFC<unsigned short,ATL::ChTraitsCRT<unsigned short> > >::operator+=

; 48   :  dirs += MakeName("sscebr",0);

	push	0
	push	OFFSET FLAT:??_C@_06LGJFJLMO@sscebr?$AA@
	lea	eax, DWORD PTR $T94470[ebp]
	push	eax
	call	?MakeName@@YA?AV?$CStringT@GV?$StrTraitMFC@GV?$ChTraitsCRT@G@ATL@@@@@ATL@@PADH@Z ; MakeName
	add	esp, 12					; 0000000cH
	mov	DWORD PTR tv179[ebp], eax
	mov	ecx, DWORD PTR tv179[ebp]
	mov	DWORD PTR tv167[ebp], ecx
	mov	BYTE PTR __$EHRec$[ebp+8], 3
	mov	edx, DWORD PTR tv167[ebp]
	push	edx
	lea	ecx, DWORD PTR _dirs$[ebp]
	call	??Y?$CStringT@GV?$StrTraitMFC@GV?$ChTraitsCRT@G@ATL@@@@@ATL@@QAEAAV01@ABV?$CSimpleStringT@G$0A@@1@@Z ; ATL::CStringT<unsigned short,StrTraitMFC<unsigned short,ATL::ChTraitsCRT<unsigned short> > >::operator+=
	mov	BYTE PTR __$EHRec$[ebp+8], 0
	lea	ecx, DWORD PTR $T94470[ebp]
	call	??1?$CStringT@GV?$StrTraitMFC@GV?$ChTraitsCRT@G@ATL@@@@@ATL@@QAE@XZ ; ATL::CStringT<unsigned short,StrTraitMFC<unsigned short,ATL::ChTraitsCRT<unsigned short> > >::~CStringT<unsigned short,StrTraitMFC<unsigned short,ATL::ChTraitsCRT<unsigned short> > >

; 49   :  dirs += ",";

	push	OFFSET FLAT:??_C@_01IHBHIGKO@?0?$AA@
	lea	ecx, DWORD PTR _dirs$[ebp]
	call	??Y?$CStringT@GV?$StrTraitMFC@GV?$ChTraitsCRT@G@ATL@@@@@ATL@@QAEAAV01@PBD@Z ; ATL::CStringT<unsigned short,StrTraitMFC<unsigned short,ATL::ChTraitsCRT<unsigned short> > >::operator+=

; 50   :  dirs += MakeName("accent.clx",1);

	push	1
	push	OFFSET FLAT:??_C@_0L@HIGENLHL@accent?4clx?$AA@
	lea	eax, DWORD PTR $T94471[ebp]
	push	eax
	call	?MakeName@@YA?AV?$CStringT@GV?$StrTraitMFC@GV?$ChTraitsCRT@G@ATL@@@@@ATL@@PADH@Z ; MakeName
	add	esp, 12					; 0000000cH
	mov	DWORD PTR tv180[ebp], eax
	mov	ecx, DWORD PTR tv180[ebp]
	mov	DWORD PTR tv169[ebp], ecx
	mov	BYTE PTR __$EHRec$[ebp+8], 4
	mov	edx, DWORD PTR tv169[ebp]
	push	edx
	lea	ecx, DWORD PTR _dirs$[ebp]
	call	??Y?$CStringT@GV?$StrTraitMFC@GV?$ChTraitsCRT@G@ATL@@@@@ATL@@QAEAAV01@ABV?$CSimpleStringT@G$0A@@1@@Z ; ATL::CStringT<unsigned short,StrTraitMFC<unsigned short,ATL::ChTraitsCRT<unsigned short> > >::operator+=
	mov	BYTE PTR __$EHRec$[ebp+8], 0
	lea	ecx, DWORD PTR $T94471[ebp]
	call	??1?$CStringT@GV?$StrTraitMFC@GV?$ChTraitsCRT@G@ATL@@@@@ATL@@QAE@XZ ; ATL::CStringT<unsigned short,StrTraitMFC<unsigned short,ATL::ChTraitsCRT<unsigned short> > >::~CStringT<unsigned short,StrTraitMFC<unsigned short,ATL::ChTraitsCRT<unsigned short> > >

; 51   :  dirs += ",";

	push	OFFSET FLAT:??_C@_01IHBHIGKO@?0?$AA@
	lea	ecx, DWORD PTR _dirs$[ebp]
	call	??Y?$CStringT@GV?$StrTraitMFC@GV?$ChTraitsCRT@G@ATL@@@@@ATL@@QAEAAV01@PBD@Z ; ATL::CStringT<unsigned short,StrTraitMFC<unsigned short,ATL::ChTraitsCRT<unsigned short> > >::operator+=

; 52   :  dirs += MakeName("correct.clx",1);

	push	1
	push	OFFSET FLAT:??_C@_0M@HHIMOECC@correct?4clx?$AA@
	lea	eax, DWORD PTR $T94472[ebp]
	push	eax
	call	?MakeName@@YA?AV?$CStringT@GV?$StrTraitMFC@GV?$ChTraitsCRT@G@ATL@@@@@ATL@@PADH@Z ; MakeName
	add	esp, 12					; 0000000cH
	mov	DWORD PTR tv181[ebp], eax
	mov	ecx, DWORD PTR tv181[ebp]
	mov	DWORD PTR tv171[ebp], ecx
	mov	BYTE PTR __$EHRec$[ebp+8], 5
	mov	edx, DWORD PTR tv171[ebp]
	push	edx
	lea	ecx, DWORD PTR _dirs$[ebp]
	call	??Y?$CStringT@GV?$StrTraitMFC@GV?$ChTraitsCRT@G@ATL@@@@@ATL@@QAEAAV01@ABV?$CSimpleStringT@G$0A@@1@@Z ; ATL::CStringT<unsigned short,StrTraitMFC<unsigned short,ATL::ChTraitsCRT<unsigned short> > >::operator+=
	mov	BYTE PTR __$EHRec$[ebp+8], 0
	lea	ecx, DWORD PTR $T94472[ebp]
	call	??1?$CStringT@GV?$StrTraitMFC@GV?$ChTraitsCRT@G@ATL@@@@@ATL@@QAE@XZ ; ATL::CStringT<unsigned short,StrTraitMFC<unsigned short,ATL::ChTraitsCRT<unsigned short> > >::~CStringT<unsigned short,StrTraitMFC<unsigned short,ATL::ChTraitsCRT<unsigned short> > >

; 53   :  dirs += ",";

	push	OFFSET FLAT:??_C@_01IHBHIGKO@?0?$AA@
	lea	ecx, DWORD PTR _dirs$[ebp]
	call	??Y?$CStringT@GV?$StrTraitMFC@GV?$ChTraitsCRT@G@ATL@@@@@ATL@@QAEAAV01@PBD@Z ; ATL::CStringT<unsigned short,StrTraitMFC<unsigned short,ATL::ChTraitsCRT<unsigned short> > >::operator+=

; 54   :  dirs += MakeName("tech.tlx",1);

	push	1
	push	OFFSET FLAT:??_C@_08EOMMGLAM@tech?4tlx?$AA@
	lea	eax, DWORD PTR $T94473[ebp]
	push	eax
	call	?MakeName@@YA?AV?$CStringT@GV?$StrTraitMFC@GV?$ChTraitsCRT@G@ATL@@@@@ATL@@PADH@Z ; MakeName
	add	esp, 12					; 0000000cH
	mov	DWORD PTR tv182[ebp], eax
	mov	ecx, DWORD PTR tv182[ebp]
	mov	DWORD PTR tv173[ebp], ecx
	mov	BYTE PTR __$EHRec$[ebp+8], 6
	mov	edx, DWORD PTR tv173[ebp]
	push	edx
	lea	ecx, DWORD PTR _dirs$[ebp]
	call	??Y?$CStringT@GV?$StrTraitMFC@GV?$ChTraitsCRT@G@ATL@@@@@ATL@@QAEAAV01@ABV?$CSimpleStringT@G$0A@@1@@Z ; ATL::CStringT<unsigned short,StrTraitMFC<unsigned short,ATL::ChTraitsCRT<unsigned short> > >::operator+=
	mov	BYTE PTR __$EHRec$[ebp+8], 0
	lea	ecx, DWORD PTR $T94473[ebp]
	call	??1?$CStringT@GV?$StrTraitMFC@GV?$ChTraitsCRT@G@ATL@@@@@ATL@@QAE@XZ ; ATL::CStringT<unsigned short,StrTraitMFC<unsigned short,ATL::ChTraitsCRT<unsigned short> > >::~CStringT<unsigned short,StrTraitMFC<unsigned short,ATL::ChTraitsCRT<unsigned short> > >

; 55   :  return(dirs);

	lea	eax, DWORD PTR _dirs$[ebp]
	push	eax
	mov	ecx, DWORD PTR ___$ReturnUdt$[ebp]
	call	??0?$CStringT@GV?$StrTraitMFC@GV?$ChTraitsCRT@G@ATL@@@@@ATL@@QAE@ABV01@@Z ; ATL::CStringT<unsigned short,StrTraitMFC<unsigned short,ATL::ChTraitsCRT<unsigned short> > >::CStringT<unsigned short,StrTraitMFC<unsigned short,ATL::ChTraitsCRT<unsigned short> > >
	mov	ecx, DWORD PTR $T94482[ebp]
	or	ecx, 1
	mov	DWORD PTR $T94482[ebp], ecx
	mov	DWORD PTR __$EHRec$[ebp+8], -1
	lea	ecx, DWORD PTR _dirs$[ebp]
	call	??1?$CStringT@GV?$StrTraitMFC@GV?$ChTraitsCRT@G@ATL@@@@@ATL@@QAE@XZ ; ATL::CStringT<unsigned short,StrTraitMFC<unsigned short,ATL::ChTraitsCRT<unsigned short> > >::~CStringT<unsigned short,StrTraitMFC<unsigned short,ATL::ChTraitsCRT<unsigned short> > >
	mov	eax, DWORD PTR ___$ReturnUdt$[ebp]

; 56   : }

	push	edx
	mov	ecx, ebp
	push	eax
	lea	edx, DWORD PTR $L94489
	call	@_RTC_CheckStackVars@8
	pop	eax
	pop	edx
	mov	ecx, DWORD PTR __$EHRec$[ebp]
	mov	DWORD PTR fs:__except_list, ecx
	pop	edi
	pop	esi
	pop	ebx
	add	esp, 308				; 00000134H
	cmp	ebp, esp
	call	__RTC_CheckEsp
	mov	esp, ebp
	pop	ebp
	ret	0
$L94489:
	DD	1
	DD	$L94488
$L94488:
	DD	-20					; ffffffecH
	DD	4
	DD	$L94486
$L94486:
	DB	100					; 00000064H
	DB	105					; 00000069H
	DB	114					; 00000072H
	DB	115					; 00000073H
	DB	0
_TEXT	ENDS
;	COMDAT text$x
text$x	SEGMENT
__unwindfunclet$?MakeDics@@YA?AV?$CStringT@GV?$StrTraitMFC@GV?$ChTraitsCRT@G@ATL@@@@@ATL@@XZ$0:
	lea	ecx, DWORD PTR _dirs$[ebp]
	jmp	??1?$CStringT@GV?$StrTraitMFC@GV?$ChTraitsCRT@G@ATL@@@@@ATL@@QAE@XZ ; ATL::CStringT<unsigned short,StrTraitMFC<unsigned short,ATL::ChTraitsCRT<unsigned short> > >::~CStringT<unsigned short,StrTraitMFC<unsigned short,ATL::ChTraitsCRT<unsigned short> > >
__unwindfunclet$?MakeDics@@YA?AV?$CStringT@GV?$StrTraitMFC@GV?$ChTraitsCRT@G@ATL@@@@@ATL@@XZ$1:
	lea	ecx, DWORD PTR $T94468[ebp]
	jmp	??1?$CStringT@GV?$StrTraitMFC@GV?$ChTraitsCRT@G@ATL@@@@@ATL@@QAE@XZ ; ATL::CStringT<unsigned short,StrTraitMFC<unsigned short,ATL::ChTraitsCRT<unsigned short> > >::~CStringT<unsigned short,StrTraitMFC<unsigned short,ATL::ChTraitsCRT<unsigned short> > >
__unwindfunclet$?MakeDics@@YA?AV?$CStringT@GV?$StrTraitMFC@GV?$ChTraitsCRT@G@ATL@@@@@ATL@@XZ$2:
	lea	ecx, DWORD PTR $T94469[ebp]
	jmp	??1?$CStringT@GV?$StrTraitMFC@GV?$ChTraitsCRT@G@ATL@@@@@ATL@@QAE@XZ ; ATL::CStringT<unsigned short,StrTraitMFC<unsigned short,ATL::ChTraitsCRT<unsigned short> > >::~CStringT<unsigned short,StrTraitMFC<unsigned short,ATL::ChTraitsCRT<unsigned short> > >
__unwindfunclet$?MakeDics@@YA?AV?$CStringT@GV?$StrTraitMFC@GV?$ChTraitsCRT@G@ATL@@@@@ATL@@XZ$3:
	lea	ecx, DWORD PTR $T94470[ebp]
	jmp	??1?$CStringT@GV?$StrTraitMFC@GV?$ChTraitsCRT@G@ATL@@@@@ATL@@QAE@XZ ; ATL::CStringT<unsigned short,StrTraitMFC<unsigned short,ATL::ChTraitsCRT<unsigned short> > >::~CStringT<unsigned short,StrTraitMFC<unsigned short,ATL::ChTraitsCRT<unsigned short> > >
__unwindfunclet$?MakeDics@@YA?AV?$CStringT@GV?$StrTraitMFC@GV?$ChTraitsCRT@G@ATL@@@@@ATL@@XZ$4:
	lea	ecx, DWORD PTR $T94471[ebp]
	jmp	??1?$CStringT@GV?$StrTraitMFC@GV?$ChTraitsCRT@G@ATL@@@@@ATL@@QAE@XZ ; ATL::CStringT<unsigned short,StrTraitMFC<unsigned short,ATL::ChTraitsCRT<unsigned short> > >::~CStringT<unsigned short,StrTraitMFC<unsigned short,ATL::ChTraitsCRT<unsigned short> > >
__unwindfunclet$?MakeDics@@YA?AV?$CStringT@GV?$StrTraitMFC@GV?$ChTraitsCRT@G@ATL@@@@@ATL@@XZ$5:
	lea	ecx, DWORD PTR $T94472[ebp]
	jmp	??1?$CStringT@GV?$StrTraitMFC@GV?$ChTraitsCRT@G@ATL@@@@@ATL@@QAE@XZ ; ATL::CStringT<unsigned short,StrTraitMFC<unsigned short,ATL::ChTraitsCRT<unsigned short> > >::~CStringT<unsigned short,StrTraitMFC<unsigned short,ATL::ChTraitsCRT<unsigned short> > >
__unwindfunclet$?MakeDics@@YA?AV?$CStringT@GV?$StrTraitMFC@GV?$ChTraitsCRT@G@ATL@@@@@ATL@@XZ$6:
	lea	ecx, DWORD PTR $T94473[ebp]
	jmp	??1?$CStringT@GV?$StrTraitMFC@GV?$ChTraitsCRT@G@ATL@@@@@ATL@@QAE@XZ ; ATL::CStringT<unsigned short,StrTraitMFC<unsigned short,ATL::ChTraitsCRT<unsigned short> > >::~CStringT<unsigned short,StrTraitMFC<unsigned short,ATL::ChTraitsCRT<unsigned short> > >
__ehhandler$?MakeDics@@YA?AV?$CStringT@GV?$StrTraitMFC@GV?$ChTraitsCRT@G@ATL@@@@@ATL@@XZ:
	mov	eax, OFFSET FLAT:__ehfuncinfo$?MakeDics@@YA?AV?$CStringT@GV?$StrTraitMFC@GV?$ChTraitsCRT@G@ATL@@@@@ATL@@XZ
	jmp	___CxxFrameHandler
text$x	ENDS
?MakeDics@@YA?AV?$CStringT@GV?$StrTraitMFC@GV?$ChTraitsCRT@G@ATL@@@@@ATL@@XZ ENDP ; MakeDics
PUBLIC	?GetSuggestionCount@CWSpell@@QAEFXZ		; CWSpell::GetSuggestionCount
EXTRN	?GetProperty@CWnd@@QBEXJGPAX@Z:NEAR		; CWnd::GetProperty
; Function compile flags: /Odt /RTCcsu /ZI
;	COMDAT ?GetSuggestionCount@CWSpell@@QAEFXZ
_TEXT	SEGMENT
_result$ = -20						; size = 2
_this$ = -8						; size = 4
?GetSuggestionCount@CWSpell@@QAEFXZ PROC NEAR		; CWSpell::GetSuggestionCount, COMDAT
; _this$ = ecx

; 59   : {

	push	ebp
	mov	ebp, esp
	sub	esp, 216				; 000000d8H
	push	ebx
	push	esi
	push	edi
	push	ecx
	lea	edi, DWORD PTR [ebp-216]
	mov	ecx, 54					; 00000036H
	mov	eax, -858993460				; ccccccccH
	rep stosd
	pop	ecx
	mov	DWORD PTR _this$[ebp], ecx

; 60   : 	short result;
; 61   : 	GetProperty(0x6, VT_I2, (void*)&result);

	lea	eax, DWORD PTR _result$[ebp]
	push	eax
	push	2
	push	6
	mov	ecx, DWORD PTR _this$[ebp]
	call	?GetProperty@CWnd@@QBEXJGPAX@Z		; CWnd::GetProperty

; 62   : 	return result;

	mov	ax, WORD PTR _result$[ebp]

; 63   : }

	push	edx
	mov	ecx, ebp
	push	eax
	lea	edx, DWORD PTR $L94497
	call	@_RTC_CheckStackVars@8
	pop	eax
	pop	edx
	pop	edi
	pop	esi
	pop	ebx
	add	esp, 216				; 000000d8H
	cmp	ebp, esp
	call	__RTC_CheckEsp
	mov	esp, ebp
	pop	ebp
	ret	0
$L94497:
	DD	1
	DD	$L94496
$L94496:
	DD	-20					; ffffffecH
	DD	2
	DD	$L94495
$L94495:
	DB	114					; 00000072H
	DB	101					; 00000065H
	DB	115					; 00000073H
	DB	117					; 00000075H
	DB	108					; 0000006cH
	DB	116					; 00000074H
	DB	0
?GetSuggestionCount@CWSpell@@QAEFXZ ENDP		; CWSpell::GetSuggestionCount
_TEXT	ENDS
PUBLIC	?SetSuggestionCount@CWSpell@@QAEXF@Z		; CWSpell::SetSuggestionCount
EXTRN	?SetProperty@CWnd@@QAAXJGZZ:NEAR		; CWnd::SetProperty
; Function compile flags: /Odt /RTCcsu /ZI
;	COMDAT ?SetSuggestionCount@CWSpell@@QAEXF@Z
_TEXT	SEGMENT
_this$ = -8						; size = 4
_propVal$ = 8						; size = 2
?SetSuggestionCount@CWSpell@@QAEXF@Z PROC NEAR		; CWSpell::SetSuggestionCount, COMDAT
; _this$ = ecx

; 66   : {

	push	ebp
	mov	ebp, esp
	sub	esp, 204				; 000000ccH
	push	ebx
	push	esi
	push	edi
	push	ecx
	lea	edi, DWORD PTR [ebp-204]
	mov	ecx, 51					; 00000033H
	mov	eax, -858993460				; ccccccccH
	rep stosd
	pop	ecx
	mov	DWORD PTR _this$[ebp], ecx

; 67   : 	SetProperty(0x6, VT_I2, propVal);

	movsx	eax, WORD PTR _propVal$[ebp]
	push	eax
	push	2
	push	6
	mov	ecx, DWORD PTR _this$[ebp]
	push	ecx
	call	?SetProperty@CWnd@@QAAXJGZZ		; CWnd::SetProperty
	add	esp, 16					; 00000010H

; 68   : }

	pop	edi
	pop	esi
	pop	ebx
	add	esp, 204				; 000000ccH
	cmp	ebp, esp
	call	__RTC_CheckEsp
	mov	esp, ebp
	pop	ebp
	ret	4
?SetSuggestionCount@CWSpell@@QAEXF@Z ENDP		; CWSpell::SetSuggestionCount
_TEXT	ENDS
PUBLIC	?GetMisspelledWord@CWSpell@@QAE?AV?$CStringT@GV?$StrTraitMFC@GV?$ChTraitsCRT@G@ATL@@@@@ATL@@XZ ; CWSpell::GetMisspelledWord
;	COMDAT xdata$x
xdata$x	SEGMENT
__unwindtable$?GetMisspelledWord@CWSpell@@QAE?AV?$CStringT@GV?$StrTraitMFC@GV?$ChTraitsCRT@G@ATL@@@@@ATL@@XZ DD 0ffffffffH
	DD	FLAT:__unwindfunclet$?GetMisspelledWord@CWSpell@@QAE?AV?$CStringT@GV?$StrTraitMFC@GV?$ChTraitsCRT@G@ATL@@@@@ATL@@XZ$0
__ehfuncinfo$?GetMisspelledWord@CWSpell@@QAE?AV?$CStringT@GV?$StrTraitMFC@GV?$ChTraitsCRT@G@ATL@@@@@ATL@@XZ DD 019930520H
	DD	01H
	DD	FLAT:__unwindtable$?GetMisspelledWord@CWSpell@@QAE?AV?$CStringT@GV?$StrTraitMFC@GV?$ChTraitsCRT@G@ATL@@@@@ATL@@XZ
	DD	2 DUP(00H)
	DD	2 DUP(00H)
; Function compile flags: /Odt /RTCcsu /ZI
xdata$x	ENDS
;	COMDAT ?GetMisspelledWord@CWSpell@@QAE?AV?$CStringT@GV?$StrTraitMFC@GV?$ChTraitsCRT@G@ATL@@@@@ATL@@XZ
_TEXT	SEGMENT
$T94504 = -236						; size = 4
_result$ = -32						; size = 4
_this$ = -20						; size = 4
__$EHRec$ = -12						; size = 12
___$ReturnUdt$ = 8					; size = 4
?GetMisspelledWord@CWSpell@@QAE?AV?$CStringT@GV?$StrTraitMFC@GV?$ChTraitsCRT@G@ATL@@@@@ATL@@XZ PROC NEAR ; CWSpell::GetMisspelledWord, COMDAT
; _this$ = ecx

; 71   : {

	push	ebp
	mov	ebp, esp
	push	-1
	push	__ehhandler$?GetMisspelledWord@CWSpell@@QAE?AV?$CStringT@GV?$StrTraitMFC@GV?$ChTraitsCRT@G@ATL@@@@@ATL@@XZ
	mov	eax, DWORD PTR fs:__except_list
	push	eax
	mov	DWORD PTR fs:__except_list, esp
	sub	esp, 228				; 000000e4H
	push	ebx
	push	esi
	push	edi
	push	ecx
	lea	edi, DWORD PTR [ebp-240]
	mov	ecx, 57					; 00000039H
	mov	eax, -858993460				; ccccccccH
	rep stosd
	pop	ecx
	mov	DWORD PTR _this$[ebp], ecx
	mov	DWORD PTR $T94504[ebp], 0

; 72   : 	CString result;

	lea	ecx, DWORD PTR _result$[ebp]
	call	??0?$CStringT@GV?$StrTraitMFC@GV?$ChTraitsCRT@G@ATL@@@@@ATL@@QAE@XZ ; ATL::CStringT<unsigned short,StrTraitMFC<unsigned short,ATL::ChTraitsCRT<unsigned short> > >::CStringT<unsigned short,StrTraitMFC<unsigned short,ATL::ChTraitsCRT<unsigned short> > >
	mov	DWORD PTR __$EHRec$[ebp+8], 0

; 73   : 	GetProperty(0x7, VT_BSTR, (void*)&result);

	lea	eax, DWORD PTR _result$[ebp]
	push	eax
	push	8
	push	7
	mov	ecx, DWORD PTR _this$[ebp]
	call	?GetProperty@CWnd@@QBEXJGPAX@Z		; CWnd::GetProperty

; 74   : 	return result;

	lea	eax, DWORD PTR _result$[ebp]
	push	eax
	mov	ecx, DWORD PTR ___$ReturnUdt$[ebp]
	call	??0?$CStringT@GV?$StrTraitMFC@GV?$ChTraitsCRT@G@ATL@@@@@ATL@@QAE@ABV01@@Z ; ATL::CStringT<unsigned short,StrTraitMFC<unsigned short,ATL::ChTraitsCRT<unsigned short> > >::CStringT<unsigned short,StrTraitMFC<unsigned short,ATL::ChTraitsCRT<unsigned short> > >
	mov	ecx, DWORD PTR $T94504[ebp]
	or	ecx, 1
	mov	DWORD PTR $T94504[ebp], ecx
	mov	DWORD PTR __$EHRec$[ebp+8], -1
	lea	ecx, DWORD PTR _result$[ebp]
	call	??1?$CStringT@GV?$StrTraitMFC@GV?$ChTraitsCRT@G@ATL@@@@@ATL@@QAE@XZ ; ATL::CStringT<unsigned short,StrTraitMFC<unsigned short,ATL::ChTraitsCRT<unsigned short> > >::~CStringT<unsigned short,StrTraitMFC<unsigned short,ATL::ChTraitsCRT<unsigned short> > >
	mov	eax, DWORD PTR ___$ReturnUdt$[ebp]

; 75   : }

	push	edx
	mov	ecx, ebp
	push	eax
	lea	edx, DWORD PTR $L94511
	call	@_RTC_CheckStackVars@8
	pop	eax
	pop	edx
	mov	ecx, DWORD PTR __$EHRec$[ebp]
	mov	DWORD PTR fs:__except_list, ecx
	pop	edi
	pop	esi
	pop	ebx
	add	esp, 240				; 000000f0H
	cmp	ebp, esp
	call	__RTC_CheckEsp
	mov	esp, ebp
	pop	ebp
	ret	4
$L94511:
	DD	1
	DD	$L94510
$L94510:
	DD	-32					; ffffffe0H
	DD	4
	DD	$L94508
$L94508:
	DB	114					; 00000072H
	DB	101					; 00000065H
	DB	115					; 00000073H
	DB	117					; 00000075H
	DB	108					; 0000006cH
	DB	116					; 00000074H
	DB	0
_TEXT	ENDS
;	COMDAT text$x
text$x	SEGMENT
__unwindfunclet$?GetMisspelledWord@CWSpell@@QAE?AV?$CStringT@GV?$StrTraitMFC@GV?$ChTraitsCRT@G@ATL@@@@@ATL@@XZ$0:
	lea	ecx, DWORD PTR _result$[ebp]
	jmp	??1?$CStringT@GV?$StrTraitMFC@GV?$ChTraitsCRT@G@ATL@@@@@ATL@@QAE@XZ ; ATL::CStringT<unsigned short,StrTraitMFC<unsigned short,ATL::ChTraitsCRT<unsigned short> > >::~CStringT<unsigned short,StrTraitMFC<unsigned short,ATL::ChTraitsCRT<unsigned short> > >
__ehhandler$?GetMisspelledWord@CWSpell@@QAE?AV?$CStringT@GV?$StrTraitMFC@GV?$ChTraitsCRT@G@ATL@@@@@ATL@@XZ:
	mov	eax, OFFSET FLAT:__ehfuncinfo$?GetMisspelledWord@CWSpell@@QAE?AV?$CStringT@GV?$StrTraitMFC@GV?$ChTraitsCRT@G@ATL@@@@@ATL@@XZ
	jmp	___CxxFrameHandler
text$x	ENDS
?GetMisspelledWord@CWSpell@@QAE?AV?$CStringT@GV?$StrTraitMFC@GV?$ChTraitsCRT@G@ATL@@@@@ATL@@XZ ENDP ; CWSpell::GetMisspelledWord
PUBLIC	?SetMisspelledWord@CWSpell@@QAEXPBG@Z		; CWSpell::SetMisspelledWord
; Function compile flags: /Odt /RTCcsu /ZI
;	COMDAT ?SetMisspelledWord@CWSpell@@QAEXPBG@Z
_TEXT	SEGMENT
_this$ = -8						; size = 4
_propVal$ = 8						; size = 4
?SetMisspelledWord@CWSpell@@QAEXPBG@Z PROC NEAR		; CWSpell::SetMisspelledWord, COMDAT
; _this$ = ecx

; 78   : {

	push	ebp
	mov	ebp, esp
	sub	esp, 204				; 000000ccH
	push	ebx
	push	esi
	push	edi
	push	ecx
	lea	edi, DWORD PTR [ebp-204]
	mov	ecx, 51					; 00000033H
	mov	eax, -858993460				; ccccccccH
	rep stosd
	pop	ecx
	mov	DWORD PTR _this$[ebp], ecx

; 79   : 	SetProperty(0x7, VT_BSTR, propVal);

	mov	eax, DWORD PTR _propVal$[ebp]
	push	eax
	push	8
	push	7
	mov	ecx, DWORD PTR _this$[ebp]
	push	ecx
	call	?SetProperty@CWnd@@QAAXJGZZ		; CWnd::SetProperty
	add	esp, 16					; 00000010H

; 80   : }

	pop	edi
	pop	esi
	pop	ebx
	add	esp, 204				; 000000ccH
	cmp	ebp, esp
	call	__RTC_CheckEsp
	mov	esp, ebp
	pop	ebp
	ret	4
?SetMisspelledWord@CWSpell@@QAEXPBG@Z ENDP		; CWSpell::SetMisspelledWord
_TEXT	ENDS
PUBLIC	?GetReplacementWord@CWSpell@@QAE?AV?$CStringT@GV?$StrTraitMFC@GV?$ChTraitsCRT@G@ATL@@@@@ATL@@XZ ; CWSpell::GetReplacementWord
;	COMDAT xdata$x
xdata$x	SEGMENT
__unwindtable$?GetReplacementWord@CWSpell@@QAE?AV?$CStringT@GV?$StrTraitMFC@GV?$ChTraitsCRT@G@ATL@@@@@ATL@@XZ DD 0ffffffffH
	DD	FLAT:__unwindfunclet$?GetReplacementWord@CWSpell@@QAE?AV?$CStringT@GV?$StrTraitMFC@GV?$ChTraitsCRT@G@ATL@@@@@ATL@@XZ$0
__ehfuncinfo$?GetReplacementWord@CWSpell@@QAE?AV?$CStringT@GV?$StrTraitMFC@GV?$ChTraitsCRT@G@ATL@@@@@ATL@@XZ DD 019930520H
	DD	01H
	DD	FLAT:__unwindtable$?GetReplacementWord@CWSpell@@QAE?AV?$CStringT@GV?$StrTraitMFC@GV?$ChTraitsCRT@G@ATL@@@@@ATL@@XZ
	DD	2 DUP(00H)
	DD	2 DUP(00H)
; Function compile flags: /Odt /RTCcsu /ZI
xdata$x	ENDS
;	COMDAT ?GetReplacementWord@CWSpell@@QAE?AV?$CStringT@GV?$StrTraitMFC@GV?$ChTraitsCRT@G@ATL@@@@@ATL@@XZ
_TEXT	SEGMENT
$T94521 = -236						; size = 4
_result$ = -32						; size = 4
_this$ = -20						; size = 4
__$EHRec$ = -12						; size = 12
___$ReturnUdt$ = 8					; size = 4
?GetReplacementWord@CWSpell@@QAE?AV?$CStringT@GV?$StrTraitMFC@GV?$ChTraitsCRT@G@ATL@@@@@ATL@@XZ PROC NEAR ; CWSpell::GetReplacementWord, COMDAT
; _this$ = ecx

; 83   : {

	push	ebp
	mov	ebp, esp
	push	-1
	push	__ehhandler$?GetReplacementWord@CWSpell@@QAE?AV?$CStringT@GV?$StrTraitMFC@GV?$ChTraitsCRT@G@ATL@@@@@ATL@@XZ
	mov	eax, DWORD PTR fs:__except_list
	push	eax
	mov	DWORD PTR fs:__except_list, esp
	sub	esp, 228				; 000000e4H
	push	ebx
	push	esi
	push	edi
	push	ecx
	lea	edi, DWORD PTR [ebp-240]
	mov	ecx, 57					; 00000039H
	mov	eax, -858993460				; ccccccccH
	rep stosd
	pop	ecx
	mov	DWORD PTR _this$[ebp], ecx
	mov	DWORD PTR $T94521[ebp], 0

; 84   : 	CString result;

	lea	ecx, DWORD PTR _result$[ebp]
	call	??0?$CStringT@GV?$StrTraitMFC@GV?$ChTraitsCRT@G@ATL@@@@@ATL@@QAE@XZ ; ATL::CStringT<unsigned short,StrTraitMFC<unsigned short,ATL::ChTraitsCRT<unsigned short> > >::CStringT<unsigned short,StrTraitMFC<unsigned short,ATL::ChTraitsCRT<unsigned short> > >
	mov	DWORD PTR __$EHRec$[ebp+8], 0

; 85   : 	GetProperty(0x8, VT_BSTR, (void*)&result);

	lea	eax, DWORD PTR _result$[ebp]
	push	eax
	push	8
	push	8
	mov	ecx, DWORD PTR _this$[ebp]
	call	?GetProperty@CWnd@@QBEXJGPAX@Z		; CWnd::GetProperty

; 86   : 	return result;

	lea	eax, DWORD PTR _result$[ebp]
	push	eax
	mov	ecx, DWORD PTR ___$ReturnUdt$[ebp]
	call	??0?$CStringT@GV?$StrTraitMFC@GV?$ChTraitsCRT@G@ATL@@@@@ATL@@QAE@ABV01@@Z ; ATL::CStringT<unsigned short,StrTraitMFC<unsigned short,ATL::ChTraitsCRT<unsigned short> > >::CStringT<unsigned short,StrTraitMFC<unsigned short,ATL::ChTraitsCRT<unsigned short> > >
	mov	ecx, DWORD PTR $T94521[ebp]
	or	ecx, 1
	mov	DWORD PTR $T94521[ebp], ecx
	mov	DWORD PTR __$EHRec$[ebp+8], -1
	lea	ecx, DWORD PTR _result$[ebp]
	call	??1?$CStringT@GV?$StrTraitMFC@GV?$ChTraitsCRT@G@ATL@@@@@ATL@@QAE@XZ ; ATL::CStringT<unsigned short,StrTraitMFC<unsigned short,ATL::ChTraitsCRT<unsigned short> > >::~CStringT<unsigned short,StrTraitMFC<unsigned short,ATL::ChTraitsCRT<unsigned short> > >
	mov	eax, DWORD PTR ___$ReturnUdt$[ebp]

; 87   : }

	push	edx
	mov	ecx, ebp
	push	eax
	lea	edx, DWORD PTR $L94528
	call	@_RTC_CheckStackVars@8
	pop	eax
	pop	edx
	mov	ecx, DWORD PTR __$EHRec$[ebp]
	mov	DWORD PTR fs:__except_list, ecx
	pop	edi
	pop	esi
	pop	ebx
	add	esp, 240				; 000000f0H
	cmp	ebp, esp
	call	__RTC_CheckEsp
	mov	esp, ebp
	pop	ebp
	ret	4
$L94528:
	DD	1
	DD	$L94527
$L94527:
	DD	-32					; ffffffe0H
	DD	4
	DD	$L94525
$L94525:
	DB	114					; 00000072H
	DB	101					; 00000065H
	DB	115					; 00000073H
	DB	117					; 00000075H
	DB	108					; 0000006cH
	DB	116					; 00000074H
	DB	0
_TEXT	ENDS
;	COMDAT text$x
text$x	SEGMENT
__unwindfunclet$?GetReplacementWord@CWSpell@@QAE?AV?$CStringT@GV?$StrTraitMFC@GV?$ChTraitsCRT@G@ATL@@@@@ATL@@XZ$0:
	lea	ecx, DWORD PTR _result$[ebp]
	jmp	??1?$CStringT@GV?$StrTraitMFC@GV?$ChTraitsCRT@G@ATL@@@@@ATL@@QAE@XZ ; ATL::CStringT<unsigned short,StrTraitMFC<unsigned short,ATL::ChTraitsCRT<unsigned short> > >::~CStringT<unsigned short,StrTraitMFC<unsigned short,ATL::ChTraitsCRT<unsigned short> > >
__ehhandler$?GetReplacementWord@CWSpell@@QAE?AV?$CStringT@GV?$StrTraitMFC@GV?$ChTraitsCRT@G@ATL@@@@@ATL@@XZ:
	mov	eax, OFFSET FLAT:__ehfuncinfo$?GetReplacementWord@CWSpell@@QAE?AV?$CStringT@GV?$StrTraitMFC@GV?$ChTraitsCRT@G@ATL@@@@@ATL@@XZ
	jmp	___CxxFrameHandler
text$x	ENDS
?GetReplacementWord@CWSpell@@QAE?AV?$CStringT@GV?$StrTraitMFC@GV?$ChTraitsCRT@G@ATL@@@@@ATL@@XZ ENDP ; CWSpell::GetReplacementWord
PUBLIC	?SetReplacementWord@CWSpell@@QAEXPBG@Z		; CWSpell::SetReplacementWord
; Function compile flags: /Odt /RTCcsu /ZI
;	COMDAT ?SetReplacementWord@CWSpell@@QAEXPBG@Z
_TEXT	SEGMENT
_this$ = -8						; size = 4
_propVal$ = 8						; size = 4
?SetReplacementWord@CWSpell@@QAEXPBG@Z PROC NEAR	; CWSpell::SetReplacementWord, COMDAT
; _this$ = ecx

; 90   : {

	push	ebp
	mov	ebp, esp
	sub	esp, 204				; 000000ccH
	push	ebx
	push	esi
	push	edi
	push	ecx
	lea	edi, DWORD PTR [ebp-204]
	mov	ecx, 51					; 00000033H
	mov	eax, -858993460				; ccccccccH
	rep stosd
	pop	ecx
	mov	DWORD PTR _this$[ebp], ecx

; 91   : 	SetProperty(0x8, VT_BSTR, propVal);

	mov	eax, DWORD PTR _propVal$[ebp]
	push	eax
	push	8
	push	8
	mov	ecx, DWORD PTR _this$[ebp]
	push	ecx
	call	?SetProperty@CWnd@@QAAXJGZZ		; CWnd::SetProperty
	add	esp, 16					; 00000010H

; 92   : }

	pop	edi
	pop	esi
	pop	ebx
	add	esp, 204				; 000000ccH
	cmp	ebp, esp
	call	__RTC_CheckEsp
	mov	esp, ebp
	pop	ebp
	ret	4
?SetReplacementWord@CWSpell@@QAEXPBG@Z ENDP		; CWSpell::SetReplacementWord
_TEXT	ENDS
PUBLIC	?GetText@CWSpell@@QAE?AV?$CStringT@GV?$StrTraitMFC@GV?$ChTraitsCRT@G@ATL@@@@@ATL@@XZ ; CWSpell::GetText
;	COMDAT xdata$x
xdata$x	SEGMENT
__unwindtable$?GetText@CWSpell@@QAE?AV?$CStringT@GV?$StrTraitMFC@GV?$ChTraitsCRT@G@ATL@@@@@ATL@@XZ DD 0ffffffffH
	DD	FLAT:__unwindfunclet$?GetText@CWSpell@@QAE?AV?$CStringT@GV?$StrTraitMFC@GV?$ChTraitsCRT@G@ATL@@@@@ATL@@XZ$0
__ehfuncinfo$?GetText@CWSpell@@QAE?AV?$CStringT@GV?$StrTraitMFC@GV?$ChTraitsCRT@G@ATL@@@@@ATL@@XZ DD 019930520H
	DD	01H
	DD	FLAT:__unwindtable$?GetText@CWSpell@@QAE?AV?$CStringT@GV?$StrTraitMFC@GV?$ChTraitsCRT@G@ATL@@@@@ATL@@XZ
	DD	2 DUP(00H)
	DD	2 DUP(00H)
; Function compile flags: /Odt /RTCcsu /ZI
xdata$x	ENDS
;	COMDAT ?GetText@CWSpell@@QAE?AV?$CStringT@GV?$StrTraitMFC@GV?$ChTraitsCRT@G@ATL@@@@@ATL@@XZ
_TEXT	SEGMENT
$T94538 = -236						; size = 4
_result$ = -32						; size = 4
_this$ = -20						; size = 4
__$EHRec$ = -12						; size = 12
___$ReturnUdt$ = 8					; size = 4
?GetText@CWSpell@@QAE?AV?$CStringT@GV?$StrTraitMFC@GV?$ChTraitsCRT@G@ATL@@@@@ATL@@XZ PROC NEAR ; CWSpell::GetText, COMDAT
; _this$ = ecx

; 95   : {

	push	ebp
	mov	ebp, esp
	push	-1
	push	__ehhandler$?GetText@CWSpell@@QAE?AV?$CStringT@GV?$StrTraitMFC@GV?$ChTraitsCRT@G@ATL@@@@@ATL@@XZ
	mov	eax, DWORD PTR fs:__except_list
	push	eax
	mov	DWORD PTR fs:__except_list, esp
	sub	esp, 228				; 000000e4H
	push	ebx
	push	esi
	push	edi
	push	ecx
	lea	edi, DWORD PTR [ebp-240]
	mov	ecx, 57					; 00000039H
	mov	eax, -858993460				; ccccccccH
	rep stosd
	pop	ecx
	mov	DWORD PTR _this$[ebp], ecx
	mov	DWORD PTR $T94538[ebp], 0

; 96   : 	CString result;

	lea	ecx, DWORD PTR _result$[ebp]
	call	??0?$CStringT@GV?$StrTraitMFC@GV?$ChTraitsCRT@G@ATL@@@@@ATL@@QAE@XZ ; ATL::CStringT<unsigned short,StrTraitMFC<unsigned short,ATL::ChTraitsCRT<unsigned short> > >::CStringT<unsigned short,StrTraitMFC<unsigned short,ATL::ChTraitsCRT<unsigned short> > >
	mov	DWORD PTR __$EHRec$[ebp+8], 0

; 97   : 	GetProperty(DISPID_TEXT, VT_BSTR, (void*)&result);

	lea	eax, DWORD PTR _result$[ebp]
	push	eax
	push	8
	push	-517					; fffffdfbH
	mov	ecx, DWORD PTR _this$[ebp]
	call	?GetProperty@CWnd@@QBEXJGPAX@Z		; CWnd::GetProperty

; 98   : 	return result;

	lea	eax, DWORD PTR _result$[ebp]
	push	eax
	mov	ecx, DWORD PTR ___$ReturnUdt$[ebp]
	call	??0?$CStringT@GV?$StrTraitMFC@GV?$ChTraitsCRT@G@ATL@@@@@ATL@@QAE@ABV01@@Z ; ATL::CStringT<unsigned short,StrTraitMFC<unsigned short,ATL::ChTraitsCRT<unsigned short> > >::CStringT<unsigned short,StrTraitMFC<unsigned short,ATL::ChTraitsCRT<unsigned short> > >
	mov	ecx, DWORD PTR $T94538[ebp]
	or	ecx, 1
	mov	DWORD PTR $T94538[ebp], ecx
	mov	DWORD PTR __$EHRec$[ebp+8], -1
	lea	ecx, DWORD PTR _result$[ebp]
	call	??1?$CStringT@GV?$StrTraitMFC@GV?$ChTraitsCRT@G@ATL@@@@@ATL@@QAE@XZ ; ATL::CStringT<unsigned short,StrTraitMFC<unsigned short,ATL::ChTraitsCRT<unsigned short> > >::~CStringT<unsigned short,StrTraitMFC<unsigned short,ATL::ChTraitsCRT<unsigned short> > >
	mov	eax, DWORD PTR ___$ReturnUdt$[ebp]

; 99   : }

	push	edx
	mov	ecx, ebp
	push	eax
	lea	edx, DWORD PTR $L94545
	call	@_RTC_CheckStackVars@8
	pop	eax
	pop	edx
	mov	ecx, DWORD PTR __$EHRec$[ebp]
	mov	DWORD PTR fs:__except_list, ecx
	pop	edi
	pop	esi
	pop	ebx
	add	esp, 240				; 000000f0H
	cmp	ebp, esp
	call	__RTC_CheckEsp
	mov	esp, ebp
	pop	ebp
	ret	4
$L94545:
	DD	1
	DD	$L94544
$L94544:
	DD	-32					; ffffffe0H
	DD	4
	DD	$L94542
$L94542:
	DB	114					; 00000072H
	DB	101					; 00000065H
	DB	115					; 00000073H
	DB	117					; 00000075H
	DB	108					; 0000006cH
	DB	116					; 00000074H
	DB	0
_TEXT	ENDS
;	COMDAT text$x
text$x	SEGMENT
__unwindfunclet$?GetText@CWSpell@@QAE?AV?$CStringT@GV?$StrTraitMFC@GV?$ChTraitsCRT@G@ATL@@@@@ATL@@XZ$0:
	lea	ecx, DWORD PTR _result$[ebp]
	jmp	??1?$CStringT@GV?$StrTraitMFC@GV?$ChTraitsCRT@G@ATL@@@@@ATL@@QAE@XZ ; ATL::CStringT<unsigned short,StrTraitMFC<unsigned short,ATL::ChTraitsCRT<unsigned short> > >::~CStringT<unsigned short,StrTraitMFC<unsigned short,ATL::ChTraitsCRT<unsigned short> > >
__ehhandler$?GetText@CWSpell@@QAE?AV?$CStringT@GV?$StrTraitMFC@GV?$ChTraitsCRT@G@ATL@@@@@ATL@@XZ:
	mov	eax, OFFSET FLAT:__ehfuncinfo$?GetText@CWSpell@@QAE?AV?$CStringT@GV?$StrTraitMFC@GV?$ChTraitsCRT@G@ATL@@@@@ATL@@XZ
	jmp	___CxxFrameHandler
text$x	ENDS
?GetText@CWSpell@@QAE?AV?$CStringT@GV?$StrTraitMFC@GV?$ChTraitsCRT@G@ATL@@@@@ATL@@XZ ENDP ; CWSpell::GetText
PUBLIC	?SetText@CWSpell@@QAEXPBG@Z			; CWSpell::SetText
; Function compile flags: /Odt /RTCcsu /ZI
;	COMDAT ?SetText@CWSpell@@QAEXPBG@Z
_TEXT	SEGMENT
_this$ = -8						; size = 4
_propVal$ = 8						; size = 4
?SetText@CWSpell@@QAEXPBG@Z PROC NEAR			; CWSpell::SetText, COMDAT
; _this$ = ecx

; 102  : {

	push	ebp
	mov	ebp, esp
	sub	esp, 204				; 000000ccH
	push	ebx
	push	esi
	push	edi
	push	ecx
	lea	edi, DWORD PTR [ebp-204]
	mov	ecx, 51					; 00000033H
	mov	eax, -858993460				; ccccccccH
	rep stosd
	pop	ecx
	mov	DWORD PTR _this$[ebp], ecx

; 103  : 	SetProperty(DISPID_TEXT, VT_BSTR, propVal);

	mov	eax, DWORD PTR _propVal$[ebp]
	push	eax
	push	8
	push	-517					; fffffdfbH
	mov	ecx, DWORD PTR _this$[ebp]
	push	ecx
	call	?SetProperty@CWnd@@QAAXJGZZ		; CWnd::SetProperty
	add	esp, 16					; 00000010H

; 104  : }

	pop	edi
	pop	esi
	pop	ebx
	add	esp, 204				; 000000ccH
	cmp	ebp, esp
	call	__RTC_CheckEsp
	mov	esp, ebp
	pop	ebp
	ret	4
?SetText@CWSpell@@QAEXPBG@Z ENDP			; CWSpell::SetText
_TEXT	ENDS
PUBLIC	?GetWordOffset@CWSpell@@QAEJXZ			; CWSpell::GetWordOffset
; Function compile flags: /Odt /RTCcsu /ZI
;	COMDAT ?GetWordOffset@CWSpell@@QAEJXZ
_TEXT	SEGMENT
_result$ = -20						; size = 4
_this$ = -8						; size = 4
?GetWordOffset@CWSpell@@QAEJXZ PROC NEAR		; CWSpell::GetWordOffset, COMDAT
; _this$ = ecx

; 107  : {

	push	ebp
	mov	ebp, esp
	sub	esp, 216				; 000000d8H
	push	ebx
	push	esi
	push	edi
	push	ecx
	lea	edi, DWORD PTR [ebp-216]
	mov	ecx, 54					; 00000036H
	mov	eax, -858993460				; ccccccccH
	rep stosd
	pop	ecx
	mov	DWORD PTR _this$[ebp], ecx

; 108  : 	long result;
; 109  : 	GetProperty(0x9, VT_I4, (void*)&result);

	lea	eax, DWORD PTR _result$[ebp]
	push	eax
	push	3
	push	9
	mov	ecx, DWORD PTR _this$[ebp]
	call	?GetProperty@CWnd@@QBEXJGPAX@Z		; CWnd::GetProperty

; 110  : 	return result;

	mov	eax, DWORD PTR _result$[ebp]

; 111  : }

	push	edx
	mov	ecx, ebp
	push	eax
	lea	edx, DWORD PTR $L94555
	call	@_RTC_CheckStackVars@8
	pop	eax
	pop	edx
	pop	edi
	pop	esi
	pop	ebx
	add	esp, 216				; 000000d8H
	cmp	ebp, esp
	call	__RTC_CheckEsp
	mov	esp, ebp
	pop	ebp
	ret	0
$L94555:
	DD	1
	DD	$L94554
$L94554:
	DD	-20					; ffffffecH
	DD	4
	DD	$L94553
$L94553:
	DB	114					; 00000072H
	DB	101					; 00000065H
	DB	115					; 00000073H
	DB	117					; 00000075H
	DB	108					; 0000006cH
	DB	116					; 00000074H
	DB	0
?GetWordOffset@CWSpell@@QAEJXZ ENDP			; CWSpell::GetWordOffset
_TEXT	ENDS
PUBLIC	?SetWordOffset@CWSpell@@QAEXJ@Z			; CWSpell::SetWordOffset
; Function compile flags: /Odt /RTCcsu /ZI
;	COMDAT ?SetWordOffset@CWSpell@@QAEXJ@Z
_TEXT	SEGMENT
_this$ = -8						; size = 4
_propVal$ = 8						; size = 4
?SetWordOffset@CWSpell@@QAEXJ@Z PROC NEAR		; CWSpell::SetWordOffset, COMDAT
; _this$ = ecx

; 114  : {

	push	ebp
	mov	ebp, esp
	sub	esp, 204				; 000000ccH
	push	ebx
	push	esi
	push	edi
	push	ecx
	lea	edi, DWORD PTR [ebp-204]
	mov	ecx, 51					; 00000033H
	mov	eax, -858993460				; ccccccccH
	rep stosd
	pop	ecx
	mov	DWORD PTR _this$[ebp], ecx

; 115  : 	SetProperty(0x9, VT_I4, propVal);

	mov	eax, DWORD PTR _propVal$[ebp]
	push	eax
	push	3
	push	9
	mov	ecx, DWORD PTR _this$[ebp]
	push	ecx
	call	?SetProperty@CWnd@@QAAXJGZZ		; CWnd::SetProperty
	add	esp, 16					; 00000010H

; 116  : }

	pop	edi
	pop	esi
	pop	ebx
	add	esp, 204				; 000000ccH
	cmp	ebp, esp
	call	__RTC_CheckEsp
	mov	esp, ebp
	pop	ebp
	ret	4
?SetWordOffset@CWSpell@@QAEXJ@Z ENDP			; CWSpell::SetWordOffset
_TEXT	ENDS
PUBLIC	?GetWordCount@CWSpell@@QAEJXZ			; CWSpell::GetWordCount
; Function compile flags: /Odt /RTCcsu /ZI
;	COMDAT ?GetWordCount@CWSpell@@QAEJXZ
_TEXT	SEGMENT
_result$ = -20						; size = 4
_this$ = -8						; size = 4
?GetWordCount@CWSpell@@QAEJXZ PROC NEAR			; CWSpell::GetWordCount, COMDAT
; _this$ = ecx

; 119  : {

	push	ebp
	mov	ebp, esp
	sub	esp, 216				; 000000d8H
	push	ebx
	push	esi
	push	edi
	push	ecx
	lea	edi, DWORD PTR [ebp-216]
	mov	ecx, 54					; 00000036H
	mov	eax, -858993460				; ccccccccH
	rep stosd
	pop	ecx
	mov	DWORD PTR _this$[ebp], ecx

; 120  : 	long result;
; 121  : 	GetProperty(0xa, VT_I4, (void*)&result);

	lea	eax, DWORD PTR _result$[ebp]
	push	eax
	push	3
	push	10					; 0000000aH
	mov	ecx, DWORD PTR _this$[ebp]
	call	?GetProperty@CWnd@@QBEXJGPAX@Z		; CWnd::GetProperty

; 122  : 	return result;

	mov	eax, DWORD PTR _result$[ebp]

; 123  : }

	push	edx
	mov	ecx, ebp
	push	eax
	lea	edx, DWORD PTR $L94562
	call	@_RTC_CheckStackVars@8
	pop	eax
	pop	edx
	pop	edi
	pop	esi
	pop	ebx
	add	esp, 216				; 000000d8H
	cmp	ebp, esp
	call	__RTC_CheckEsp
	mov	esp, ebp
	pop	ebp
	ret	0
$L94562:
	DD	1
	DD	$L94561
$L94561:
	DD	-20					; ffffffecH
	DD	4
	DD	$L94560
$L94560:
	DB	114					; 00000072H
	DB	101					; 00000065H
	DB	115					; 00000073H
	DB	117					; 00000075H
	DB	108					; 0000006cH
	DB	116					; 00000074H
	DB	0
?GetWordCount@CWSpell@@QAEJXZ ENDP			; CWSpell::GetWordCount
_TEXT	ENDS
PUBLIC	?SetWordCount@CWSpell@@QAEXJ@Z			; CWSpell::SetWordCount
; Function compile flags: /Odt /RTCcsu /ZI
;	COMDAT ?SetWordCount@CWSpell@@QAEXJ@Z
_TEXT	SEGMENT
_this$ = -8						; size = 4
_propVal$ = 8						; size = 4
?SetWordCount@CWSpell@@QAEXJ@Z PROC NEAR		; CWSpell::SetWordCount, COMDAT
; _this$ = ecx

; 126  : {

	push	ebp
	mov	ebp, esp
	sub	esp, 204				; 000000ccH
	push	ebx
	push	esi
	push	edi
	push	ecx
	lea	edi, DWORD PTR [ebp-204]
	mov	ecx, 51					; 00000033H
	mov	eax, -858993460				; ccccccccH
	rep stosd
	pop	ecx
	mov	DWORD PTR _this$[ebp], ecx

; 127  : 	SetProperty(0xa, VT_I4, propVal);

	mov	eax, DWORD PTR _propVal$[ebp]
	push	eax
	push	3
	push	10					; 0000000aH
	mov	ecx, DWORD PTR _this$[ebp]
	push	ecx
	call	?SetProperty@CWnd@@QAAXJGZZ		; CWnd::SetProperty
	add	esp, 16					; 00000010H

; 128  : }

	pop	edi
	pop	esi
	pop	ebx
	add	esp, 204				; 000000ccH
	cmp	ebp, esp
	call	__RTC_CheckEsp
	mov	esp, ebp
	pop	ebp
	ret	4
?SetWordCount@CWSpell@@QAEXJ@Z ENDP			; CWSpell::SetWordCount
_TEXT	ENDS
PUBLIC	?GetWordsReplacedCount@CWSpell@@QAEJXZ		; CWSpell::GetWordsReplacedCount
; Function compile flags: /Odt /RTCcsu /ZI
;	COMDAT ?GetWordsReplacedCount@CWSpell@@QAEJXZ
_TEXT	SEGMENT
_result$ = -20						; size = 4
_this$ = -8						; size = 4
?GetWordsReplacedCount@CWSpell@@QAEJXZ PROC NEAR	; CWSpell::GetWordsReplacedCount, COMDAT
; _this$ = ecx

; 131  : {

	push	ebp
	mov	ebp, esp
	sub	esp, 216				; 000000d8H
	push	ebx
	push	esi
	push	edi
	push	ecx
	lea	edi, DWORD PTR [ebp-216]
	mov	ecx, 54					; 00000036H
	mov	eax, -858993460				; ccccccccH
	rep stosd
	pop	ecx
	mov	DWORD PTR _this$[ebp], ecx

; 132  : 	long result;
; 133  : 	GetProperty(0xb, VT_I4, (void*)&result);

	lea	eax, DWORD PTR _result$[ebp]
	push	eax
	push	3
	push	11					; 0000000bH
	mov	ecx, DWORD PTR _this$[ebp]
	call	?GetProperty@CWnd@@QBEXJGPAX@Z		; CWnd::GetProperty

; 134  : 	return result;

	mov	eax, DWORD PTR _result$[ebp]

; 135  : }

	push	edx
	mov	ecx, ebp
	push	eax
	lea	edx, DWORD PTR $L94569
	call	@_RTC_CheckStackVars@8
	pop	eax
	pop	edx
	pop	edi
	pop	esi
	pop	ebx
	add	esp, 216				; 000000d8H
	cmp	ebp, esp
	call	__RTC_CheckEsp
	mov	esp, ebp
	pop	ebp
	ret	0
$L94569:
	DD	1
	DD	$L94568
$L94568:
	DD	-20					; ffffffecH
	DD	4
	DD	$L94567
$L94567:
	DB	114					; 00000072H
	DB	101					; 00000065H
	DB	115					; 00000073H
	DB	117					; 00000075H
	DB	108					; 0000006cH
	DB	116					; 00000074H
	DB	0
?GetWordsReplacedCount@CWSpell@@QAEJXZ ENDP		; CWSpell::GetWordsReplacedCount
_TEXT	ENDS
PUBLIC	?SetWordsReplacedCount@CWSpell@@QAEXJ@Z		; CWSpell::SetWordsReplacedCount
; Function compile flags: /Odt /RTCcsu /ZI
;	COMDAT ?SetWordsReplacedCount@CWSpell@@QAEXJ@Z
_TEXT	SEGMENT
_this$ = -8						; size = 4
_propVal$ = 8						; size = 4
?SetWordsReplacedCount@CWSpell@@QAEXJ@Z PROC NEAR	; CWSpell::SetWordsReplacedCount, COMDAT
; _this$ = ecx

; 138  : {

	push	ebp
	mov	ebp, esp
	sub	esp, 204				; 000000ccH
	push	ebx
	push	esi
	push	edi
	push	ecx
	lea	edi, DWORD PTR [ebp-204]
	mov	ecx, 51					; 00000033H
	mov	eax, -858993460				; ccccccccH
	rep stosd
	pop	ecx
	mov	DWORD PTR _this$[ebp], ecx

; 139  : 	SetProperty(0xb, VT_I4, propVal);

	mov	eax, DWORD PTR _propVal$[ebp]
	push	eax
	push	3
	push	11					; 0000000bH
	mov	ecx, DWORD PTR _this$[ebp]
	push	ecx
	call	?SetProperty@CWnd@@QAAXJGZZ		; CWnd::SetProperty
	add	esp, 16					; 00000010H

; 140  : }

	pop	edi
	pop	esi
	pop	ebx
	add	esp, 204				; 000000ccH
	cmp	ebp, esp
	call	__RTC_CheckEsp
	mov	esp, ebp
	pop	ebp
	ret	4
?SetWordsReplacedCount@CWSpell@@QAEXJ@Z ENDP		; CWSpell::SetWordsReplacedCount
_TEXT	ENDS
PUBLIC	?GetCaseSensitive@CWSpell@@QAEHXZ		; CWSpell::GetCaseSensitive
; Function compile flags: /Odt /RTCcsu /ZI
;	COMDAT ?GetCaseSensitive@CWSpell@@QAEHXZ
_TEXT	SEGMENT
_result$ = -20						; size = 4
_this$ = -8						; size = 4
?GetCaseSensitive@CWSpell@@QAEHXZ PROC NEAR		; CWSpell::GetCaseSensitive, COMDAT
; _this$ = ecx

; 143  : {

	push	ebp
	mov	ebp, esp
	sub	esp, 216				; 000000d8H
	push	ebx
	push	esi
	push	edi
	push	ecx
	lea	edi, DWORD PTR [ebp-216]
	mov	ecx, 54					; 00000036H
	mov	eax, -858993460				; ccccccccH
	rep stosd
	pop	ecx
	mov	DWORD PTR _this$[ebp], ecx

; 144  : 	BOOL result;
; 145  : 	GetProperty(0xc, VT_BOOL, (void*)&result);

	lea	eax, DWORD PTR _result$[ebp]
	push	eax
	push	11					; 0000000bH
	push	12					; 0000000cH
	mov	ecx, DWORD PTR _this$[ebp]
	call	?GetProperty@CWnd@@QBEXJGPAX@Z		; CWnd::GetProperty

; 146  : 	return result;

	mov	eax, DWORD PTR _result$[ebp]

; 147  : }

	push	edx
	mov	ecx, ebp
	push	eax
	lea	edx, DWORD PTR $L94576
	call	@_RTC_CheckStackVars@8
	pop	eax
	pop	edx
	pop	edi
	pop	esi
	pop	ebx
	add	esp, 216				; 000000d8H
	cmp	ebp, esp
	call	__RTC_CheckEsp
	mov	esp, ebp
	pop	ebp
	ret	0
$L94576:
	DD	1
	DD	$L94575
$L94575:
	DD	-20					; ffffffecH
	DD	4
	DD	$L94574
$L94574:
	DB	114					; 00000072H
	DB	101					; 00000065H
	DB	115					; 00000073H
	DB	117					; 00000075H
	DB	108					; 0000006cH
	DB	116					; 00000074H
	DB	0
?GetCaseSensitive@CWSpell@@QAEHXZ ENDP			; CWSpell::GetCaseSensitive
_TEXT	ENDS
PUBLIC	?SetCaseSensitive@CWSpell@@QAEXH@Z		; CWSpell::SetCaseSensitive
; Function compile flags: /Odt /RTCcsu /ZI
;	COMDAT ?SetCaseSensitive@CWSpell@@QAEXH@Z
_TEXT	SEGMENT
_this$ = -8						; size = 4
_propVal$ = 8						; size = 4
?SetCaseSensitive@CWSpell@@QAEXH@Z PROC NEAR		; CWSpell::SetCaseSensitive, COMDAT
; _this$ = ecx

; 150  : {

	push	ebp
	mov	ebp, esp
	sub	esp, 204				; 000000ccH
	push	ebx
	push	esi
	push	edi
	push	ecx
	lea	edi, DWORD PTR [ebp-204]
	mov	ecx, 51					; 00000033H
	mov	eax, -858993460				; ccccccccH
	rep stosd
	pop	ecx
	mov	DWORD PTR _this$[ebp], ecx

; 151  : 	SetProperty(0xc, VT_BOOL, propVal);

	mov	eax, DWORD PTR _propVal$[ebp]
	push	eax
	push	11					; 0000000bH
	push	12					; 0000000cH
	mov	ecx, DWORD PTR _this$[ebp]
	push	ecx
	call	?SetProperty@CWnd@@QAAXJGZZ		; CWnd::SetProperty
	add	esp, 16					; 00000010H

; 152  : }

	pop	edi
	pop	esi
	pop	ebx
	add	esp, 204				; 000000ccH
	cmp	ebp, esp
	call	__RTC_CheckEsp
	mov	esp, ebp
	pop	ebp
	ret	4
?SetCaseSensitive@CWSpell@@QAEXH@Z ENDP			; CWSpell::SetCaseSensitive
_TEXT	ENDS
PUBLIC	?GetCanUndo@CWSpell@@QAEHXZ			; CWSpell::GetCanUndo
; Function compile flags: /Odt /RTCcsu /ZI
;	COMDAT ?GetCanUndo@CWSpell@@QAEHXZ
_TEXT	SEGMENT
_result$ = -20						; size = 4
_this$ = -8						; size = 4
?GetCanUndo@CWSpell@@QAEHXZ PROC NEAR			; CWSpell::GetCanUndo, COMDAT
; _this$ = ecx

; 155  : {

	push	ebp
	mov	ebp, esp
	sub	esp, 216				; 000000d8H
	push	ebx
	push	esi
	push	edi
	push	ecx
	lea	edi, DWORD PTR [ebp-216]
	mov	ecx, 54					; 00000036H
	mov	eax, -858993460				; ccccccccH
	rep stosd
	pop	ecx
	mov	DWORD PTR _this$[ebp], ecx

; 156  : 	BOOL result;
; 157  : 	GetProperty(0xd, VT_BOOL, (void*)&result);

	lea	eax, DWORD PTR _result$[ebp]
	push	eax
	push	11					; 0000000bH
	push	13					; 0000000dH
	mov	ecx, DWORD PTR _this$[ebp]
	call	?GetProperty@CWnd@@QBEXJGPAX@Z		; CWnd::GetProperty

; 158  : 	return result;

	mov	eax, DWORD PTR _result$[ebp]

; 159  : }

	push	edx
	mov	ecx, ebp
	push	eax
	lea	edx, DWORD PTR $L94583
	call	@_RTC_CheckStackVars@8
	pop	eax
	pop	edx
	pop	edi
	pop	esi
	pop	ebx
	add	esp, 216				; 000000d8H
	cmp	ebp, esp
	call	__RTC_CheckEsp
	mov	esp, ebp
	pop	ebp
	ret	0
$L94583:
	DD	1
	DD	$L94582
$L94582:
	DD	-20					; ffffffecH
	DD	4
	DD	$L94581
$L94581:
	DB	114					; 00000072H
	DB	101					; 00000065H
	DB	115					; 00000073H
	DB	117					; 00000075H
	DB	108					; 0000006cH
	DB	116					; 00000074H
	DB	0
?GetCanUndo@CWSpell@@QAEHXZ ENDP			; CWSpell::GetCanUndo
_TEXT	ENDS
PUBLIC	?SetCanUndo@CWSpell@@QAEXH@Z			; CWSpell::SetCanUndo
; Function compile flags: /Odt /RTCcsu /ZI
;	COMDAT ?SetCanUndo@CWSpell@@QAEXH@Z
_TEXT	SEGMENT
_this$ = -8						; size = 4
_propVal$ = 8						; size = 4
?SetCanUndo@CWSpell@@QAEXH@Z PROC NEAR			; CWSpell::SetCanUndo, COMDAT
; _this$ = ecx

; 162  : {

	push	ebp
	mov	ebp, esp
	sub	esp, 204				; 000000ccH
	push	ebx
	push	esi
	push	edi
	push	ecx
	lea	edi, DWORD PTR [ebp-204]
	mov	ecx, 51					; 00000033H
	mov	eax, -858993460				; ccccccccH
	rep stosd
	pop	ecx
	mov	DWORD PTR _this$[ebp], ecx

; 163  : 	SetProperty(0xd, VT_BOOL, propVal);

	mov	eax, DWORD PTR _propVal$[ebp]
	push	eax
	push	11					; 0000000bH
	push	13					; 0000000dH
	mov	ecx, DWORD PTR _this$[ebp]
	push	ecx
	call	?SetProperty@CWnd@@QAAXJGZZ		; CWnd::SetProperty
	add	esp, 16					; 00000010H

; 164  : }

	pop	edi
	pop	esi
	pop	ebx
	add	esp, 204				; 000000ccH
	cmp	ebp, esp
	call	__RTC_CheckEsp
	mov	esp, ebp
	pop	ebp
	ret	4
?SetCanUndo@CWSpell@@QAEXH@Z ENDP			; CWSpell::SetCanUndo
_TEXT	ENDS
PUBLIC	?GetCatchDoubledWords@CWSpell@@QAEHXZ		; CWSpell::GetCatchDoubledWords
; Function compile flags: /Odt /RTCcsu /ZI
;	COMDAT ?GetCatchDoubledWords@CWSpell@@QAEHXZ
_TEXT	SEGMENT
_result$ = -20						; size = 4
_this$ = -8						; size = 4
?GetCatchDoubledWords@CWSpell@@QAEHXZ PROC NEAR		; CWSpell::GetCatchDoubledWords, COMDAT
; _this$ = ecx

; 167  : {

	push	ebp
	mov	ebp, esp
	sub	esp, 216				; 000000d8H
	push	ebx
	push	esi
	push	edi
	push	ecx
	lea	edi, DWORD PTR [ebp-216]
	mov	ecx, 54					; 00000036H
	mov	eax, -858993460				; ccccccccH
	rep stosd
	pop	ecx
	mov	DWORD PTR _this$[ebp], ecx

; 168  : 	BOOL result;
; 169  : 	GetProperty(0xe, VT_BOOL, (void*)&result);

	lea	eax, DWORD PTR _result$[ebp]
	push	eax
	push	11					; 0000000bH
	push	14					; 0000000eH
	mov	ecx, DWORD PTR _this$[ebp]
	call	?GetProperty@CWnd@@QBEXJGPAX@Z		; CWnd::GetProperty

; 170  : 	return result;

	mov	eax, DWORD PTR _result$[ebp]

; 171  : }

	push	edx
	mov	ecx, ebp
	push	eax
	lea	edx, DWORD PTR $L94590
	call	@_RTC_CheckStackVars@8
	pop	eax
	pop	edx
	pop	edi
	pop	esi
	pop	ebx
	add	esp, 216				; 000000d8H
	cmp	ebp, esp
	call	__RTC_CheckEsp
	mov	esp, ebp
	pop	ebp
	ret	0
$L94590:
	DD	1
	DD	$L94589
$L94589:
	DD	-20					; ffffffecH
	DD	4
	DD	$L94588
$L94588:
	DB	114					; 00000072H
	DB	101					; 00000065H
	DB	115					; 00000073H
	DB	117					; 00000075H
	DB	108					; 0000006cH
	DB	116					; 00000074H
	DB	0
?GetCatchDoubledWords@CWSpell@@QAEHXZ ENDP		; CWSpell::GetCatchDoubledWords
_TEXT	ENDS
PUBLIC	?SetCatchDoubledWords@CWSpell@@QAEXH@Z		; CWSpell::SetCatchDoubledWords
; Function compile flags: /Odt /RTCcsu /ZI
;	COMDAT ?SetCatchDoubledWords@CWSpell@@QAEXH@Z
_TEXT	SEGMENT
_this$ = -8						; size = 4
_propVal$ = 8						; size = 4
?SetCatchDoubledWords@CWSpell@@QAEXH@Z PROC NEAR	; CWSpell::SetCatchDoubledWords, COMDAT
; _this$ = ecx

; 174  : {

	push	ebp
	mov	ebp, esp
	sub	esp, 204				; 000000ccH
	push	ebx
	push	esi
	push	edi
	push	ecx
	lea	edi, DWORD PTR [ebp-204]
	mov	ecx, 51					; 00000033H
	mov	eax, -858993460				; ccccccccH
	rep stosd
	pop	ecx
	mov	DWORD PTR _this$[ebp], ecx

; 175  : 	SetProperty(0xe, VT_BOOL, propVal);

	mov	eax, DWORD PTR _propVal$[ebp]
	push	eax
	push	11					; 0000000bH
	push	14					; 0000000eH
	mov	ecx, DWORD PTR _this$[ebp]
	push	ecx
	call	?SetProperty@CWnd@@QAAXJGZZ		; CWnd::SetProperty
	add	esp, 16					; 00000010H

; 176  : }

	pop	edi
	pop	esi
	pop	ebx
	add	esp, 204				; 000000ccH
	cmp	ebp, esp
	call	__RTC_CheckEsp
	mov	esp, ebp
	pop	ebp
	ret	4
?SetCatchDoubledWords@CWSpell@@QAEXH@Z ENDP		; CWSpell::SetCatchDoubledWords
_TEXT	ENDS
PUBLIC	?GetCatchMixedCaseWords@CWSpell@@QAEHXZ		; CWSpell::GetCatchMixedCaseWords
; Function compile flags: /Odt /RTCcsu /ZI
;	COMDAT ?GetCatchMixedCaseWords@CWSpell@@QAEHXZ
_TEXT	SEGMENT
_result$ = -20						; size = 4
_this$ = -8						; size = 4
?GetCatchMixedCaseWords@CWSpell@@QAEHXZ PROC NEAR	; CWSpell::GetCatchMixedCaseWords, COMDAT
; _this$ = ecx

; 179  : {

	push	ebp
	mov	ebp, esp
	sub	esp, 216				; 000000d8H
	push	ebx
	push	esi
	push	edi
	push	ecx
	lea	edi, DWORD PTR [ebp-216]
	mov	ecx, 54					; 00000036H
	mov	eax, -858993460				; ccccccccH
	rep stosd
	pop	ecx
	mov	DWORD PTR _this$[ebp], ecx

; 180  : 	BOOL result;
; 181  : 	GetProperty(0xf, VT_BOOL, (void*)&result);

	lea	eax, DWORD PTR _result$[ebp]
	push	eax
	push	11					; 0000000bH
	push	15					; 0000000fH
	mov	ecx, DWORD PTR _this$[ebp]
	call	?GetProperty@CWnd@@QBEXJGPAX@Z		; CWnd::GetProperty

; 182  : 	return result;

	mov	eax, DWORD PTR _result$[ebp]

; 183  : }

	push	edx
	mov	ecx, ebp
	push	eax
	lea	edx, DWORD PTR $L94597
	call	@_RTC_CheckStackVars@8
	pop	eax
	pop	edx
	pop	edi
	pop	esi
	pop	ebx
	add	esp, 216				; 000000d8H
	cmp	ebp, esp
	call	__RTC_CheckEsp
	mov	esp, ebp
	pop	ebp
	ret	0
$L94597:
	DD	1
	DD	$L94596
$L94596:
	DD	-20					; ffffffecH
	DD	4
	DD	$L94595
$L94595:
	DB	114					; 00000072H
	DB	101					; 00000065H
	DB	115					; 00000073H
	DB	117					; 00000075H
	DB	108					; 0000006cH
	DB	116					; 00000074H
	DB	0
?GetCatchMixedCaseWords@CWSpell@@QAEHXZ ENDP		; CWSpell::GetCatchMixedCaseWords
_TEXT	ENDS
PUBLIC	?SetCatchMixedCaseWords@CWSpell@@QAEXH@Z	; CWSpell::SetCatchMixedCaseWords
; Function compile flags: /Odt /RTCcsu /ZI
;	COMDAT ?SetCatchMixedCaseWords@CWSpell@@QAEXH@Z
_TEXT	SEGMENT
_this$ = -8						; size = 4
_propVal$ = 8						; size = 4
?SetCatchMixedCaseWords@CWSpell@@QAEXH@Z PROC NEAR	; CWSpell::SetCatchMixedCaseWords, COMDAT
; _this$ = ecx

; 186  : {

	push	ebp
	mov	ebp, esp
	sub	esp, 204				; 000000ccH
	push	ebx
	push	esi
	push	edi
	push	ecx
	lea	edi, DWORD PTR [ebp-204]
	mov	ecx, 51					; 00000033H
	mov	eax, -858993460				; ccccccccH
	rep stosd
	pop	ecx
	mov	DWORD PTR _this$[ebp], ecx

; 187  : 	SetProperty(0xf, VT_BOOL, propVal);

	mov	eax, DWORD PTR _propVal$[ebp]
	push	eax
	push	11					; 0000000bH
	push	15					; 0000000fH
	mov	ecx, DWORD PTR _this$[ebp]
	push	ecx
	call	?SetProperty@CWnd@@QAAXJGZZ		; CWnd::SetProperty
	add	esp, 16					; 00000010H

; 188  : }

	pop	edi
	pop	esi
	pop	ebx
	add	esp, 204				; 000000ccH
	cmp	ebp, esp
	call	__RTC_CheckEsp
	mov	esp, ebp
	pop	ebp
	ret	4
?SetCatchMixedCaseWords@CWSpell@@QAEXH@Z ENDP		; CWSpell::SetCatchMixedCaseWords
_TEXT	ENDS
PUBLIC	?GetCatchWordsWithDigits@CWSpell@@QAEHXZ	; CWSpell::GetCatchWordsWithDigits
; Function compile flags: /Odt /RTCcsu /ZI
;	COMDAT ?GetCatchWordsWithDigits@CWSpell@@QAEHXZ
_TEXT	SEGMENT
_result$ = -20						; size = 4
_this$ = -8						; size = 4
?GetCatchWordsWithDigits@CWSpell@@QAEHXZ PROC NEAR	; CWSpell::GetCatchWordsWithDigits, COMDAT
; _this$ = ecx

; 191  : {

	push	ebp
	mov	ebp, esp
	sub	esp, 216				; 000000d8H
	push	ebx
	push	esi
	push	edi
	push	ecx
	lea	edi, DWORD PTR [ebp-216]
	mov	ecx, 54					; 00000036H
	mov	eax, -858993460				; ccccccccH
	rep stosd
	pop	ecx
	mov	DWORD PTR _this$[ebp], ecx

; 192  : 	BOOL result;
; 193  : 	GetProperty(0x10, VT_BOOL, (void*)&result);

	lea	eax, DWORD PTR _result$[ebp]
	push	eax
	push	11					; 0000000bH
	push	16					; 00000010H
	mov	ecx, DWORD PTR _this$[ebp]
	call	?GetProperty@CWnd@@QBEXJGPAX@Z		; CWnd::GetProperty

; 194  : 	return result;

	mov	eax, DWORD PTR _result$[ebp]

; 195  : }

	push	edx
	mov	ecx, ebp
	push	eax
	lea	edx, DWORD PTR $L94604
	call	@_RTC_CheckStackVars@8
	pop	eax
	pop	edx
	pop	edi
	pop	esi
	pop	ebx
	add	esp, 216				; 000000d8H
	cmp	ebp, esp
	call	__RTC_CheckEsp
	mov	esp, ebp
	pop	ebp
	ret	0
$L94604:
	DD	1
	DD	$L94603
$L94603:
	DD	-20					; ffffffecH
	DD	4
	DD	$L94602
$L94602:
	DB	114					; 00000072H
	DB	101					; 00000065H
	DB	115					; 00000073H
	DB	117					; 00000075H
	DB	108					; 0000006cH
	DB	116					; 00000074H
	DB	0
?GetCatchWordsWithDigits@CWSpell@@QAEHXZ ENDP		; CWSpell::GetCatchWordsWithDigits
_TEXT	ENDS
PUBLIC	?SetCatchWordsWithDigits@CWSpell@@QAEXH@Z	; CWSpell::SetCatchWordsWithDigits
; Function compile flags: /Odt /RTCcsu /ZI
;	COMDAT ?SetCatchWordsWithDigits@CWSpell@@QAEXH@Z
_TEXT	SEGMENT
_this$ = -8						; size = 4
_propVal$ = 8						; size = 4
?SetCatchWordsWithDigits@CWSpell@@QAEXH@Z PROC NEAR	; CWSpell::SetCatchWordsWithDigits, COMDAT
; _this$ = ecx

; 198  : {

	push	ebp
	mov	ebp, esp
	sub	esp, 204				; 000000ccH
	push	ebx
	push	esi
	push	edi
	push	ecx
	lea	edi, DWORD PTR [ebp-204]
	mov	ecx, 51					; 00000033H
	mov	eax, -858993460				; ccccccccH
	rep stosd
	pop	ecx
	mov	DWORD PTR _this$[ebp], ecx

; 199  : 	SetProperty(0x10, VT_BOOL, propVal);

	mov	eax, DWORD PTR _propVal$[ebp]
	push	eax
	push	11					; 0000000bH
	push	16					; 00000010H
	mov	ecx, DWORD PTR _this$[ebp]
	push	ecx
	call	?SetProperty@CWnd@@QAAXJGZZ		; CWnd::SetProperty
	add	esp, 16					; 00000010H

; 200  : }

	pop	edi
	pop	esi
	pop	ebx
	add	esp, 204				; 000000ccH
	cmp	ebp, esp
	call	__RTC_CheckEsp
	mov	esp, ebp
	pop	ebp
	ret	4
?SetCatchWordsWithDigits@CWSpell@@QAEXH@Z ENDP		; CWSpell::SetCatchWordsWithDigits
_TEXT	ENDS
PUBLIC	?GetCurrentWord@CWSpell@@QAE?AV?$CStringT@GV?$StrTraitMFC@GV?$ChTraitsCRT@G@ATL@@@@@ATL@@XZ ; CWSpell::GetCurrentWord
;	COMDAT xdata$x
xdata$x	SEGMENT
__unwindtable$?GetCurrentWord@CWSpell@@QAE?AV?$CStringT@GV?$StrTraitMFC@GV?$ChTraitsCRT@G@ATL@@@@@ATL@@XZ DD 0ffffffffH
	DD	FLAT:__unwindfunclet$?GetCurrentWord@CWSpell@@QAE?AV?$CStringT@GV?$StrTraitMFC@GV?$ChTraitsCRT@G@ATL@@@@@ATL@@XZ$0
__ehfuncinfo$?GetCurrentWord@CWSpell@@QAE?AV?$CStringT@GV?$StrTraitMFC@GV?$ChTraitsCRT@G@ATL@@@@@ATL@@XZ DD 019930520H
	DD	01H
	DD	FLAT:__unwindtable$?GetCurrentWord@CWSpell@@QAE?AV?$CStringT@GV?$StrTraitMFC@GV?$ChTraitsCRT@G@ATL@@@@@ATL@@XZ
	DD	2 DUP(00H)
	DD	2 DUP(00H)
; Function compile flags: /Odt /RTCcsu /ZI
xdata$x	ENDS
;	COMDAT ?GetCurrentWord@CWSpell@@QAE?AV?$CStringT@GV?$StrTraitMFC@GV?$ChTraitsCRT@G@ATL@@@@@ATL@@XZ
_TEXT	SEGMENT
$T94611 = -236						; size = 4
_result$ = -32						; size = 4
_this$ = -20						; size = 4
__$EHRec$ = -12						; size = 12
___$ReturnUdt$ = 8					; size = 4
?GetCurrentWord@CWSpell@@QAE?AV?$CStringT@GV?$StrTraitMFC@GV?$ChTraitsCRT@G@ATL@@@@@ATL@@XZ PROC NEAR ; CWSpell::GetCurrentWord, COMDAT
; _this$ = ecx

; 203  : {

	push	ebp
	mov	ebp, esp
	push	-1
	push	__ehhandler$?GetCurrentWord@CWSpell@@QAE?AV?$CStringT@GV?$StrTraitMFC@GV?$ChTraitsCRT@G@ATL@@@@@ATL@@XZ
	mov	eax, DWORD PTR fs:__except_list
	push	eax
	mov	DWORD PTR fs:__except_list, esp
	sub	esp, 228				; 000000e4H
	push	ebx
	push	esi
	push	edi
	push	ecx
	lea	edi, DWORD PTR [ebp-240]
	mov	ecx, 57					; 00000039H
	mov	eax, -858993460				; ccccccccH
	rep stosd
	pop	ecx
	mov	DWORD PTR _this$[ebp], ecx
	mov	DWORD PTR $T94611[ebp], 0

; 204  : 	CString result;

	lea	ecx, DWORD PTR _result$[ebp]
	call	??0?$CStringT@GV?$StrTraitMFC@GV?$ChTraitsCRT@G@ATL@@@@@ATL@@QAE@XZ ; ATL::CStringT<unsigned short,StrTraitMFC<unsigned short,ATL::ChTraitsCRT<unsigned short> > >::CStringT<unsigned short,StrTraitMFC<unsigned short,ATL::ChTraitsCRT<unsigned short> > >
	mov	DWORD PTR __$EHRec$[ebp+8], 0

; 205  : 	GetProperty(0x11, VT_BSTR, (void*)&result);

	lea	eax, DWORD PTR _result$[ebp]
	push	eax
	push	8
	push	17					; 00000011H
	mov	ecx, DWORD PTR _this$[ebp]
	call	?GetProperty@CWnd@@QBEXJGPAX@Z		; CWnd::GetProperty

; 206  : 	return result;

	lea	eax, DWORD PTR _result$[ebp]
	push	eax
	mov	ecx, DWORD PTR ___$ReturnUdt$[ebp]
	call	??0?$CStringT@GV?$StrTraitMFC@GV?$ChTraitsCRT@G@ATL@@@@@ATL@@QAE@ABV01@@Z ; ATL::CStringT<unsigned short,StrTraitMFC<unsigned short,ATL::ChTraitsCRT<unsigned short> > >::CStringT<unsigned short,StrTraitMFC<unsigned short,ATL::ChTraitsCRT<unsigned short> > >
	mov	ecx, DWORD PTR $T94611[ebp]
	or	ecx, 1
	mov	DWORD PTR $T94611[ebp], ecx
	mov	DWORD PTR __$EHRec$[ebp+8], -1
	lea	ecx, DWORD PTR _result$[ebp]
	call	??1?$CStringT@GV?$StrTraitMFC@GV?$ChTraitsCRT@G@ATL@@@@@ATL@@QAE@XZ ; ATL::CStringT<unsigned short,StrTraitMFC<unsigned short,ATL::ChTraitsCRT<unsigned short> > >::~CStringT<unsigned short,StrTraitMFC<unsigned short,ATL::ChTraitsCRT<unsigned short> > >
	mov	eax, DWORD PTR ___$ReturnUdt$[ebp]

; 207  : }

	push	edx
	mov	ecx, ebp
	push	eax
	lea	edx, DWORD PTR $L94618
	call	@_RTC_CheckStackVars@8
	pop	eax
	pop	edx
	mov	ecx, DWORD PTR __$EHRec$[ebp]
	mov	DWORD PTR fs:__except_list, ecx
	pop	edi
	pop	esi
	pop	ebx
	add	esp, 240				; 000000f0H
	cmp	ebp, esp
	call	__RTC_CheckEsp
	mov	esp, ebp
	pop	ebp
	ret	4
$L94618:
	DD	1
	DD	$L94617
$L94617:
	DD	-32					; ffffffe0H
	DD	4
	DD	$L94615
$L94615:
	DB	114					; 00000072H
	DB	101					; 00000065H
	DB	115					; 00000073H
	DB	117					; 00000075H
	DB	108					; 0000006cH
	DB	116					; 00000074H
	DB	0
_TEXT	ENDS
;	COMDAT text$x
text$x	SEGMENT
__unwindfunclet$?GetCurrentWord@CWSpell@@QAE?AV?$CStringT@GV?$StrTraitMFC@GV?$ChTraitsCRT@G@ATL@@@@@ATL@@XZ$0:
	lea	ecx, DWORD PTR _result$[ebp]
	jmp	??1?$CStringT@GV?$StrTraitMFC@GV?$ChTraitsCRT@G@ATL@@@@@ATL@@QAE@XZ ; ATL::CStringT<unsigned short,StrTraitMFC<unsigned short,ATL::ChTraitsCRT<unsigned short> > >::~CStringT<unsigned short,StrTraitMFC<unsigned short,ATL::ChTraitsCRT<unsigned short> > >
__ehhandler$?GetCurrentWord@CWSpell@@QAE?AV?$CStringT@GV?$StrTraitMFC@GV?$ChTraitsCRT@G@ATL@@@@@ATL@@XZ:
	mov	eax, OFFSET FLAT:__ehfuncinfo$?GetCurrentWord@CWSpell@@QAE?AV?$CStringT@GV?$StrTraitMFC@GV?$ChTraitsCRT@G@ATL@@@@@ATL@@XZ
	jmp	___CxxFrameHandler
text$x	ENDS
?GetCurrentWord@CWSpell@@QAE?AV?$CStringT@GV?$StrTraitMFC@GV?$ChTraitsCRT@G@ATL@@@@@ATL@@XZ ENDP ; CWSpell::GetCurrentWord
PUBLIC	?InterlockedExchangePointer@@YGPAXPAPAXPAX@Z	; InterlockedExchangePointer
PUBLIC	?_AtlGetThreadACPFake@ATL@@YGIXZ		; ATL::_AtlGetThreadACPFake
PUBLIC	?_AtlGetThreadACPReal@ATL@@YGIXZ		; ATL::_AtlGetThreadACPReal
EXTRN	__imp__GetVersionExW@4:NEAR
; Function compile flags: /Odt /RTCcsu /ZI
; File c:\program files\microsoft visual studio .net 2003\vc7\atlmfc\include\atlconv.h
;	COMDAT ?_AtlGetThreadACPThunk@ATL@@YGIXZ
_TEXT	SEGMENT
_pfnGetThreadACP$ = -296				; size = 4
_ver$ = -284						; size = 276
__$ArrayPad$ = -4					; size = 4
__$ReturnAddr$ = 4					; size = 4
?_AtlGetThreadACPThunk@ATL@@YGIXZ PROC NEAR		; ATL::_AtlGetThreadACPThunk, COMDAT

; 134  : {

	push	ebp
	mov	ebp, esp
	sub	esp, 492				; 000001ecH
	push	ebx
	push	esi
	push	edi
	lea	edi, DWORD PTR [ebp-492]
	mov	ecx, 123				; 0000007bH
	mov	eax, -858993460				; ccccccccH
	rep stosd
	mov	eax, DWORD PTR ___security_cookie
	mov	DWORD PTR __$ArrayPad$[ebp], eax

; 135  : 	OSVERSIONINFO ver;
; 136  : 	ATLGETTHREADACP pfnGetThreadACP;
; 137  : 
; 138  : 	ver.dwOSVersionInfoSize = sizeof( ver );

	mov	DWORD PTR _ver$[ebp], 276		; 00000114H

; 139  : 	::GetVersionEx( &ver );

	mov	esi, esp
	lea	eax, DWORD PTR _ver$[ebp]
	push	eax
	call	DWORD PTR __imp__GetVersionExW@4
	cmp	esi, esp
	call	__RTC_CheckEsp

; 140  : 	if( (ver.dwPlatformId == VER_PLATFORM_WIN32_NT) && (ver.dwMajorVersion >= 5) )

	cmp	DWORD PTR _ver$[ebp+16], 2
	jne	SHORT $L24087
	cmp	DWORD PTR _ver$[ebp+4], 5
	jb	SHORT $L24087

; 141  : 	{
; 142  : 		// On Win2K, CP_THREAD_ACP is supported
; 143  : 		pfnGetThreadACP = _AtlGetThreadACPReal;

	mov	DWORD PTR _pfnGetThreadACP$[ebp], OFFSET FLAT:?_AtlGetThreadACPReal@ATL@@YGIXZ ; ATL::_AtlGetThreadACPReal

; 144  : 	}
; 145  : 	else

	jmp	SHORT $L24088
$L24087:

; 146  : 	{
; 147  : 		pfnGetThreadACP = _AtlGetThreadACPFake;

	mov	DWORD PTR _pfnGetThreadACP$[ebp], OFFSET FLAT:?_AtlGetThreadACPFake@ATL@@YGIXZ ; ATL::_AtlGetThreadACPFake
$L24088:

; 148  : 	}
; 149  : 	InterlockedExchangePointer( reinterpret_cast< void** >(&g_pfnGetThreadACP), pfnGetThreadACP );

	mov	eax, DWORD PTR _pfnGetThreadACP$[ebp]
	push	eax
	push	OFFSET FLAT:?g_pfnGetThreadACP@ATL@@3P6GIXZA ; ATL::g_pfnGetThreadACP
	call	?InterlockedExchangePointer@@YGPAXPAPAXPAX@Z ; InterlockedExchangePointer

; 150  : 
; 151  : 	return( g_pfnGetThreadACP() );

	mov	esi, esp
	call	DWORD PTR ?g_pfnGetThreadACP@ATL@@3P6GIXZA ; ATL::g_pfnGetThreadACP
	cmp	esi, esp
	call	__RTC_CheckEsp

; 152  : }

	push	edx
	mov	ecx, ebp
	push	eax
	lea	edx, DWORD PTR $L94628
	call	@_RTC_CheckStackVars@8
	pop	eax
	pop	edx
	mov	ecx, DWORD PTR __$ArrayPad$[ebp]
	call	@__security_check_cookie@4
	pop	edi
	pop	esi
	pop	ebx
	add	esp, 492				; 000001ecH
	cmp	ebp, esp
	call	__RTC_CheckEsp
	mov	esp, ebp
	pop	ebp
	ret	0
$L94628:
	DD	1
	DD	$L94627
$L94627:
	DD	-284					; fffffee4H
	DD	276					; 00000114H
	DD	$L94625
$L94625:
	DB	118					; 00000076H
	DB	101					; 00000065H
	DB	114					; 00000072H
	DB	0
?_AtlGetThreadACPThunk@ATL@@YGIXZ ENDP			; ATL::_AtlGetThreadACPThunk
_TEXT	ENDS
EXTRN	__imp__InterlockedExchange@8:NEAR
; Function compile flags: /Odt /RTCcsu /ZI
;	COMDAT ?InterlockedExchangePointer@@YGPAXPAPAXPAX@Z
_TEXT	SEGMENT
_pp$ = 8						; size = 4
_pNew$ = 12						; size = 4
?InterlockedExchangePointer@@YGPAXPAPAXPAX@Z PROC NEAR	; InterlockedExchangePointer, COMDAT

; 91   : {

	push	ebp
	mov	ebp, esp
	sub	esp, 192				; 000000c0H
	push	ebx
	push	esi
	push	edi
	lea	edi, DWORD PTR [ebp-192]
	mov	ecx, 48					; 00000030H
	mov	eax, -858993460				; ccccccccH
	rep stosd

; 92   : 	return( reinterpret_cast<void*>(static_cast<LONG_PTR>(::InterlockedExchange(reinterpret_cast<LONG*>(pp), static_cast<LONG>(reinterpret_cast<LONG_PTR>(pNew))))) );

	mov	esi, esp
	mov	eax, DWORD PTR _pNew$[ebp]
	push	eax
	mov	ecx, DWORD PTR _pp$[ebp]
	push	ecx
	call	DWORD PTR __imp__InterlockedExchange@8
	cmp	esi, esp
	call	__RTC_CheckEsp

; 93   : }

	pop	edi
	pop	esi
	pop	ebx
	add	esp, 192				; 000000c0H
	cmp	ebp, esp
	call	__RTC_CheckEsp
	mov	esp, ebp
	pop	ebp
	ret	8
?InterlockedExchangePointer@@YGPAXPAPAXPAX@Z ENDP	; InterlockedExchangePointer
_TEXT	ENDS
EXTRN	__imp__GetACP@0:NEAR
EXTRN	__imp__GetLocaleInfoA@16:NEAR
EXTRN	__imp__GetThreadLocale@0:NEAR
; Function compile flags: /Odt /RTCcsu /ZI
;	COMDAT ?_AtlGetThreadACPFake@ATL@@YGIXZ
_TEXT	SEGMENT
_pch$24075 = -52					; size = 4
_szACP$ = -40						; size = 7
_lcidThread$ = -24					; size = 4
_nACP$ = -12						; size = 4
__$ArrayPad$ = -4					; size = 4
__$ReturnAddr$ = 4					; size = 4
?_AtlGetThreadACPFake@ATL@@YGIXZ PROC NEAR		; ATL::_AtlGetThreadACPFake, COMDAT

; 101  : {

	push	ebp
	mov	ebp, esp
	sub	esp, 248				; 000000f8H
	push	ebx
	push	esi
	push	edi
	lea	edi, DWORD PTR [ebp-248]
	mov	ecx, 62					; 0000003eH
	mov	eax, -858993460				; ccccccccH
	rep stosd
	mov	eax, DWORD PTR ___security_cookie
	mov	DWORD PTR __$ArrayPad$[ebp], eax

; 102  : 	UINT nACP = 0;

	mov	DWORD PTR _nACP$[ebp], 0

; 103  : 
; 104  : 	LCID lcidThread = ::GetThreadLocale();

	mov	esi, esp
	call	DWORD PTR __imp__GetThreadLocale@0
	cmp	esi, esp
	call	__RTC_CheckEsp
	mov	DWORD PTR _lcidThread$[ebp], eax

; 105  : 
; 106  : 	char szACP[7];
; 107  : 	// GetLocaleInfoA will fail for a Unicode-only LCID, but those are only supported on 
; 108  : 	// Windows 2000.  Since Windows 2000 supports CP_THREAD_ACP, this code path is never
; 109  : 	// executed on Windows 2000.
; 110  : 	if (::GetLocaleInfoA(lcidThread, LOCALE_IDEFAULTANSICODEPAGE, szACP, 7) != 0)

	mov	esi, esp
	push	7
	lea	eax, DWORD PTR _szACP$[ebp]
	push	eax
	push	4100					; 00001004H
	mov	ecx, DWORD PTR _lcidThread$[ebp]
	push	ecx
	call	DWORD PTR __imp__GetLocaleInfoA@16
	cmp	esi, esp
	call	__RTC_CheckEsp
	test	eax, eax
	je	SHORT $L24074

; 111  : 	{
; 112  : 		char* pch = szACP;

	lea	eax, DWORD PTR _szACP$[ebp]
	mov	DWORD PTR _pch$24075[ebp], eax
$L24077:

; 113  : 		while (*pch != '\0')

	mov	eax, DWORD PTR _pch$24075[ebp]
	movsx	ecx, BYTE PTR [eax]
	test	ecx, ecx
	je	SHORT $L24074

; 114  : 		{
; 115  : 			nACP *= 10;

	mov	eax, DWORD PTR _nACP$[ebp]
	imul	eax, 10					; 0000000aH
	mov	DWORD PTR _nACP$[ebp], eax

; 116  : 			nACP += *pch++ - '0';

	mov	eax, DWORD PTR _pch$24075[ebp]
	movsx	ecx, BYTE PTR [eax]
	mov	edx, DWORD PTR _nACP$[ebp]
	lea	eax, DWORD PTR [edx+ecx-48]
	mov	DWORD PTR _nACP$[ebp], eax
	mov	ecx, DWORD PTR _pch$24075[ebp]
	add	ecx, 1
	mov	DWORD PTR _pch$24075[ebp], ecx

; 117  : 		}

	jmp	SHORT $L24077
$L24074:

; 118  : 	}
; 119  : 	// Use the Default ANSI Code Page if we were unable to get the thread ACP or if one does not exist.
; 120  : 	if (nACP == 0)

	cmp	DWORD PTR _nACP$[ebp], 0
	jne	SHORT $L24079

; 121  : 		nACP = ::GetACP();

	mov	esi, esp
	call	DWORD PTR __imp__GetACP@0
	cmp	esi, esp
	call	__RTC_CheckEsp
	mov	DWORD PTR _nACP$[ebp], eax
$L24079:

; 122  : 
; 123  : 	return nACP;

	mov	eax, DWORD PTR _nACP$[ebp]

; 124  : }

	push	edx
	mov	ecx, ebp
	push	eax
	lea	edx, DWORD PTR $L94637
	call	@_RTC_CheckStackVars@8
	pop	eax
	pop	edx
	mov	ecx, DWORD PTR __$ArrayPad$[ebp]
	call	@__security_check_cookie@4
	pop	edi
	pop	esi
	pop	ebx
	add	esp, 248				; 000000f8H
	cmp	ebp, esp
	call	__RTC_CheckEsp
	mov	esp, ebp
	pop	ebp
	ret	0
$L94637:
	DD	1
	DD	$L94636
$L94636:
	DD	-40					; ffffffd8H
	DD	7
	DD	$L94634
$L94634:
	DB	115					; 00000073H
	DB	122					; 0000007aH
	DB	65					; 00000041H
	DB	67					; 00000043H
	DB	80					; 00000050H
	DB	0
?_AtlGetThreadACPFake@ATL@@YGIXZ ENDP			; ATL::_AtlGetThreadACPFake
; Function compile flags: /Odt /RTCcsu /ZI
_TEXT	ENDS
;	COMDAT ?_AtlGetThreadACPReal@ATL@@YGIXZ
_TEXT	SEGMENT
?_AtlGetThreadACPReal@ATL@@YGIXZ PROC NEAR		; ATL::_AtlGetThreadACPReal, COMDAT

; 127  : {

	push	ebp
	mov	ebp, esp
	sub	esp, 192				; 000000c0H
	push	ebx
	push	esi
	push	edi
	lea	edi, DWORD PTR [ebp-192]
	mov	ecx, 48					; 00000030H
	mov	eax, -858993460				; ccccccccH
	rep stosd

; 128  : 	return( CP_THREAD_ACP );

	mov	eax, 3

; 129  : }

	pop	edi
	pop	esi
	pop	ebx
	mov	esp, ebp
	pop	ebp
	ret	0
?_AtlGetThreadACPReal@ATL@@YGIXZ ENDP			; ATL::_AtlGetThreadACPReal
_TEXT	ENDS
PUBLIC	?SetCurrentWord@CWSpell@@QAEXPBG@Z		; CWSpell::SetCurrentWord
; Function compile flags: /Odt /RTCcsu /ZI
; File c:\astrow32dev\tbt32\wspell.cpp
;	COMDAT ?SetCurrentWord@CWSpell@@QAEXPBG@Z
_TEXT	SEGMENT
_this$ = -8						; size = 4
_propVal$ = 8						; size = 4
?SetCurrentWord@CWSpell@@QAEXPBG@Z PROC NEAR		; CWSpell::SetCurrentWord, COMDAT
; _this$ = ecx

; 210  : {

	push	ebp
	mov	ebp, esp
	sub	esp, 204				; 000000ccH
	push	ebx
	push	esi
	push	edi
	push	ecx
	lea	edi, DWORD PTR [ebp-204]
	mov	ecx, 51					; 00000033H
	mov	eax, -858993460				; ccccccccH
	rep stosd
	pop	ecx
	mov	DWORD PTR _this$[ebp], ecx

; 211  : 	SetProperty(0x11, VT_BSTR, propVal);

	mov	eax, DWORD PTR _propVal$[ebp]
	push	eax
	push	8
	push	17					; 00000011H
	mov	ecx, DWORD PTR _this$[ebp]
	push	ecx
	call	?SetProperty@CWnd@@QAAXJGZZ		; CWnd::SetProperty
	add	esp, 16					; 00000010H

; 212  : }

	pop	edi
	pop	esi
	pop	ebx
	add	esp, 204				; 000000ccH
	cmp	ebp, esp
	call	__RTC_CheckEsp
	mov	esp, ebp
	pop	ebp
	ret	4
?SetCurrentWord@CWSpell@@QAEXPBG@Z ENDP			; CWSpell::SetCurrentWord
_TEXT	ENDS
PUBLIC	?GetIgnoreAllCapsWords@CWSpell@@QAEHXZ		; CWSpell::GetIgnoreAllCapsWords
; Function compile flags: /Odt /RTCcsu /ZI
;	COMDAT ?GetIgnoreAllCapsWords@CWSpell@@QAEHXZ
_TEXT	SEGMENT
_result$ = -20						; size = 4
_this$ = -8						; size = 4
?GetIgnoreAllCapsWords@CWSpell@@QAEHXZ PROC NEAR	; CWSpell::GetIgnoreAllCapsWords, COMDAT
; _this$ = ecx

; 215  : {

	push	ebp
	mov	ebp, esp
	sub	esp, 216				; 000000d8H
	push	ebx
	push	esi
	push	edi
	push	ecx
	lea	edi, DWORD PTR [ebp-216]
	mov	ecx, 54					; 00000036H
	mov	eax, -858993460				; ccccccccH
	rep stosd
	pop	ecx
	mov	DWORD PTR _this$[ebp], ecx

; 216  : 	BOOL result;
; 217  : 	GetProperty(0x12, VT_BOOL, (void*)&result);

	lea	eax, DWORD PTR _result$[ebp]
	push	eax
	push	11					; 0000000bH
	push	18					; 00000012H
	mov	ecx, DWORD PTR _this$[ebp]
	call	?GetProperty@CWnd@@QBEXJGPAX@Z		; CWnd::GetProperty

; 218  : 	return result;

	mov	eax, DWORD PTR _result$[ebp]

; 219  : }

	push	edx
	mov	ecx, ebp
	push	eax
	lea	edx, DWORD PTR $L94646
	call	@_RTC_CheckStackVars@8
	pop	eax
	pop	edx
	pop	edi
	pop	esi
	pop	ebx
	add	esp, 216				; 000000d8H
	cmp	ebp, esp
	call	__RTC_CheckEsp
	mov	esp, ebp
	pop	ebp
	ret	0
$L94646:
	DD	1
	DD	$L94645
$L94645:
	DD	-20					; ffffffecH
	DD	4
	DD	$L94644
$L94644:
	DB	114					; 00000072H
	DB	101					; 00000065H
	DB	115					; 00000073H
	DB	117					; 00000075H
	DB	108					; 0000006cH
	DB	116					; 00000074H
	DB	0
?GetIgnoreAllCapsWords@CWSpell@@QAEHXZ ENDP		; CWSpell::GetIgnoreAllCapsWords
_TEXT	ENDS
PUBLIC	?SetIgnoreAllCapsWords@CWSpell@@QAEXH@Z		; CWSpell::SetIgnoreAllCapsWords
; Function compile flags: /Odt /RTCcsu /ZI
;	COMDAT ?SetIgnoreAllCapsWords@CWSpell@@QAEXH@Z
_TEXT	SEGMENT
_this$ = -8						; size = 4
_propVal$ = 8						; size = 4
?SetIgnoreAllCapsWords@CWSpell@@QAEXH@Z PROC NEAR	; CWSpell::SetIgnoreAllCapsWords, COMDAT
; _this$ = ecx

; 222  : {

	push	ebp
	mov	ebp, esp
	sub	esp, 204				; 000000ccH
	push	ebx
	push	esi
	push	edi
	push	ecx
	lea	edi, DWORD PTR [ebp-204]
	mov	ecx, 51					; 00000033H
	mov	eax, -858993460				; ccccccccH
	rep stosd
	pop	ecx
	mov	DWORD PTR _this$[ebp], ecx

; 223  : 	SetProperty(0x12, VT_BOOL, propVal);

	mov	eax, DWORD PTR _propVal$[ebp]
	push	eax
	push	11					; 0000000bH
	push	18					; 00000012H
	mov	ecx, DWORD PTR _this$[ebp]
	push	ecx
	call	?SetProperty@CWnd@@QAAXJGZZ		; CWnd::SetProperty
	add	esp, 16					; 00000010H

; 224  : }

	pop	edi
	pop	esi
	pop	ebx
	add	esp, 204				; 000000ccH
	cmp	ebp, esp
	call	__RTC_CheckEsp
	mov	esp, ebp
	pop	ebp
	ret	4
?SetIgnoreAllCapsWords@CWSpell@@QAEXH@Z ENDP		; CWSpell::SetIgnoreAllCapsWords
_TEXT	ENDS
PUBLIC	?GetIgnoreMixedCaseWords@CWSpell@@QAEHXZ	; CWSpell::GetIgnoreMixedCaseWords
; Function compile flags: /Odt /RTCcsu /ZI
;	COMDAT ?GetIgnoreMixedCaseWords@CWSpell@@QAEHXZ
_TEXT	SEGMENT
_result$ = -20						; size = 4
_this$ = -8						; size = 4
?GetIgnoreMixedCaseWords@CWSpell@@QAEHXZ PROC NEAR	; CWSpell::GetIgnoreMixedCaseWords, COMDAT
; _this$ = ecx

; 227  : {

	push	ebp
	mov	ebp, esp
	sub	esp, 216				; 000000d8H
	push	ebx
	push	esi
	push	edi
	push	ecx
	lea	edi, DWORD PTR [ebp-216]
	mov	ecx, 54					; 00000036H
	mov	eax, -858993460				; ccccccccH
	rep stosd
	pop	ecx
	mov	DWORD PTR _this$[ebp], ecx

; 228  : 	BOOL result;
; 229  : 	GetProperty(0x13, VT_BOOL, (void*)&result);

	lea	eax, DWORD PTR _result$[ebp]
	push	eax
	push	11					; 0000000bH
	push	19					; 00000013H
	mov	ecx, DWORD PTR _this$[ebp]
	call	?GetProperty@CWnd@@QBEXJGPAX@Z		; CWnd::GetProperty

; 230  : 	return result;

	mov	eax, DWORD PTR _result$[ebp]

; 231  : }

	push	edx
	mov	ecx, ebp
	push	eax
	lea	edx, DWORD PTR $L94653
	call	@_RTC_CheckStackVars@8
	pop	eax
	pop	edx
	pop	edi
	pop	esi
	pop	ebx
	add	esp, 216				; 000000d8H
	cmp	ebp, esp
	call	__RTC_CheckEsp
	mov	esp, ebp
	pop	ebp
	ret	0
$L94653:
	DD	1
	DD	$L94652
$L94652:
	DD	-20					; ffffffecH
	DD	4
	DD	$L94651
$L94651:
	DB	114					; 00000072H
	DB	101					; 00000065H
	DB	115					; 00000073H
	DB	117					; 00000075H
	DB	108					; 0000006cH
	DB	116					; 00000074H
	DB	0
?GetIgnoreMixedCaseWords@CWSpell@@QAEHXZ ENDP		; CWSpell::GetIgnoreMixedCaseWords
_TEXT	ENDS
PUBLIC	?SetIgnoreMixedCaseWords@CWSpell@@QAEXH@Z	; CWSpell::SetIgnoreMixedCaseWords
; Function compile flags: /Odt /RTCcsu /ZI
;	COMDAT ?SetIgnoreMixedCaseWords@CWSpell@@QAEXH@Z
_TEXT	SEGMENT
_this$ = -8						; size = 4
_propVal$ = 8						; size = 4
?SetIgnoreMixedCaseWords@CWSpell@@QAEXH@Z PROC NEAR	; CWSpell::SetIgnoreMixedCaseWords, COMDAT
; _this$ = ecx

; 234  : {

	push	ebp
	mov	ebp, esp
	sub	esp, 204				; 000000ccH
	push	ebx
	push	esi
	push	edi
	push	ecx
	lea	edi, DWORD PTR [ebp-204]
	mov	ecx, 51					; 00000033H
	mov	eax, -858993460				; ccccccccH
	rep stosd
	pop	ecx
	mov	DWORD PTR _this$[ebp], ecx

; 235  : 	SetProperty(0x13, VT_BOOL, propVal);

	mov	eax, DWORD PTR _propVal$[ebp]
	push	eax
	push	11					; 0000000bH
	push	19					; 00000013H
	mov	ecx, DWORD PTR _this$[ebp]
	push	ecx
	call	?SetProperty@CWnd@@QAAXJGZZ		; CWnd::SetProperty
	add	esp, 16					; 00000010H

; 236  : }

	pop	edi
	pop	esi
	pop	ebx
	add	esp, 204				; 000000ccH
	cmp	ebp, esp
	call	__RTC_CheckEsp
	mov	esp, ebp
	pop	ebp
	ret	4
?SetIgnoreMixedCaseWords@CWSpell@@QAEXH@Z ENDP		; CWSpell::SetIgnoreMixedCaseWords
_TEXT	ENDS
PUBLIC	?GetIgnoreWordsWithDigits@CWSpell@@QAEHXZ	; CWSpell::GetIgnoreWordsWithDigits
; Function compile flags: /Odt /RTCcsu /ZI
;	COMDAT ?GetIgnoreWordsWithDigits@CWSpell@@QAEHXZ
_TEXT	SEGMENT
_result$ = -20						; size = 4
_this$ = -8						; size = 4
?GetIgnoreWordsWithDigits@CWSpell@@QAEHXZ PROC NEAR	; CWSpell::GetIgnoreWordsWithDigits, COMDAT
; _this$ = ecx

; 239  : {

	push	ebp
	mov	ebp, esp
	sub	esp, 216				; 000000d8H
	push	ebx
	push	esi
	push	edi
	push	ecx
	lea	edi, DWORD PTR [ebp-216]
	mov	ecx, 54					; 00000036H
	mov	eax, -858993460				; ccccccccH
	rep stosd
	pop	ecx
	mov	DWORD PTR _this$[ebp], ecx

; 240  : 	BOOL result;
; 241  : 	GetProperty(0x14, VT_BOOL, (void*)&result);

	lea	eax, DWORD PTR _result$[ebp]
	push	eax
	push	11					; 0000000bH
	push	20					; 00000014H
	mov	ecx, DWORD PTR _this$[ebp]
	call	?GetProperty@CWnd@@QBEXJGPAX@Z		; CWnd::GetProperty

; 242  : 	return result;

	mov	eax, DWORD PTR _result$[ebp]

; 243  : }

	push	edx
	mov	ecx, ebp
	push	eax
	lea	edx, DWORD PTR $L94660
	call	@_RTC_CheckStackVars@8
	pop	eax
	pop	edx
	pop	edi
	pop	esi
	pop	ebx
	add	esp, 216				; 000000d8H
	cmp	ebp, esp
	call	__RTC_CheckEsp
	mov	esp, ebp
	pop	ebp
	ret	0
$L94660:
	DD	1
	DD	$L94659
$L94659:
	DD	-20					; ffffffecH
	DD	4
	DD	$L94658
$L94658:
	DB	114					; 00000072H
	DB	101					; 00000065H
	DB	115					; 00000073H
	DB	117					; 00000075H
	DB	108					; 0000006cH
	DB	116					; 00000074H
	DB	0
?GetIgnoreWordsWithDigits@CWSpell@@QAEHXZ ENDP		; CWSpell::GetIgnoreWordsWithDigits
_TEXT	ENDS
PUBLIC	?SetIgnoreWordsWithDigits@CWSpell@@QAEXH@Z	; CWSpell::SetIgnoreWordsWithDigits
; Function compile flags: /Odt /RTCcsu /ZI
;	COMDAT ?SetIgnoreWordsWithDigits@CWSpell@@QAEXH@Z
_TEXT	SEGMENT
_this$ = -8						; size = 4
_propVal$ = 8						; size = 4
?SetIgnoreWordsWithDigits@CWSpell@@QAEXH@Z PROC NEAR	; CWSpell::SetIgnoreWordsWithDigits, COMDAT
; _this$ = ecx

; 246  : {

	push	ebp
	mov	ebp, esp
	sub	esp, 204				; 000000ccH
	push	ebx
	push	esi
	push	edi
	push	ecx
	lea	edi, DWORD PTR [ebp-204]
	mov	ecx, 51					; 00000033H
	mov	eax, -858993460				; ccccccccH
	rep stosd
	pop	ecx
	mov	DWORD PTR _this$[ebp], ecx

; 247  : 	SetProperty(0x14, VT_BOOL, propVal);

	mov	eax, DWORD PTR _propVal$[ebp]
	push	eax
	push	11					; 0000000bH
	push	20					; 00000014H
	mov	ecx, DWORD PTR _this$[ebp]
	push	ecx
	call	?SetProperty@CWnd@@QAAXJGZZ		; CWnd::SetProperty
	add	esp, 16					; 00000010H

; 248  : }

	pop	edi
	pop	esi
	pop	ebx
	add	esp, 204				; 000000ccH
	cmp	ebp, esp
	call	__RTC_CheckEsp
	mov	esp, ebp
	pop	ebp
	ret	4
?SetIgnoreWordsWithDigits@CWSpell@@QAEXH@Z ENDP		; CWSpell::SetIgnoreWordsWithDigits
_TEXT	ENDS
PUBLIC	?GetMainDictionaryCount@CWSpell@@QAEFXZ		; CWSpell::GetMainDictionaryCount
; Function compile flags: /Odt /RTCcsu /ZI
;	COMDAT ?GetMainDictionaryCount@CWSpell@@QAEFXZ
_TEXT	SEGMENT
_result$ = -20						; size = 2
_this$ = -8						; size = 4
?GetMainDictionaryCount@CWSpell@@QAEFXZ PROC NEAR	; CWSpell::GetMainDictionaryCount, COMDAT
; _this$ = ecx

; 251  : {

	push	ebp
	mov	ebp, esp
	sub	esp, 216				; 000000d8H
	push	ebx
	push	esi
	push	edi
	push	ecx
	lea	edi, DWORD PTR [ebp-216]
	mov	ecx, 54					; 00000036H
	mov	eax, -858993460				; ccccccccH
	rep stosd
	pop	ecx
	mov	DWORD PTR _this$[ebp], ecx

; 252  : 	short result;
; 253  : 	GetProperty(0x15, VT_I2, (void*)&result);

	lea	eax, DWORD PTR _result$[ebp]
	push	eax
	push	2
	push	21					; 00000015H
	mov	ecx, DWORD PTR _this$[ebp]
	call	?GetProperty@CWnd@@QBEXJGPAX@Z		; CWnd::GetProperty

; 254  : 	return result;

	mov	ax, WORD PTR _result$[ebp]

; 255  : }

	push	edx
	mov	ecx, ebp
	push	eax
	lea	edx, DWORD PTR $L94667
	call	@_RTC_CheckStackVars@8
	pop	eax
	pop	edx
	pop	edi
	pop	esi
	pop	ebx
	add	esp, 216				; 000000d8H
	cmp	ebp, esp
	call	__RTC_CheckEsp
	mov	esp, ebp
	pop	ebp
	ret	0
$L94667:
	DD	1
	DD	$L94666
$L94666:
	DD	-20					; ffffffecH
	DD	2
	DD	$L94665
$L94665:
	DB	114					; 00000072H
	DB	101					; 00000065H
	DB	115					; 00000073H
	DB	117					; 00000075H
	DB	108					; 0000006cH
	DB	116					; 00000074H
	DB	0
?GetMainDictionaryCount@CWSpell@@QAEFXZ ENDP		; CWSpell::GetMainDictionaryCount
_TEXT	ENDS
PUBLIC	?SetMainDictionaryCount@CWSpell@@QAEXF@Z	; CWSpell::SetMainDictionaryCount
; Function compile flags: /Odt /RTCcsu /ZI
;	COMDAT ?SetMainDictionaryCount@CWSpell@@QAEXF@Z
_TEXT	SEGMENT
_this$ = -8						; size = 4
_propVal$ = 8						; size = 2
?SetMainDictionaryCount@CWSpell@@QAEXF@Z PROC NEAR	; CWSpell::SetMainDictionaryCount, COMDAT
; _this$ = ecx

; 258  : {

	push	ebp
	mov	ebp, esp
	sub	esp, 204				; 000000ccH
	push	ebx
	push	esi
	push	edi
	push	ecx
	lea	edi, DWORD PTR [ebp-204]
	mov	ecx, 51					; 00000033H
	mov	eax, -858993460				; ccccccccH
	rep stosd
	pop	ecx
	mov	DWORD PTR _this$[ebp], ecx

; 259  : 	SetProperty(0x15, VT_I2, propVal);

	movsx	eax, WORD PTR _propVal$[ebp]
	push	eax
	push	2
	push	21					; 00000015H
	mov	ecx, DWORD PTR _this$[ebp]
	push	ecx
	call	?SetProperty@CWnd@@QAAXJGZZ		; CWnd::SetProperty
	add	esp, 16					; 00000010H

; 260  : }

	pop	edi
	pop	esi
	pop	ebx
	add	esp, 204				; 000000ccH
	cmp	ebp, esp
	call	__RTC_CheckEsp
	mov	esp, ebp
	pop	ebp
	ret	4
?SetMainDictionaryCount@CWSpell@@QAEXF@Z ENDP		; CWSpell::SetMainDictionaryCount
_TEXT	ENDS
PUBLIC	?GetMainDictionaryFiles@CWSpell@@QAE?AV?$CStringT@GV?$StrTraitMFC@GV?$ChTraitsCRT@G@ATL@@@@@ATL@@XZ ; CWSpell::GetMainDictionaryFiles
;	COMDAT xdata$x
xdata$x	SEGMENT
__unwindtable$?GetMainDictionaryFiles@CWSpell@@QAE?AV?$CStringT@GV?$StrTraitMFC@GV?$ChTraitsCRT@G@ATL@@@@@ATL@@XZ DD 0ffffffffH
	DD	FLAT:__unwindfunclet$?GetMainDictionaryFiles@CWSpell@@QAE?AV?$CStringT@GV?$StrTraitMFC@GV?$ChTraitsCRT@G@ATL@@@@@ATL@@XZ$0
__ehfuncinfo$?GetMainDictionaryFiles@CWSpell@@QAE?AV?$CStringT@GV?$StrTraitMFC@GV?$ChTraitsCRT@G@ATL@@@@@ATL@@XZ DD 019930520H
	DD	01H
	DD	FLAT:__unwindtable$?GetMainDictionaryFiles@CWSpell@@QAE?AV?$CStringT@GV?$StrTraitMFC@GV?$ChTraitsCRT@G@ATL@@@@@ATL@@XZ
	DD	2 DUP(00H)
	DD	2 DUP(00H)
; Function compile flags: /Odt /RTCcsu /ZI
xdata$x	ENDS
;	COMDAT ?GetMainDictionaryFiles@CWSpell@@QAE?AV?$CStringT@GV?$StrTraitMFC@GV?$ChTraitsCRT@G@ATL@@@@@ATL@@XZ
_TEXT	SEGMENT
$T94674 = -236						; size = 4
_result$ = -32						; size = 4
_this$ = -20						; size = 4
__$EHRec$ = -12						; size = 12
___$ReturnUdt$ = 8					; size = 4
?GetMainDictionaryFiles@CWSpell@@QAE?AV?$CStringT@GV?$StrTraitMFC@GV?$ChTraitsCRT@G@ATL@@@@@ATL@@XZ PROC NEAR ; CWSpell::GetMainDictionaryFiles, COMDAT
; _this$ = ecx

; 263  : {

	push	ebp
	mov	ebp, esp
	push	-1
	push	__ehhandler$?GetMainDictionaryFiles@CWSpell@@QAE?AV?$CStringT@GV?$StrTraitMFC@GV?$ChTraitsCRT@G@ATL@@@@@ATL@@XZ
	mov	eax, DWORD PTR fs:__except_list
	push	eax
	mov	DWORD PTR fs:__except_list, esp
	sub	esp, 228				; 000000e4H
	push	ebx
	push	esi
	push	edi
	push	ecx
	lea	edi, DWORD PTR [ebp-240]
	mov	ecx, 57					; 00000039H
	mov	eax, -858993460				; ccccccccH
	rep stosd
	pop	ecx
	mov	DWORD PTR _this$[ebp], ecx
	mov	DWORD PTR $T94674[ebp], 0

; 264  : 	CString result;

	lea	ecx, DWORD PTR _result$[ebp]
	call	??0?$CStringT@GV?$StrTraitMFC@GV?$ChTraitsCRT@G@ATL@@@@@ATL@@QAE@XZ ; ATL::CStringT<unsigned short,StrTraitMFC<unsigned short,ATL::ChTraitsCRT<unsigned short> > >::CStringT<unsigned short,StrTraitMFC<unsigned short,ATL::ChTraitsCRT<unsigned short> > >
	mov	DWORD PTR __$EHRec$[ebp+8], 0

; 265  : 	GetProperty(0x16, VT_BSTR, (void*)&result);

	lea	eax, DWORD PTR _result$[ebp]
	push	eax
	push	8
	push	22					; 00000016H
	mov	ecx, DWORD PTR _this$[ebp]
	call	?GetProperty@CWnd@@QBEXJGPAX@Z		; CWnd::GetProperty

; 266  : 	return result;

	lea	eax, DWORD PTR _result$[ebp]
	push	eax
	mov	ecx, DWORD PTR ___$ReturnUdt$[ebp]
	call	??0?$CStringT@GV?$StrTraitMFC@GV?$ChTraitsCRT@G@ATL@@@@@ATL@@QAE@ABV01@@Z ; ATL::CStringT<unsigned short,StrTraitMFC<unsigned short,ATL::ChTraitsCRT<unsigned short> > >::CStringT<unsigned short,StrTraitMFC<unsigned short,ATL::ChTraitsCRT<unsigned short> > >
	mov	ecx, DWORD PTR $T94674[ebp]
	or	ecx, 1
	mov	DWORD PTR $T94674[ebp], ecx
	mov	DWORD PTR __$EHRec$[ebp+8], -1
	lea	ecx, DWORD PTR _result$[ebp]
	call	??1?$CStringT@GV?$StrTraitMFC@GV?$ChTraitsCRT@G@ATL@@@@@ATL@@QAE@XZ ; ATL::CStringT<unsigned short,StrTraitMFC<unsigned short,ATL::ChTraitsCRT<unsigned short> > >::~CStringT<unsigned short,StrTraitMFC<unsigned short,ATL::ChTraitsCRT<unsigned short> > >
	mov	eax, DWORD PTR ___$ReturnUdt$[ebp]

; 267  : }

	push	edx
	mov	ecx, ebp
	push	eax
	lea	edx, DWORD PTR $L94681
	call	@_RTC_CheckStackVars@8
	pop	eax
	pop	edx
	mov	ecx, DWORD PTR __$EHRec$[ebp]
	mov	DWORD PTR fs:__except_list, ecx
	pop	edi
	pop	esi
	pop	ebx
	add	esp, 240				; 000000f0H
	cmp	ebp, esp
	call	__RTC_CheckEsp
	mov	esp, ebp
	pop	ebp
	ret	4
$L94681:
	DD	1
	DD	$L94680
$L94680:
	DD	-32					; ffffffe0H
	DD	4
	DD	$L94678
$L94678:
	DB	114					; 00000072H
	DB	101					; 00000065H
	DB	115					; 00000073H
	DB	117					; 00000075H
	DB	108					; 0000006cH
	DB	116					; 00000074H
	DB	0
_TEXT	ENDS
;	COMDAT text$x
text$x	SEGMENT
__unwindfunclet$?GetMainDictionaryFiles@CWSpell@@QAE?AV?$CStringT@GV?$StrTraitMFC@GV?$ChTraitsCRT@G@ATL@@@@@ATL@@XZ$0:
	lea	ecx, DWORD PTR _result$[ebp]
	jmp	??1?$CStringT@GV?$StrTraitMFC@GV?$ChTraitsCRT@G@ATL@@@@@ATL@@QAE@XZ ; ATL::CStringT<unsigned short,StrTraitMFC<unsigned short,ATL::ChTraitsCRT<unsigned short> > >::~CStringT<unsigned short,StrTraitMFC<unsigned short,ATL::ChTraitsCRT<unsigned short> > >
__ehhandler$?GetMainDictionaryFiles@CWSpell@@QAE?AV?$CStringT@GV?$StrTraitMFC@GV?$ChTraitsCRT@G@ATL@@@@@ATL@@XZ:
	mov	eax, OFFSET FLAT:__ehfuncinfo$?GetMainDictionaryFiles@CWSpell@@QAE?AV?$CStringT@GV?$StrTraitMFC@GV?$ChTraitsCRT@G@ATL@@@@@ATL@@XZ
	jmp	___CxxFrameHandler
text$x	ENDS
?GetMainDictionaryFiles@CWSpell@@QAE?AV?$CStringT@GV?$StrTraitMFC@GV?$ChTraitsCRT@G@ATL@@@@@ATL@@XZ ENDP ; CWSpell::GetMainDictionaryFiles
PUBLIC	?SetMainDictionaryFiles@CWSpell@@QAEXPBG@Z	; CWSpell::SetMainDictionaryFiles
; Function compile flags: /Odt /RTCcsu /ZI
;	COMDAT ?SetMainDictionaryFiles@CWSpell@@QAEXPBG@Z
_TEXT	SEGMENT
_this$ = -8						; size = 4
_propVal$ = 8						; size = 4
?SetMainDictionaryFiles@CWSpell@@QAEXPBG@Z PROC NEAR	; CWSpell::SetMainDictionaryFiles, COMDAT
; _this$ = ecx

; 270  : {

	push	ebp
	mov	ebp, esp
	sub	esp, 204				; 000000ccH
	push	ebx
	push	esi
	push	edi
	push	ecx
	lea	edi, DWORD PTR [ebp-204]
	mov	ecx, 51					; 00000033H
	mov	eax, -858993460				; ccccccccH
	rep stosd
	pop	ecx
	mov	DWORD PTR _this$[ebp], ecx

; 271  : 	SetProperty(0x16, VT_BSTR, propVal);

	mov	eax, DWORD PTR _propVal$[ebp]
	push	eax
	push	8
	push	22					; 00000016H
	mov	ecx, DWORD PTR _this$[ebp]
	push	ecx
	call	?SetProperty@CWnd@@QAAXJGZZ		; CWnd::SetProperty
	add	esp, 16					; 00000010H

; 272  : }

	pop	edi
	pop	esi
	pop	ebx
	add	esp, 204				; 000000ccH
	cmp	ebp, esp
	call	__RTC_CheckEsp
	mov	esp, ebp
	pop	ebp
	ret	4
?SetMainDictionaryFiles@CWSpell@@QAEXPBG@Z ENDP		; CWSpell::SetMainDictionaryFiles
_TEXT	ENDS
PUBLIC	?GetMaxSuggestions@CWSpell@@QAEFXZ		; CWSpell::GetMaxSuggestions
; Function compile flags: /Odt /RTCcsu /ZI
;	COMDAT ?GetMaxSuggestions@CWSpell@@QAEFXZ
_TEXT	SEGMENT
_result$ = -20						; size = 2
_this$ = -8						; size = 4
?GetMaxSuggestions@CWSpell@@QAEFXZ PROC NEAR		; CWSpell::GetMaxSuggestions, COMDAT
; _this$ = ecx

; 275  : {

	push	ebp
	mov	ebp, esp
	sub	esp, 216				; 000000d8H
	push	ebx
	push	esi
	push	edi
	push	ecx
	lea	edi, DWORD PTR [ebp-216]
	mov	ecx, 54					; 00000036H
	mov	eax, -858993460				; ccccccccH
	rep stosd
	pop	ecx
	mov	DWORD PTR _this$[ebp], ecx

; 276  : 	short result;
; 277  : 	GetProperty(0x17, VT_I2, (void*)&result);

	lea	eax, DWORD PTR _result$[ebp]
	push	eax
	push	2
	push	23					; 00000017H
	mov	ecx, DWORD PTR _this$[ebp]
	call	?GetProperty@CWnd@@QBEXJGPAX@Z		; CWnd::GetProperty

; 278  : 	return result;

	mov	ax, WORD PTR _result$[ebp]

; 279  : }

	push	edx
	mov	ecx, ebp
	push	eax
	lea	edx, DWORD PTR $L94691
	call	@_RTC_CheckStackVars@8
	pop	eax
	pop	edx
	pop	edi
	pop	esi
	pop	ebx
	add	esp, 216				; 000000d8H
	cmp	ebp, esp
	call	__RTC_CheckEsp
	mov	esp, ebp
	pop	ebp
	ret	0
$L94691:
	DD	1
	DD	$L94690
$L94690:
	DD	-20					; ffffffecH
	DD	2
	DD	$L94689
$L94689:
	DB	114					; 00000072H
	DB	101					; 00000065H
	DB	115					; 00000073H
	DB	117					; 00000075H
	DB	108					; 0000006cH
	DB	116					; 00000074H
	DB	0
?GetMaxSuggestions@CWSpell@@QAEFXZ ENDP			; CWSpell::GetMaxSuggestions
_TEXT	ENDS
PUBLIC	?SetMaxSuggestions@CWSpell@@QAEXF@Z		; CWSpell::SetMaxSuggestions
; Function compile flags: /Odt /RTCcsu /ZI
;	COMDAT ?SetMaxSuggestions@CWSpell@@QAEXF@Z
_TEXT	SEGMENT
_this$ = -8						; size = 4
_propVal$ = 8						; size = 2
?SetMaxSuggestions@CWSpell@@QAEXF@Z PROC NEAR		; CWSpell::SetMaxSuggestions, COMDAT
; _this$ = ecx

; 282  : {

	push	ebp
	mov	ebp, esp
	sub	esp, 204				; 000000ccH
	push	ebx
	push	esi
	push	edi
	push	ecx
	lea	edi, DWORD PTR [ebp-204]
	mov	ecx, 51					; 00000033H
	mov	eax, -858993460				; ccccccccH
	rep stosd
	pop	ecx
	mov	DWORD PTR _this$[ebp], ecx

; 283  : 	SetProperty(0x17, VT_I2, propVal);

	movsx	eax, WORD PTR _propVal$[ebp]
	push	eax
	push	2
	push	23					; 00000017H
	mov	ecx, DWORD PTR _this$[ebp]
	push	ecx
	call	?SetProperty@CWnd@@QAAXJGZZ		; CWnd::SetProperty
	add	esp, 16					; 00000010H

; 284  : }

	pop	edi
	pop	esi
	pop	ebx
	add	esp, 204				; 000000ccH
	cmp	ebp, esp
	call	__RTC_CheckEsp
	mov	esp, ebp
	pop	ebp
	ret	4
?SetMaxSuggestions@CWSpell@@QAEXF@Z ENDP		; CWSpell::SetMaxSuggestions
_TEXT	ENDS
PUBLIC	?GetMinSuggestionDepth@CWSpell@@QAEFXZ		; CWSpell::GetMinSuggestionDepth
; Function compile flags: /Odt /RTCcsu /ZI
;	COMDAT ?GetMinSuggestionDepth@CWSpell@@QAEFXZ
_TEXT	SEGMENT
_result$ = -20						; size = 2
_this$ = -8						; size = 4
?GetMinSuggestionDepth@CWSpell@@QAEFXZ PROC NEAR	; CWSpell::GetMinSuggestionDepth, COMDAT
; _this$ = ecx

; 287  : {

	push	ebp
	mov	ebp, esp
	sub	esp, 216				; 000000d8H
	push	ebx
	push	esi
	push	edi
	push	ecx
	lea	edi, DWORD PTR [ebp-216]
	mov	ecx, 54					; 00000036H
	mov	eax, -858993460				; ccccccccH
	rep stosd
	pop	ecx
	mov	DWORD PTR _this$[ebp], ecx

; 288  : 	short result;
; 289  : 	GetProperty(0x18, VT_I2, (void*)&result);

	lea	eax, DWORD PTR _result$[ebp]
	push	eax
	push	2
	push	24					; 00000018H
	mov	ecx, DWORD PTR _this$[ebp]
	call	?GetProperty@CWnd@@QBEXJGPAX@Z		; CWnd::GetProperty

; 290  : 	return result;

	mov	ax, WORD PTR _result$[ebp]

; 291  : }

	push	edx
	mov	ecx, ebp
	push	eax
	lea	edx, DWORD PTR $L94698
	call	@_RTC_CheckStackVars@8
	pop	eax
	pop	edx
	pop	edi
	pop	esi
	pop	ebx
	add	esp, 216				; 000000d8H
	cmp	ebp, esp
	call	__RTC_CheckEsp
	mov	esp, ebp
	pop	ebp
	ret	0
$L94698:
	DD	1
	DD	$L94697
$L94697:
	DD	-20					; ffffffecH
	DD	2
	DD	$L94696
$L94696:
	DB	114					; 00000072H
	DB	101					; 00000065H
	DB	115					; 00000073H
	DB	117					; 00000075H
	DB	108					; 0000006cH
	DB	116					; 00000074H
	DB	0
?GetMinSuggestionDepth@CWSpell@@QAEFXZ ENDP		; CWSpell::GetMinSuggestionDepth
_TEXT	ENDS
PUBLIC	?SetMinSuggestionDepth@CWSpell@@QAEXF@Z		; CWSpell::SetMinSuggestionDepth
; Function compile flags: /Odt /RTCcsu /ZI
;	COMDAT ?SetMinSuggestionDepth@CWSpell@@QAEXF@Z
_TEXT	SEGMENT
_this$ = -8						; size = 4
_propVal$ = 8						; size = 2
?SetMinSuggestionDepth@CWSpell@@QAEXF@Z PROC NEAR	; CWSpell::SetMinSuggestionDepth, COMDAT
; _this$ = ecx

; 294  : {

	push	ebp
	mov	ebp, esp
	sub	esp, 204				; 000000ccH
	push	ebx
	push	esi
	push	edi
	push	ecx
	lea	edi, DWORD PTR [ebp-204]
	mov	ecx, 51					; 00000033H
	mov	eax, -858993460				; ccccccccH
	rep stosd
	pop	ecx
	mov	DWORD PTR _this$[ebp], ecx

; 295  : 	SetProperty(0x18, VT_I2, propVal);

	movsx	eax, WORD PTR _propVal$[ebp]
	push	eax
	push	2
	push	24					; 00000018H
	mov	ecx, DWORD PTR _this$[ebp]
	push	ecx
	call	?SetProperty@CWnd@@QAAXJGZZ		; CWnd::SetProperty
	add	esp, 16					; 00000010H

; 296  : }

	pop	edi
	pop	esi
	pop	ebx
	add	esp, 204				; 000000ccH
	cmp	ebp, esp
	call	__RTC_CheckEsp
	mov	esp, ebp
	pop	ebp
	ret	4
?SetMinSuggestionDepth@CWSpell@@QAEXF@Z ENDP		; CWSpell::SetMinSuggestionDepth
_TEXT	ENDS
PUBLIC	?GetPhoneticSuggestions@CWSpell@@QAEHXZ		; CWSpell::GetPhoneticSuggestions
; Function compile flags: /Odt /RTCcsu /ZI
;	COMDAT ?GetPhoneticSuggestions@CWSpell@@QAEHXZ
_TEXT	SEGMENT
_result$ = -20						; size = 4
_this$ = -8						; size = 4
?GetPhoneticSuggestions@CWSpell@@QAEHXZ PROC NEAR	; CWSpell::GetPhoneticSuggestions, COMDAT
; _this$ = ecx

; 299  : {

	push	ebp
	mov	ebp, esp
	sub	esp, 216				; 000000d8H
	push	ebx
	push	esi
	push	edi
	push	ecx
	lea	edi, DWORD PTR [ebp-216]
	mov	ecx, 54					; 00000036H
	mov	eax, -858993460				; ccccccccH
	rep stosd
	pop	ecx
	mov	DWORD PTR _this$[ebp], ecx

; 300  : 	BOOL result;
; 301  : 	GetProperty(0x19, VT_BOOL, (void*)&result);

	lea	eax, DWORD PTR _result$[ebp]
	push	eax
	push	11					; 0000000bH
	push	25					; 00000019H
	mov	ecx, DWORD PTR _this$[ebp]
	call	?GetProperty@CWnd@@QBEXJGPAX@Z		; CWnd::GetProperty

; 302  : 	return result;

	mov	eax, DWORD PTR _result$[ebp]

; 303  : }

	push	edx
	mov	ecx, ebp
	push	eax
	lea	edx, DWORD PTR $L94705
	call	@_RTC_CheckStackVars@8
	pop	eax
	pop	edx
	pop	edi
	pop	esi
	pop	ebx
	add	esp, 216				; 000000d8H
	cmp	ebp, esp
	call	__RTC_CheckEsp
	mov	esp, ebp
	pop	ebp
	ret	0
$L94705:
	DD	1
	DD	$L94704
$L94704:
	DD	-20					; ffffffecH
	DD	4
	DD	$L94703
$L94703:
	DB	114					; 00000072H
	DB	101					; 00000065H
	DB	115					; 00000073H
	DB	117					; 00000075H
	DB	108					; 0000006cH
	DB	116					; 00000074H
	DB	0
?GetPhoneticSuggestions@CWSpell@@QAEHXZ ENDP		; CWSpell::GetPhoneticSuggestions
_TEXT	ENDS
PUBLIC	?SetPhoneticSuggestions@CWSpell@@QAEXH@Z	; CWSpell::SetPhoneticSuggestions
; Function compile flags: /Odt /RTCcsu /ZI
;	COMDAT ?SetPhoneticSuggestions@CWSpell@@QAEXH@Z
_TEXT	SEGMENT
_this$ = -8						; size = 4
_propVal$ = 8						; size = 4
?SetPhoneticSuggestions@CWSpell@@QAEXH@Z PROC NEAR	; CWSpell::SetPhoneticSuggestions, COMDAT
; _this$ = ecx

; 306  : {

	push	ebp
	mov	ebp, esp
	sub	esp, 204				; 000000ccH
	push	ebx
	push	esi
	push	edi
	push	ecx
	lea	edi, DWORD PTR [ebp-204]
	mov	ecx, 51					; 00000033H
	mov	eax, -858993460				; ccccccccH
	rep stosd
	pop	ecx
	mov	DWORD PTR _this$[ebp], ecx

; 307  : 	SetProperty(0x19, VT_BOOL, propVal);

	mov	eax, DWORD PTR _propVal$[ebp]
	push	eax
	push	11					; 0000000bH
	push	25					; 00000019H
	mov	ecx, DWORD PTR _this$[ebp]
	push	ecx
	call	?SetProperty@CWnd@@QAAXJGZZ		; CWnd::SetProperty
	add	esp, 16					; 00000010H

; 308  : }

	pop	edi
	pop	esi
	pop	ebx
	add	esp, 204				; 000000ccH
	cmp	ebp, esp
	call	__RTC_CheckEsp
	mov	esp, ebp
	pop	ebp
	ret	4
?SetPhoneticSuggestions@CWSpell@@QAEXH@Z ENDP		; CWSpell::SetPhoneticSuggestions
_TEXT	ENDS
PUBLIC	?GetSplitContractedWords@CWSpell@@QAEHXZ	; CWSpell::GetSplitContractedWords
; Function compile flags: /Odt /RTCcsu /ZI
;	COMDAT ?GetSplitContractedWords@CWSpell@@QAEHXZ
_TEXT	SEGMENT
_result$ = -20						; size = 4
_this$ = -8						; size = 4
?GetSplitContractedWords@CWSpell@@QAEHXZ PROC NEAR	; CWSpell::GetSplitContractedWords, COMDAT
; _this$ = ecx

; 311  : {

	push	ebp
	mov	ebp, esp
	sub	esp, 216				; 000000d8H
	push	ebx
	push	esi
	push	edi
	push	ecx
	lea	edi, DWORD PTR [ebp-216]
	mov	ecx, 54					; 00000036H
	mov	eax, -858993460				; ccccccccH
	rep stosd
	pop	ecx
	mov	DWORD PTR _this$[ebp], ecx

; 312  : 	BOOL result;
; 313  : 	GetProperty(0x1a, VT_BOOL, (void*)&result);

	lea	eax, DWORD PTR _result$[ebp]
	push	eax
	push	11					; 0000000bH
	push	26					; 0000001aH
	mov	ecx, DWORD PTR _this$[ebp]
	call	?GetProperty@CWnd@@QBEXJGPAX@Z		; CWnd::GetProperty

; 314  : 	return result;

	mov	eax, DWORD PTR _result$[ebp]

; 315  : }

	push	edx
	mov	ecx, ebp
	push	eax
	lea	edx, DWORD PTR $L94712
	call	@_RTC_CheckStackVars@8
	pop	eax
	pop	edx
	pop	edi
	pop	esi
	pop	ebx
	add	esp, 216				; 000000d8H
	cmp	ebp, esp
	call	__RTC_CheckEsp
	mov	esp, ebp
	pop	ebp
	ret	0
$L94712:
	DD	1
	DD	$L94711
$L94711:
	DD	-20					; ffffffecH
	DD	4
	DD	$L94710
$L94710:
	DB	114					; 00000072H
	DB	101					; 00000065H
	DB	115					; 00000073H
	DB	117					; 00000075H
	DB	108					; 0000006cH
	DB	116					; 00000074H
	DB	0
?GetSplitContractedWords@CWSpell@@QAEHXZ ENDP		; CWSpell::GetSplitContractedWords
_TEXT	ENDS
PUBLIC	?SetSplitContractedWords@CWSpell@@QAEXH@Z	; CWSpell::SetSplitContractedWords
; Function compile flags: /Odt /RTCcsu /ZI
;	COMDAT ?SetSplitContractedWords@CWSpell@@QAEXH@Z
_TEXT	SEGMENT
_this$ = -8						; size = 4
_propVal$ = 8						; size = 4
?SetSplitContractedWords@CWSpell@@QAEXH@Z PROC NEAR	; CWSpell::SetSplitContractedWords, COMDAT
; _this$ = ecx

; 318  : {

	push	ebp
	mov	ebp, esp
	sub	esp, 204				; 000000ccH
	push	ebx
	push	esi
	push	edi
	push	ecx
	lea	edi, DWORD PTR [ebp-204]
	mov	ecx, 51					; 00000033H
	mov	eax, -858993460				; ccccccccH
	rep stosd
	pop	ecx
	mov	DWORD PTR _this$[ebp], ecx

; 319  : 	SetProperty(0x1a, VT_BOOL, propVal);

	mov	eax, DWORD PTR _propVal$[ebp]
	push	eax
	push	11					; 0000000bH
	push	26					; 0000001aH
	mov	ecx, DWORD PTR _this$[ebp]
	push	ecx
	call	?SetProperty@CWnd@@QAAXJGZZ		; CWnd::SetProperty
	add	esp, 16					; 00000010H

; 320  : }

	pop	edi
	pop	esi
	pop	ebx
	add	esp, 204				; 000000ccH
	cmp	ebp, esp
	call	__RTC_CheckEsp
	mov	esp, ebp
	pop	ebp
	ret	4
?SetSplitContractedWords@CWSpell@@QAEXH@Z ENDP		; CWSpell::SetSplitContractedWords
_TEXT	ENDS
PUBLIC	?GetSplitHyphenatedWords@CWSpell@@QAEHXZ	; CWSpell::GetSplitHyphenatedWords
; Function compile flags: /Odt /RTCcsu /ZI
;	COMDAT ?GetSplitHyphenatedWords@CWSpell@@QAEHXZ
_TEXT	SEGMENT
_result$ = -20						; size = 4
_this$ = -8						; size = 4
?GetSplitHyphenatedWords@CWSpell@@QAEHXZ PROC NEAR	; CWSpell::GetSplitHyphenatedWords, COMDAT
; _this$ = ecx

; 323  : {

	push	ebp
	mov	ebp, esp
	sub	esp, 216				; 000000d8H
	push	ebx
	push	esi
	push	edi
	push	ecx
	lea	edi, DWORD PTR [ebp-216]
	mov	ecx, 54					; 00000036H
	mov	eax, -858993460				; ccccccccH
	rep stosd
	pop	ecx
	mov	DWORD PTR _this$[ebp], ecx

; 324  : 	BOOL result;
; 325  : 	GetProperty(0x1b, VT_BOOL, (void*)&result);

	lea	eax, DWORD PTR _result$[ebp]
	push	eax
	push	11					; 0000000bH
	push	27					; 0000001bH
	mov	ecx, DWORD PTR _this$[ebp]
	call	?GetProperty@CWnd@@QBEXJGPAX@Z		; CWnd::GetProperty

; 326  : 	return result;

	mov	eax, DWORD PTR _result$[ebp]

; 327  : }

	push	edx
	mov	ecx, ebp
	push	eax
	lea	edx, DWORD PTR $L94719
	call	@_RTC_CheckStackVars@8
	pop	eax
	pop	edx
	pop	edi
	pop	esi
	pop	ebx
	add	esp, 216				; 000000d8H
	cmp	ebp, esp
	call	__RTC_CheckEsp
	mov	esp, ebp
	pop	ebp
	ret	0
$L94719:
	DD	1
	DD	$L94718
$L94718:
	DD	-20					; ffffffecH
	DD	4
	DD	$L94717
$L94717:
	DB	114					; 00000072H
	DB	101					; 00000065H
	DB	115					; 00000073H
	DB	117					; 00000075H
	DB	108					; 0000006cH
	DB	116					; 00000074H
	DB	0
?GetSplitHyphenatedWords@CWSpell@@QAEHXZ ENDP		; CWSpell::GetSplitHyphenatedWords
_TEXT	ENDS
PUBLIC	?SetSplitHyphenatedWords@CWSpell@@QAEXH@Z	; CWSpell::SetSplitHyphenatedWords
; Function compile flags: /Odt /RTCcsu /ZI
;	COMDAT ?SetSplitHyphenatedWords@CWSpell@@QAEXH@Z
_TEXT	SEGMENT
_this$ = -8						; size = 4
_propVal$ = 8						; size = 4
?SetSplitHyphenatedWords@CWSpell@@QAEXH@Z PROC NEAR	; CWSpell::SetSplitHyphenatedWords, COMDAT
; _this$ = ecx

; 330  : {

	push	ebp
	mov	ebp, esp
	sub	esp, 204				; 000000ccH
	push	ebx
	push	esi
	push	edi
	push	ecx
	lea	edi, DWORD PTR [ebp-204]
	mov	ecx, 51					; 00000033H
	mov	eax, -858993460				; ccccccccH
	rep stosd
	pop	ecx
	mov	DWORD PTR _this$[ebp], ecx

; 331  : 	SetProperty(0x1b, VT_BOOL, propVal);

	mov	eax, DWORD PTR _propVal$[ebp]
	push	eax
	push	11					; 0000000bH
	push	27					; 0000001bH
	mov	ecx, DWORD PTR _this$[ebp]
	push	ecx
	call	?SetProperty@CWnd@@QAAXJGZZ		; CWnd::SetProperty
	add	esp, 16					; 00000010H

; 332  : }

	pop	edi
	pop	esi
	pop	ebx
	add	esp, 204				; 000000ccH
	cmp	ebp, esp
	call	__RTC_CheckEsp
	mov	esp, ebp
	pop	ebp
	ret	4
?SetSplitHyphenatedWords@CWSpell@@QAEXH@Z ENDP		; CWSpell::SetSplitHyphenatedWords
_TEXT	ENDS
PUBLIC	?GetSplitWords@CWSpell@@QAEHXZ			; CWSpell::GetSplitWords
; Function compile flags: /Odt /RTCcsu /ZI
;	COMDAT ?GetSplitWords@CWSpell@@QAEHXZ
_TEXT	SEGMENT
_result$ = -20						; size = 4
_this$ = -8						; size = 4
?GetSplitWords@CWSpell@@QAEHXZ PROC NEAR		; CWSpell::GetSplitWords, COMDAT
; _this$ = ecx

; 335  : {

	push	ebp
	mov	ebp, esp
	sub	esp, 216				; 000000d8H
	push	ebx
	push	esi
	push	edi
	push	ecx
	lea	edi, DWORD PTR [ebp-216]
	mov	ecx, 54					; 00000036H
	mov	eax, -858993460				; ccccccccH
	rep stosd
	pop	ecx
	mov	DWORD PTR _this$[ebp], ecx

; 336  : 	BOOL result;
; 337  : 	GetProperty(0x1c, VT_BOOL, (void*)&result);

	lea	eax, DWORD PTR _result$[ebp]
	push	eax
	push	11					; 0000000bH
	push	28					; 0000001cH
	mov	ecx, DWORD PTR _this$[ebp]
	call	?GetProperty@CWnd@@QBEXJGPAX@Z		; CWnd::GetProperty

; 338  : 	return result;

	mov	eax, DWORD PTR _result$[ebp]

; 339  : }

	push	edx
	mov	ecx, ebp
	push	eax
	lea	edx, DWORD PTR $L94726
	call	@_RTC_CheckStackVars@8
	pop	eax
	pop	edx
	pop	edi
	pop	esi
	pop	ebx
	add	esp, 216				; 000000d8H
	cmp	ebp, esp
	call	__RTC_CheckEsp
	mov	esp, ebp
	pop	ebp
	ret	0
$L94726:
	DD	1
	DD	$L94725
$L94725:
	DD	-20					; ffffffecH
	DD	4
	DD	$L94724
$L94724:
	DB	114					; 00000072H
	DB	101					; 00000065H
	DB	115					; 00000073H
	DB	117					; 00000075H
	DB	108					; 0000006cH
	DB	116					; 00000074H
	DB	0
?GetSplitWords@CWSpell@@QAEHXZ ENDP			; CWSpell::GetSplitWords
_TEXT	ENDS
PUBLIC	?SetSplitWords@CWSpell@@QAEXH@Z			; CWSpell::SetSplitWords
; Function compile flags: /Odt /RTCcsu /ZI
;	COMDAT ?SetSplitWords@CWSpell@@QAEXH@Z
_TEXT	SEGMENT
_this$ = -8						; size = 4
_propVal$ = 8						; size = 4
?SetSplitWords@CWSpell@@QAEXH@Z PROC NEAR		; CWSpell::SetSplitWords, COMDAT
; _this$ = ecx

; 342  : {

	push	ebp
	mov	ebp, esp
	sub	esp, 204				; 000000ccH
	push	ebx
	push	esi
	push	edi
	push	ecx
	lea	edi, DWORD PTR [ebp-204]
	mov	ecx, 51					; 00000033H
	mov	eax, -858993460				; ccccccccH
	rep stosd
	pop	ecx
	mov	DWORD PTR _this$[ebp], ecx

; 343  : 	SetProperty(0x1c, VT_BOOL, propVal);

	mov	eax, DWORD PTR _propVal$[ebp]
	push	eax
	push	11					; 0000000bH
	push	28					; 0000001cH
	mov	ecx, DWORD PTR _this$[ebp]
	push	ecx
	call	?SetProperty@CWnd@@QAAXJGZZ		; CWnd::SetProperty
	add	esp, 16					; 00000010H

; 344  : }

	pop	edi
	pop	esi
	pop	ebx
	add	esp, 204				; 000000ccH
	cmp	ebp, esp
	call	__RTC_CheckEsp
	mov	esp, ebp
	pop	ebp
	ret	4
?SetSplitWords@CWSpell@@QAEXH@Z ENDP			; CWSpell::SetSplitWords
_TEXT	ENDS
PUBLIC	?GetStripPossessives@CWSpell@@QAEHXZ		; CWSpell::GetStripPossessives
; Function compile flags: /Odt /RTCcsu /ZI
;	COMDAT ?GetStripPossessives@CWSpell@@QAEHXZ
_TEXT	SEGMENT
_result$ = -20						; size = 4
_this$ = -8						; size = 4
?GetStripPossessives@CWSpell@@QAEHXZ PROC NEAR		; CWSpell::GetStripPossessives, COMDAT
; _this$ = ecx

; 347  : {

	push	ebp
	mov	ebp, esp
	sub	esp, 216				; 000000d8H
	push	ebx
	push	esi
	push	edi
	push	ecx
	lea	edi, DWORD PTR [ebp-216]
	mov	ecx, 54					; 00000036H
	mov	eax, -858993460				; ccccccccH
	rep stosd
	pop	ecx
	mov	DWORD PTR _this$[ebp], ecx

; 348  : 	BOOL result;
; 349  : 	GetProperty(0x1d, VT_BOOL, (void*)&result);

	lea	eax, DWORD PTR _result$[ebp]
	push	eax
	push	11					; 0000000bH
	push	29					; 0000001dH
	mov	ecx, DWORD PTR _this$[ebp]
	call	?GetProperty@CWnd@@QBEXJGPAX@Z		; CWnd::GetProperty

; 350  : 	return result;

	mov	eax, DWORD PTR _result$[ebp]

; 351  : }

	push	edx
	mov	ecx, ebp
	push	eax
	lea	edx, DWORD PTR $L94733
	call	@_RTC_CheckStackVars@8
	pop	eax
	pop	edx
	pop	edi
	pop	esi
	pop	ebx
	add	esp, 216				; 000000d8H
	cmp	ebp, esp
	call	__RTC_CheckEsp
	mov	esp, ebp
	pop	ebp
	ret	0
$L94733:
	DD	1
	DD	$L94732
$L94732:
	DD	-20					; ffffffecH
	DD	4
	DD	$L94731
$L94731:
	DB	114					; 00000072H
	DB	101					; 00000065H
	DB	115					; 00000073H
	DB	117					; 00000075H
	DB	108					; 0000006cH
	DB	116					; 00000074H
	DB	0
?GetStripPossessives@CWSpell@@QAEHXZ ENDP		; CWSpell::GetStripPossessives
_TEXT	ENDS
PUBLIC	?SetStripPossessives@CWSpell@@QAEXH@Z		; CWSpell::SetStripPossessives
; Function compile flags: /Odt /RTCcsu /ZI
;	COMDAT ?SetStripPossessives@CWSpell@@QAEXH@Z
_TEXT	SEGMENT
_this$ = -8						; size = 4
_propVal$ = 8						; size = 4
?SetStripPossessives@CWSpell@@QAEXH@Z PROC NEAR		; CWSpell::SetStripPossessives, COMDAT
; _this$ = ecx

; 354  : {

	push	ebp
	mov	ebp, esp
	sub	esp, 204				; 000000ccH
	push	ebx
	push	esi
	push	edi
	push	ecx
	lea	edi, DWORD PTR [ebp-204]
	mov	ecx, 51					; 00000033H
	mov	eax, -858993460				; ccccccccH
	rep stosd
	pop	ecx
	mov	DWORD PTR _this$[ebp], ecx

; 355  : 	SetProperty(0x1d, VT_BOOL, propVal);

	mov	eax, DWORD PTR _propVal$[ebp]
	push	eax
	push	11					; 0000000bH
	push	29					; 0000001dH
	mov	ecx, DWORD PTR _this$[ebp]
	push	ecx
	call	?SetProperty@CWnd@@QAAXJGZZ		; CWnd::SetProperty
	add	esp, 16					; 00000010H

; 356  : }

	pop	edi
	pop	esi
	pop	ebx
	add	esp, 204				; 000000ccH
	cmp	ebp, esp
	call	__RTC_CheckEsp
	mov	esp, ebp
	pop	ebp
	ret	4
?SetStripPossessives@CWSpell@@QAEXH@Z ENDP		; CWSpell::SetStripPossessives
_TEXT	ENDS
PUBLIC	?GetSuggestionDepth@CWSpell@@QAEFXZ		; CWSpell::GetSuggestionDepth
; Function compile flags: /Odt /RTCcsu /ZI
;	COMDAT ?GetSuggestionDepth@CWSpell@@QAEFXZ
_TEXT	SEGMENT
_result$ = -20						; size = 2
_this$ = -8						; size = 4
?GetSuggestionDepth@CWSpell@@QAEFXZ PROC NEAR		; CWSpell::GetSuggestionDepth, COMDAT
; _this$ = ecx

; 359  : {

	push	ebp
	mov	ebp, esp
	sub	esp, 216				; 000000d8H
	push	ebx
	push	esi
	push	edi
	push	ecx
	lea	edi, DWORD PTR [ebp-216]
	mov	ecx, 54					; 00000036H
	mov	eax, -858993460				; ccccccccH
	rep stosd
	pop	ecx
	mov	DWORD PTR _this$[ebp], ecx

; 360  : 	short result;
; 361  : 	GetProperty(0x1e, VT_I2, (void*)&result);

	lea	eax, DWORD PTR _result$[ebp]
	push	eax
	push	2
	push	30					; 0000001eH
	mov	ecx, DWORD PTR _this$[ebp]
	call	?GetProperty@CWnd@@QBEXJGPAX@Z		; CWnd::GetProperty

; 362  : 	return result;

	mov	ax, WORD PTR _result$[ebp]

; 363  : }

	push	edx
	mov	ecx, ebp
	push	eax
	lea	edx, DWORD PTR $L94740
	call	@_RTC_CheckStackVars@8
	pop	eax
	pop	edx
	pop	edi
	pop	esi
	pop	ebx
	add	esp, 216				; 000000d8H
	cmp	ebp, esp
	call	__RTC_CheckEsp
	mov	esp, ebp
	pop	ebp
	ret	0
$L94740:
	DD	1
	DD	$L94739
$L94739:
	DD	-20					; ffffffecH
	DD	2
	DD	$L94738
$L94738:
	DB	114					; 00000072H
	DB	101					; 00000065H
	DB	115					; 00000073H
	DB	117					; 00000075H
	DB	108					; 0000006cH
	DB	116					; 00000074H
	DB	0
?GetSuggestionDepth@CWSpell@@QAEFXZ ENDP		; CWSpell::GetSuggestionDepth
_TEXT	ENDS
PUBLIC	?SetSuggestionDepth@CWSpell@@QAEXF@Z		; CWSpell::SetSuggestionDepth
; Function compile flags: /Odt /RTCcsu /ZI
;	COMDAT ?SetSuggestionDepth@CWSpell@@QAEXF@Z
_TEXT	SEGMENT
_this$ = -8						; size = 4
_propVal$ = 8						; size = 2
?SetSuggestionDepth@CWSpell@@QAEXF@Z PROC NEAR		; CWSpell::SetSuggestionDepth, COMDAT
; _this$ = ecx

; 366  : {

	push	ebp
	mov	ebp, esp
	sub	esp, 204				; 000000ccH
	push	ebx
	push	esi
	push	edi
	push	ecx
	lea	edi, DWORD PTR [ebp-204]
	mov	ecx, 51					; 00000033H
	mov	eax, -858993460				; ccccccccH
	rep stosd
	pop	ecx
	mov	DWORD PTR _this$[ebp], ecx

; 367  : 	SetProperty(0x1e, VT_I2, propVal);

	movsx	eax, WORD PTR _propVal$[ebp]
	push	eax
	push	2
	push	30					; 0000001eH
	mov	ecx, DWORD PTR _this$[ebp]
	push	ecx
	call	?SetProperty@CWnd@@QAAXJGZZ		; CWnd::SetProperty
	add	esp, 16					; 00000010H

; 368  : }

	pop	edi
	pop	esi
	pop	ebx
	add	esp, 204				; 000000ccH
	cmp	ebp, esp
	call	__RTC_CheckEsp
	mov	esp, ebp
	pop	ebp
	ret	4
?SetSuggestionDepth@CWSpell@@QAEXF@Z ENDP		; CWSpell::SetSuggestionDepth
_TEXT	ENDS
PUBLIC	?GetSuggestionDepthIncrement@CWSpell@@QAEFXZ	; CWSpell::GetSuggestionDepthIncrement
; Function compile flags: /Odt /RTCcsu /ZI
;	COMDAT ?GetSuggestionDepthIncrement@CWSpell@@QAEFXZ
_TEXT	SEGMENT
_result$ = -20						; size = 2
_this$ = -8						; size = 4
?GetSuggestionDepthIncrement@CWSpell@@QAEFXZ PROC NEAR	; CWSpell::GetSuggestionDepthIncrement, COMDAT
; _this$ = ecx

; 371  : {

	push	ebp
	mov	ebp, esp
	sub	esp, 216				; 000000d8H
	push	ebx
	push	esi
	push	edi
	push	ecx
	lea	edi, DWORD PTR [ebp-216]
	mov	ecx, 54					; 00000036H
	mov	eax, -858993460				; ccccccccH
	rep stosd
	pop	ecx
	mov	DWORD PTR _this$[ebp], ecx

; 372  : 	short result;
; 373  : 	GetProperty(0x1f, VT_I2, (void*)&result);

	lea	eax, DWORD PTR _result$[ebp]
	push	eax
	push	2
	push	31					; 0000001fH
	mov	ecx, DWORD PTR _this$[ebp]
	call	?GetProperty@CWnd@@QBEXJGPAX@Z		; CWnd::GetProperty

; 374  : 	return result;

	mov	ax, WORD PTR _result$[ebp]

; 375  : }

	push	edx
	mov	ecx, ebp
	push	eax
	lea	edx, DWORD PTR $L94747
	call	@_RTC_CheckStackVars@8
	pop	eax
	pop	edx
	pop	edi
	pop	esi
	pop	ebx
	add	esp, 216				; 000000d8H
	cmp	ebp, esp
	call	__RTC_CheckEsp
	mov	esp, ebp
	pop	ebp
	ret	0
$L94747:
	DD	1
	DD	$L94746
$L94746:
	DD	-20					; ffffffecH
	DD	2
	DD	$L94745
$L94745:
	DB	114					; 00000072H
	DB	101					; 00000065H
	DB	115					; 00000073H
	DB	117					; 00000075H
	DB	108					; 0000006cH
	DB	116					; 00000074H
	DB	0
?GetSuggestionDepthIncrement@CWSpell@@QAEFXZ ENDP	; CWSpell::GetSuggestionDepthIncrement
_TEXT	ENDS
PUBLIC	?SetSuggestionDepthIncrement@CWSpell@@QAEXF@Z	; CWSpell::SetSuggestionDepthIncrement
; Function compile flags: /Odt /RTCcsu /ZI
;	COMDAT ?SetSuggestionDepthIncrement@CWSpell@@QAEXF@Z
_TEXT	SEGMENT
_this$ = -8						; size = 4
_propVal$ = 8						; size = 2
?SetSuggestionDepthIncrement@CWSpell@@QAEXF@Z PROC NEAR	; CWSpell::SetSuggestionDepthIncrement, COMDAT
; _this$ = ecx

; 378  : {

	push	ebp
	mov	ebp, esp
	sub	esp, 204				; 000000ccH
	push	ebx
	push	esi
	push	edi
	push	ecx
	lea	edi, DWORD PTR [ebp-204]
	mov	ecx, 51					; 00000033H
	mov	eax, -858993460				; ccccccccH
	rep stosd
	pop	ecx
	mov	DWORD PTR _this$[ebp], ecx

; 379  : 	SetProperty(0x1f, VT_I2, propVal);

	movsx	eax, WORD PTR _propVal$[ebp]
	push	eax
	push	2
	push	31					; 0000001fH
	mov	ecx, DWORD PTR _this$[ebp]
	push	ecx
	call	?SetProperty@CWnd@@QAAXJGZZ		; CWnd::SetProperty
	add	esp, 16					; 00000010H

; 380  : }

	pop	edi
	pop	esi
	pop	ebx
	add	esp, 204				; 000000ccH
	cmp	ebp, esp
	call	__RTC_CheckEsp
	mov	esp, ebp
	pop	ebp
	ret	4
?SetSuggestionDepthIncrement@CWSpell@@QAEXF@Z ENDP	; CWSpell::SetSuggestionDepthIncrement
_TEXT	ENDS
PUBLIC	?GetSuggestSplitWords@CWSpell@@QAEHXZ		; CWSpell::GetSuggestSplitWords
; Function compile flags: /Odt /RTCcsu /ZI
;	COMDAT ?GetSuggestSplitWords@CWSpell@@QAEHXZ
_TEXT	SEGMENT
_result$ = -20						; size = 4
_this$ = -8						; size = 4
?GetSuggestSplitWords@CWSpell@@QAEHXZ PROC NEAR		; CWSpell::GetSuggestSplitWords, COMDAT
; _this$ = ecx

; 383  : {

	push	ebp
	mov	ebp, esp
	sub	esp, 216				; 000000d8H
	push	ebx
	push	esi
	push	edi
	push	ecx
	lea	edi, DWORD PTR [ebp-216]
	mov	ecx, 54					; 00000036H
	mov	eax, -858993460				; ccccccccH
	rep stosd
	pop	ecx
	mov	DWORD PTR _this$[ebp], ecx

; 384  : 	BOOL result;
; 385  : 	GetProperty(0x20, VT_BOOL, (void*)&result);

	lea	eax, DWORD PTR _result$[ebp]
	push	eax
	push	11					; 0000000bH
	push	32					; 00000020H
	mov	ecx, DWORD PTR _this$[ebp]
	call	?GetProperty@CWnd@@QBEXJGPAX@Z		; CWnd::GetProperty

; 386  : 	return result;

	mov	eax, DWORD PTR _result$[ebp]

; 387  : }

	push	edx
	mov	ecx, ebp
	push	eax
	lea	edx, DWORD PTR $L94754
	call	@_RTC_CheckStackVars@8
	pop	eax
	pop	edx
	pop	edi
	pop	esi
	pop	ebx
	add	esp, 216				; 000000d8H
	cmp	ebp, esp
	call	__RTC_CheckEsp
	mov	esp, ebp
	pop	ebp
	ret	0
$L94754:
	DD	1
	DD	$L94753
$L94753:
	DD	-20					; ffffffecH
	DD	4
	DD	$L94752
$L94752:
	DB	114					; 00000072H
	DB	101					; 00000065H
	DB	115					; 00000073H
	DB	117					; 00000075H
	DB	108					; 0000006cH
	DB	116					; 00000074H
	DB	0
?GetSuggestSplitWords@CWSpell@@QAEHXZ ENDP		; CWSpell::GetSuggestSplitWords
_TEXT	ENDS
PUBLIC	?SetSuggestSplitWords@CWSpell@@QAEXH@Z		; CWSpell::SetSuggestSplitWords
; Function compile flags: /Odt /RTCcsu /ZI
;	COMDAT ?SetSuggestSplitWords@CWSpell@@QAEXH@Z
_TEXT	SEGMENT
_this$ = -8						; size = 4
_propVal$ = 8						; size = 4
?SetSuggestSplitWords@CWSpell@@QAEXH@Z PROC NEAR	; CWSpell::SetSuggestSplitWords, COMDAT
; _this$ = ecx

; 390  : {

	push	ebp
	mov	ebp, esp
	sub	esp, 204				; 000000ccH
	push	ebx
	push	esi
	push	edi
	push	ecx
	lea	edi, DWORD PTR [ebp-204]
	mov	ecx, 51					; 00000033H
	mov	eax, -858993460				; ccccccccH
	rep stosd
	pop	ecx
	mov	DWORD PTR _this$[ebp], ecx

; 391  : 	SetProperty(0x20, VT_BOOL, propVal);

	mov	eax, DWORD PTR _propVal$[ebp]
	push	eax
	push	11					; 0000000bH
	push	32					; 00000020H
	mov	ecx, DWORD PTR _this$[ebp]
	push	ecx
	call	?SetProperty@CWnd@@QAAXJGZZ		; CWnd::SetProperty
	add	esp, 16					; 00000010H

; 392  : }

	pop	edi
	pop	esi
	pop	ebx
	add	esp, 204				; 000000ccH
	cmp	ebp, esp
	call	__RTC_CheckEsp
	mov	esp, ebp
	pop	ebp
	ret	4
?SetSuggestSplitWords@CWSpell@@QAEXH@Z ENDP		; CWSpell::SetSuggestSplitWords
_TEXT	ENDS
PUBLIC	?GetTextLength@CWSpell@@QAEJXZ			; CWSpell::GetTextLength
; Function compile flags: /Odt /RTCcsu /ZI
;	COMDAT ?GetTextLength@CWSpell@@QAEJXZ
_TEXT	SEGMENT
_result$ = -20						; size = 4
_this$ = -8						; size = 4
?GetTextLength@CWSpell@@QAEJXZ PROC NEAR		; CWSpell::GetTextLength, COMDAT
; _this$ = ecx

; 395  : {

	push	ebp
	mov	ebp, esp
	sub	esp, 216				; 000000d8H
	push	ebx
	push	esi
	push	edi
	push	ecx
	lea	edi, DWORD PTR [ebp-216]
	mov	ecx, 54					; 00000036H
	mov	eax, -858993460				; ccccccccH
	rep stosd
	pop	ecx
	mov	DWORD PTR _this$[ebp], ecx

; 396  : 	long result;
; 397  : 	GetProperty(0x21, VT_I4, (void*)&result);

	lea	eax, DWORD PTR _result$[ebp]
	push	eax
	push	3
	push	33					; 00000021H
	mov	ecx, DWORD PTR _this$[ebp]
	call	?GetProperty@CWnd@@QBEXJGPAX@Z		; CWnd::GetProperty

; 398  : 	return result;

	mov	eax, DWORD PTR _result$[ebp]

; 399  : }

	push	edx
	mov	ecx, ebp
	push	eax
	lea	edx, DWORD PTR $L94761
	call	@_RTC_CheckStackVars@8
	pop	eax
	pop	edx
	pop	edi
	pop	esi
	pop	ebx
	add	esp, 216				; 000000d8H
	cmp	ebp, esp
	call	__RTC_CheckEsp
	mov	esp, ebp
	pop	ebp
	ret	0
$L94761:
	DD	1
	DD	$L94760
$L94760:
	DD	-20					; ffffffecH
	DD	4
	DD	$L94759
$L94759:
	DB	114					; 00000072H
	DB	101					; 00000065H
	DB	115					; 00000073H
	DB	117					; 00000075H
	DB	108					; 0000006cH
	DB	116					; 00000074H
	DB	0
?GetTextLength@CWSpell@@QAEJXZ ENDP			; CWSpell::GetTextLength
_TEXT	ENDS
PUBLIC	?SetTextLength@CWSpell@@QAEXJ@Z			; CWSpell::SetTextLength
; Function compile flags: /Odt /RTCcsu /ZI
;	COMDAT ?SetTextLength@CWSpell@@QAEXJ@Z
_TEXT	SEGMENT
_this$ = -8						; size = 4
_propVal$ = 8						; size = 4
?SetTextLength@CWSpell@@QAEXJ@Z PROC NEAR		; CWSpell::SetTextLength, COMDAT
; _this$ = ecx

; 402  : {

	push	ebp
	mov	ebp, esp
	sub	esp, 204				; 000000ccH
	push	ebx
	push	esi
	push	edi
	push	ecx
	lea	edi, DWORD PTR [ebp-204]
	mov	ecx, 51					; 00000033H
	mov	eax, -858993460				; ccccccccH
	rep stosd
	pop	ecx
	mov	DWORD PTR _this$[ebp], ecx

; 403  : 	SetProperty(0x21, VT_I4, propVal);

	mov	eax, DWORD PTR _propVal$[ebp]
	push	eax
	push	3
	push	33					; 00000021H
	mov	ecx, DWORD PTR _this$[ebp]
	push	ecx
	call	?SetProperty@CWnd@@QAAXJGZZ		; CWnd::SetProperty
	add	esp, 16					; 00000010H

; 404  : }

	pop	edi
	pop	esi
	pop	ebx
	add	esp, 204				; 000000ccH
	cmp	ebp, esp
	call	__RTC_CheckEsp
	mov	esp, ebp
	pop	ebp
	ret	4
?SetTextLength@CWSpell@@QAEXJ@Z ENDP			; CWSpell::SetTextLength
_TEXT	ENDS
PUBLIC	?GetTypographicalSuggestions@CWSpell@@QAEHXZ	; CWSpell::GetTypographicalSuggestions
; Function compile flags: /Odt /RTCcsu /ZI
;	COMDAT ?GetTypographicalSuggestions@CWSpell@@QAEHXZ
_TEXT	SEGMENT
_result$ = -20						; size = 4
_this$ = -8						; size = 4
?GetTypographicalSuggestions@CWSpell@@QAEHXZ PROC NEAR	; CWSpell::GetTypographicalSuggestions, COMDAT
; _this$ = ecx

; 407  : {

	push	ebp
	mov	ebp, esp
	sub	esp, 216				; 000000d8H
	push	ebx
	push	esi
	push	edi
	push	ecx
	lea	edi, DWORD PTR [ebp-216]
	mov	ecx, 54					; 00000036H
	mov	eax, -858993460				; ccccccccH
	rep stosd
	pop	ecx
	mov	DWORD PTR _this$[ebp], ecx

; 408  : 	BOOL result;
; 409  : 	GetProperty(0x22, VT_BOOL, (void*)&result);

	lea	eax, DWORD PTR _result$[ebp]
	push	eax
	push	11					; 0000000bH
	push	34					; 00000022H
	mov	ecx, DWORD PTR _this$[ebp]
	call	?GetProperty@CWnd@@QBEXJGPAX@Z		; CWnd::GetProperty

; 410  : 	return result;

	mov	eax, DWORD PTR _result$[ebp]

; 411  : }

	push	edx
	mov	ecx, ebp
	push	eax
	lea	edx, DWORD PTR $L94768
	call	@_RTC_CheckStackVars@8
	pop	eax
	pop	edx
	pop	edi
	pop	esi
	pop	ebx
	add	esp, 216				; 000000d8H
	cmp	ebp, esp
	call	__RTC_CheckEsp
	mov	esp, ebp
	pop	ebp
	ret	0
$L94768:
	DD	1
	DD	$L94767
$L94767:
	DD	-20					; ffffffecH
	DD	4
	DD	$L94766
$L94766:
	DB	114					; 00000072H
	DB	101					; 00000065H
	DB	115					; 00000073H
	DB	117					; 00000075H
	DB	108					; 0000006cH
	DB	116					; 00000074H
	DB	0
?GetTypographicalSuggestions@CWSpell@@QAEHXZ ENDP	; CWSpell::GetTypographicalSuggestions
_TEXT	ENDS
PUBLIC	?SetTypographicalSuggestions@CWSpell@@QAEXH@Z	; CWSpell::SetTypographicalSuggestions
; Function compile flags: /Odt /RTCcsu /ZI
;	COMDAT ?SetTypographicalSuggestions@CWSpell@@QAEXH@Z
_TEXT	SEGMENT
_this$ = -8						; size = 4
_propVal$ = 8						; size = 4
?SetTypographicalSuggestions@CWSpell@@QAEXH@Z PROC NEAR	; CWSpell::SetTypographicalSuggestions, COMDAT
; _this$ = ecx

; 414  : {

	push	ebp
	mov	ebp, esp
	sub	esp, 204				; 000000ccH
	push	ebx
	push	esi
	push	edi
	push	ecx
	lea	edi, DWORD PTR [ebp-204]
	mov	ecx, 51					; 00000033H
	mov	eax, -858993460				; ccccccccH
	rep stosd
	pop	ecx
	mov	DWORD PTR _this$[ebp], ecx

; 415  : 	SetProperty(0x22, VT_BOOL, propVal);

	mov	eax, DWORD PTR _propVal$[ebp]
	push	eax
	push	11					; 0000000bH
	push	34					; 00000022H
	mov	ecx, DWORD PTR _this$[ebp]
	push	ecx
	call	?SetProperty@CWnd@@QAAXJGZZ		; CWnd::SetProperty
	add	esp, 16					; 00000010H

; 416  : }

	pop	edi
	pop	esi
	pop	ebx
	add	esp, 204				; 000000ccH
	cmp	ebp, esp
	call	__RTC_CheckEsp
	mov	esp, ebp
	pop	ebp
	ret	4
?SetTypographicalSuggestions@CWSpell@@QAEXH@Z ENDP	; CWSpell::SetTypographicalSuggestions
_TEXT	ENDS
PUBLIC	?GetUndoNewText@CWSpell@@QAE?AV?$CStringT@GV?$StrTraitMFC@GV?$ChTraitsCRT@G@ATL@@@@@ATL@@XZ ; CWSpell::GetUndoNewText
;	COMDAT xdata$x
xdata$x	SEGMENT
__unwindtable$?GetUndoNewText@CWSpell@@QAE?AV?$CStringT@GV?$StrTraitMFC@GV?$ChTraitsCRT@G@ATL@@@@@ATL@@XZ DD 0ffffffffH
	DD	FLAT:__unwindfunclet$?GetUndoNewText@CWSpell@@QAE?AV?$CStringT@GV?$StrTraitMFC@GV?$ChTraitsCRT@G@ATL@@@@@ATL@@XZ$0
__ehfuncinfo$?GetUndoNewText@CWSpell@@QAE?AV?$CStringT@GV?$StrTraitMFC@GV?$ChTraitsCRT@G@ATL@@@@@ATL@@XZ DD 019930520H
	DD	01H
	DD	FLAT:__unwindtable$?GetUndoNewText@CWSpell@@QAE?AV?$CStringT@GV?$StrTraitMFC@GV?$ChTraitsCRT@G@ATL@@@@@ATL@@XZ
	DD	2 DUP(00H)
	DD	2 DUP(00H)
; Function compile flags: /Odt /RTCcsu /ZI
xdata$x	ENDS
;	COMDAT ?GetUndoNewText@CWSpell@@QAE?AV?$CStringT@GV?$StrTraitMFC@GV?$ChTraitsCRT@G@ATL@@@@@ATL@@XZ
_TEXT	SEGMENT
$T94775 = -236						; size = 4
_result$ = -32						; size = 4
_this$ = -20						; size = 4
__$EHRec$ = -12						; size = 12
___$ReturnUdt$ = 8					; size = 4
?GetUndoNewText@CWSpell@@QAE?AV?$CStringT@GV?$StrTraitMFC@GV?$ChTraitsCRT@G@ATL@@@@@ATL@@XZ PROC NEAR ; CWSpell::GetUndoNewText, COMDAT
; _this$ = ecx

; 419  : {

	push	ebp
	mov	ebp, esp
	push	-1
	push	__ehhandler$?GetUndoNewText@CWSpell@@QAE?AV?$CStringT@GV?$StrTraitMFC@GV?$ChTraitsCRT@G@ATL@@@@@ATL@@XZ
	mov	eax, DWORD PTR fs:__except_list
	push	eax
	mov	DWORD PTR fs:__except_list, esp
	sub	esp, 228				; 000000e4H
	push	ebx
	push	esi
	push	edi
	push	ecx
	lea	edi, DWORD PTR [ebp-240]
	mov	ecx, 57					; 00000039H
	mov	eax, -858993460				; ccccccccH
	rep stosd
	pop	ecx
	mov	DWORD PTR _this$[ebp], ecx
	mov	DWORD PTR $T94775[ebp], 0

; 420  : 	CString result;

	lea	ecx, DWORD PTR _result$[ebp]
	call	??0?$CStringT@GV?$StrTraitMFC@GV?$ChTraitsCRT@G@ATL@@@@@ATL@@QAE@XZ ; ATL::CStringT<unsigned short,StrTraitMFC<unsigned short,ATL::ChTraitsCRT<unsigned short> > >::CStringT<unsigned short,StrTraitMFC<unsigned short,ATL::ChTraitsCRT<unsigned short> > >
	mov	DWORD PTR __$EHRec$[ebp+8], 0

; 421  : 	GetProperty(0x23, VT_BSTR, (void*)&result);

	lea	eax, DWORD PTR _result$[ebp]
	push	eax
	push	8
	push	35					; 00000023H
	mov	ecx, DWORD PTR _this$[ebp]
	call	?GetProperty@CWnd@@QBEXJGPAX@Z		; CWnd::GetProperty

; 422  : 	return result;

	lea	eax, DWORD PTR _result$[ebp]
	push	eax
	mov	ecx, DWORD PTR ___$ReturnUdt$[ebp]
	call	??0?$CStringT@GV?$StrTraitMFC@GV?$ChTraitsCRT@G@ATL@@@@@ATL@@QAE@ABV01@@Z ; ATL::CStringT<unsigned short,StrTraitMFC<unsigned short,ATL::ChTraitsCRT<unsigned short> > >::CStringT<unsigned short,StrTraitMFC<unsigned short,ATL::ChTraitsCRT<unsigned short> > >
	mov	ecx, DWORD PTR $T94775[ebp]
	or	ecx, 1
	mov	DWORD PTR $T94775[ebp], ecx
	mov	DWORD PTR __$EHRec$[ebp+8], -1
	lea	ecx, DWORD PTR _result$[ebp]
	call	??1?$CStringT@GV?$StrTraitMFC@GV?$ChTraitsCRT@G@ATL@@@@@ATL@@QAE@XZ ; ATL::CStringT<unsigned short,StrTraitMFC<unsigned short,ATL::ChTraitsCRT<unsigned short> > >::~CStringT<unsigned short,StrTraitMFC<unsigned short,ATL::ChTraitsCRT<unsigned short> > >
	mov	eax, DWORD PTR ___$ReturnUdt$[ebp]

; 423  : }

	push	edx
	mov	ecx, ebp
	push	eax
	lea	edx, DWORD PTR $L94782
	call	@_RTC_CheckStackVars@8
	pop	eax
	pop	edx
	mov	ecx, DWORD PTR __$EHRec$[ebp]
	mov	DWORD PTR fs:__except_list, ecx
	pop	edi
	pop	esi
	pop	ebx
	add	esp, 240				; 000000f0H
	cmp	ebp, esp
	call	__RTC_CheckEsp
	mov	esp, ebp
	pop	ebp
	ret	4
$L94782:
	DD	1
	DD	$L94781
$L94781:
	DD	-32					; ffffffe0H
	DD	4
	DD	$L94779
$L94779:
	DB	114					; 00000072H
	DB	101					; 00000065H
	DB	115					; 00000073H
	DB	117					; 00000075H
	DB	108					; 0000006cH
	DB	116					; 00000074H
	DB	0
_TEXT	ENDS
;	COMDAT text$x
text$x	SEGMENT
__unwindfunclet$?GetUndoNewText@CWSpell@@QAE?AV?$CStringT@GV?$StrTraitMFC@GV?$ChTraitsCRT@G@ATL@@@@@ATL@@XZ$0:
	lea	ecx, DWORD PTR _result$[ebp]
	jmp	??1?$CStringT@GV?$StrTraitMFC@GV?$ChTraitsCRT@G@ATL@@@@@ATL@@QAE@XZ ; ATL::CStringT<unsigned short,StrTraitMFC<unsigned short,ATL::ChTraitsCRT<unsigned short> > >::~CStringT<unsigned short,StrTraitMFC<unsigned short,ATL::ChTraitsCRT<unsigned short> > >
__ehhandler$?GetUndoNewText@CWSpell@@QAE?AV?$CStringT@GV?$StrTraitMFC@GV?$ChTraitsCRT@G@ATL@@@@@ATL@@XZ:
	mov	eax, OFFSET FLAT:__ehfuncinfo$?GetUndoNewText@CWSpell@@QAE?AV?$CStringT@GV?$StrTraitMFC@GV?$ChTraitsCRT@G@ATL@@@@@ATL@@XZ
	jmp	___CxxFrameHandler
text$x	ENDS
?GetUndoNewText@CWSpell@@QAE?AV?$CStringT@GV?$StrTraitMFC@GV?$ChTraitsCRT@G@ATL@@@@@ATL@@XZ ENDP ; CWSpell::GetUndoNewText
PUBLIC	?SetUndoNewText@CWSpell@@QAEXPBG@Z		; CWSpell::SetUndoNewText
; Function compile flags: /Odt /RTCcsu /ZI
;	COMDAT ?SetUndoNewText@CWSpell@@QAEXPBG@Z
_TEXT	SEGMENT
_this$ = -8						; size = 4
_propVal$ = 8						; size = 4
?SetUndoNewText@CWSpell@@QAEXPBG@Z PROC NEAR		; CWSpell::SetUndoNewText, COMDAT
; _this$ = ecx

; 426  : {

	push	ebp
	mov	ebp, esp
	sub	esp, 204				; 000000ccH
	push	ebx
	push	esi
	push	edi
	push	ecx
	lea	edi, DWORD PTR [ebp-204]
	mov	ecx, 51					; 00000033H
	mov	eax, -858993460				; ccccccccH
	rep stosd
	pop	ecx
	mov	DWORD PTR _this$[ebp], ecx

; 427  : 	SetProperty(0x23, VT_BSTR, propVal);

	mov	eax, DWORD PTR _propVal$[ebp]
	push	eax
	push	8
	push	35					; 00000023H
	mov	ecx, DWORD PTR _this$[ebp]
	push	ecx
	call	?SetProperty@CWnd@@QAAXJGZZ		; CWnd::SetProperty
	add	esp, 16					; 00000010H

; 428  : }

	pop	edi
	pop	esi
	pop	ebx
	add	esp, 204				; 000000ccH
	cmp	ebp, esp
	call	__RTC_CheckEsp
	mov	esp, ebp
	pop	ebp
	ret	4
?SetUndoNewText@CWSpell@@QAEXPBG@Z ENDP			; CWSpell::SetUndoNewText
_TEXT	ENDS
PUBLIC	?GetUndoOffset@CWSpell@@QAEJXZ			; CWSpell::GetUndoOffset
; Function compile flags: /Odt /RTCcsu /ZI
;	COMDAT ?GetUndoOffset@CWSpell@@QAEJXZ
_TEXT	SEGMENT
_result$ = -20						; size = 4
_this$ = -8						; size = 4
?GetUndoOffset@CWSpell@@QAEJXZ PROC NEAR		; CWSpell::GetUndoOffset, COMDAT
; _this$ = ecx

; 431  : {

	push	ebp
	mov	ebp, esp
	sub	esp, 216				; 000000d8H
	push	ebx
	push	esi
	push	edi
	push	ecx
	lea	edi, DWORD PTR [ebp-216]
	mov	ecx, 54					; 00000036H
	mov	eax, -858993460				; ccccccccH
	rep stosd
	pop	ecx
	mov	DWORD PTR _this$[ebp], ecx

; 432  : 	long result;
; 433  : 	GetProperty(0x24, VT_I4, (void*)&result);

	lea	eax, DWORD PTR _result$[ebp]
	push	eax
	push	3
	push	36					; 00000024H
	mov	ecx, DWORD PTR _this$[ebp]
	call	?GetProperty@CWnd@@QBEXJGPAX@Z		; CWnd::GetProperty

; 434  : 	return result;

	mov	eax, DWORD PTR _result$[ebp]

; 435  : }

	push	edx
	mov	ecx, ebp
	push	eax
	lea	edx, DWORD PTR $L94792
	call	@_RTC_CheckStackVars@8
	pop	eax
	pop	edx
	pop	edi
	pop	esi
	pop	ebx
	add	esp, 216				; 000000d8H
	cmp	ebp, esp
	call	__RTC_CheckEsp
	mov	esp, ebp
	pop	ebp
	ret	0
$L94792:
	DD	1
	DD	$L94791
$L94791:
	DD	-20					; ffffffecH
	DD	4
	DD	$L94790
$L94790:
	DB	114					; 00000072H
	DB	101					; 00000065H
	DB	115					; 00000073H
	DB	117					; 00000075H
	DB	108					; 0000006cH
	DB	116					; 00000074H
	DB	0
?GetUndoOffset@CWSpell@@QAEJXZ ENDP			; CWSpell::GetUndoOffset
_TEXT	ENDS
PUBLIC	?SetUndoOffset@CWSpell@@QAEXJ@Z			; CWSpell::SetUndoOffset
; Function compile flags: /Odt /RTCcsu /ZI
;	COMDAT ?SetUndoOffset@CWSpell@@QAEXJ@Z
_TEXT	SEGMENT
_this$ = -8						; size = 4
_propVal$ = 8						; size = 4
?SetUndoOffset@CWSpell@@QAEXJ@Z PROC NEAR		; CWSpell::SetUndoOffset, COMDAT
; _this$ = ecx

; 438  : {

	push	ebp
	mov	ebp, esp
	sub	esp, 204				; 000000ccH
	push	ebx
	push	esi
	push	edi
	push	ecx
	lea	edi, DWORD PTR [ebp-204]
	mov	ecx, 51					; 00000033H
	mov	eax, -858993460				; ccccccccH
	rep stosd
	pop	ecx
	mov	DWORD PTR _this$[ebp], ecx

; 439  : 	SetProperty(0x24, VT_I4, propVal);

	mov	eax, DWORD PTR _propVal$[ebp]
	push	eax
	push	3
	push	36					; 00000024H
	mov	ecx, DWORD PTR _this$[ebp]
	push	ecx
	call	?SetProperty@CWnd@@QAAXJGZZ		; CWnd::SetProperty
	add	esp, 16					; 00000010H

; 440  : }

	pop	edi
	pop	esi
	pop	ebx
	add	esp, 204				; 000000ccH
	cmp	ebp, esp
	call	__RTC_CheckEsp
	mov	esp, ebp
	pop	ebp
	ret	4
?SetUndoOffset@CWSpell@@QAEXJ@Z ENDP			; CWSpell::SetUndoOffset
_TEXT	ENDS
PUBLIC	?GetUndoOldText@CWSpell@@QAE?AV?$CStringT@GV?$StrTraitMFC@GV?$ChTraitsCRT@G@ATL@@@@@ATL@@XZ ; CWSpell::GetUndoOldText
;	COMDAT xdata$x
xdata$x	SEGMENT
__unwindtable$?GetUndoOldText@CWSpell@@QAE?AV?$CStringT@GV?$StrTraitMFC@GV?$ChTraitsCRT@G@ATL@@@@@ATL@@XZ DD 0ffffffffH
	DD	FLAT:__unwindfunclet$?GetUndoOldText@CWSpell@@QAE?AV?$CStringT@GV?$StrTraitMFC@GV?$ChTraitsCRT@G@ATL@@@@@ATL@@XZ$0
__ehfuncinfo$?GetUndoOldText@CWSpell@@QAE?AV?$CStringT@GV?$StrTraitMFC@GV?$ChTraitsCRT@G@ATL@@@@@ATL@@XZ DD 019930520H
	DD	01H
	DD	FLAT:__unwindtable$?GetUndoOldText@CWSpell@@QAE?AV?$CStringT@GV?$StrTraitMFC@GV?$ChTraitsCRT@G@ATL@@@@@ATL@@XZ
	DD	2 DUP(00H)
	DD	2 DUP(00H)
; Function compile flags: /Odt /RTCcsu /ZI
xdata$x	ENDS
;	COMDAT ?GetUndoOldText@CWSpell@@QAE?AV?$CStringT@GV?$StrTraitMFC@GV?$ChTraitsCRT@G@ATL@@@@@ATL@@XZ
_TEXT	SEGMENT
$T94799 = -236						; size = 4
_result$ = -32						; size = 4
_this$ = -20						; size = 4
__$EHRec$ = -12						; size = 12
___$ReturnUdt$ = 8					; size = 4
?GetUndoOldText@CWSpell@@QAE?AV?$CStringT@GV?$StrTraitMFC@GV?$ChTraitsCRT@G@ATL@@@@@ATL@@XZ PROC NEAR ; CWSpell::GetUndoOldText, COMDAT
; _this$ = ecx

; 443  : {

	push	ebp
	mov	ebp, esp
	push	-1
	push	__ehhandler$?GetUndoOldText@CWSpell@@QAE?AV?$CStringT@GV?$StrTraitMFC@GV?$ChTraitsCRT@G@ATL@@@@@ATL@@XZ
	mov	eax, DWORD PTR fs:__except_list
	push	eax
	mov	DWORD PTR fs:__except_list, esp
	sub	esp, 228				; 000000e4H
	push	ebx
	push	esi
	push	edi
	push	ecx
	lea	edi, DWORD PTR [ebp-240]
	mov	ecx, 57					; 00000039H
	mov	eax, -858993460				; ccccccccH
	rep stosd
	pop	ecx
	mov	DWORD PTR _this$[ebp], ecx
	mov	DWORD PTR $T94799[ebp], 0

; 444  : 	CString result;

	lea	ecx, DWORD PTR _result$[ebp]
	call	??0?$CStringT@GV?$StrTraitMFC@GV?$ChTraitsCRT@G@ATL@@@@@ATL@@QAE@XZ ; ATL::CStringT<unsigned short,StrTraitMFC<unsigned short,ATL::ChTraitsCRT<unsigned short> > >::CStringT<unsigned short,StrTraitMFC<unsigned short,ATL::ChTraitsCRT<unsigned short> > >
	mov	DWORD PTR __$EHRec$[ebp+8], 0

; 445  : 	GetProperty(0x25, VT_BSTR, (void*)&result);

	lea	eax, DWORD PTR _result$[ebp]
	push	eax
	push	8
	push	37					; 00000025H
	mov	ecx, DWORD PTR _this$[ebp]
	call	?GetProperty@CWnd@@QBEXJGPAX@Z		; CWnd::GetProperty

; 446  : 	return result;

	lea	eax, DWORD PTR _result$[ebp]
	push	eax
	mov	ecx, DWORD PTR ___$ReturnUdt$[ebp]
	call	??0?$CStringT@GV?$StrTraitMFC@GV?$ChTraitsCRT@G@ATL@@@@@ATL@@QAE@ABV01@@Z ; ATL::CStringT<unsigned short,StrTraitMFC<unsigned short,ATL::ChTraitsCRT<unsigned short> > >::CStringT<unsigned short,StrTraitMFC<unsigned short,ATL::ChTraitsCRT<unsigned short> > >
	mov	ecx, DWORD PTR $T94799[ebp]
	or	ecx, 1
	mov	DWORD PTR $T94799[ebp], ecx
	mov	DWORD PTR __$EHRec$[ebp+8], -1
	lea	ecx, DWORD PTR _result$[ebp]
	call	??1?$CStringT@GV?$StrTraitMFC@GV?$ChTraitsCRT@G@ATL@@@@@ATL@@QAE@XZ ; ATL::CStringT<unsigned short,StrTraitMFC<unsigned short,ATL::ChTraitsCRT<unsigned short> > >::~CStringT<unsigned short,StrTraitMFC<unsigned short,ATL::ChTraitsCRT<unsigned short> > >
	mov	eax, DWORD PTR ___$ReturnUdt$[ebp]

; 447  : }

	push	edx
	mov	ecx, ebp
	push	eax
	lea	edx, DWORD PTR $L94806
	call	@_RTC_CheckStackVars@8
	pop	eax
	pop	edx
	mov	ecx, DWORD PTR __$EHRec$[ebp]
	mov	DWORD PTR fs:__except_list, ecx
	pop	edi
	pop	esi
	pop	ebx
	add	esp, 240				; 000000f0H
	cmp	ebp, esp
	call	__RTC_CheckEsp
	mov	esp, ebp
	pop	ebp
	ret	4
$L94806:
	DD	1
	DD	$L94805
$L94805:
	DD	-32					; ffffffe0H
	DD	4
	DD	$L94803
$L94803:
	DB	114					; 00000072H
	DB	101					; 00000065H
	DB	115					; 00000073H
	DB	117					; 00000075H
	DB	108					; 0000006cH
	DB	116					; 00000074H
	DB	0
_TEXT	ENDS
;	COMDAT text$x
text$x	SEGMENT
__unwindfunclet$?GetUndoOldText@CWSpell@@QAE?AV?$CStringT@GV?$StrTraitMFC@GV?$ChTraitsCRT@G@ATL@@@@@ATL@@XZ$0:
	lea	ecx, DWORD PTR _result$[ebp]
	jmp	??1?$CStringT@GV?$StrTraitMFC@GV?$ChTraitsCRT@G@ATL@@@@@ATL@@QAE@XZ ; ATL::CStringT<unsigned short,StrTraitMFC<unsigned short,ATL::ChTraitsCRT<unsigned short> > >::~CStringT<unsigned short,StrTraitMFC<unsigned short,ATL::ChTraitsCRT<unsigned short> > >
__ehhandler$?GetUndoOldText@CWSpell@@QAE?AV?$CStringT@GV?$StrTraitMFC@GV?$ChTraitsCRT@G@ATL@@@@@ATL@@XZ:
	mov	eax, OFFSET FLAT:__ehfuncinfo$?GetUndoOldText@CWSpell@@QAE?AV?$CStringT@GV?$StrTraitMFC@GV?$ChTraitsCRT@G@ATL@@@@@ATL@@XZ
	jmp	___CxxFrameHandler
text$x	ENDS
?GetUndoOldText@CWSpell@@QAE?AV?$CStringT@GV?$StrTraitMFC@GV?$ChTraitsCRT@G@ATL@@@@@ATL@@XZ ENDP ; CWSpell::GetUndoOldText
PUBLIC	?SetUndoOldText@CWSpell@@QAEXPBG@Z		; CWSpell::SetUndoOldText
; Function compile flags: /Odt /RTCcsu /ZI
;	COMDAT ?SetUndoOldText@CWSpell@@QAEXPBG@Z
_TEXT	SEGMENT
_this$ = -8						; size = 4
_propVal$ = 8						; size = 4
?SetUndoOldText@CWSpell@@QAEXPBG@Z PROC NEAR		; CWSpell::SetUndoOldText, COMDAT
; _this$ = ecx

; 450  : {

	push	ebp
	mov	ebp, esp
	sub	esp, 204				; 000000ccH
	push	ebx
	push	esi
	push	edi
	push	ecx
	lea	edi, DWORD PTR [ebp-204]
	mov	ecx, 51					; 00000033H
	mov	eax, -858993460				; ccccccccH
	rep stosd
	pop	ecx
	mov	DWORD PTR _this$[ebp], ecx

; 451  : 	SetProperty(0x25, VT_BSTR, propVal);

	mov	eax, DWORD PTR _propVal$[ebp]
	push	eax
	push	8
	push	37					; 00000025H
	mov	ecx, DWORD PTR _this$[ebp]
	push	ecx
	call	?SetProperty@CWnd@@QAAXJGZZ		; CWnd::SetProperty
	add	esp, 16					; 00000010H

; 452  : }

	pop	edi
	pop	esi
	pop	ebx
	add	esp, 204				; 000000ccH
	cmp	ebp, esp
	call	__RTC_CheckEsp
	mov	esp, ebp
	pop	ebp
	ret	4
?SetUndoOldText@CWSpell@@QAEXPBG@Z ENDP			; CWSpell::SetUndoOldText
_TEXT	ENDS
PUBLIC	?GetUserDictionaryCount@CWSpell@@QAEFXZ		; CWSpell::GetUserDictionaryCount
; Function compile flags: /Odt /RTCcsu /ZI
;	COMDAT ?GetUserDictionaryCount@CWSpell@@QAEFXZ
_TEXT	SEGMENT
_result$ = -20						; size = 2
_this$ = -8						; size = 4
?GetUserDictionaryCount@CWSpell@@QAEFXZ PROC NEAR	; CWSpell::GetUserDictionaryCount, COMDAT
; _this$ = ecx

; 455  : {

	push	ebp
	mov	ebp, esp
	sub	esp, 216				; 000000d8H
	push	ebx
	push	esi
	push	edi
	push	ecx
	lea	edi, DWORD PTR [ebp-216]
	mov	ecx, 54					; 00000036H
	mov	eax, -858993460				; ccccccccH
	rep stosd
	pop	ecx
	mov	DWORD PTR _this$[ebp], ecx

; 456  : 	short result;
; 457  : 	GetProperty(0x26, VT_I2, (void*)&result);

	lea	eax, DWORD PTR _result$[ebp]
	push	eax
	push	2
	push	38					; 00000026H
	mov	ecx, DWORD PTR _this$[ebp]
	call	?GetProperty@CWnd@@QBEXJGPAX@Z		; CWnd::GetProperty

; 458  : 	return result;

	mov	ax, WORD PTR _result$[ebp]

; 459  : }

	push	edx
	mov	ecx, ebp
	push	eax
	lea	edx, DWORD PTR $L94816
	call	@_RTC_CheckStackVars@8
	pop	eax
	pop	edx
	pop	edi
	pop	esi
	pop	ebx
	add	esp, 216				; 000000d8H
	cmp	ebp, esp
	call	__RTC_CheckEsp
	mov	esp, ebp
	pop	ebp
	ret	0
$L94816:
	DD	1
	DD	$L94815
$L94815:
	DD	-20					; ffffffecH
	DD	2
	DD	$L94814
$L94814:
	DB	114					; 00000072H
	DB	101					; 00000065H
	DB	115					; 00000073H
	DB	117					; 00000075H
	DB	108					; 0000006cH
	DB	116					; 00000074H
	DB	0
?GetUserDictionaryCount@CWSpell@@QAEFXZ ENDP		; CWSpell::GetUserDictionaryCount
_TEXT	ENDS
PUBLIC	?SetUserDictionaryCount@CWSpell@@QAEXF@Z	; CWSpell::SetUserDictionaryCount
; Function compile flags: /Odt /RTCcsu /ZI
;	COMDAT ?SetUserDictionaryCount@CWSpell@@QAEXF@Z
_TEXT	SEGMENT
_this$ = -8						; size = 4
_propVal$ = 8						; size = 2
?SetUserDictionaryCount@CWSpell@@QAEXF@Z PROC NEAR	; CWSpell::SetUserDictionaryCount, COMDAT
; _this$ = ecx

; 462  : {

	push	ebp
	mov	ebp, esp
	sub	esp, 204				; 000000ccH
	push	ebx
	push	esi
	push	edi
	push	ecx
	lea	edi, DWORD PTR [ebp-204]
	mov	ecx, 51					; 00000033H
	mov	eax, -858993460				; ccccccccH
	rep stosd
	pop	ecx
	mov	DWORD PTR _this$[ebp], ecx

; 463  : 	SetProperty(0x26, VT_I2, propVal);

	movsx	eax, WORD PTR _propVal$[ebp]
	push	eax
	push	2
	push	38					; 00000026H
	mov	ecx, DWORD PTR _this$[ebp]
	push	ecx
	call	?SetProperty@CWnd@@QAAXJGZZ		; CWnd::SetProperty
	add	esp, 16					; 00000010H

; 464  : }

	pop	edi
	pop	esi
	pop	ebx
	add	esp, 204				; 000000ccH
	cmp	ebp, esp
	call	__RTC_CheckEsp
	mov	esp, ebp
	pop	ebp
	ret	4
?SetUserDictionaryCount@CWSpell@@QAEXF@Z ENDP		; CWSpell::SetUserDictionaryCount
_TEXT	ENDS
PUBLIC	?GetUserDictionaryFiles@CWSpell@@QAE?AV?$CStringT@GV?$StrTraitMFC@GV?$ChTraitsCRT@G@ATL@@@@@ATL@@XZ ; CWSpell::GetUserDictionaryFiles
;	COMDAT xdata$x
xdata$x	SEGMENT
__unwindtable$?GetUserDictionaryFiles@CWSpell@@QAE?AV?$CStringT@GV?$StrTraitMFC@GV?$ChTraitsCRT@G@ATL@@@@@ATL@@XZ DD 0ffffffffH
	DD	FLAT:__unwindfunclet$?GetUserDictionaryFiles@CWSpell@@QAE?AV?$CStringT@GV?$StrTraitMFC@GV?$ChTraitsCRT@G@ATL@@@@@ATL@@XZ$0
__ehfuncinfo$?GetUserDictionaryFiles@CWSpell@@QAE?AV?$CStringT@GV?$StrTraitMFC@GV?$ChTraitsCRT@G@ATL@@@@@ATL@@XZ DD 019930520H
	DD	01H
	DD	FLAT:__unwindtable$?GetUserDictionaryFiles@CWSpell@@QAE?AV?$CStringT@GV?$StrTraitMFC@GV?$ChTraitsCRT@G@ATL@@@@@ATL@@XZ
	DD	2 DUP(00H)
	DD	2 DUP(00H)
; Function compile flags: /Odt /RTCcsu /ZI
xdata$x	ENDS
;	COMDAT ?GetUserDictionaryFiles@CWSpell@@QAE?AV?$CStringT@GV?$StrTraitMFC@GV?$ChTraitsCRT@G@ATL@@@@@ATL@@XZ
_TEXT	SEGMENT
$T94823 = -236						; size = 4
_result$ = -32						; size = 4
_this$ = -20						; size = 4
__$EHRec$ = -12						; size = 12
___$ReturnUdt$ = 8					; size = 4
?GetUserDictionaryFiles@CWSpell@@QAE?AV?$CStringT@GV?$StrTraitMFC@GV?$ChTraitsCRT@G@ATL@@@@@ATL@@XZ PROC NEAR ; CWSpell::GetUserDictionaryFiles, COMDAT
; _this$ = ecx

; 467  : {

	push	ebp
	mov	ebp, esp
	push	-1
	push	__ehhandler$?GetUserDictionaryFiles@CWSpell@@QAE?AV?$CStringT@GV?$StrTraitMFC@GV?$ChTraitsCRT@G@ATL@@@@@ATL@@XZ
	mov	eax, DWORD PTR fs:__except_list
	push	eax
	mov	DWORD PTR fs:__except_list, esp
	sub	esp, 228				; 000000e4H
	push	ebx
	push	esi
	push	edi
	push	ecx
	lea	edi, DWORD PTR [ebp-240]
	mov	ecx, 57					; 00000039H
	mov	eax, -858993460				; ccccccccH
	rep stosd
	pop	ecx
	mov	DWORD PTR _this$[ebp], ecx
	mov	DWORD PTR $T94823[ebp], 0

; 468  : 	CString result;

	lea	ecx, DWORD PTR _result$[ebp]
	call	??0?$CStringT@GV?$StrTraitMFC@GV?$ChTraitsCRT@G@ATL@@@@@ATL@@QAE@XZ ; ATL::CStringT<unsigned short,StrTraitMFC<unsigned short,ATL::ChTraitsCRT<unsigned short> > >::CStringT<unsigned short,StrTraitMFC<unsigned short,ATL::ChTraitsCRT<unsigned short> > >
	mov	DWORD PTR __$EHRec$[ebp+8], 0

; 469  : 	GetProperty(0x27, VT_BSTR, (void*)&result);

	lea	eax, DWORD PTR _result$[ebp]
	push	eax
	push	8
	push	39					; 00000027H
	mov	ecx, DWORD PTR _this$[ebp]
	call	?GetProperty@CWnd@@QBEXJGPAX@Z		; CWnd::GetProperty

; 470  : 	return result;

	lea	eax, DWORD PTR _result$[ebp]
	push	eax
	mov	ecx, DWORD PTR ___$ReturnUdt$[ebp]
	call	??0?$CStringT@GV?$StrTraitMFC@GV?$ChTraitsCRT@G@ATL@@@@@ATL@@QAE@ABV01@@Z ; ATL::CStringT<unsigned short,StrTraitMFC<unsigned short,ATL::ChTraitsCRT<unsigned short> > >::CStringT<unsigned short,StrTraitMFC<unsigned short,ATL::ChTraitsCRT<unsigned short> > >
	mov	ecx, DWORD PTR $T94823[ebp]
	or	ecx, 1
	mov	DWORD PTR $T94823[ebp], ecx
	mov	DWORD PTR __$EHRec$[ebp+8], -1
	lea	ecx, DWORD PTR _result$[ebp]
	call	??1?$CStringT@GV?$StrTraitMFC@GV?$ChTraitsCRT@G@ATL@@@@@ATL@@QAE@XZ ; ATL::CStringT<unsigned short,StrTraitMFC<unsigned short,ATL::ChTraitsCRT<unsigned short> > >::~CStringT<unsigned short,StrTraitMFC<unsigned short,ATL::ChTraitsCRT<unsigned short> > >
	mov	eax, DWORD PTR ___$ReturnUdt$[ebp]

; 471  : }

	push	edx
	mov	ecx, ebp
	push	eax
	lea	edx, DWORD PTR $L94830
	call	@_RTC_CheckStackVars@8
	pop	eax
	pop	edx
	mov	ecx, DWORD PTR __$EHRec$[ebp]
	mov	DWORD PTR fs:__except_list, ecx
	pop	edi
	pop	esi
	pop	ebx
	add	esp, 240				; 000000f0H
	cmp	ebp, esp
	call	__RTC_CheckEsp
	mov	esp, ebp
	pop	ebp
	ret	4
$L94830:
	DD	1
	DD	$L94829
$L94829:
	DD	-32					; ffffffe0H
	DD	4
	DD	$L94827
$L94827:
	DB	114					; 00000072H
	DB	101					; 00000065H
	DB	115					; 00000073H
	DB	117					; 00000075H
	DB	108					; 0000006cH
	DB	116					; 00000074H
	DB	0
_TEXT	ENDS
;	COMDAT text$x
text$x	SEGMENT
__unwindfunclet$?GetUserDictionaryFiles@CWSpell@@QAE?AV?$CStringT@GV?$StrTraitMFC@GV?$ChTraitsCRT@G@ATL@@@@@ATL@@XZ$0:
	lea	ecx, DWORD PTR _result$[ebp]
	jmp	??1?$CStringT@GV?$StrTraitMFC@GV?$ChTraitsCRT@G@ATL@@@@@ATL@@QAE@XZ ; ATL::CStringT<unsigned short,StrTraitMFC<unsigned short,ATL::ChTraitsCRT<unsigned short> > >::~CStringT<unsigned short,StrTraitMFC<unsigned short,ATL::ChTraitsCRT<unsigned short> > >
__ehhandler$?GetUserDictionaryFiles@CWSpell@@QAE?AV?$CStringT@GV?$StrTraitMFC@GV?$ChTraitsCRT@G@ATL@@@@@ATL@@XZ:
	mov	eax, OFFSET FLAT:__ehfuncinfo$?GetUserDictionaryFiles@CWSpell@@QAE?AV?$CStringT@GV?$StrTraitMFC@GV?$ChTraitsCRT@G@ATL@@@@@ATL@@XZ
	jmp	___CxxFrameHandler
text$x	ENDS
?GetUserDictionaryFiles@CWSpell@@QAE?AV?$CStringT@GV?$StrTraitMFC@GV?$ChTraitsCRT@G@ATL@@@@@ATL@@XZ ENDP ; CWSpell::GetUserDictionaryFiles
PUBLIC	?SetUserDictionaryFiles@CWSpell@@QAEXPBG@Z	; CWSpell::SetUserDictionaryFiles
; Function compile flags: /Odt /RTCcsu /ZI
;	COMDAT ?SetUserDictionaryFiles@CWSpell@@QAEXPBG@Z
_TEXT	SEGMENT
_this$ = -8						; size = 4
_propVal$ = 8						; size = 4
?SetUserDictionaryFiles@CWSpell@@QAEXPBG@Z PROC NEAR	; CWSpell::SetUserDictionaryFiles, COMDAT
; _this$ = ecx

; 474  : {

	push	ebp
	mov	ebp, esp
	sub	esp, 204				; 000000ccH
	push	ebx
	push	esi
	push	edi
	push	ecx
	lea	edi, DWORD PTR [ebp-204]
	mov	ecx, 51					; 00000033H
	mov	eax, -858993460				; ccccccccH
	rep stosd
	pop	ecx
	mov	DWORD PTR _this$[ebp], ecx

; 475  : 	SetProperty(0x27, VT_BSTR, propVal);

	mov	eax, DWORD PTR _propVal$[ebp]
	push	eax
	push	8
	push	39					; 00000027H
	mov	ecx, DWORD PTR _this$[ebp]
	push	ecx
	call	?SetProperty@CWnd@@QAAXJGZZ		; CWnd::SetProperty
	add	esp, 16					; 00000010H

; 476  : }

	pop	edi
	pop	esi
	pop	ebx
	add	esp, 204				; 000000ccH
	cmp	ebp, esp
	call	__RTC_CheckEsp
	mov	esp, ebp
	pop	ebp
	ret	4
?SetUserDictionaryFiles@CWSpell@@QAEXPBG@Z ENDP		; CWSpell::SetUserDictionaryFiles
_TEXT	ENDS
PUBLIC	?GetIgnoreCapitalizedWords@CWSpell@@QAEHXZ	; CWSpell::GetIgnoreCapitalizedWords
; Function compile flags: /Odt /RTCcsu /ZI
;	COMDAT ?GetIgnoreCapitalizedWords@CWSpell@@QAEHXZ
_TEXT	SEGMENT
_result$ = -20						; size = 4
_this$ = -8						; size = 4
?GetIgnoreCapitalizedWords@CWSpell@@QAEHXZ PROC NEAR	; CWSpell::GetIgnoreCapitalizedWords, COMDAT
; _this$ = ecx

; 479  : {

	push	ebp
	mov	ebp, esp
	sub	esp, 216				; 000000d8H
	push	ebx
	push	esi
	push	edi
	push	ecx
	lea	edi, DWORD PTR [ebp-216]
	mov	ecx, 54					; 00000036H
	mov	eax, -858993460				; ccccccccH
	rep stosd
	pop	ecx
	mov	DWORD PTR _this$[ebp], ecx

; 480  : 	BOOL result;
; 481  : 	GetProperty(0x28, VT_BOOL, (void*)&result);

	lea	eax, DWORD PTR _result$[ebp]
	push	eax
	push	11					; 0000000bH
	push	40					; 00000028H
	mov	ecx, DWORD PTR _this$[ebp]
	call	?GetProperty@CWnd@@QBEXJGPAX@Z		; CWnd::GetProperty

; 482  : 	return result;

	mov	eax, DWORD PTR _result$[ebp]

; 483  : }

	push	edx
	mov	ecx, ebp
	push	eax
	lea	edx, DWORD PTR $L94840
	call	@_RTC_CheckStackVars@8
	pop	eax
	pop	edx
	pop	edi
	pop	esi
	pop	ebx
	add	esp, 216				; 000000d8H
	cmp	ebp, esp
	call	__RTC_CheckEsp
	mov	esp, ebp
	pop	ebp
	ret	0
$L94840:
	DD	1
	DD	$L94839
$L94839:
	DD	-20					; ffffffecH
	DD	4
	DD	$L94838
$L94838:
	DB	114					; 00000072H
	DB	101					; 00000065H
	DB	115					; 00000073H
	DB	117					; 00000075H
	DB	108					; 0000006cH
	DB	116					; 00000074H
	DB	0
?GetIgnoreCapitalizedWords@CWSpell@@QAEHXZ ENDP		; CWSpell::GetIgnoreCapitalizedWords
_TEXT	ENDS
PUBLIC	?SetIgnoreCapitalizedWords@CWSpell@@QAEXH@Z	; CWSpell::SetIgnoreCapitalizedWords
; Function compile flags: /Odt /RTCcsu /ZI
;	COMDAT ?SetIgnoreCapitalizedWords@CWSpell@@QAEXH@Z
_TEXT	SEGMENT
_this$ = -8						; size = 4
_propVal$ = 8						; size = 4
?SetIgnoreCapitalizedWords@CWSpell@@QAEXH@Z PROC NEAR	; CWSpell::SetIgnoreCapitalizedWords, COMDAT
; _this$ = ecx

; 486  : {

	push	ebp
	mov	ebp, esp
	sub	esp, 204				; 000000ccH
	push	ebx
	push	esi
	push	edi
	push	ecx
	lea	edi, DWORD PTR [ebp-204]
	mov	ecx, 51					; 00000033H
	mov	eax, -858993460				; ccccccccH
	rep stosd
	pop	ecx
	mov	DWORD PTR _this$[ebp], ecx

; 487  : 	SetProperty(0x28, VT_BOOL, propVal);

	mov	eax, DWORD PTR _propVal$[ebp]
	push	eax
	push	11					; 0000000bH
	push	40					; 00000028H
	mov	ecx, DWORD PTR _this$[ebp]
	push	ecx
	call	?SetProperty@CWnd@@QAAXJGZZ		; CWnd::SetProperty
	add	esp, 16					; 00000010H

; 488  : }

	pop	edi
	pop	esi
	pop	ebx
	add	esp, 204				; 000000ccH
	cmp	ebp, esp
	call	__RTC_CheckEsp
	mov	esp, ebp
	pop	ebp
	ret	4
?SetIgnoreCapitalizedWords@CWSpell@@QAEXH@Z ENDP	; CWSpell::SetIgnoreCapitalizedWords
_TEXT	ENDS
PUBLIC	?GetShowContext@CWSpell@@QAEHXZ			; CWSpell::GetShowContext
; Function compile flags: /Odt /RTCcsu /ZI
;	COMDAT ?GetShowContext@CWSpell@@QAEHXZ
_TEXT	SEGMENT
_result$ = -20						; size = 4
_this$ = -8						; size = 4
?GetShowContext@CWSpell@@QAEHXZ PROC NEAR		; CWSpell::GetShowContext, COMDAT
; _this$ = ecx

; 491  : {

	push	ebp
	mov	ebp, esp
	sub	esp, 216				; 000000d8H
	push	ebx
	push	esi
	push	edi
	push	ecx
	lea	edi, DWORD PTR [ebp-216]
	mov	ecx, 54					; 00000036H
	mov	eax, -858993460				; ccccccccH
	rep stosd
	pop	ecx
	mov	DWORD PTR _this$[ebp], ecx

; 492  : 	BOOL result;
; 493  : 	GetProperty(0x1, VT_BOOL, (void*)&result);

	lea	eax, DWORD PTR _result$[ebp]
	push	eax
	push	11					; 0000000bH
	push	1
	mov	ecx, DWORD PTR _this$[ebp]
	call	?GetProperty@CWnd@@QBEXJGPAX@Z		; CWnd::GetProperty

; 494  : 	return result;

	mov	eax, DWORD PTR _result$[ebp]

; 495  : }

	push	edx
	mov	ecx, ebp
	push	eax
	lea	edx, DWORD PTR $L94847
	call	@_RTC_CheckStackVars@8
	pop	eax
	pop	edx
	pop	edi
	pop	esi
	pop	ebx
	add	esp, 216				; 000000d8H
	cmp	ebp, esp
	call	__RTC_CheckEsp
	mov	esp, ebp
	pop	ebp
	ret	0
$L94847:
	DD	1
	DD	$L94846
$L94846:
	DD	-20					; ffffffecH
	DD	4
	DD	$L94845
$L94845:
	DB	114					; 00000072H
	DB	101					; 00000065H
	DB	115					; 00000073H
	DB	117					; 00000075H
	DB	108					; 0000006cH
	DB	116					; 00000074H
	DB	0
?GetShowContext@CWSpell@@QAEHXZ ENDP			; CWSpell::GetShowContext
_TEXT	ENDS
PUBLIC	?SetShowContext@CWSpell@@QAEXH@Z		; CWSpell::SetShowContext
; Function compile flags: /Odt /RTCcsu /ZI
;	COMDAT ?SetShowContext@CWSpell@@QAEXH@Z
_TEXT	SEGMENT
_this$ = -8						; size = 4
_propVal$ = 8						; size = 4
?SetShowContext@CWSpell@@QAEXH@Z PROC NEAR		; CWSpell::SetShowContext, COMDAT
; _this$ = ecx

; 498  : {

	push	ebp
	mov	ebp, esp
	sub	esp, 204				; 000000ccH
	push	ebx
	push	esi
	push	edi
	push	ecx
	lea	edi, DWORD PTR [ebp-204]
	mov	ecx, 51					; 00000033H
	mov	eax, -858993460				; ccccccccH
	rep stosd
	pop	ecx
	mov	DWORD PTR _this$[ebp], ecx

; 499  : 	SetProperty(0x1, VT_BOOL, propVal);

	mov	eax, DWORD PTR _propVal$[ebp]
	push	eax
	push	11					; 0000000bH
	push	1
	mov	ecx, DWORD PTR _this$[ebp]
	push	ecx
	call	?SetProperty@CWnd@@QAAXJGZZ		; CWnd::SetProperty
	add	esp, 16					; 00000010H

; 500  : }

	pop	edi
	pop	esi
	pop	ebx
	add	esp, 204				; 000000ccH
	cmp	ebp, esp
	call	__RTC_CheckEsp
	mov	esp, ebp
	pop	ebp
	ret	4
?SetShowContext@CWSpell@@QAEXH@Z ENDP			; CWSpell::SetShowContext
_TEXT	ENDS
PUBLIC	?GetShowDialog@CWSpell@@QAEHXZ			; CWSpell::GetShowDialog
; Function compile flags: /Odt /RTCcsu /ZI
;	COMDAT ?GetShowDialog@CWSpell@@QAEHXZ
_TEXT	SEGMENT
_result$ = -20						; size = 4
_this$ = -8						; size = 4
?GetShowDialog@CWSpell@@QAEHXZ PROC NEAR		; CWSpell::GetShowDialog, COMDAT
; _this$ = ecx

; 503  : {

	push	ebp
	mov	ebp, esp
	sub	esp, 216				; 000000d8H
	push	ebx
	push	esi
	push	edi
	push	ecx
	lea	edi, DWORD PTR [ebp-216]
	mov	ecx, 54					; 00000036H
	mov	eax, -858993460				; ccccccccH
	rep stosd
	pop	ecx
	mov	DWORD PTR _this$[ebp], ecx

; 504  : 	BOOL result;
; 505  : 	GetProperty(0x2, VT_BOOL, (void*)&result);

	lea	eax, DWORD PTR _result$[ebp]
	push	eax
	push	11					; 0000000bH
	push	2
	mov	ecx, DWORD PTR _this$[ebp]
	call	?GetProperty@CWnd@@QBEXJGPAX@Z		; CWnd::GetProperty

; 506  : 	return result;

	mov	eax, DWORD PTR _result$[ebp]

; 507  : }

	push	edx
	mov	ecx, ebp
	push	eax
	lea	edx, DWORD PTR $L94854
	call	@_RTC_CheckStackVars@8
	pop	eax
	pop	edx
	pop	edi
	pop	esi
	pop	ebx
	add	esp, 216				; 000000d8H
	cmp	ebp, esp
	call	__RTC_CheckEsp
	mov	esp, ebp
	pop	ebp
	ret	0
$L94854:
	DD	1
	DD	$L94853
$L94853:
	DD	-20					; ffffffecH
	DD	4
	DD	$L94852
$L94852:
	DB	114					; 00000072H
	DB	101					; 00000065H
	DB	115					; 00000073H
	DB	117					; 00000075H
	DB	108					; 0000006cH
	DB	116					; 00000074H
	DB	0
?GetShowDialog@CWSpell@@QAEHXZ ENDP			; CWSpell::GetShowDialog
_TEXT	ENDS
PUBLIC	?SetShowDialog@CWSpell@@QAEXH@Z			; CWSpell::SetShowDialog
; Function compile flags: /Odt /RTCcsu /ZI
;	COMDAT ?SetShowDialog@CWSpell@@QAEXH@Z
_TEXT	SEGMENT
_this$ = -8						; size = 4
_propVal$ = 8						; size = 4
?SetShowDialog@CWSpell@@QAEXH@Z PROC NEAR		; CWSpell::SetShowDialog, COMDAT
; _this$ = ecx

; 510  : {

	push	ebp
	mov	ebp, esp
	sub	esp, 204				; 000000ccH
	push	ebx
	push	esi
	push	edi
	push	ecx
	lea	edi, DWORD PTR [ebp-204]
	mov	ecx, 51					; 00000033H
	mov	eax, -858993460				; ccccccccH
	rep stosd
	pop	ecx
	mov	DWORD PTR _this$[ebp], ecx

; 511  : 	SetProperty(0x2, VT_BOOL, propVal);

	mov	eax, DWORD PTR _propVal$[ebp]
	push	eax
	push	11					; 0000000bH
	push	2
	mov	ecx, DWORD PTR _this$[ebp]
	push	ecx
	call	?SetProperty@CWnd@@QAAXJGZZ		; CWnd::SetProperty
	add	esp, 16					; 00000010H

; 512  : }

	pop	edi
	pop	esi
	pop	ebx
	add	esp, 204				; 000000ccH
	cmp	ebp, esp
	call	__RTC_CheckEsp
	mov	esp, ebp
	pop	ebp
	ret	4
?SetShowDialog@CWSpell@@QAEXH@Z ENDP			; CWSpell::SetShowDialog
_TEXT	ENDS
PUBLIC	?GetTextControlHWnd@CWSpell@@QAEJXZ		; CWSpell::GetTextControlHWnd
; Function compile flags: /Odt /RTCcsu /ZI
;	COMDAT ?GetTextControlHWnd@CWSpell@@QAEJXZ
_TEXT	SEGMENT
_result$ = -20						; size = 4
_this$ = -8						; size = 4
?GetTextControlHWnd@CWSpell@@QAEJXZ PROC NEAR		; CWSpell::GetTextControlHWnd, COMDAT
; _this$ = ecx

; 515  : {

	push	ebp
	mov	ebp, esp
	sub	esp, 216				; 000000d8H
	push	ebx
	push	esi
	push	edi
	push	ecx
	lea	edi, DWORD PTR [ebp-216]
	mov	ecx, 54					; 00000036H
	mov	eax, -858993460				; ccccccccH
	rep stosd
	pop	ecx
	mov	DWORD PTR _this$[ebp], ecx

; 516  : 	long result;
; 517  : 	GetProperty(0x3, VT_I4, (void*)&result);

	lea	eax, DWORD PTR _result$[ebp]
	push	eax
	push	3
	push	3
	mov	ecx, DWORD PTR _this$[ebp]
	call	?GetProperty@CWnd@@QBEXJGPAX@Z		; CWnd::GetProperty

; 518  : 	return result;

	mov	eax, DWORD PTR _result$[ebp]

; 519  : }

	push	edx
	mov	ecx, ebp
	push	eax
	lea	edx, DWORD PTR $L94861
	call	@_RTC_CheckStackVars@8
	pop	eax
	pop	edx
	pop	edi
	pop	esi
	pop	ebx
	add	esp, 216				; 000000d8H
	cmp	ebp, esp
	call	__RTC_CheckEsp
	mov	esp, ebp
	pop	ebp
	ret	0
$L94861:
	DD	1
	DD	$L94860
$L94860:
	DD	-20					; ffffffecH
	DD	4
	DD	$L94859
$L94859:
	DB	114					; 00000072H
	DB	101					; 00000065H
	DB	115					; 00000073H
	DB	117					; 00000075H
	DB	108					; 0000006cH
	DB	116					; 00000074H
	DB	0
?GetTextControlHWnd@CWSpell@@QAEJXZ ENDP		; CWSpell::GetTextControlHWnd
_TEXT	ENDS
PUBLIC	?SetTextControlHWnd@CWSpell@@QAEXJ@Z		; CWSpell::SetTextControlHWnd
; Function compile flags: /Odt /RTCcsu /ZI
;	COMDAT ?SetTextControlHWnd@CWSpell@@QAEXJ@Z
_TEXT	SEGMENT
_this$ = -8						; size = 4
_propVal$ = 8						; size = 4
?SetTextControlHWnd@CWSpell@@QAEXJ@Z PROC NEAR		; CWSpell::SetTextControlHWnd, COMDAT
; _this$ = ecx

; 522  : {

	push	ebp
	mov	ebp, esp
	sub	esp, 204				; 000000ccH
	push	ebx
	push	esi
	push	edi
	push	ecx
	lea	edi, DWORD PTR [ebp-204]
	mov	ecx, 51					; 00000033H
	mov	eax, -858993460				; ccccccccH
	rep stosd
	pop	ecx
	mov	DWORD PTR _this$[ebp], ecx

; 523  : 	SetProperty(0x3, VT_I4, propVal);

	mov	eax, DWORD PTR _propVal$[ebp]
	push	eax
	push	3
	push	3
	mov	ecx, DWORD PTR _this$[ebp]
	push	ecx
	call	?SetProperty@CWnd@@QAAXJGZZ		; CWnd::SetProperty
	add	esp, 16					; 00000010H

; 524  : }

	pop	edi
	pop	esi
	pop	ebx
	add	esp, 204				; 000000ccH
	cmp	ebp, esp
	call	__RTC_CheckEsp
	mov	esp, ebp
	pop	ebp
	ret	4
?SetTextControlHWnd@CWSpell@@QAEXJ@Z ENDP		; CWSpell::SetTextControlHWnd
_TEXT	ENDS
PUBLIC	?GetDialogLeft@CWSpell@@QAEJXZ			; CWSpell::GetDialogLeft
; Function compile flags: /Odt /RTCcsu /ZI
;	COMDAT ?GetDialogLeft@CWSpell@@QAEJXZ
_TEXT	SEGMENT
_result$ = -20						; size = 4
_this$ = -8						; size = 4
?GetDialogLeft@CWSpell@@QAEJXZ PROC NEAR		; CWSpell::GetDialogLeft, COMDAT
; _this$ = ecx

; 527  : {

	push	ebp
	mov	ebp, esp
	sub	esp, 216				; 000000d8H
	push	ebx
	push	esi
	push	edi
	push	ecx
	lea	edi, DWORD PTR [ebp-216]
	mov	ecx, 54					; 00000036H
	mov	eax, -858993460				; ccccccccH
	rep stosd
	pop	ecx
	mov	DWORD PTR _this$[ebp], ecx

; 528  : 	long result;
; 529  : 	GetProperty(0x4, VT_I4, (void*)&result);

	lea	eax, DWORD PTR _result$[ebp]
	push	eax
	push	3
	push	4
	mov	ecx, DWORD PTR _this$[ebp]
	call	?GetProperty@CWnd@@QBEXJGPAX@Z		; CWnd::GetProperty

; 530  : 	return result;

	mov	eax, DWORD PTR _result$[ebp]

; 531  : }

	push	edx
	mov	ecx, ebp
	push	eax
	lea	edx, DWORD PTR $L94868
	call	@_RTC_CheckStackVars@8
	pop	eax
	pop	edx
	pop	edi
	pop	esi
	pop	ebx
	add	esp, 216				; 000000d8H
	cmp	ebp, esp
	call	__RTC_CheckEsp
	mov	esp, ebp
	pop	ebp
	ret	0
$L94868:
	DD	1
	DD	$L94867
$L94867:
	DD	-20					; ffffffecH
	DD	4
	DD	$L94866
$L94866:
	DB	114					; 00000072H
	DB	101					; 00000065H
	DB	115					; 00000073H
	DB	117					; 00000075H
	DB	108					; 0000006cH
	DB	116					; 00000074H
	DB	0
?GetDialogLeft@CWSpell@@QAEJXZ ENDP			; CWSpell::GetDialogLeft
_TEXT	ENDS
PUBLIC	?SetDialogLeft@CWSpell@@QAEXJ@Z			; CWSpell::SetDialogLeft
; Function compile flags: /Odt /RTCcsu /ZI
;	COMDAT ?SetDialogLeft@CWSpell@@QAEXJ@Z
_TEXT	SEGMENT
_this$ = -8						; size = 4
_propVal$ = 8						; size = 4
?SetDialogLeft@CWSpell@@QAEXJ@Z PROC NEAR		; CWSpell::SetDialogLeft, COMDAT
; _this$ = ecx

; 534  : {

	push	ebp
	mov	ebp, esp
	sub	esp, 204				; 000000ccH
	push	ebx
	push	esi
	push	edi
	push	ecx
	lea	edi, DWORD PTR [ebp-204]
	mov	ecx, 51					; 00000033H
	mov	eax, -858993460				; ccccccccH
	rep stosd
	pop	ecx
	mov	DWORD PTR _this$[ebp], ecx

; 535  : 	SetProperty(0x4, VT_I4, propVal);

	mov	eax, DWORD PTR _propVal$[ebp]
	push	eax
	push	3
	push	4
	mov	ecx, DWORD PTR _this$[ebp]
	push	ecx
	call	?SetProperty@CWnd@@QAAXJGZZ		; CWnd::SetProperty
	add	esp, 16					; 00000010H

; 536  : }

	pop	edi
	pop	esi
	pop	ebx
	add	esp, 204				; 000000ccH
	cmp	ebp, esp
	call	__RTC_CheckEsp
	mov	esp, ebp
	pop	ebp
	ret	4
?SetDialogLeft@CWSpell@@QAEXJ@Z ENDP			; CWSpell::SetDialogLeft
_TEXT	ENDS
PUBLIC	?GetDialogTop@CWSpell@@QAEJXZ			; CWSpell::GetDialogTop
; Function compile flags: /Odt /RTCcsu /ZI
;	COMDAT ?GetDialogTop@CWSpell@@QAEJXZ
_TEXT	SEGMENT
_result$ = -20						; size = 4
_this$ = -8						; size = 4
?GetDialogTop@CWSpell@@QAEJXZ PROC NEAR			; CWSpell::GetDialogTop, COMDAT
; _this$ = ecx

; 539  : {

	push	ebp
	mov	ebp, esp
	sub	esp, 216				; 000000d8H
	push	ebx
	push	esi
	push	edi
	push	ecx
	lea	edi, DWORD PTR [ebp-216]
	mov	ecx, 54					; 00000036H
	mov	eax, -858993460				; ccccccccH
	rep stosd
	pop	ecx
	mov	DWORD PTR _this$[ebp], ecx

; 540  : 	long result;
; 541  : 	GetProperty(0x5, VT_I4, (void*)&result);

	lea	eax, DWORD PTR _result$[ebp]
	push	eax
	push	3
	push	5
	mov	ecx, DWORD PTR _this$[ebp]
	call	?GetProperty@CWnd@@QBEXJGPAX@Z		; CWnd::GetProperty

; 542  : 	return result;

	mov	eax, DWORD PTR _result$[ebp]

; 543  : }

	push	edx
	mov	ecx, ebp
	push	eax
	lea	edx, DWORD PTR $L94875
	call	@_RTC_CheckStackVars@8
	pop	eax
	pop	edx
	pop	edi
	pop	esi
	pop	ebx
	add	esp, 216				; 000000d8H
	cmp	ebp, esp
	call	__RTC_CheckEsp
	mov	esp, ebp
	pop	ebp
	ret	0
$L94875:
	DD	1
	DD	$L94874
$L94874:
	DD	-20					; ffffffecH
	DD	4
	DD	$L94873
$L94873:
	DB	114					; 00000072H
	DB	101					; 00000065H
	DB	115					; 00000073H
	DB	117					; 00000075H
	DB	108					; 0000006cH
	DB	116					; 00000074H
	DB	0
?GetDialogTop@CWSpell@@QAEJXZ ENDP			; CWSpell::GetDialogTop
_TEXT	ENDS
PUBLIC	?SetDialogTop@CWSpell@@QAEXJ@Z			; CWSpell::SetDialogTop
; Function compile flags: /Odt /RTCcsu /ZI
;	COMDAT ?SetDialogTop@CWSpell@@QAEXJ@Z
_TEXT	SEGMENT
_this$ = -8						; size = 4
_propVal$ = 8						; size = 4
?SetDialogTop@CWSpell@@QAEXJ@Z PROC NEAR		; CWSpell::SetDialogTop, COMDAT
; _this$ = ecx

; 546  : {

	push	ebp
	mov	ebp, esp
	sub	esp, 204				; 000000ccH
	push	ebx
	push	esi
	push	edi
	push	ecx
	lea	edi, DWORD PTR [ebp-204]
	mov	ecx, 51					; 00000033H
	mov	eax, -858993460				; ccccccccH
	rep stosd
	pop	ecx
	mov	DWORD PTR _this$[ebp], ecx

; 547  : 	SetProperty(0x5, VT_I4, propVal);

	mov	eax, DWORD PTR _propVal$[ebp]
	push	eax
	push	3
	push	5
	mov	ecx, DWORD PTR _this$[ebp]
	push	ecx
	call	?SetProperty@CWnd@@QAAXJGZZ		; CWnd::SetProperty
	add	esp, 16					; 00000010H

; 548  : }

	pop	edi
	pop	esi
	pop	ebx
	add	esp, 204				; 000000ccH
	cmp	ebp, esp
	call	__RTC_CheckEsp
	mov	esp, ebp
	pop	ebp
	ret	4
?SetDialogTop@CWSpell@@QAEXJ@Z ENDP			; CWSpell::SetDialogTop
_TEXT	ENDS
PUBLIC	?GetSuggestionScoreRange@CWSpell@@QAEFXZ	; CWSpell::GetSuggestionScoreRange
; Function compile flags: /Odt /RTCcsu /ZI
;	COMDAT ?GetSuggestionScoreRange@CWSpell@@QAEFXZ
_TEXT	SEGMENT
_result$ = -20						; size = 2
_this$ = -8						; size = 4
?GetSuggestionScoreRange@CWSpell@@QAEFXZ PROC NEAR	; CWSpell::GetSuggestionScoreRange, COMDAT
; _this$ = ecx

; 551  : {

	push	ebp
	mov	ebp, esp
	sub	esp, 216				; 000000d8H
	push	ebx
	push	esi
	push	edi
	push	ecx
	lea	edi, DWORD PTR [ebp-216]
	mov	ecx, 54					; 00000036H
	mov	eax, -858993460				; ccccccccH
	rep stosd
	pop	ecx
	mov	DWORD PTR _this$[ebp], ecx

; 552  : 	short result;
; 553  : 	GetProperty(0x29, VT_I2, (void*)&result);

	lea	eax, DWORD PTR _result$[ebp]
	push	eax
	push	2
	push	41					; 00000029H
	mov	ecx, DWORD PTR _this$[ebp]
	call	?GetProperty@CWnd@@QBEXJGPAX@Z		; CWnd::GetProperty

; 554  : 	return result;

	mov	ax, WORD PTR _result$[ebp]

; 555  : }

	push	edx
	mov	ecx, ebp
	push	eax
	lea	edx, DWORD PTR $L94882
	call	@_RTC_CheckStackVars@8
	pop	eax
	pop	edx
	pop	edi
	pop	esi
	pop	ebx
	add	esp, 216				; 000000d8H
	cmp	ebp, esp
	call	__RTC_CheckEsp
	mov	esp, ebp
	pop	ebp
	ret	0
$L94882:
	DD	1
	DD	$L94881
$L94881:
	DD	-20					; ffffffecH
	DD	2
	DD	$L94880
$L94880:
	DB	114					; 00000072H
	DB	101					; 00000065H
	DB	115					; 00000073H
	DB	117					; 00000075H
	DB	108					; 0000006cH
	DB	116					; 00000074H
	DB	0
?GetSuggestionScoreRange@CWSpell@@QAEFXZ ENDP		; CWSpell::GetSuggestionScoreRange
_TEXT	ENDS
PUBLIC	?SetSuggestionScoreRange@CWSpell@@QAEXF@Z	; CWSpell::SetSuggestionScoreRange
; Function compile flags: /Odt /RTCcsu /ZI
;	COMDAT ?SetSuggestionScoreRange@CWSpell@@QAEXF@Z
_TEXT	SEGMENT
_this$ = -8						; size = 4
_propVal$ = 8						; size = 2
?SetSuggestionScoreRange@CWSpell@@QAEXF@Z PROC NEAR	; CWSpell::SetSuggestionScoreRange, COMDAT
; _this$ = ecx

; 558  : {

	push	ebp
	mov	ebp, esp
	sub	esp, 204				; 000000ccH
	push	ebx
	push	esi
	push	edi
	push	ecx
	lea	edi, DWORD PTR [ebp-204]
	mov	ecx, 51					; 00000033H
	mov	eax, -858993460				; ccccccccH
	rep stosd
	pop	ecx
	mov	DWORD PTR _this$[ebp], ecx

; 559  : 	SetProperty(0x29, VT_I2, propVal);

	movsx	eax, WORD PTR _propVal$[ebp]
	push	eax
	push	2
	push	41					; 00000029H
	mov	ecx, DWORD PTR _this$[ebp]
	push	ecx
	call	?SetProperty@CWnd@@QAAXJGZZ		; CWnd::SetProperty
	add	esp, 16					; 00000010H

; 560  : }

	pop	edi
	pop	esi
	pop	ebx
	add	esp, 204				; 000000ccH
	cmp	ebp, esp
	call	__RTC_CheckEsp
	mov	esp, ebp
	pop	ebp
	ret	4
?SetSuggestionScoreRange@CWSpell@@QAEXF@Z ENDP		; CWSpell::SetSuggestionScoreRange
_TEXT	ENDS
PUBLIC	?GetMinSuggestionScore@CWSpell@@QAEFXZ		; CWSpell::GetMinSuggestionScore
; Function compile flags: /Odt /RTCcsu /ZI
;	COMDAT ?GetMinSuggestionScore@CWSpell@@QAEFXZ
_TEXT	SEGMENT
_result$ = -20						; size = 2
_this$ = -8						; size = 4
?GetMinSuggestionScore@CWSpell@@QAEFXZ PROC NEAR	; CWSpell::GetMinSuggestionScore, COMDAT
; _this$ = ecx

; 563  : {

	push	ebp
	mov	ebp, esp
	sub	esp, 216				; 000000d8H
	push	ebx
	push	esi
	push	edi
	push	ecx
	lea	edi, DWORD PTR [ebp-216]
	mov	ecx, 54					; 00000036H
	mov	eax, -858993460				; ccccccccH
	rep stosd
	pop	ecx
	mov	DWORD PTR _this$[ebp], ecx

; 564  : 	short result;
; 565  : 	GetProperty(0x2a, VT_I2, (void*)&result);

	lea	eax, DWORD PTR _result$[ebp]
	push	eax
	push	2
	push	42					; 0000002aH
	mov	ecx, DWORD PTR _this$[ebp]
	call	?GetProperty@CWnd@@QBEXJGPAX@Z		; CWnd::GetProperty

; 566  : 	return result;

	mov	ax, WORD PTR _result$[ebp]

; 567  : }

	push	edx
	mov	ecx, ebp
	push	eax
	lea	edx, DWORD PTR $L94889
	call	@_RTC_CheckStackVars@8
	pop	eax
	pop	edx
	pop	edi
	pop	esi
	pop	ebx
	add	esp, 216				; 000000d8H
	cmp	ebp, esp
	call	__RTC_CheckEsp
	mov	esp, ebp
	pop	ebp
	ret	0
$L94889:
	DD	1
	DD	$L94888
$L94888:
	DD	-20					; ffffffecH
	DD	2
	DD	$L94887
$L94887:
	DB	114					; 00000072H
	DB	101					; 00000065H
	DB	115					; 00000073H
	DB	117					; 00000075H
	DB	108					; 0000006cH
	DB	116					; 00000074H
	DB	0
?GetMinSuggestionScore@CWSpell@@QAEFXZ ENDP		; CWSpell::GetMinSuggestionScore
_TEXT	ENDS
PUBLIC	?SetMinSuggestionScore@CWSpell@@QAEXF@Z		; CWSpell::SetMinSuggestionScore
; Function compile flags: /Odt /RTCcsu /ZI
;	COMDAT ?SetMinSuggestionScore@CWSpell@@QAEXF@Z
_TEXT	SEGMENT
_this$ = -8						; size = 4
_propVal$ = 8						; size = 2
?SetMinSuggestionScore@CWSpell@@QAEXF@Z PROC NEAR	; CWSpell::SetMinSuggestionScore, COMDAT
; _this$ = ecx

; 570  : {

	push	ebp
	mov	ebp, esp
	sub	esp, 204				; 000000ccH
	push	ebx
	push	esi
	push	edi
	push	ecx
	lea	edi, DWORD PTR [ebp-204]
	mov	ecx, 51					; 00000033H
	mov	eax, -858993460				; ccccccccH
	rep stosd
	pop	ecx
	mov	DWORD PTR _this$[ebp], ecx

; 571  : 	SetProperty(0x2a, VT_I2, propVal);

	movsx	eax, WORD PTR _propVal$[ebp]
	push	eax
	push	2
	push	42					; 0000002aH
	mov	ecx, DWORD PTR _this$[ebp]
	push	ecx
	call	?SetProperty@CWnd@@QAAXJGZZ		; CWnd::SetProperty
	add	esp, 16					; 00000010H

; 572  : }

	pop	edi
	pop	esi
	pop	ebx
	add	esp, 204				; 000000ccH
	cmp	ebp, esp
	call	__RTC_CheckEsp
	mov	esp, ebp
	pop	ebp
	ret	4
?SetMinSuggestionScore@CWSpell@@QAEXF@Z ENDP		; CWSpell::SetMinSuggestionScore
_TEXT	ENDS
PUBLIC	?GetAutoCorrect@CWSpell@@QAEHXZ			; CWSpell::GetAutoCorrect
; Function compile flags: /Odt /RTCcsu /ZI
;	COMDAT ?GetAutoCorrect@CWSpell@@QAEHXZ
_TEXT	SEGMENT
_result$ = -20						; size = 4
_this$ = -8						; size = 4
?GetAutoCorrect@CWSpell@@QAEHXZ PROC NEAR		; CWSpell::GetAutoCorrect, COMDAT
; _this$ = ecx

; 575  : {

	push	ebp
	mov	ebp, esp
	sub	esp, 216				; 000000d8H
	push	ebx
	push	esi
	push	edi
	push	ecx
	lea	edi, DWORD PTR [ebp-216]
	mov	ecx, 54					; 00000036H
	mov	eax, -858993460				; ccccccccH
	rep stosd
	pop	ecx
	mov	DWORD PTR _this$[ebp], ecx

; 576  : 	BOOL result;
; 577  : 	GetProperty(0x2b, VT_BOOL, (void*)&result);

	lea	eax, DWORD PTR _result$[ebp]
	push	eax
	push	11					; 0000000bH
	push	43					; 0000002bH
	mov	ecx, DWORD PTR _this$[ebp]
	call	?GetProperty@CWnd@@QBEXJGPAX@Z		; CWnd::GetProperty

; 578  : 	return result;

	mov	eax, DWORD PTR _result$[ebp]

; 579  : }

	push	edx
	mov	ecx, ebp
	push	eax
	lea	edx, DWORD PTR $L94896
	call	@_RTC_CheckStackVars@8
	pop	eax
	pop	edx
	pop	edi
	pop	esi
	pop	ebx
	add	esp, 216				; 000000d8H
	cmp	ebp, esp
	call	__RTC_CheckEsp
	mov	esp, ebp
	pop	ebp
	ret	0
$L94896:
	DD	1
	DD	$L94895
$L94895:
	DD	-20					; ffffffecH
	DD	4
	DD	$L94894
$L94894:
	DB	114					; 00000072H
	DB	101					; 00000065H
	DB	115					; 00000073H
	DB	117					; 00000075H
	DB	108					; 0000006cH
	DB	116					; 00000074H
	DB	0
?GetAutoCorrect@CWSpell@@QAEHXZ ENDP			; CWSpell::GetAutoCorrect
_TEXT	ENDS
PUBLIC	?SetAutoCorrect@CWSpell@@QAEXH@Z		; CWSpell::SetAutoCorrect
; Function compile flags: /Odt /RTCcsu /ZI
;	COMDAT ?SetAutoCorrect@CWSpell@@QAEXH@Z
_TEXT	SEGMENT
_this$ = -8						; size = 4
_propVal$ = 8						; size = 4
?SetAutoCorrect@CWSpell@@QAEXH@Z PROC NEAR		; CWSpell::SetAutoCorrect, COMDAT
; _this$ = ecx

; 582  : {

	push	ebp
	mov	ebp, esp
	sub	esp, 204				; 000000ccH
	push	ebx
	push	esi
	push	edi
	push	ecx
	lea	edi, DWORD PTR [ebp-204]
	mov	ecx, 51					; 00000033H
	mov	eax, -858993460				; ccccccccH
	rep stosd
	pop	ecx
	mov	DWORD PTR _this$[ebp], ecx

; 583  : 	SetProperty(0x2b, VT_BOOL, propVal);

	mov	eax, DWORD PTR _propVal$[ebp]
	push	eax
	push	11					; 0000000bH
	push	43					; 0000002bH
	mov	ecx, DWORD PTR _this$[ebp]
	push	ecx
	call	?SetProperty@CWnd@@QAAXJGZZ		; CWnd::SetProperty
	add	esp, 16					; 00000010H

; 584  : }

	pop	edi
	pop	esi
	pop	ebx
	add	esp, 204				; 000000ccH
	cmp	ebp, esp
	call	__RTC_CheckEsp
	mov	esp, ebp
	pop	ebp
	ret	4
?SetAutoCorrect@CWSpell@@QAEXH@Z ENDP			; CWSpell::SetAutoCorrect
_TEXT	ENDS
PUBLIC	?GetVersion@CWSpell@@QAE?AV?$CStringT@GV?$StrTraitMFC@GV?$ChTraitsCRT@G@ATL@@@@@ATL@@XZ ; CWSpell::GetVersion
;	COMDAT xdata$x
xdata$x	SEGMENT
__unwindtable$?GetVersion@CWSpell@@QAE?AV?$CStringT@GV?$StrTraitMFC@GV?$ChTraitsCRT@G@ATL@@@@@ATL@@XZ DD 0ffffffffH
	DD	FLAT:__unwindfunclet$?GetVersion@CWSpell@@QAE?AV?$CStringT@GV?$StrTraitMFC@GV?$ChTraitsCRT@G@ATL@@@@@ATL@@XZ$0
__ehfuncinfo$?GetVersion@CWSpell@@QAE?AV?$CStringT@GV?$StrTraitMFC@GV?$ChTraitsCRT@G@ATL@@@@@ATL@@XZ DD 019930520H
	DD	01H
	DD	FLAT:__unwindtable$?GetVersion@CWSpell@@QAE?AV?$CStringT@GV?$StrTraitMFC@GV?$ChTraitsCRT@G@ATL@@@@@ATL@@XZ
	DD	2 DUP(00H)
	DD	2 DUP(00H)
; Function compile flags: /Odt /RTCcsu /ZI
xdata$x	ENDS
;	COMDAT ?GetVersion@CWSpell@@QAE?AV?$CStringT@GV?$StrTraitMFC@GV?$ChTraitsCRT@G@ATL@@@@@ATL@@XZ
_TEXT	SEGMENT
$T94903 = -236						; size = 4
_result$ = -32						; size = 4
_this$ = -20						; size = 4
__$EHRec$ = -12						; size = 12
___$ReturnUdt$ = 8					; size = 4
?GetVersion@CWSpell@@QAE?AV?$CStringT@GV?$StrTraitMFC@GV?$ChTraitsCRT@G@ATL@@@@@ATL@@XZ PROC NEAR ; CWSpell::GetVersion, COMDAT
; _this$ = ecx

; 587  : {

	push	ebp
	mov	ebp, esp
	push	-1
	push	__ehhandler$?GetVersion@CWSpell@@QAE?AV?$CStringT@GV?$StrTraitMFC@GV?$ChTraitsCRT@G@ATL@@@@@ATL@@XZ
	mov	eax, DWORD PTR fs:__except_list
	push	eax
	mov	DWORD PTR fs:__except_list, esp
	sub	esp, 228				; 000000e4H
	push	ebx
	push	esi
	push	edi
	push	ecx
	lea	edi, DWORD PTR [ebp-240]
	mov	ecx, 57					; 00000039H
	mov	eax, -858993460				; ccccccccH
	rep stosd
	pop	ecx
	mov	DWORD PTR _this$[ebp], ecx
	mov	DWORD PTR $T94903[ebp], 0

; 588  : 	CString result;

	lea	ecx, DWORD PTR _result$[ebp]
	call	??0?$CStringT@GV?$StrTraitMFC@GV?$ChTraitsCRT@G@ATL@@@@@ATL@@QAE@XZ ; ATL::CStringT<unsigned short,StrTraitMFC<unsigned short,ATL::ChTraitsCRT<unsigned short> > >::CStringT<unsigned short,StrTraitMFC<unsigned short,ATL::ChTraitsCRT<unsigned short> > >
	mov	DWORD PTR __$EHRec$[ebp+8], 0

; 589  : 	GetProperty(0x2c, VT_BSTR, (void*)&result);

	lea	eax, DWORD PTR _result$[ebp]
	push	eax
	push	8
	push	44					; 0000002cH
	mov	ecx, DWORD PTR _this$[ebp]
	call	?GetProperty@CWnd@@QBEXJGPAX@Z		; CWnd::GetProperty

; 590  : 	return result;

	lea	eax, DWORD PTR _result$[ebp]
	push	eax
	mov	ecx, DWORD PTR ___$ReturnUdt$[ebp]
	call	??0?$CStringT@GV?$StrTraitMFC@GV?$ChTraitsCRT@G@ATL@@@@@ATL@@QAE@ABV01@@Z ; ATL::CStringT<unsigned short,StrTraitMFC<unsigned short,ATL::ChTraitsCRT<unsigned short> > >::CStringT<unsigned short,StrTraitMFC<unsigned short,ATL::ChTraitsCRT<unsigned short> > >
	mov	ecx, DWORD PTR $T94903[ebp]
	or	ecx, 1
	mov	DWORD PTR $T94903[ebp], ecx
	mov	DWORD PTR __$EHRec$[ebp+8], -1
	lea	ecx, DWORD PTR _result$[ebp]
	call	??1?$CStringT@GV?$StrTraitMFC@GV?$ChTraitsCRT@G@ATL@@@@@ATL@@QAE@XZ ; ATL::CStringT<unsigned short,StrTraitMFC<unsigned short,ATL::ChTraitsCRT<unsigned short> > >::~CStringT<unsigned short,StrTraitMFC<unsigned short,ATL::ChTraitsCRT<unsigned short> > >
	mov	eax, DWORD PTR ___$ReturnUdt$[ebp]

; 591  : }

	push	edx
	mov	ecx, ebp
	push	eax
	lea	edx, DWORD PTR $L94910
	call	@_RTC_CheckStackVars@8
	pop	eax
	pop	edx
	mov	ecx, DWORD PTR __$EHRec$[ebp]
	mov	DWORD PTR fs:__except_list, ecx
	pop	edi
	pop	esi
	pop	ebx
	add	esp, 240				; 000000f0H
	cmp	ebp, esp
	call	__RTC_CheckEsp
	mov	esp, ebp
	pop	ebp
	ret	4
$L94910:
	DD	1
	DD	$L94909
$L94909:
	DD	-32					; ffffffe0H
	DD	4
	DD	$L94907
$L94907:
	DB	114					; 00000072H
	DB	101					; 00000065H
	DB	115					; 00000073H
	DB	117					; 00000075H
	DB	108					; 0000006cH
	DB	116					; 00000074H
	DB	0
_TEXT	ENDS
;	COMDAT text$x
text$x	SEGMENT
__unwindfunclet$?GetVersion@CWSpell@@QAE?AV?$CStringT@GV?$StrTraitMFC@GV?$ChTraitsCRT@G@ATL@@@@@ATL@@XZ$0:
	lea	ecx, DWORD PTR _result$[ebp]
	jmp	??1?$CStringT@GV?$StrTraitMFC@GV?$ChTraitsCRT@G@ATL@@@@@ATL@@QAE@XZ ; ATL::CStringT<unsigned short,StrTraitMFC<unsigned short,ATL::ChTraitsCRT<unsigned short> > >::~CStringT<unsigned short,StrTraitMFC<unsigned short,ATL::ChTraitsCRT<unsigned short> > >
__ehhandler$?GetVersion@CWSpell@@QAE?AV?$CStringT@GV?$StrTraitMFC@GV?$ChTraitsCRT@G@ATL@@@@@ATL@@XZ:
	mov	eax, OFFSET FLAT:__ehfuncinfo$?GetVersion@CWSpell@@QAE?AV?$CStringT@GV?$StrTraitMFC@GV?$ChTraitsCRT@G@ATL@@@@@ATL@@XZ
	jmp	___CxxFrameHandler
text$x	ENDS
?GetVersion@CWSpell@@QAE?AV?$CStringT@GV?$StrTraitMFC@GV?$ChTraitsCRT@G@ATL@@@@@ATL@@XZ ENDP ; CWSpell::GetVersion
PUBLIC	?SetVersion@CWSpell@@QAEXPBG@Z			; CWSpell::SetVersion
; Function compile flags: /Odt /RTCcsu /ZI
;	COMDAT ?SetVersion@CWSpell@@QAEXPBG@Z
_TEXT	SEGMENT
_this$ = -8						; size = 4
_propVal$ = 8						; size = 4
?SetVersion@CWSpell@@QAEXPBG@Z PROC NEAR		; CWSpell::SetVersion, COMDAT
; _this$ = ecx

; 594  : {

	push	ebp
	mov	ebp, esp
	sub	esp, 204				; 000000ccH
	push	ebx
	push	esi
	push	edi
	push	ecx
	lea	edi, DWORD PTR [ebp-204]
	mov	ecx, 51					; 00000033H
	mov	eax, -858993460				; ccccccccH
	rep stosd
	pop	ecx
	mov	DWORD PTR _this$[ebp], ecx

; 595  : 	SetProperty(0x2c, VT_BSTR, propVal);

	mov	eax, DWORD PTR _propVal$[ebp]
	push	eax
	push	8
	push	44					; 0000002cH
	mov	ecx, DWORD PTR _this$[ebp]
	push	ecx
	call	?SetProperty@CWnd@@QAAXJGZZ		; CWnd::SetProperty
	add	esp, 16					; 00000010H

; 596  : }

	pop	edi
	pop	esi
	pop	ebx
	add	esp, 204				; 000000ccH
	cmp	ebp, esp
	call	__RTC_CheckEsp
	mov	esp, ebp
	pop	ebp
	ret	4
?SetVersion@CWSpell@@QAEXPBG@Z ENDP			; CWSpell::SetVersion
_TEXT	ENDS
PUBLIC	?GetMisspelledWordCount@CWSpell@@QAEJXZ		; CWSpell::GetMisspelledWordCount
; Function compile flags: /Odt /RTCcsu /ZI
;	COMDAT ?GetMisspelledWordCount@CWSpell@@QAEJXZ
_TEXT	SEGMENT
_result$ = -20						; size = 4
_this$ = -8						; size = 4
?GetMisspelledWordCount@CWSpell@@QAEJXZ PROC NEAR	; CWSpell::GetMisspelledWordCount, COMDAT
; _this$ = ecx

; 599  : {

	push	ebp
	mov	ebp, esp
	sub	esp, 216				; 000000d8H
	push	ebx
	push	esi
	push	edi
	push	ecx
	lea	edi, DWORD PTR [ebp-216]
	mov	ecx, 54					; 00000036H
	mov	eax, -858993460				; ccccccccH
	rep stosd
	pop	ecx
	mov	DWORD PTR _this$[ebp], ecx

; 600  : 	long result;
; 601  : 	GetProperty(0x2d, VT_I4, (void*)&result);

	lea	eax, DWORD PTR _result$[ebp]
	push	eax
	push	3
	push	45					; 0000002dH
	mov	ecx, DWORD PTR _this$[ebp]
	call	?GetProperty@CWnd@@QBEXJGPAX@Z		; CWnd::GetProperty

; 602  : 	return result;

	mov	eax, DWORD PTR _result$[ebp]

; 603  : }

	push	edx
	mov	ecx, ebp
	push	eax
	lea	edx, DWORD PTR $L94920
	call	@_RTC_CheckStackVars@8
	pop	eax
	pop	edx
	pop	edi
	pop	esi
	pop	ebx
	add	esp, 216				; 000000d8H
	cmp	ebp, esp
	call	__RTC_CheckEsp
	mov	esp, ebp
	pop	ebp
	ret	0
$L94920:
	DD	1
	DD	$L94919
$L94919:
	DD	-20					; ffffffecH
	DD	4
	DD	$L94918
$L94918:
	DB	114					; 00000072H
	DB	101					; 00000065H
	DB	115					; 00000073H
	DB	117					; 00000075H
	DB	108					; 0000006cH
	DB	116					; 00000074H
	DB	0
?GetMisspelledWordCount@CWSpell@@QAEJXZ ENDP		; CWSpell::GetMisspelledWordCount
_TEXT	ENDS
PUBLIC	?SetMisspelledWordCount@CWSpell@@QAEXJ@Z	; CWSpell::SetMisspelledWordCount
; Function compile flags: /Odt /RTCcsu /ZI
;	COMDAT ?SetMisspelledWordCount@CWSpell@@QAEXJ@Z
_TEXT	SEGMENT
_this$ = -8						; size = 4
_propVal$ = 8						; size = 4
?SetMisspelledWordCount@CWSpell@@QAEXJ@Z PROC NEAR	; CWSpell::SetMisspelledWordCount, COMDAT
; _this$ = ecx

; 606  : {

	push	ebp
	mov	ebp, esp
	sub	esp, 204				; 000000ccH
	push	ebx
	push	esi
	push	edi
	push	ecx
	lea	edi, DWORD PTR [ebp-204]
	mov	ecx, 51					; 00000033H
	mov	eax, -858993460				; ccccccccH
	rep stosd
	pop	ecx
	mov	DWORD PTR _this$[ebp], ecx

; 607  : 	SetProperty(0x2d, VT_I4, propVal);

	mov	eax, DWORD PTR _propVal$[ebp]
	push	eax
	push	3
	push	45					; 0000002dH
	mov	ecx, DWORD PTR _this$[ebp]
	push	ecx
	call	?SetProperty@CWnd@@QAAXJGZZ		; CWnd::SetProperty
	add	esp, 16					; 00000010H

; 608  : }

	pop	edi
	pop	esi
	pop	ebx
	add	esp, 204				; 000000ccH
	cmp	ebp, esp
	call	__RTC_CheckEsp
	mov	esp, ebp
	pop	ebp
	ret	4
?SetMisspelledWordCount@CWSpell@@QAEXJ@Z ENDP		; CWSpell::SetMisspelledWordCount
_TEXT	ENDS
PUBLIC	?GetErrorCode@CWSpell@@QAEFXZ			; CWSpell::GetErrorCode
; Function compile flags: /Odt /RTCcsu /ZI
;	COMDAT ?GetErrorCode@CWSpell@@QAEFXZ
_TEXT	SEGMENT
_result$ = -20						; size = 2
_this$ = -8						; size = 4
?GetErrorCode@CWSpell@@QAEFXZ PROC NEAR			; CWSpell::GetErrorCode, COMDAT
; _this$ = ecx

; 611  : {

	push	ebp
	mov	ebp, esp
	sub	esp, 216				; 000000d8H
	push	ebx
	push	esi
	push	edi
	push	ecx
	lea	edi, DWORD PTR [ebp-216]
	mov	ecx, 54					; 00000036H
	mov	eax, -858993460				; ccccccccH
	rep stosd
	pop	ecx
	mov	DWORD PTR _this$[ebp], ecx

; 612  : 	short result;
; 613  : 	GetProperty(0x2e, VT_I2, (void*)&result);

	lea	eax, DWORD PTR _result$[ebp]
	push	eax
	push	2
	push	46					; 0000002eH
	mov	ecx, DWORD PTR _this$[ebp]
	call	?GetProperty@CWnd@@QBEXJGPAX@Z		; CWnd::GetProperty

; 614  : 	return result;

	mov	ax, WORD PTR _result$[ebp]

; 615  : }

	push	edx
	mov	ecx, ebp
	push	eax
	lea	edx, DWORD PTR $L94927
	call	@_RTC_CheckStackVars@8
	pop	eax
	pop	edx
	pop	edi
	pop	esi
	pop	ebx
	add	esp, 216				; 000000d8H
	cmp	ebp, esp
	call	__RTC_CheckEsp
	mov	esp, ebp
	pop	ebp
	ret	0
$L94927:
	DD	1
	DD	$L94926
$L94926:
	DD	-20					; ffffffecH
	DD	2
	DD	$L94925
$L94925:
	DB	114					; 00000072H
	DB	101					; 00000065H
	DB	115					; 00000073H
	DB	117					; 00000075H
	DB	108					; 0000006cH
	DB	116					; 00000074H
	DB	0
?GetErrorCode@CWSpell@@QAEFXZ ENDP			; CWSpell::GetErrorCode
_TEXT	ENDS
PUBLIC	?SetErrorCode@CWSpell@@QAEXF@Z			; CWSpell::SetErrorCode
; Function compile flags: /Odt /RTCcsu /ZI
;	COMDAT ?SetErrorCode@CWSpell@@QAEXF@Z
_TEXT	SEGMENT
_this$ = -8						; size = 4
_propVal$ = 8						; size = 2
?SetErrorCode@CWSpell@@QAEXF@Z PROC NEAR		; CWSpell::SetErrorCode, COMDAT
; _this$ = ecx

; 618  : {

	push	ebp
	mov	ebp, esp
	sub	esp, 204				; 000000ccH
	push	ebx
	push	esi
	push	edi
	push	ecx
	lea	edi, DWORD PTR [ebp-204]
	mov	ecx, 51					; 00000033H
	mov	eax, -858993460				; ccccccccH
	rep stosd
	pop	ecx
	mov	DWORD PTR _this$[ebp], ecx

; 619  : 	SetProperty(0x2e, VT_I2, propVal);

	movsx	eax, WORD PTR _propVal$[ebp]
	push	eax
	push	2
	push	46					; 0000002eH
	mov	ecx, DWORD PTR _this$[ebp]
	push	ecx
	call	?SetProperty@CWnd@@QAAXJGZZ		; CWnd::SetProperty
	add	esp, 16					; 00000010H

; 620  : }

	pop	edi
	pop	esi
	pop	ebx
	add	esp, 204				; 000000ccH
	cmp	ebp, esp
	call	__RTC_CheckEsp
	mov	esp, ebp
	pop	ebp
	ret	4
?SetErrorCode@CWSpell@@QAEXF@Z ENDP			; CWSpell::SetErrorCode
_TEXT	ENDS
PUBLIC	?GetIgnoreNonAlphaWords@CWSpell@@QAEHXZ		; CWSpell::GetIgnoreNonAlphaWords
; Function compile flags: /Odt /RTCcsu /ZI
;	COMDAT ?GetIgnoreNonAlphaWords@CWSpell@@QAEHXZ
_TEXT	SEGMENT
_result$ = -20						; size = 4
_this$ = -8						; size = 4
?GetIgnoreNonAlphaWords@CWSpell@@QAEHXZ PROC NEAR	; CWSpell::GetIgnoreNonAlphaWords, COMDAT
; _this$ = ecx

; 623  : {

	push	ebp
	mov	ebp, esp
	sub	esp, 216				; 000000d8H
	push	ebx
	push	esi
	push	edi
	push	ecx
	lea	edi, DWORD PTR [ebp-216]
	mov	ecx, 54					; 00000036H
	mov	eax, -858993460				; ccccccccH
	rep stosd
	pop	ecx
	mov	DWORD PTR _this$[ebp], ecx

; 624  : 	BOOL result;
; 625  : 	GetProperty(0x2f, VT_BOOL, (void*)&result);

	lea	eax, DWORD PTR _result$[ebp]
	push	eax
	push	11					; 0000000bH
	push	47					; 0000002fH
	mov	ecx, DWORD PTR _this$[ebp]
	call	?GetProperty@CWnd@@QBEXJGPAX@Z		; CWnd::GetProperty

; 626  : 	return result;

	mov	eax, DWORD PTR _result$[ebp]

; 627  : }

	push	edx
	mov	ecx, ebp
	push	eax
	lea	edx, DWORD PTR $L94934
	call	@_RTC_CheckStackVars@8
	pop	eax
	pop	edx
	pop	edi
	pop	esi
	pop	ebx
	add	esp, 216				; 000000d8H
	cmp	ebp, esp
	call	__RTC_CheckEsp
	mov	esp, ebp
	pop	ebp
	ret	0
$L94934:
	DD	1
	DD	$L94933
$L94933:
	DD	-20					; ffffffecH
	DD	4
	DD	$L94932
$L94932:
	DB	114					; 00000072H
	DB	101					; 00000065H
	DB	115					; 00000073H
	DB	117					; 00000075H
	DB	108					; 0000006cH
	DB	116					; 00000074H
	DB	0
?GetIgnoreNonAlphaWords@CWSpell@@QAEHXZ ENDP		; CWSpell::GetIgnoreNonAlphaWords
_TEXT	ENDS
PUBLIC	?SetIgnoreNonAlphaWords@CWSpell@@QAEXH@Z	; CWSpell::SetIgnoreNonAlphaWords
; Function compile flags: /Odt /RTCcsu /ZI
;	COMDAT ?SetIgnoreNonAlphaWords@CWSpell@@QAEXH@Z
_TEXT	SEGMENT
_this$ = -8						; size = 4
_propVal$ = 8						; size = 4
?SetIgnoreNonAlphaWords@CWSpell@@QAEXH@Z PROC NEAR	; CWSpell::SetIgnoreNonAlphaWords, COMDAT
; _this$ = ecx

; 630  : {

	push	ebp
	mov	ebp, esp
	sub	esp, 204				; 000000ccH
	push	ebx
	push	esi
	push	edi
	push	ecx
	lea	edi, DWORD PTR [ebp-204]
	mov	ecx, 51					; 00000033H
	mov	eax, -858993460				; ccccccccH
	rep stosd
	pop	ecx
	mov	DWORD PTR _this$[ebp], ecx

; 631  : 	SetProperty(0x2f, VT_BOOL, propVal);

	mov	eax, DWORD PTR _propVal$[ebp]
	push	eax
	push	11					; 0000000bH
	push	47					; 0000002fH
	mov	ecx, DWORD PTR _this$[ebp]
	push	ecx
	call	?SetProperty@CWnd@@QAAXJGZZ		; CWnd::SetProperty
	add	esp, 16					; 00000010H

; 632  : }

	pop	edi
	pop	esi
	pop	ebx
	add	esp, 204				; 000000ccH
	cmp	ebp, esp
	call	__RTC_CheckEsp
	mov	esp, ebp
	pop	ebp
	ret	4
?SetIgnoreNonAlphaWords@CWSpell@@QAEXH@Z ENDP		; CWSpell::SetIgnoreNonAlphaWords
_TEXT	ENDS
PUBLIC	?GetIgnoreDomainNames@CWSpell@@QAEHXZ		; CWSpell::GetIgnoreDomainNames
; Function compile flags: /Odt /RTCcsu /ZI
;	COMDAT ?GetIgnoreDomainNames@CWSpell@@QAEHXZ
_TEXT	SEGMENT
_result$ = -20						; size = 4
_this$ = -8						; size = 4
?GetIgnoreDomainNames@CWSpell@@QAEHXZ PROC NEAR		; CWSpell::GetIgnoreDomainNames, COMDAT
; _this$ = ecx

; 635  : {

	push	ebp
	mov	ebp, esp
	sub	esp, 216				; 000000d8H
	push	ebx
	push	esi
	push	edi
	push	ecx
	lea	edi, DWORD PTR [ebp-216]
	mov	ecx, 54					; 00000036H
	mov	eax, -858993460				; ccccccccH
	rep stosd
	pop	ecx
	mov	DWORD PTR _this$[ebp], ecx

; 636  : 	BOOL result;
; 637  : 	GetProperty(0x30, VT_BOOL, (void*)&result);

	lea	eax, DWORD PTR _result$[ebp]
	push	eax
	push	11					; 0000000bH
	push	48					; 00000030H
	mov	ecx, DWORD PTR _this$[ebp]
	call	?GetProperty@CWnd@@QBEXJGPAX@Z		; CWnd::GetProperty

; 638  : 	return result;

	mov	eax, DWORD PTR _result$[ebp]

; 639  : }

	push	edx
	mov	ecx, ebp
	push	eax
	lea	edx, DWORD PTR $L94941
	call	@_RTC_CheckStackVars@8
	pop	eax
	pop	edx
	pop	edi
	pop	esi
	pop	ebx
	add	esp, 216				; 000000d8H
	cmp	ebp, esp
	call	__RTC_CheckEsp
	mov	esp, ebp
	pop	ebp
	ret	0
$L94941:
	DD	1
	DD	$L94940
$L94940:
	DD	-20					; ffffffecH
	DD	4
	DD	$L94939
$L94939:
	DB	114					; 00000072H
	DB	101					; 00000065H
	DB	115					; 00000073H
	DB	117					; 00000075H
	DB	108					; 0000006cH
	DB	116					; 00000074H
	DB	0
?GetIgnoreDomainNames@CWSpell@@QAEHXZ ENDP		; CWSpell::GetIgnoreDomainNames
_TEXT	ENDS
PUBLIC	?SetIgnoreDomainNames@CWSpell@@QAEXH@Z		; CWSpell::SetIgnoreDomainNames
; Function compile flags: /Odt /RTCcsu /ZI
;	COMDAT ?SetIgnoreDomainNames@CWSpell@@QAEXH@Z
_TEXT	SEGMENT
_this$ = -8						; size = 4
_propVal$ = 8						; size = 4
?SetIgnoreDomainNames@CWSpell@@QAEXH@Z PROC NEAR	; CWSpell::SetIgnoreDomainNames, COMDAT
; _this$ = ecx

; 642  : {

	push	ebp
	mov	ebp, esp
	sub	esp, 204				; 000000ccH
	push	ebx
	push	esi
	push	edi
	push	ecx
	lea	edi, DWORD PTR [ebp-204]
	mov	ecx, 51					; 00000033H
	mov	eax, -858993460				; ccccccccH
	rep stosd
	pop	ecx
	mov	DWORD PTR _this$[ebp], ecx

; 643  : 	SetProperty(0x30, VT_BOOL, propVal);

	mov	eax, DWORD PTR _propVal$[ebp]
	push	eax
	push	11					; 0000000bH
	push	48					; 00000030H
	mov	ecx, DWORD PTR _this$[ebp]
	push	ecx
	call	?SetProperty@CWnd@@QAAXJGZZ		; CWnd::SetProperty
	add	esp, 16					; 00000010H

; 644  : }

	pop	edi
	pop	esi
	pop	ebx
	add	esp, 204				; 000000ccH
	cmp	ebp, esp
	call	__RTC_CheckEsp
	mov	esp, ebp
	pop	ebp
	ret	4
?SetIgnoreDomainNames@CWSpell@@QAEXH@Z ENDP		; CWSpell::SetIgnoreDomainNames
_TEXT	ENDS
PUBLIC	?GetAllowAccentedCaps@CWSpell@@QAEHXZ		; CWSpell::GetAllowAccentedCaps
; Function compile flags: /Odt /RTCcsu /ZI
;	COMDAT ?GetAllowAccentedCaps@CWSpell@@QAEHXZ
_TEXT	SEGMENT
_result$ = -20						; size = 4
_this$ = -8						; size = 4
?GetAllowAccentedCaps@CWSpell@@QAEHXZ PROC NEAR		; CWSpell::GetAllowAccentedCaps, COMDAT
; _this$ = ecx

; 647  : {

	push	ebp
	mov	ebp, esp
	sub	esp, 216				; 000000d8H
	push	ebx
	push	esi
	push	edi
	push	ecx
	lea	edi, DWORD PTR [ebp-216]
	mov	ecx, 54					; 00000036H
	mov	eax, -858993460				; ccccccccH
	rep stosd
	pop	ecx
	mov	DWORD PTR _this$[ebp], ecx

; 648  : 	BOOL result;
; 649  : 	GetProperty(0x31, VT_BOOL, (void*)&result);

	lea	eax, DWORD PTR _result$[ebp]
	push	eax
	push	11					; 0000000bH
	push	49					; 00000031H
	mov	ecx, DWORD PTR _this$[ebp]
	call	?GetProperty@CWnd@@QBEXJGPAX@Z		; CWnd::GetProperty

; 650  : 	return result;

	mov	eax, DWORD PTR _result$[ebp]

; 651  : }

	push	edx
	mov	ecx, ebp
	push	eax
	lea	edx, DWORD PTR $L94948
	call	@_RTC_CheckStackVars@8
	pop	eax
	pop	edx
	pop	edi
	pop	esi
	pop	ebx
	add	esp, 216				; 000000d8H
	cmp	ebp, esp
	call	__RTC_CheckEsp
	mov	esp, ebp
	pop	ebp
	ret	0
$L94948:
	DD	1
	DD	$L94947
$L94947:
	DD	-20					; ffffffecH
	DD	4
	DD	$L94946
$L94946:
	DB	114					; 00000072H
	DB	101					; 00000065H
	DB	115					; 00000073H
	DB	117					; 00000075H
	DB	108					; 0000006cH
	DB	116					; 00000074H
	DB	0
?GetAllowAccentedCaps@CWSpell@@QAEHXZ ENDP		; CWSpell::GetAllowAccentedCaps
_TEXT	ENDS
PUBLIC	?SetAllowAccentedCaps@CWSpell@@QAEXH@Z		; CWSpell::SetAllowAccentedCaps
; Function compile flags: /Odt /RTCcsu /ZI
;	COMDAT ?SetAllowAccentedCaps@CWSpell@@QAEXH@Z
_TEXT	SEGMENT
_this$ = -8						; size = 4
_propVal$ = 8						; size = 4
?SetAllowAccentedCaps@CWSpell@@QAEXH@Z PROC NEAR	; CWSpell::SetAllowAccentedCaps, COMDAT
; _this$ = ecx

; 654  : {

	push	ebp
	mov	ebp, esp
	sub	esp, 204				; 000000ccH
	push	ebx
	push	esi
	push	edi
	push	ecx
	lea	edi, DWORD PTR [ebp-204]
	mov	ecx, 51					; 00000033H
	mov	eax, -858993460				; ccccccccH
	rep stosd
	pop	ecx
	mov	DWORD PTR _this$[ebp], ecx

; 655  : 	SetProperty(0x31, VT_BOOL, propVal);

	mov	eax, DWORD PTR _propVal$[ebp]
	push	eax
	push	11					; 0000000bH
	push	49					; 00000031H
	mov	ecx, DWORD PTR _this$[ebp]
	push	ecx
	call	?SetProperty@CWnd@@QAAXJGZZ		; CWnd::SetProperty
	add	esp, 16					; 00000010H

; 656  : }

	pop	edi
	pop	esi
	pop	ebx
	add	esp, 204				; 000000ccH
	cmp	ebp, esp
	call	__RTC_CheckEsp
	mov	esp, ebp
	pop	ebp
	ret	4
?SetAllowAccentedCaps@CWSpell@@QAEXH@Z ENDP		; CWSpell::SetAllowAccentedCaps
_TEXT	ENDS
PUBLIC	?GetIgnoreHTMLMarkups@CWSpell@@QAEHXZ		; CWSpell::GetIgnoreHTMLMarkups
; Function compile flags: /Odt /RTCcsu /ZI
;	COMDAT ?GetIgnoreHTMLMarkups@CWSpell@@QAEHXZ
_TEXT	SEGMENT
_result$ = -20						; size = 4
_this$ = -8						; size = 4
?GetIgnoreHTMLMarkups@CWSpell@@QAEHXZ PROC NEAR		; CWSpell::GetIgnoreHTMLMarkups, COMDAT
; _this$ = ecx

; 659  : {

	push	ebp
	mov	ebp, esp
	sub	esp, 216				; 000000d8H
	push	ebx
	push	esi
	push	edi
	push	ecx
	lea	edi, DWORD PTR [ebp-216]
	mov	ecx, 54					; 00000036H
	mov	eax, -858993460				; ccccccccH
	rep stosd
	pop	ecx
	mov	DWORD PTR _this$[ebp], ecx

; 660  : 	BOOL result;
; 661  : 	GetProperty(0x32, VT_BOOL, (void*)&result);

	lea	eax, DWORD PTR _result$[ebp]
	push	eax
	push	11					; 0000000bH
	push	50					; 00000032H
	mov	ecx, DWORD PTR _this$[ebp]
	call	?GetProperty@CWnd@@QBEXJGPAX@Z		; CWnd::GetProperty

; 662  : 	return result;

	mov	eax, DWORD PTR _result$[ebp]

; 663  : }

	push	edx
	mov	ecx, ebp
	push	eax
	lea	edx, DWORD PTR $L94955
	call	@_RTC_CheckStackVars@8
	pop	eax
	pop	edx
	pop	edi
	pop	esi
	pop	ebx
	add	esp, 216				; 000000d8H
	cmp	ebp, esp
	call	__RTC_CheckEsp
	mov	esp, ebp
	pop	ebp
	ret	0
$L94955:
	DD	1
	DD	$L94954
$L94954:
	DD	-20					; ffffffecH
	DD	4
	DD	$L94953
$L94953:
	DB	114					; 00000072H
	DB	101					; 00000065H
	DB	115					; 00000073H
	DB	117					; 00000075H
	DB	108					; 0000006cH
	DB	116					; 00000074H
	DB	0
?GetIgnoreHTMLMarkups@CWSpell@@QAEHXZ ENDP		; CWSpell::GetIgnoreHTMLMarkups
_TEXT	ENDS
PUBLIC	?SetIgnoreHTMLMarkups@CWSpell@@QAEXH@Z		; CWSpell::SetIgnoreHTMLMarkups
; Function compile flags: /Odt /RTCcsu /ZI
;	COMDAT ?SetIgnoreHTMLMarkups@CWSpell@@QAEXH@Z
_TEXT	SEGMENT
_this$ = -8						; size = 4
_propVal$ = 8						; size = 4
?SetIgnoreHTMLMarkups@CWSpell@@QAEXH@Z PROC NEAR	; CWSpell::SetIgnoreHTMLMarkups, COMDAT
; _this$ = ecx

; 666  : {

	push	ebp
	mov	ebp, esp
	sub	esp, 204				; 000000ccH
	push	ebx
	push	esi
	push	edi
	push	ecx
	lea	edi, DWORD PTR [ebp-204]
	mov	ecx, 51					; 00000033H
	mov	eax, -858993460				; ccccccccH
	rep stosd
	pop	ecx
	mov	DWORD PTR _this$[ebp], ecx

; 667  : 	SetProperty(0x32, VT_BOOL, propVal);

	mov	eax, DWORD PTR _propVal$[ebp]
	push	eax
	push	11					; 0000000bH
	push	50					; 00000032H
	mov	ecx, DWORD PTR _this$[ebp]
	push	ecx
	call	?SetProperty@CWnd@@QAAXJGZZ		; CWnd::SetProperty
	add	esp, 16					; 00000010H

; 668  : }

	pop	edi
	pop	esi
	pop	ebx
	add	esp, 204				; 000000ccH
	cmp	ebp, esp
	call	__RTC_CheckEsp
	mov	esp, ebp
	pop	ebp
	ret	4
?SetIgnoreHTMLMarkups@CWSpell@@QAEXH@Z ENDP		; CWSpell::SetIgnoreHTMLMarkups
_TEXT	ENDS
PUBLIC	?GetCharacterSet@CWSpell@@QAEFXZ		; CWSpell::GetCharacterSet
; Function compile flags: /Odt /RTCcsu /ZI
;	COMDAT ?GetCharacterSet@CWSpell@@QAEFXZ
_TEXT	SEGMENT
_result$ = -20						; size = 2
_this$ = -8						; size = 4
?GetCharacterSet@CWSpell@@QAEFXZ PROC NEAR		; CWSpell::GetCharacterSet, COMDAT
; _this$ = ecx

; 671  : {

	push	ebp
	mov	ebp, esp
	sub	esp, 216				; 000000d8H
	push	ebx
	push	esi
	push	edi
	push	ecx
	lea	edi, DWORD PTR [ebp-216]
	mov	ecx, 54					; 00000036H
	mov	eax, -858993460				; ccccccccH
	rep stosd
	pop	ecx
	mov	DWORD PTR _this$[ebp], ecx

; 672  : 	short result;
; 673  : 	GetProperty(0x33, VT_I2, (void*)&result);

	lea	eax, DWORD PTR _result$[ebp]
	push	eax
	push	2
	push	51					; 00000033H
	mov	ecx, DWORD PTR _this$[ebp]
	call	?GetProperty@CWnd@@QBEXJGPAX@Z		; CWnd::GetProperty

; 674  : 	return result;

	mov	ax, WORD PTR _result$[ebp]

; 675  : }

	push	edx
	mov	ecx, ebp
	push	eax
	lea	edx, DWORD PTR $L94962
	call	@_RTC_CheckStackVars@8
	pop	eax
	pop	edx
	pop	edi
	pop	esi
	pop	ebx
	add	esp, 216				; 000000d8H
	cmp	ebp, esp
	call	__RTC_CheckEsp
	mov	esp, ebp
	pop	ebp
	ret	0
$L94962:
	DD	1
	DD	$L94961
$L94961:
	DD	-20					; ffffffecH
	DD	2
	DD	$L94960
$L94960:
	DB	114					; 00000072H
	DB	101					; 00000065H
	DB	115					; 00000073H
	DB	117					; 00000075H
	DB	108					; 0000006cH
	DB	116					; 00000074H
	DB	0
?GetCharacterSet@CWSpell@@QAEFXZ ENDP			; CWSpell::GetCharacterSet
_TEXT	ENDS
PUBLIC	?SetCharacterSet@CWSpell@@QAEXF@Z		; CWSpell::SetCharacterSet
; Function compile flags: /Odt /RTCcsu /ZI
;	COMDAT ?SetCharacterSet@CWSpell@@QAEXF@Z
_TEXT	SEGMENT
_this$ = -8						; size = 4
_propVal$ = 8						; size = 2
?SetCharacterSet@CWSpell@@QAEXF@Z PROC NEAR		; CWSpell::SetCharacterSet, COMDAT
; _this$ = ecx

; 678  : {

	push	ebp
	mov	ebp, esp
	sub	esp, 204				; 000000ccH
	push	ebx
	push	esi
	push	edi
	push	ecx
	lea	edi, DWORD PTR [ebp-204]
	mov	ecx, 51					; 00000033H
	mov	eax, -858993460				; ccccccccH
	rep stosd
	pop	ecx
	mov	DWORD PTR _this$[ebp], ecx

; 679  : 	SetProperty(0x33, VT_I2, propVal);

	movsx	eax, WORD PTR _propVal$[ebp]
	push	eax
	push	2
	push	51					; 00000033H
	mov	ecx, DWORD PTR _this$[ebp]
	push	ecx
	call	?SetProperty@CWnd@@QAAXJGZZ		; CWnd::SetProperty
	add	esp, 16					; 00000010H

; 680  : }

	pop	edi
	pop	esi
	pop	ebx
	add	esp, 204				; 000000ccH
	cmp	ebp, esp
	call	__RTC_CheckEsp
	mov	esp, ebp
	pop	ebp
	ret	4
?SetCharacterSet@CWSpell@@QAEXF@Z ENDP			; CWSpell::SetCharacterSet
_TEXT	ENDS
PUBLIC	?GetBackupUserDictionary@CWSpell@@QAEHXZ	; CWSpell::GetBackupUserDictionary
; Function compile flags: /Odt /RTCcsu /ZI
;	COMDAT ?GetBackupUserDictionary@CWSpell@@QAEHXZ
_TEXT	SEGMENT
_result$ = -20						; size = 4
_this$ = -8						; size = 4
?GetBackupUserDictionary@CWSpell@@QAEHXZ PROC NEAR	; CWSpell::GetBackupUserDictionary, COMDAT
; _this$ = ecx

; 683  : {

	push	ebp
	mov	ebp, esp
	sub	esp, 216				; 000000d8H
	push	ebx
	push	esi
	push	edi
	push	ecx
	lea	edi, DWORD PTR [ebp-216]
	mov	ecx, 54					; 00000036H
	mov	eax, -858993460				; ccccccccH
	rep stosd
	pop	ecx
	mov	DWORD PTR _this$[ebp], ecx

; 684  : 	BOOL result;
; 685  : 	GetProperty(0x34, VT_BOOL, (void*)&result);

	lea	eax, DWORD PTR _result$[ebp]
	push	eax
	push	11					; 0000000bH
	push	52					; 00000034H
	mov	ecx, DWORD PTR _this$[ebp]
	call	?GetProperty@CWnd@@QBEXJGPAX@Z		; CWnd::GetProperty

; 686  : 	return result;

	mov	eax, DWORD PTR _result$[ebp]

; 687  : }

	push	edx
	mov	ecx, ebp
	push	eax
	lea	edx, DWORD PTR $L94969
	call	@_RTC_CheckStackVars@8
	pop	eax
	pop	edx
	pop	edi
	pop	esi
	pop	ebx
	add	esp, 216				; 000000d8H
	cmp	ebp, esp
	call	__RTC_CheckEsp
	mov	esp, ebp
	pop	ebp
	ret	0
$L94969:
	DD	1
	DD	$L94968
$L94968:
	DD	-20					; ffffffecH
	DD	4
	DD	$L94967
$L94967:
	DB	114					; 00000072H
	DB	101					; 00000065H
	DB	115					; 00000073H
	DB	117					; 00000075H
	DB	108					; 0000006cH
	DB	116					; 00000074H
	DB	0
?GetBackupUserDictionary@CWSpell@@QAEHXZ ENDP		; CWSpell::GetBackupUserDictionary
_TEXT	ENDS
PUBLIC	?SetBackupUserDictionary@CWSpell@@QAEXH@Z	; CWSpell::SetBackupUserDictionary
; Function compile flags: /Odt /RTCcsu /ZI
;	COMDAT ?SetBackupUserDictionary@CWSpell@@QAEXH@Z
_TEXT	SEGMENT
_this$ = -8						; size = 4
_propVal$ = 8						; size = 4
?SetBackupUserDictionary@CWSpell@@QAEXH@Z PROC NEAR	; CWSpell::SetBackupUserDictionary, COMDAT
; _this$ = ecx

; 690  : {

	push	ebp
	mov	ebp, esp
	sub	esp, 204				; 000000ccH
	push	ebx
	push	esi
	push	edi
	push	ecx
	lea	edi, DWORD PTR [ebp-204]
	mov	ecx, 51					; 00000033H
	mov	eax, -858993460				; ccccccccH
	rep stosd
	pop	ecx
	mov	DWORD PTR _this$[ebp], ecx

; 691  : 	SetProperty(0x34, VT_BOOL, propVal);

	mov	eax, DWORD PTR _propVal$[ebp]
	push	eax
	push	11					; 0000000bH
	push	52					; 00000034H
	mov	ecx, DWORD PTR _this$[ebp]
	push	ecx
	call	?SetProperty@CWnd@@QAAXJGZZ		; CWnd::SetProperty
	add	esp, 16					; 00000010H

; 692  : }

	pop	edi
	pop	esi
	pop	ebx
	add	esp, 204				; 000000ccH
	cmp	ebp, esp
	call	__RTC_CheckEsp
	mov	esp, ebp
	pop	ebp
	ret	4
?SetBackupUserDictionary@CWSpell@@QAEXH@Z ENDP		; CWSpell::SetBackupUserDictionary
_TEXT	ENDS
PUBLIC	?GetShowOptionsButton@CWSpell@@QAEHXZ		; CWSpell::GetShowOptionsButton
; Function compile flags: /Odt /RTCcsu /ZI
;	COMDAT ?GetShowOptionsButton@CWSpell@@QAEHXZ
_TEXT	SEGMENT
_result$ = -20						; size = 4
_this$ = -8						; size = 4
?GetShowOptionsButton@CWSpell@@QAEHXZ PROC NEAR		; CWSpell::GetShowOptionsButton, COMDAT
; _this$ = ecx

; 695  : {

	push	ebp
	mov	ebp, esp
	sub	esp, 216				; 000000d8H
	push	ebx
	push	esi
	push	edi
	push	ecx
	lea	edi, DWORD PTR [ebp-216]
	mov	ecx, 54					; 00000036H
	mov	eax, -858993460				; ccccccccH
	rep stosd
	pop	ecx
	mov	DWORD PTR _this$[ebp], ecx

; 696  : 	BOOL result;
; 697  : 	GetProperty(0x35, VT_BOOL, (void*)&result);

	lea	eax, DWORD PTR _result$[ebp]
	push	eax
	push	11					; 0000000bH
	push	53					; 00000035H
	mov	ecx, DWORD PTR _this$[ebp]
	call	?GetProperty@CWnd@@QBEXJGPAX@Z		; CWnd::GetProperty

; 698  : 	return result;

	mov	eax, DWORD PTR _result$[ebp]

; 699  : }

	push	edx
	mov	ecx, ebp
	push	eax
	lea	edx, DWORD PTR $L94976
	call	@_RTC_CheckStackVars@8
	pop	eax
	pop	edx
	pop	edi
	pop	esi
	pop	ebx
	add	esp, 216				; 000000d8H
	cmp	ebp, esp
	call	__RTC_CheckEsp
	mov	esp, ebp
	pop	ebp
	ret	0
$L94976:
	DD	1
	DD	$L94975
$L94975:
	DD	-20					; ffffffecH
	DD	4
	DD	$L94974
$L94974:
	DB	114					; 00000072H
	DB	101					; 00000065H
	DB	115					; 00000073H
	DB	117					; 00000075H
	DB	108					; 0000006cH
	DB	116					; 00000074H
	DB	0
?GetShowOptionsButton@CWSpell@@QAEHXZ ENDP		; CWSpell::GetShowOptionsButton
_TEXT	ENDS
PUBLIC	?SetShowOptionsButton@CWSpell@@QAEXH@Z		; CWSpell::SetShowOptionsButton
; Function compile flags: /Odt /RTCcsu /ZI
;	COMDAT ?SetShowOptionsButton@CWSpell@@QAEXH@Z
_TEXT	SEGMENT
_this$ = -8						; size = 4
_propVal$ = 8						; size = 4
?SetShowOptionsButton@CWSpell@@QAEXH@Z PROC NEAR	; CWSpell::SetShowOptionsButton, COMDAT
; _this$ = ecx

; 702  : {

	push	ebp
	mov	ebp, esp
	sub	esp, 204				; 000000ccH
	push	ebx
	push	esi
	push	edi
	push	ecx
	lea	edi, DWORD PTR [ebp-204]
	mov	ecx, 51					; 00000033H
	mov	eax, -858993460				; ccccccccH
	rep stosd
	pop	ecx
	mov	DWORD PTR _this$[ebp], ecx

; 703  : 	SetProperty(0x35, VT_BOOL, propVal);

	mov	eax, DWORD PTR _propVal$[ebp]
	push	eax
	push	11					; 0000000bH
	push	53					; 00000035H
	mov	ecx, DWORD PTR _this$[ebp]
	push	ecx
	call	?SetProperty@CWnd@@QAAXJGZZ		; CWnd::SetProperty
	add	esp, 16					; 00000010H

; 704  : }

	pop	edi
	pop	esi
	pop	ebx
	add	esp, 204				; 000000ccH
	cmp	ebp, esp
	call	__RTC_CheckEsp
	mov	esp, ebp
	pop	ebp
	ret	4
?SetShowOptionsButton@CWSpell@@QAEXH@Z ENDP		; CWSpell::SetShowOptionsButton
_TEXT	ENDS
PUBLIC	?GetShowDictionariesButton@CWSpell@@QAEHXZ	; CWSpell::GetShowDictionariesButton
; Function compile flags: /Odt /RTCcsu /ZI
;	COMDAT ?GetShowDictionariesButton@CWSpell@@QAEHXZ
_TEXT	SEGMENT
_result$ = -20						; size = 4
_this$ = -8						; size = 4
?GetShowDictionariesButton@CWSpell@@QAEHXZ PROC NEAR	; CWSpell::GetShowDictionariesButton, COMDAT
; _this$ = ecx

; 707  : {

	push	ebp
	mov	ebp, esp
	sub	esp, 216				; 000000d8H
	push	ebx
	push	esi
	push	edi
	push	ecx
	lea	edi, DWORD PTR [ebp-216]
	mov	ecx, 54					; 00000036H
	mov	eax, -858993460				; ccccccccH
	rep stosd
	pop	ecx
	mov	DWORD PTR _this$[ebp], ecx

; 708  : 	BOOL result;
; 709  : 	GetProperty(0x36, VT_BOOL, (void*)&result);

	lea	eax, DWORD PTR _result$[ebp]
	push	eax
	push	11					; 0000000bH
	push	54					; 00000036H
	mov	ecx, DWORD PTR _this$[ebp]
	call	?GetProperty@CWnd@@QBEXJGPAX@Z		; CWnd::GetProperty

; 710  : 	return result;

	mov	eax, DWORD PTR _result$[ebp]

; 711  : }

	push	edx
	mov	ecx, ebp
	push	eax
	lea	edx, DWORD PTR $L94983
	call	@_RTC_CheckStackVars@8
	pop	eax
	pop	edx
	pop	edi
	pop	esi
	pop	ebx
	add	esp, 216				; 000000d8H
	cmp	ebp, esp
	call	__RTC_CheckEsp
	mov	esp, ebp
	pop	ebp
	ret	0
$L94983:
	DD	1
	DD	$L94982
$L94982:
	DD	-20					; ffffffecH
	DD	4
	DD	$L94981
$L94981:
	DB	114					; 00000072H
	DB	101					; 00000065H
	DB	115					; 00000073H
	DB	117					; 00000075H
	DB	108					; 0000006cH
	DB	116					; 00000074H
	DB	0
?GetShowDictionariesButton@CWSpell@@QAEHXZ ENDP		; CWSpell::GetShowDictionariesButton
_TEXT	ENDS
PUBLIC	?SetShowDictionariesButton@CWSpell@@QAEXH@Z	; CWSpell::SetShowDictionariesButton
; Function compile flags: /Odt /RTCcsu /ZI
;	COMDAT ?SetShowDictionariesButton@CWSpell@@QAEXH@Z
_TEXT	SEGMENT
_this$ = -8						; size = 4
_propVal$ = 8						; size = 4
?SetShowDictionariesButton@CWSpell@@QAEXH@Z PROC NEAR	; CWSpell::SetShowDictionariesButton, COMDAT
; _this$ = ecx

; 714  : {

	push	ebp
	mov	ebp, esp
	sub	esp, 204				; 000000ccH
	push	ebx
	push	esi
	push	edi
	push	ecx
	lea	edi, DWORD PTR [ebp-204]
	mov	ecx, 51					; 00000033H
	mov	eax, -858993460				; ccccccccH
	rep stosd
	pop	ecx
	mov	DWORD PTR _this$[ebp], ecx

; 715  : 	SetProperty(0x36, VT_BOOL, propVal);

	mov	eax, DWORD PTR _propVal$[ebp]
	push	eax
	push	11					; 0000000bH
	push	54					; 00000036H
	mov	ecx, DWORD PTR _this$[ebp]
	push	ecx
	call	?SetProperty@CWnd@@QAAXJGZZ		; CWnd::SetProperty
	add	esp, 16					; 00000010H

; 716  : }

	pop	edi
	pop	esi
	pop	ebx
	add	esp, 204				; 000000ccH
	cmp	ebp, esp
	call	__RTC_CheckEsp
	mov	esp, ebp
	pop	ebp
	ret	4
?SetShowDictionariesButton@CWSpell@@QAEXH@Z ENDP	; CWSpell::SetShowDictionariesButton
_TEXT	ENDS
PUBLIC	?GetSuggestion@CWSpell@@QAE?AV?$CStringT@GV?$StrTraitMFC@GV?$ChTraitsCRT@G@ATL@@@@@ATL@@F@Z ; CWSpell::GetSuggestion
EXTRN	?InvokeHelper@CWnd@@QAAXJGGPAXPBEZZ:NEAR	; CWnd::InvokeHelper
;	COMDAT xdata$x
xdata$x	SEGMENT
__unwindtable$?GetSuggestion@CWSpell@@QAE?AV?$CStringT@GV?$StrTraitMFC@GV?$ChTraitsCRT@G@ATL@@@@@ATL@@F@Z DD 0ffffffffH
	DD	FLAT:__unwindfunclet$?GetSuggestion@CWSpell@@QAE?AV?$CStringT@GV?$StrTraitMFC@GV?$ChTraitsCRT@G@ATL@@@@@ATL@@F@Z$0
__ehfuncinfo$?GetSuggestion@CWSpell@@QAE?AV?$CStringT@GV?$StrTraitMFC@GV?$ChTraitsCRT@G@ATL@@@@@ATL@@F@Z DD 019930520H
	DD	01H
	DD	FLAT:__unwindtable$?GetSuggestion@CWSpell@@QAE?AV?$CStringT@GV?$StrTraitMFC@GV?$ChTraitsCRT@G@ATL@@@@@ATL@@F@Z
	DD	2 DUP(00H)
	DD	2 DUP(00H)
; Function compile flags: /Odt /RTCcsu /ZI
xdata$x	ENDS
;	COMDAT ?GetSuggestion@CWSpell@@QAE?AV?$CStringT@GV?$StrTraitMFC@GV?$ChTraitsCRT@G@ATL@@@@@ATL@@F@Z
_TEXT	SEGMENT
$T94990 = -236						; size = 4
_result$ = -32						; size = 4
_this$ = -20						; size = 4
__$EHRec$ = -12						; size = 12
___$ReturnUdt$ = 8					; size = 4
_index$ = 12						; size = 2
?GetSuggestion@CWSpell@@QAE?AV?$CStringT@GV?$StrTraitMFC@GV?$ChTraitsCRT@G@ATL@@@@@ATL@@F@Z PROC NEAR ; CWSpell::GetSuggestion, COMDAT
; _this$ = ecx

; 722  : {

	push	ebp
	mov	ebp, esp
	push	-1
	push	__ehhandler$?GetSuggestion@CWSpell@@QAE?AV?$CStringT@GV?$StrTraitMFC@GV?$ChTraitsCRT@G@ATL@@@@@ATL@@F@Z
	mov	eax, DWORD PTR fs:__except_list
	push	eax
	mov	DWORD PTR fs:__except_list, esp
	sub	esp, 228				; 000000e4H
	push	ebx
	push	esi
	push	edi
	push	ecx
	lea	edi, DWORD PTR [ebp-240]
	mov	ecx, 57					; 00000039H
	mov	eax, -858993460				; ccccccccH
	rep stosd
	pop	ecx
	mov	DWORD PTR _this$[ebp], ecx
	mov	DWORD PTR $T94990[ebp], 0

; 723  : 	CString result;

	lea	ecx, DWORD PTR _result$[ebp]
	call	??0?$CStringT@GV?$StrTraitMFC@GV?$ChTraitsCRT@G@ATL@@@@@ATL@@QAE@XZ ; ATL::CStringT<unsigned short,StrTraitMFC<unsigned short,ATL::ChTraitsCRT<unsigned short> > >::CStringT<unsigned short,StrTraitMFC<unsigned short,ATL::ChTraitsCRT<unsigned short> > >
	mov	DWORD PTR __$EHRec$[ebp+8], 0

; 724  : 	static BYTE parms[] =
; 725  : 		VTS_I2;
; 726  : 	InvokeHelper(0x50, DISPATCH_PROPERTYGET, VT_BSTR, (void*)&result, parms,
; 727  : 		index);

	movsx	eax, WORD PTR _index$[ebp]
	push	eax
	push	OFFSET FLAT:?parms@?1??GetSuggestion@CWSpell@@QAE?AV?$CStringT@GV?$StrTraitMFC@GV?$ChTraitsCRT@G@ATL@@@@@ATL@@F@Z@4PAEA
	lea	ecx, DWORD PTR _result$[ebp]
	push	ecx
	push	8
	push	2
	push	80					; 00000050H
	mov	edx, DWORD PTR _this$[ebp]
	push	edx
	call	?InvokeHelper@CWnd@@QAAXJGGPAXPBEZZ	; CWnd::InvokeHelper
	add	esp, 28					; 0000001cH

; 728  : 	return result;

	lea	eax, DWORD PTR _result$[ebp]
	push	eax
	mov	ecx, DWORD PTR ___$ReturnUdt$[ebp]
	call	??0?$CStringT@GV?$StrTraitMFC@GV?$ChTraitsCRT@G@ATL@@@@@ATL@@QAE@ABV01@@Z ; ATL::CStringT<unsigned short,StrTraitMFC<unsigned short,ATL::ChTraitsCRT<unsigned short> > >::CStringT<unsigned short,StrTraitMFC<unsigned short,ATL::ChTraitsCRT<unsigned short> > >
	mov	ecx, DWORD PTR $T94990[ebp]
	or	ecx, 1
	mov	DWORD PTR $T94990[ebp], ecx
	mov	DWORD PTR __$EHRec$[ebp+8], -1
	lea	ecx, DWORD PTR _result$[ebp]
	call	??1?$CStringT@GV?$StrTraitMFC@GV?$ChTraitsCRT@G@ATL@@@@@ATL@@QAE@XZ ; ATL::CStringT<unsigned short,StrTraitMFC<unsigned short,ATL::ChTraitsCRT<unsigned short> > >::~CStringT<unsigned short,StrTraitMFC<unsigned short,ATL::ChTraitsCRT<unsigned short> > >
	mov	eax, DWORD PTR ___$ReturnUdt$[ebp]

; 729  : }

	push	edx
	mov	ecx, ebp
	push	eax
	lea	edx, DWORD PTR $L94997
	call	@_RTC_CheckStackVars@8
	pop	eax
	pop	edx
	mov	ecx, DWORD PTR __$EHRec$[ebp]
	mov	DWORD PTR fs:__except_list, ecx
	pop	edi
	pop	esi
	pop	ebx
	add	esp, 240				; 000000f0H
	cmp	ebp, esp
	call	__RTC_CheckEsp
	mov	esp, ebp
	pop	ebp
	ret	8
$L94997:
	DD	1
	DD	$L94996
$L94996:
	DD	-32					; ffffffe0H
	DD	4
	DD	$L94994
$L94994:
	DB	114					; 00000072H
	DB	101					; 00000065H
	DB	115					; 00000073H
	DB	117					; 00000075H
	DB	108					; 0000006cH
	DB	116					; 00000074H
	DB	0
_TEXT	ENDS
;	COMDAT text$x
text$x	SEGMENT
__unwindfunclet$?GetSuggestion@CWSpell@@QAE?AV?$CStringT@GV?$StrTraitMFC@GV?$ChTraitsCRT@G@ATL@@@@@ATL@@F@Z$0:
	lea	ecx, DWORD PTR _result$[ebp]
	jmp	??1?$CStringT@GV?$StrTraitMFC@GV?$ChTraitsCRT@G@ATL@@@@@ATL@@QAE@XZ ; ATL::CStringT<unsigned short,StrTraitMFC<unsigned short,ATL::ChTraitsCRT<unsigned short> > >::~CStringT<unsigned short,StrTraitMFC<unsigned short,ATL::ChTraitsCRT<unsigned short> > >
__ehhandler$?GetSuggestion@CWSpell@@QAE?AV?$CStringT@GV?$StrTraitMFC@GV?$ChTraitsCRT@G@ATL@@@@@ATL@@F@Z:
	mov	eax, OFFSET FLAT:__ehfuncinfo$?GetSuggestion@CWSpell@@QAE?AV?$CStringT@GV?$StrTraitMFC@GV?$ChTraitsCRT@G@ATL@@@@@ATL@@F@Z
	jmp	___CxxFrameHandler
text$x	ENDS
?GetSuggestion@CWSpell@@QAE?AV?$CStringT@GV?$StrTraitMFC@GV?$ChTraitsCRT@G@ATL@@@@@ATL@@F@Z ENDP ; CWSpell::GetSuggestion
PUBLIC	?GetMainDictionary@CWSpell@@QAE?AV?$CStringT@GV?$StrTraitMFC@GV?$ChTraitsCRT@G@ATL@@@@@ATL@@F@Z ; CWSpell::GetMainDictionary
;	COMDAT xdata$x
xdata$x	SEGMENT
__unwindtable$?GetMainDictionary@CWSpell@@QAE?AV?$CStringT@GV?$StrTraitMFC@GV?$ChTraitsCRT@G@ATL@@@@@ATL@@F@Z DD 0ffffffffH
	DD	FLAT:__unwindfunclet$?GetMainDictionary@CWSpell@@QAE?AV?$CStringT@GV?$StrTraitMFC@GV?$ChTraitsCRT@G@ATL@@@@@ATL@@F@Z$0
__ehfuncinfo$?GetMainDictionary@CWSpell@@QAE?AV?$CStringT@GV?$StrTraitMFC@GV?$ChTraitsCRT@G@ATL@@@@@ATL@@F@Z DD 019930520H
	DD	01H
	DD	FLAT:__unwindtable$?GetMainDictionary@CWSpell@@QAE?AV?$CStringT@GV?$StrTraitMFC@GV?$ChTraitsCRT@G@ATL@@@@@ATL@@F@Z
	DD	2 DUP(00H)
	DD	2 DUP(00H)
; Function compile flags: /Odt /RTCcsu /ZI
xdata$x	ENDS
;	COMDAT ?GetMainDictionary@CWSpell@@QAE?AV?$CStringT@GV?$StrTraitMFC@GV?$ChTraitsCRT@G@ATL@@@@@ATL@@F@Z
_TEXT	SEGMENT
$T95005 = -236						; size = 4
_result$ = -32						; size = 4
_this$ = -20						; size = 4
__$EHRec$ = -12						; size = 12
___$ReturnUdt$ = 8					; size = 4
_index$ = 12						; size = 2
?GetMainDictionary@CWSpell@@QAE?AV?$CStringT@GV?$StrTraitMFC@GV?$ChTraitsCRT@G@ATL@@@@@ATL@@F@Z PROC NEAR ; CWSpell::GetMainDictionary, COMDAT
; _this$ = ecx

; 732  : {

	push	ebp
	mov	ebp, esp
	push	-1
	push	__ehhandler$?GetMainDictionary@CWSpell@@QAE?AV?$CStringT@GV?$StrTraitMFC@GV?$ChTraitsCRT@G@ATL@@@@@ATL@@F@Z
	mov	eax, DWORD PTR fs:__except_list
	push	eax
	mov	DWORD PTR fs:__except_list, esp
	sub	esp, 228				; 000000e4H
	push	ebx
	push	esi
	push	edi
	push	ecx
	lea	edi, DWORD PTR [ebp-240]
	mov	ecx, 57					; 00000039H
	mov	eax, -858993460				; ccccccccH
	rep stosd
	pop	ecx
	mov	DWORD PTR _this$[ebp], ecx
	mov	DWORD PTR $T95005[ebp], 0

; 733  : 	CString result;

	lea	ecx, DWORD PTR _result$[ebp]
	call	??0?$CStringT@GV?$StrTraitMFC@GV?$ChTraitsCRT@G@ATL@@@@@ATL@@QAE@XZ ; ATL::CStringT<unsigned short,StrTraitMFC<unsigned short,ATL::ChTraitsCRT<unsigned short> > >::CStringT<unsigned short,StrTraitMFC<unsigned short,ATL::ChTraitsCRT<unsigned short> > >
	mov	DWORD PTR __$EHRec$[ebp+8], 0

; 734  : 	static BYTE parms[] =
; 735  : 		VTS_I2;
; 736  : 	InvokeHelper(0x51, DISPATCH_PROPERTYGET, VT_BSTR, (void*)&result, parms,
; 737  : 		index);

	movsx	eax, WORD PTR _index$[ebp]
	push	eax
	push	OFFSET FLAT:?parms@?1??GetMainDictionary@CWSpell@@QAE?AV?$CStringT@GV?$StrTraitMFC@GV?$ChTraitsCRT@G@ATL@@@@@ATL@@F@Z@4PAEA
	lea	ecx, DWORD PTR _result$[ebp]
	push	ecx
	push	8
	push	2
	push	81					; 00000051H
	mov	edx, DWORD PTR _this$[ebp]
	push	edx
	call	?InvokeHelper@CWnd@@QAAXJGGPAXPBEZZ	; CWnd::InvokeHelper
	add	esp, 28					; 0000001cH

; 738  : 	return result;

	lea	eax, DWORD PTR _result$[ebp]
	push	eax
	mov	ecx, DWORD PTR ___$ReturnUdt$[ebp]
	call	??0?$CStringT@GV?$StrTraitMFC@GV?$ChTraitsCRT@G@ATL@@@@@ATL@@QAE@ABV01@@Z ; ATL::CStringT<unsigned short,StrTraitMFC<unsigned short,ATL::ChTraitsCRT<unsigned short> > >::CStringT<unsigned short,StrTraitMFC<unsigned short,ATL::ChTraitsCRT<unsigned short> > >
	mov	ecx, DWORD PTR $T95005[ebp]
	or	ecx, 1
	mov	DWORD PTR $T95005[ebp], ecx
	mov	DWORD PTR __$EHRec$[ebp+8], -1
	lea	ecx, DWORD PTR _result$[ebp]
	call	??1?$CStringT@GV?$StrTraitMFC@GV?$ChTraitsCRT@G@ATL@@@@@ATL@@QAE@XZ ; ATL::CStringT<unsigned short,StrTraitMFC<unsigned short,ATL::ChTraitsCRT<unsigned short> > >::~CStringT<unsigned short,StrTraitMFC<unsigned short,ATL::ChTraitsCRT<unsigned short> > >
	mov	eax, DWORD PTR ___$ReturnUdt$[ebp]

; 739  : }

	push	edx
	mov	ecx, ebp
	push	eax
	lea	edx, DWORD PTR $L95012
	call	@_RTC_CheckStackVars@8
	pop	eax
	pop	edx
	mov	ecx, DWORD PTR __$EHRec$[ebp]
	mov	DWORD PTR fs:__except_list, ecx
	pop	edi
	pop	esi
	pop	ebx
	add	esp, 240				; 000000f0H
	cmp	ebp, esp
	call	__RTC_CheckEsp
	mov	esp, ebp
	pop	ebp
	ret	8
$L95012:
	DD	1
	DD	$L95011
$L95011:
	DD	-32					; ffffffe0H
	DD	4
	DD	$L95009
$L95009:
	DB	114					; 00000072H
	DB	101					; 00000065H
	DB	115					; 00000073H
	DB	117					; 00000075H
	DB	108					; 0000006cH
	DB	116					; 00000074H
	DB	0
_TEXT	ENDS
;	COMDAT text$x
text$x	SEGMENT
__unwindfunclet$?GetMainDictionary@CWSpell@@QAE?AV?$CStringT@GV?$StrTraitMFC@GV?$ChTraitsCRT@G@ATL@@@@@ATL@@F@Z$0:
	lea	ecx, DWORD PTR _result$[ebp]
	jmp	??1?$CStringT@GV?$StrTraitMFC@GV?$ChTraitsCRT@G@ATL@@@@@ATL@@QAE@XZ ; ATL::CStringT<unsigned short,StrTraitMFC<unsigned short,ATL::ChTraitsCRT<unsigned short> > >::~CStringT<unsigned short,StrTraitMFC<unsigned short,ATL::ChTraitsCRT<unsigned short> > >
__ehhandler$?GetMainDictionary@CWSpell@@QAE?AV?$CStringT@GV?$StrTraitMFC@GV?$ChTraitsCRT@G@ATL@@@@@ATL@@F@Z:
	mov	eax, OFFSET FLAT:__ehfuncinfo$?GetMainDictionary@CWSpell@@QAE?AV?$CStringT@GV?$StrTraitMFC@GV?$ChTraitsCRT@G@ATL@@@@@ATL@@F@Z
	jmp	___CxxFrameHandler
text$x	ENDS
?GetMainDictionary@CWSpell@@QAE?AV?$CStringT@GV?$StrTraitMFC@GV?$ChTraitsCRT@G@ATL@@@@@ATL@@F@Z ENDP ; CWSpell::GetMainDictionary
PUBLIC	?GetUserDictionary@CWSpell@@QAE?AV?$CStringT@GV?$StrTraitMFC@GV?$ChTraitsCRT@G@ATL@@@@@ATL@@F@Z ; CWSpell::GetUserDictionary
;	COMDAT xdata$x
xdata$x	SEGMENT
__unwindtable$?GetUserDictionary@CWSpell@@QAE?AV?$CStringT@GV?$StrTraitMFC@GV?$ChTraitsCRT@G@ATL@@@@@ATL@@F@Z DD 0ffffffffH
	DD	FLAT:__unwindfunclet$?GetUserDictionary@CWSpell@@QAE?AV?$CStringT@GV?$StrTraitMFC@GV?$ChTraitsCRT@G@ATL@@@@@ATL@@F@Z$0
__ehfuncinfo$?GetUserDictionary@CWSpell@@QAE?AV?$CStringT@GV?$StrTraitMFC@GV?$ChTraitsCRT@G@ATL@@@@@ATL@@F@Z DD 019930520H
	DD	01H
	DD	FLAT:__unwindtable$?GetUserDictionary@CWSpell@@QAE?AV?$CStringT@GV?$StrTraitMFC@GV?$ChTraitsCRT@G@ATL@@@@@ATL@@F@Z
	DD	2 DUP(00H)
	DD	2 DUP(00H)
; Function compile flags: /Odt /RTCcsu /ZI
xdata$x	ENDS
;	COMDAT ?GetUserDictionary@CWSpell@@QAE?AV?$CStringT@GV?$StrTraitMFC@GV?$ChTraitsCRT@G@ATL@@@@@ATL@@F@Z
_TEXT	SEGMENT
$T95020 = -236						; size = 4
_result$ = -32						; size = 4
_this$ = -20						; size = 4
__$EHRec$ = -12						; size = 12
___$ReturnUdt$ = 8					; size = 4
_index$ = 12						; size = 2
?GetUserDictionary@CWSpell@@QAE?AV?$CStringT@GV?$StrTraitMFC@GV?$ChTraitsCRT@G@ATL@@@@@ATL@@F@Z PROC NEAR ; CWSpell::GetUserDictionary, COMDAT
; _this$ = ecx

; 742  : {

	push	ebp
	mov	ebp, esp
	push	-1
	push	__ehhandler$?GetUserDictionary@CWSpell@@QAE?AV?$CStringT@GV?$StrTraitMFC@GV?$ChTraitsCRT@G@ATL@@@@@ATL@@F@Z
	mov	eax, DWORD PTR fs:__except_list
	push	eax
	mov	DWORD PTR fs:__except_list, esp
	sub	esp, 228				; 000000e4H
	push	ebx
	push	esi
	push	edi
	push	ecx
	lea	edi, DWORD PTR [ebp-240]
	mov	ecx, 57					; 00000039H
	mov	eax, -858993460				; ccccccccH
	rep stosd
	pop	ecx
	mov	DWORD PTR _this$[ebp], ecx
	mov	DWORD PTR $T95020[ebp], 0

; 743  : 	CString result;

	lea	ecx, DWORD PTR _result$[ebp]
	call	??0?$CStringT@GV?$StrTraitMFC@GV?$ChTraitsCRT@G@ATL@@@@@ATL@@QAE@XZ ; ATL::CStringT<unsigned short,StrTraitMFC<unsigned short,ATL::ChTraitsCRT<unsigned short> > >::CStringT<unsigned short,StrTraitMFC<unsigned short,ATL::ChTraitsCRT<unsigned short> > >
	mov	DWORD PTR __$EHRec$[ebp+8], 0

; 744  : 	static BYTE parms[] =
; 745  : 		VTS_I2;
; 746  : 	InvokeHelper(0x52, DISPATCH_PROPERTYGET, VT_BSTR, (void*)&result, parms,
; 747  : 		index);

	movsx	eax, WORD PTR _index$[ebp]
	push	eax
	push	OFFSET FLAT:?parms@?1??GetUserDictionary@CWSpell@@QAE?AV?$CStringT@GV?$StrTraitMFC@GV?$ChTraitsCRT@G@ATL@@@@@ATL@@F@Z@4PAEA
	lea	ecx, DWORD PTR _result$[ebp]
	push	ecx
	push	8
	push	2
	push	82					; 00000052H
	mov	edx, DWORD PTR _this$[ebp]
	push	edx
	call	?InvokeHelper@CWnd@@QAAXJGGPAXPBEZZ	; CWnd::InvokeHelper
	add	esp, 28					; 0000001cH

; 748  : 	return result;

	lea	eax, DWORD PTR _result$[ebp]
	push	eax
	mov	ecx, DWORD PTR ___$ReturnUdt$[ebp]
	call	??0?$CStringT@GV?$StrTraitMFC@GV?$ChTraitsCRT@G@ATL@@@@@ATL@@QAE@ABV01@@Z ; ATL::CStringT<unsigned short,StrTraitMFC<unsigned short,ATL::ChTraitsCRT<unsigned short> > >::CStringT<unsigned short,StrTraitMFC<unsigned short,ATL::ChTraitsCRT<unsigned short> > >
	mov	ecx, DWORD PTR $T95020[ebp]
	or	ecx, 1
	mov	DWORD PTR $T95020[ebp], ecx
	mov	DWORD PTR __$EHRec$[ebp+8], -1
	lea	ecx, DWORD PTR _result$[ebp]
	call	??1?$CStringT@GV?$StrTraitMFC@GV?$ChTraitsCRT@G@ATL@@@@@ATL@@QAE@XZ ; ATL::CStringT<unsigned short,StrTraitMFC<unsigned short,ATL::ChTraitsCRT<unsigned short> > >::~CStringT<unsigned short,StrTraitMFC<unsigned short,ATL::ChTraitsCRT<unsigned short> > >
	mov	eax, DWORD PTR ___$ReturnUdt$[ebp]

; 749  : }

	push	edx
	mov	ecx, ebp
	push	eax
	lea	edx, DWORD PTR $L95027
	call	@_RTC_CheckStackVars@8
	pop	eax
	pop	edx
	mov	ecx, DWORD PTR __$EHRec$[ebp]
	mov	DWORD PTR fs:__except_list, ecx
	pop	edi
	pop	esi
	pop	ebx
	add	esp, 240				; 000000f0H
	cmp	ebp, esp
	call	__RTC_CheckEsp
	mov	esp, ebp
	pop	ebp
	ret	8
$L95027:
	DD	1
	DD	$L95026
$L95026:
	DD	-32					; ffffffe0H
	DD	4
	DD	$L95024
$L95024:
	DB	114					; 00000072H
	DB	101					; 00000065H
	DB	115					; 00000073H
	DB	117					; 00000075H
	DB	108					; 0000006cH
	DB	116					; 00000074H
	DB	0
_TEXT	ENDS
;	COMDAT text$x
text$x	SEGMENT
__unwindfunclet$?GetUserDictionary@CWSpell@@QAE?AV?$CStringT@GV?$StrTraitMFC@GV?$ChTraitsCRT@G@ATL@@@@@ATL@@F@Z$0:
	lea	ecx, DWORD PTR _result$[ebp]
	jmp	??1?$CStringT@GV?$StrTraitMFC@GV?$ChTraitsCRT@G@ATL@@@@@ATL@@QAE@XZ ; ATL::CStringT<unsigned short,StrTraitMFC<unsigned short,ATL::ChTraitsCRT<unsigned short> > >::~CStringT<unsigned short,StrTraitMFC<unsigned short,ATL::ChTraitsCRT<unsigned short> > >
__ehhandler$?GetUserDictionary@CWSpell@@QAE?AV?$CStringT@GV?$StrTraitMFC@GV?$ChTraitsCRT@G@ATL@@@@@ATL@@F@Z:
	mov	eax, OFFSET FLAT:__ehfuncinfo$?GetUserDictionary@CWSpell@@QAE?AV?$CStringT@GV?$StrTraitMFC@GV?$ChTraitsCRT@G@ATL@@@@@ATL@@F@Z
	jmp	___CxxFrameHandler
text$x	ENDS
?GetUserDictionary@CWSpell@@QAE?AV?$CStringT@GV?$StrTraitMFC@GV?$ChTraitsCRT@G@ATL@@@@@ATL@@F@Z ENDP ; CWSpell::GetUserDictionary
PUBLIC	?AddMainDictionary@CWSpell@@QAEXPBG@Z		; CWSpell::AddMainDictionary
; Function compile flags: /Odt /RTCcsu /ZI
;	COMDAT ?AddMainDictionary@CWSpell@@QAEXPBG@Z
_TEXT	SEGMENT
_this$ = -8						; size = 4
_fileName$ = 8						; size = 4
?AddMainDictionary@CWSpell@@QAEXPBG@Z PROC NEAR		; CWSpell::AddMainDictionary, COMDAT
; _this$ = ecx

; 752  : {

	push	ebp
	mov	ebp, esp
	sub	esp, 204				; 000000ccH
	push	ebx
	push	esi
	push	edi
	push	ecx
	lea	edi, DWORD PTR [ebp-204]
	mov	ecx, 51					; 00000033H
	mov	eax, -858993460				; ccccccccH
	rep stosd
	pop	ecx
	mov	DWORD PTR _this$[ebp], ecx

; 753  : 	static BYTE parms[] =
; 754  : 		VTS_BSTR;
; 755  : 	InvokeHelper(0x37, DISPATCH_METHOD, VT_EMPTY, NULL, parms,
; 756  : 		 fileName);

	mov	eax, DWORD PTR _fileName$[ebp]
	push	eax
	push	OFFSET FLAT:?parms@?1??AddMainDictionary@CWSpell@@QAEXPBG@Z@4PAEA
	push	0
	push	0
	push	1
	push	55					; 00000037H
	mov	ecx, DWORD PTR _this$[ebp]
	push	ecx
	call	?InvokeHelper@CWnd@@QAAXJGGPAXPBEZZ	; CWnd::InvokeHelper
	add	esp, 28					; 0000001cH

; 757  : }

	pop	edi
	pop	esi
	pop	ebx
	add	esp, 204				; 000000ccH
	cmp	ebp, esp
	call	__RTC_CheckEsp
	mov	esp, ebp
	pop	ebp
	ret	4
?AddMainDictionary@CWSpell@@QAEXPBG@Z ENDP		; CWSpell::AddMainDictionary
_TEXT	ENDS
PUBLIC	?AddUserDictionary@CWSpell@@QAEXPBG@Z		; CWSpell::AddUserDictionary
; Function compile flags: /Odt /RTCcsu /ZI
;	COMDAT ?AddUserDictionary@CWSpell@@QAEXPBG@Z
_TEXT	SEGMENT
_this$ = -8						; size = 4
_fileName$ = 8						; size = 4
?AddUserDictionary@CWSpell@@QAEXPBG@Z PROC NEAR		; CWSpell::AddUserDictionary, COMDAT
; _this$ = ecx

; 760  : {

	push	ebp
	mov	ebp, esp
	sub	esp, 204				; 000000ccH
	push	ebx
	push	esi
	push	edi
	push	ecx
	lea	edi, DWORD PTR [ebp-204]
	mov	ecx, 51					; 00000033H
	mov	eax, -858993460				; ccccccccH
	rep stosd
	pop	ecx
	mov	DWORD PTR _this$[ebp], ecx

; 761  : 	static BYTE parms[] =
; 762  : 		VTS_BSTR;
; 763  : 	InvokeHelper(0x38, DISPATCH_METHOD, VT_EMPTY, NULL, parms,
; 764  : 		 fileName);

	mov	eax, DWORD PTR _fileName$[ebp]
	push	eax
	push	OFFSET FLAT:?parms@?1??AddUserDictionary@CWSpell@@QAEXPBG@Z@4PAEA
	push	0
	push	0
	push	1
	push	56					; 00000038H
	mov	ecx, DWORD PTR _this$[ebp]
	push	ecx
	call	?InvokeHelper@CWnd@@QAAXJGGPAXPBEZZ	; CWnd::InvokeHelper
	add	esp, 28					; 0000001cH

; 765  : }

	pop	edi
	pop	esi
	pop	ebx
	add	esp, 204				; 000000ccH
	cmp	ebp, esp
	call	__RTC_CheckEsp
	mov	esp, ebp
	pop	ebp
	ret	4
?AddUserDictionary@CWSpell@@QAEXPBG@Z ENDP		; CWSpell::AddUserDictionary
_TEXT	ENDS
PUBLIC	?ClearTempDictionary@CWSpell@@QAEXXZ		; CWSpell::ClearTempDictionary
; Function compile flags: /Odt /RTCcsu /ZI
;	COMDAT ?ClearTempDictionary@CWSpell@@QAEXXZ
_TEXT	SEGMENT
_this$ = -8						; size = 4
?ClearTempDictionary@CWSpell@@QAEXXZ PROC NEAR		; CWSpell::ClearTempDictionary, COMDAT
; _this$ = ecx

; 768  : {

	push	ebp
	mov	ebp, esp
	sub	esp, 204				; 000000ccH
	push	ebx
	push	esi
	push	edi
	push	ecx
	lea	edi, DWORD PTR [ebp-204]
	mov	ecx, 51					; 00000033H
	mov	eax, -858993460				; ccccccccH
	rep stosd
	pop	ecx
	mov	DWORD PTR _this$[ebp], ecx

; 769  : 	InvokeHelper(0x39, DISPATCH_METHOD, VT_EMPTY, NULL, NULL);

	push	0
	push	0
	push	0
	push	1
	push	57					; 00000039H
	mov	eax, DWORD PTR _this$[ebp]
	push	eax
	call	?InvokeHelper@CWnd@@QAAXJGGPAXPBEZZ	; CWnd::InvokeHelper
	add	esp, 24					; 00000018H

; 770  : }

	pop	edi
	pop	esi
	pop	ebx
	add	esp, 204				; 000000ccH
	cmp	ebp, esp
	call	__RTC_CheckEsp
	mov	esp, ebp
	pop	ebp
	ret	0
?ClearTempDictionary@CWSpell@@QAEXXZ ENDP		; CWSpell::ClearTempDictionary
_TEXT	ENDS
PUBLIC	?Close@CWSpell@@QAEXXZ				; CWSpell::Close
; Function compile flags: /Odt /RTCcsu /ZI
;	COMDAT ?Close@CWSpell@@QAEXXZ
_TEXT	SEGMENT
_this$ = -8						; size = 4
?Close@CWSpell@@QAEXXZ PROC NEAR			; CWSpell::Close, COMDAT
; _this$ = ecx

; 773  : {

	push	ebp
	mov	ebp, esp
	sub	esp, 204				; 000000ccH
	push	ebx
	push	esi
	push	edi
	push	ecx
	lea	edi, DWORD PTR [ebp-204]
	mov	ecx, 51					; 00000033H
	mov	eax, -858993460				; ccccccccH
	rep stosd
	pop	ecx
	mov	DWORD PTR _this$[ebp], ecx

; 774  : 	InvokeHelper(0x3a, DISPATCH_METHOD, VT_EMPTY, NULL, NULL);

	push	0
	push	0
	push	0
	push	1
	push	58					; 0000003aH
	mov	eax, DWORD PTR _this$[ebp]
	push	eax
	call	?InvokeHelper@CWnd@@QAAXJGGPAXPBEZZ	; CWnd::InvokeHelper
	add	esp, 24					; 00000018H

; 775  : }

	pop	edi
	pop	esi
	pop	ebx
	add	esp, 204				; 000000ccH
	cmp	ebp, esp
	call	__RTC_CheckEsp
	mov	esp, ebp
	pop	ebp
	ret	0
?Close@CWSpell@@QAEXXZ ENDP				; CWSpell::Close
_TEXT	ENDS
PUBLIC	?CreateUserDictionary@CWSpell@@QAEFPBGF@Z	; CWSpell::CreateUserDictionary
; Function compile flags: /Odt /RTCcsu /ZI
;	COMDAT ?CreateUserDictionary@CWSpell@@QAEFPBGF@Z
_TEXT	SEGMENT
_result$ = -20						; size = 2
_this$ = -8						; size = 4
_fileName$ = 8						; size = 4
_language$ = 12						; size = 2
?CreateUserDictionary@CWSpell@@QAEFPBGF@Z PROC NEAR	; CWSpell::CreateUserDictionary, COMDAT
; _this$ = ecx

; 778  : {

	push	ebp
	mov	ebp, esp
	sub	esp, 216				; 000000d8H
	push	ebx
	push	esi
	push	edi
	push	ecx
	lea	edi, DWORD PTR [ebp-216]
	mov	ecx, 54					; 00000036H
	mov	eax, -858993460				; ccccccccH
	rep stosd
	pop	ecx
	mov	DWORD PTR _this$[ebp], ecx

; 779  : 	short result;
; 780  : 	static BYTE parms[] =
; 781  : 		VTS_BSTR VTS_I2;
; 782  : 	InvokeHelper(0x3b, DISPATCH_METHOD, VT_I2, (void*)&result, parms,
; 783  : 		fileName, language);

	movsx	eax, WORD PTR _language$[ebp]
	push	eax
	mov	ecx, DWORD PTR _fileName$[ebp]
	push	ecx
	push	OFFSET FLAT:?parms@?1??CreateUserDictionary@CWSpell@@QAEFPBGF@Z@4PAEA
	lea	edx, DWORD PTR _result$[ebp]
	push	edx
	push	2
	push	1
	push	59					; 0000003bH
	mov	eax, DWORD PTR _this$[ebp]
	push	eax
	call	?InvokeHelper@CWnd@@QAAXJGGPAXPBEZZ	; CWnd::InvokeHelper
	add	esp, 32					; 00000020H

; 784  : 	return result;

	mov	ax, WORD PTR _result$[ebp]

; 785  : }

	push	edx
	mov	ecx, ebp
	push	eax
	lea	edx, DWORD PTR $L95043
	call	@_RTC_CheckStackVars@8
	pop	eax
	pop	edx
	pop	edi
	pop	esi
	pop	ebx
	add	esp, 216				; 000000d8H
	cmp	ebp, esp
	call	__RTC_CheckEsp
	mov	esp, ebp
	pop	ebp
	ret	8
$L95043:
	DD	1
	DD	$L95042
$L95042:
	DD	-20					; ffffffecH
	DD	2
	DD	$L95041
$L95041:
	DB	114					; 00000072H
	DB	101					; 00000065H
	DB	115					; 00000073H
	DB	117					; 00000075H
	DB	108					; 0000006cH
	DB	116					; 00000074H
	DB	0
?CreateUserDictionary@CWSpell@@QAEFPBGF@Z ENDP		; CWSpell::CreateUserDictionary
_TEXT	ENDS
PUBLIC	?DeleteFromUserDictionary@CWSpell@@QAEXPBG0@Z	; CWSpell::DeleteFromUserDictionary
; Function compile flags: /Odt /RTCcsu /ZI
;	COMDAT ?DeleteFromUserDictionary@CWSpell@@QAEXPBG0@Z
_TEXT	SEGMENT
_this$ = -8						; size = 4
_userDictFile$ = 8					; size = 4
_word$ = 12						; size = 4
?DeleteFromUserDictionary@CWSpell@@QAEXPBG0@Z PROC NEAR	; CWSpell::DeleteFromUserDictionary, COMDAT
; _this$ = ecx

; 788  : {

	push	ebp
	mov	ebp, esp
	sub	esp, 204				; 000000ccH
	push	ebx
	push	esi
	push	edi
	push	ecx
	lea	edi, DWORD PTR [ebp-204]
	mov	ecx, 51					; 00000033H
	mov	eax, -858993460				; ccccccccH
	rep stosd
	pop	ecx
	mov	DWORD PTR _this$[ebp], ecx

; 789  : 	static BYTE parms[] =
; 790  : 		VTS_BSTR VTS_BSTR;
; 791  : 	InvokeHelper(0x3c, DISPATCH_METHOD, VT_EMPTY, NULL, parms,
; 792  : 		 userDictFile, word);

	mov	eax, DWORD PTR _word$[ebp]
	push	eax
	mov	ecx, DWORD PTR _userDictFile$[ebp]
	push	ecx
	push	OFFSET FLAT:?parms@?1??DeleteFromUserDictionary@CWSpell@@QAEXPBG0@Z@4PAEA
	push	0
	push	0
	push	1
	push	60					; 0000003cH
	mov	edx, DWORD PTR _this$[ebp]
	push	edx
	call	?InvokeHelper@CWnd@@QAAXJGGPAXPBEZZ	; CWnd::InvokeHelper
	add	esp, 32					; 00000020H

; 793  : }

	pop	edi
	pop	esi
	pop	ebx
	add	esp, 204				; 000000ccH
	cmp	ebp, esp
	call	__RTC_CheckEsp
	mov	esp, ebp
	pop	ebp
	ret	8
?DeleteFromUserDictionary@CWSpell@@QAEXPBG0@Z ENDP	; CWSpell::DeleteFromUserDictionary
_TEXT	ENDS
PUBLIC	?IgnoreAllWord@CWSpell@@QAEXXZ			; CWSpell::IgnoreAllWord
; Function compile flags: /Odt /RTCcsu /ZI
;	COMDAT ?IgnoreAllWord@CWSpell@@QAEXXZ
_TEXT	SEGMENT
_this$ = -8						; size = 4
?IgnoreAllWord@CWSpell@@QAEXXZ PROC NEAR		; CWSpell::IgnoreAllWord, COMDAT
; _this$ = ecx

; 796  : {

	push	ebp
	mov	ebp, esp
	sub	esp, 204				; 000000ccH
	push	ebx
	push	esi
	push	edi
	push	ecx
	lea	edi, DWORD PTR [ebp-204]
	mov	ecx, 51					; 00000033H
	mov	eax, -858993460				; ccccccccH
	rep stosd
	pop	ecx
	mov	DWORD PTR _this$[ebp], ecx

; 797  : 	InvokeHelper(0x3d, DISPATCH_METHOD, VT_EMPTY, NULL, NULL);

	push	0
	push	0
	push	0
	push	1
	push	61					; 0000003dH
	mov	eax, DWORD PTR _this$[ebp]
	push	eax
	call	?InvokeHelper@CWnd@@QAAXJGGPAXPBEZZ	; CWnd::InvokeHelper
	add	esp, 24					; 00000018H

; 798  : }

	pop	edi
	pop	esi
	pop	ebx
	add	esp, 204				; 000000ccH
	cmp	ebp, esp
	call	__RTC_CheckEsp
	mov	esp, ebp
	pop	ebp
	ret	0
?IgnoreAllWord@CWSpell@@QAEXXZ ENDP			; CWSpell::IgnoreAllWord
_TEXT	ENDS
PUBLIC	?IgnoreWord@CWSpell@@QAEXXZ			; CWSpell::IgnoreWord
; Function compile flags: /Odt /RTCcsu /ZI
;	COMDAT ?IgnoreWord@CWSpell@@QAEXXZ
_TEXT	SEGMENT
_this$ = -8						; size = 4
?IgnoreWord@CWSpell@@QAEXXZ PROC NEAR			; CWSpell::IgnoreWord, COMDAT
; _this$ = ecx

; 801  : {

	push	ebp
	mov	ebp, esp
	sub	esp, 204				; 000000ccH
	push	ebx
	push	esi
	push	edi
	push	ecx
	lea	edi, DWORD PTR [ebp-204]
	mov	ecx, 51					; 00000033H
	mov	eax, -858993460				; ccccccccH
	rep stosd
	pop	ecx
	mov	DWORD PTR _this$[ebp], ecx

; 802  : 	InvokeHelper(0x3e, DISPATCH_METHOD, VT_EMPTY, NULL, NULL);

	push	0
	push	0
	push	0
	push	1
	push	62					; 0000003eH
	mov	eax, DWORD PTR _this$[ebp]
	push	eax
	call	?InvokeHelper@CWnd@@QAAXJGGPAXPBEZZ	; CWnd::InvokeHelper
	add	esp, 24					; 00000018H

; 803  : }

	pop	edi
	pop	esi
	pop	ebx
	add	esp, 204				; 000000ccH
	cmp	ebp, esp
	call	__RTC_CheckEsp
	mov	esp, ebp
	pop	ebp
	ret	0
?IgnoreWord@CWSpell@@QAEXXZ ENDP			; CWSpell::IgnoreWord
_TEXT	ENDS
PUBLIC	?NextWord@CWSpell@@QAEHXZ			; CWSpell::NextWord
; Function compile flags: /Odt /RTCcsu /ZI
;	COMDAT ?NextWord@CWSpell@@QAEHXZ
_TEXT	SEGMENT
_result$ = -20						; size = 4
_this$ = -8						; size = 4
?NextWord@CWSpell@@QAEHXZ PROC NEAR			; CWSpell::NextWord, COMDAT
; _this$ = ecx

; 806  : {

	push	ebp
	mov	ebp, esp
	sub	esp, 216				; 000000d8H
	push	ebx
	push	esi
	push	edi
	push	ecx
	lea	edi, DWORD PTR [ebp-216]
	mov	ecx, 54					; 00000036H
	mov	eax, -858993460				; ccccccccH
	rep stosd
	pop	ecx
	mov	DWORD PTR _this$[ebp], ecx

; 807  : 	BOOL result;
; 808  : 	InvokeHelper(0x3f, DISPATCH_METHOD, VT_BOOL, (void*)&result, NULL);

	push	0
	lea	eax, DWORD PTR _result$[ebp]
	push	eax
	push	11					; 0000000bH
	push	1
	push	63					; 0000003fH
	mov	ecx, DWORD PTR _this$[ebp]
	push	ecx
	call	?InvokeHelper@CWnd@@QAAXJGGPAXPBEZZ	; CWnd::InvokeHelper
	add	esp, 24					; 00000018H

; 809  : 	return result;

	mov	eax, DWORD PTR _result$[ebp]

; 810  : }

	push	edx
	mov	ecx, ebp
	push	eax
	lea	edx, DWORD PTR $L95054
	call	@_RTC_CheckStackVars@8
	pop	eax
	pop	edx
	pop	edi
	pop	esi
	pop	ebx
	add	esp, 216				; 000000d8H
	cmp	ebp, esp
	call	__RTC_CheckEsp
	mov	esp, ebp
	pop	ebp
	ret	0
$L95054:
	DD	1
	DD	$L95053
$L95053:
	DD	-20					; ffffffecH
	DD	4
	DD	$L95052
$L95052:
	DB	114					; 00000072H
	DB	101					; 00000065H
	DB	115					; 00000073H
	DB	117					; 00000075H
	DB	108					; 0000006cH
	DB	116					; 00000074H
	DB	0
?NextWord@CWSpell@@QAEHXZ ENDP				; CWSpell::NextWord
_TEXT	ENDS
PUBLIC	?RemoveMainDictionary@CWSpell@@QAEXPBG@Z	; CWSpell::RemoveMainDictionary
; Function compile flags: /Odt /RTCcsu /ZI
;	COMDAT ?RemoveMainDictionary@CWSpell@@QAEXPBG@Z
_TEXT	SEGMENT
_this$ = -8						; size = 4
_mainDictFile$ = 8					; size = 4
?RemoveMainDictionary@CWSpell@@QAEXPBG@Z PROC NEAR	; CWSpell::RemoveMainDictionary, COMDAT
; _this$ = ecx

; 813  : {

	push	ebp
	mov	ebp, esp
	sub	esp, 204				; 000000ccH
	push	ebx
	push	esi
	push	edi
	push	ecx
	lea	edi, DWORD PTR [ebp-204]
	mov	ecx, 51					; 00000033H
	mov	eax, -858993460				; ccccccccH
	rep stosd
	pop	ecx
	mov	DWORD PTR _this$[ebp], ecx

; 814  : 	static BYTE parms[] =
; 815  : 		VTS_BSTR;
; 816  : 	InvokeHelper(0x40, DISPATCH_METHOD, VT_EMPTY, NULL, parms,
; 817  : 		 mainDictFile);

	mov	eax, DWORD PTR _mainDictFile$[ebp]
	push	eax
	push	OFFSET FLAT:?parms@?1??RemoveMainDictionary@CWSpell@@QAEXPBG@Z@4PAEA
	push	0
	push	0
	push	1
	push	64					; 00000040H
	mov	ecx, DWORD PTR _this$[ebp]
	push	ecx
	call	?InvokeHelper@CWnd@@QAAXJGGPAXPBEZZ	; CWnd::InvokeHelper
	add	esp, 28					; 0000001cH

; 818  : }

	pop	edi
	pop	esi
	pop	ebx
	add	esp, 204				; 000000ccH
	cmp	ebp, esp
	call	__RTC_CheckEsp
	mov	esp, ebp
	pop	ebp
	ret	4
?RemoveMainDictionary@CWSpell@@QAEXPBG@Z ENDP		; CWSpell::RemoveMainDictionary
_TEXT	ENDS
PUBLIC	?RemoveUserDictionary@CWSpell@@QAEXPBG@Z	; CWSpell::RemoveUserDictionary
; Function compile flags: /Odt /RTCcsu /ZI
;	COMDAT ?RemoveUserDictionary@CWSpell@@QAEXPBG@Z
_TEXT	SEGMENT
_this$ = -8						; size = 4
_userDictFile$ = 8					; size = 4
?RemoveUserDictionary@CWSpell@@QAEXPBG@Z PROC NEAR	; CWSpell::RemoveUserDictionary, COMDAT
; _this$ = ecx

; 821  : {

	push	ebp
	mov	ebp, esp
	sub	esp, 204				; 000000ccH
	push	ebx
	push	esi
	push	edi
	push	ecx
	lea	edi, DWORD PTR [ebp-204]
	mov	ecx, 51					; 00000033H
	mov	eax, -858993460				; ccccccccH
	rep stosd
	pop	ecx
	mov	DWORD PTR _this$[ebp], ecx

; 822  : 	static BYTE parms[] =
; 823  : 		VTS_BSTR;
; 824  : 	InvokeHelper(0x41, DISPATCH_METHOD, VT_EMPTY, NULL, parms,
; 825  : 		 userDictFile);

	mov	eax, DWORD PTR _userDictFile$[ebp]
	push	eax
	push	OFFSET FLAT:?parms@?1??RemoveUserDictionary@CWSpell@@QAEXPBG@Z@4PAEA
	push	0
	push	0
	push	1
	push	65					; 00000041H
	mov	ecx, DWORD PTR _this$[ebp]
	push	ecx
	call	?InvokeHelper@CWnd@@QAAXJGGPAXPBEZZ	; CWnd::InvokeHelper
	add	esp, 28					; 0000001cH

; 826  : }

	pop	edi
	pop	esi
	pop	ebx
	add	esp, 204				; 000000ccH
	cmp	ebp, esp
	call	__RTC_CheckEsp
	mov	esp, ebp
	pop	ebp
	ret	4
?RemoveUserDictionary@CWSpell@@QAEXPBG@Z ENDP		; CWSpell::RemoveUserDictionary
_TEXT	ENDS
PUBLIC	?ReplaceAllWord@CWSpell@@QAEFXZ			; CWSpell::ReplaceAllWord
; Function compile flags: /Odt /RTCcsu /ZI
;	COMDAT ?ReplaceAllWord@CWSpell@@QAEFXZ
_TEXT	SEGMENT
_result$ = -20						; size = 2
_this$ = -8						; size = 4
?ReplaceAllWord@CWSpell@@QAEFXZ PROC NEAR		; CWSpell::ReplaceAllWord, COMDAT
; _this$ = ecx

; 829  : {

	push	ebp
	mov	ebp, esp
	sub	esp, 216				; 000000d8H
	push	ebx
	push	esi
	push	edi
	push	ecx
	lea	edi, DWORD PTR [ebp-216]
	mov	ecx, 54					; 00000036H
	mov	eax, -858993460				; ccccccccH
	rep stosd
	pop	ecx
	mov	DWORD PTR _this$[ebp], ecx

; 830  : 	short result;
; 831  : 	InvokeHelper(0x42, DISPATCH_METHOD, VT_I2, (void*)&result, NULL);

	push	0
	lea	eax, DWORD PTR _result$[ebp]
	push	eax
	push	2
	push	1
	push	66					; 00000042H
	mov	ecx, DWORD PTR _this$[ebp]
	push	ecx
	call	?InvokeHelper@CWnd@@QAAXJGGPAXPBEZZ	; CWnd::InvokeHelper
	add	esp, 24					; 00000018H

; 832  : 	return result;

	mov	ax, WORD PTR _result$[ebp]

; 833  : }

	push	edx
	mov	ecx, ebp
	push	eax
	lea	edx, DWORD PTR $L95063
	call	@_RTC_CheckStackVars@8
	pop	eax
	pop	edx
	pop	edi
	pop	esi
	pop	ebx
	add	esp, 216				; 000000d8H
	cmp	ebp, esp
	call	__RTC_CheckEsp
	mov	esp, ebp
	pop	ebp
	ret	0
$L95063:
	DD	1
	DD	$L95062
$L95062:
	DD	-20					; ffffffecH
	DD	2
	DD	$L95061
$L95061:
	DB	114					; 00000072H
	DB	101					; 00000065H
	DB	115					; 00000073H
	DB	117					; 00000075H
	DB	108					; 0000006cH
	DB	116					; 00000074H
	DB	0
?ReplaceAllWord@CWSpell@@QAEFXZ ENDP			; CWSpell::ReplaceAllWord
_TEXT	ENDS
PUBLIC	?ReplaceWord@CWSpell@@QAEFXZ			; CWSpell::ReplaceWord
; Function compile flags: /Odt /RTCcsu /ZI
;	COMDAT ?ReplaceWord@CWSpell@@QAEFXZ
_TEXT	SEGMENT
_result$ = -20						; size = 2
_this$ = -8						; size = 4
?ReplaceWord@CWSpell@@QAEFXZ PROC NEAR			; CWSpell::ReplaceWord, COMDAT
; _this$ = ecx

; 836  : {

	push	ebp
	mov	ebp, esp
	sub	esp, 216				; 000000d8H
	push	ebx
	push	esi
	push	edi
	push	ecx
	lea	edi, DWORD PTR [ebp-216]
	mov	ecx, 54					; 00000036H
	mov	eax, -858993460				; ccccccccH
	rep stosd
	pop	ecx
	mov	DWORD PTR _this$[ebp], ecx

; 837  : 	short result;
; 838  : 	InvokeHelper(0x43, DISPATCH_METHOD, VT_I2, (void*)&result, NULL);

	push	0
	lea	eax, DWORD PTR _result$[ebp]
	push	eax
	push	2
	push	1
	push	67					; 00000043H
	mov	ecx, DWORD PTR _this$[ebp]
	push	ecx
	call	?InvokeHelper@CWnd@@QAAXJGGPAXPBEZZ	; CWnd::InvokeHelper
	add	esp, 24					; 00000018H

; 839  : 	return result;

	mov	ax, WORD PTR _result$[ebp]

; 840  : }

	push	edx
	mov	ecx, ebp
	push	eax
	lea	edx, DWORD PTR $L95068
	call	@_RTC_CheckStackVars@8
	pop	eax
	pop	edx
	pop	edi
	pop	esi
	pop	ebx
	add	esp, 216				; 000000d8H
	cmp	ebp, esp
	call	__RTC_CheckEsp
	mov	esp, ebp
	pop	ebp
	ret	0
$L95068:
	DD	1
	DD	$L95067
$L95067:
	DD	-20					; ffffffecH
	DD	2
	DD	$L95066
$L95066:
	DB	114					; 00000072H
	DB	101					; 00000065H
	DB	115					; 00000073H
	DB	117					; 00000075H
	DB	108					; 0000006cH
	DB	116					; 00000074H
	DB	0
?ReplaceWord@CWSpell@@QAEFXZ ENDP			; CWSpell::ReplaceWord
_TEXT	ENDS
PUBLIC	?Resume@CWSpell@@QAEFXZ				; CWSpell::Resume
; Function compile flags: /Odt /RTCcsu /ZI
;	COMDAT ?Resume@CWSpell@@QAEFXZ
_TEXT	SEGMENT
_result$ = -20						; size = 2
_this$ = -8						; size = 4
?Resume@CWSpell@@QAEFXZ PROC NEAR			; CWSpell::Resume, COMDAT
; _this$ = ecx

; 843  : {

	push	ebp
	mov	ebp, esp
	sub	esp, 216				; 000000d8H
	push	ebx
	push	esi
	push	edi
	push	ecx
	lea	edi, DWORD PTR [ebp-216]
	mov	ecx, 54					; 00000036H
	mov	eax, -858993460				; ccccccccH
	rep stosd
	pop	ecx
	mov	DWORD PTR _this$[ebp], ecx

; 844  : 	short result;
; 845  : 	InvokeHelper(0x44, DISPATCH_METHOD, VT_I2, (void*)&result, NULL);

	push	0
	lea	eax, DWORD PTR _result$[ebp]
	push	eax
	push	2
	push	1
	push	68					; 00000044H
	mov	ecx, DWORD PTR _this$[ebp]
	push	ecx
	call	?InvokeHelper@CWnd@@QAAXJGGPAXPBEZZ	; CWnd::InvokeHelper
	add	esp, 24					; 00000018H

; 846  : 	return result;

	mov	ax, WORD PTR _result$[ebp]

; 847  : }

	push	edx
	mov	ecx, ebp
	push	eax
	lea	edx, DWORD PTR $L95073
	call	@_RTC_CheckStackVars@8
	pop	eax
	pop	edx
	pop	edi
	pop	esi
	pop	ebx
	add	esp, 216				; 000000d8H
	cmp	ebp, esp
	call	__RTC_CheckEsp
	mov	esp, ebp
	pop	ebp
	ret	0
$L95073:
	DD	1
	DD	$L95072
$L95072:
	DD	-20					; ffffffecH
	DD	2
	DD	$L95071
$L95071:
	DB	114					; 00000072H
	DB	101					; 00000065H
	DB	115					; 00000073H
	DB	117					; 00000075H
	DB	108					; 0000006cH
	DB	116					; 00000074H
	DB	0
?Resume@CWSpell@@QAEFXZ ENDP				; CWSpell::Resume
_TEXT	ENDS
PUBLIC	??B?$CSimpleStringT@G$0A@@ATL@@QBEPBGXZ		; ATL::CSimpleStringT<unsigned short,0>::operator unsigned short const *
PUBLIC	??_C@_0M@EOPAGCHG@userdic?4tlx?$AA@		; `string'
PUBLIC	?Start@CWSpell@@QAEFXZ				; CWSpell::Start
;	COMDAT xdata$x
xdata$x	SEGMENT
__unwindtable$?Start@CWSpell@@QAEFXZ DD 0ffffffffH
	DD	FLAT:__unwindfunclet$?Start@CWSpell@@QAEFXZ$0
	DD	0ffffffffH
	DD	FLAT:__unwindfunclet$?Start@CWSpell@@QAEFXZ$1
__ehfuncinfo$?Start@CWSpell@@QAEFXZ DD 019930520H
	DD	02H
	DD	FLAT:__unwindtable$?Start@CWSpell@@QAEFXZ
	DD	2 DUP(00H)
	DD	2 DUP(00H)
xdata$x	ENDS
;	COMDAT ??_C@_0M@EOPAGCHG@userdic?4tlx?$AA@
CONST	SEGMENT
??_C@_0M@EOPAGCHG@userdic?4tlx?$AA@ DB 'userdic.tlx', 00H ; `string'
; Function compile flags: /Odt /RTCcsu /ZI
CONST	ENDS
;	COMDAT ?Start@CWSpell@@QAEFXZ
_TEXT	SEGMENT
tv91 = -260						; size = 4
tv89 = -260						; size = 4
tv93 = -256						; size = 4
tv92 = -256						; size = 4
$T95076 = -248						; size = 4
$T95077 = -236						; size = 4
_result$ = -32						; size = 2
_this$ = -20						; size = 4
__$EHRec$ = -12						; size = 12
?Start@CWSpell@@QAEFXZ PROC NEAR			; CWSpell::Start, COMDAT
; _this$ = ecx

; 850  : {

	push	ebp
	mov	ebp, esp
	push	-1
	push	__ehhandler$?Start@CWSpell@@QAEFXZ
	mov	eax, DWORD PTR fs:__except_list
	push	eax
	mov	DWORD PTR fs:__except_list, esp
	sub	esp, 248				; 000000f8H
	push	ebx
	push	esi
	push	edi
	push	ecx
	lea	edi, DWORD PTR [ebp-260]
	mov	ecx, 62					; 0000003eH
	mov	eax, -858993460				; ccccccccH
	rep stosd
	pop	ecx
	mov	DWORD PTR _this$[ebp], ecx

; 851  : 	short result;
; 852  : 	SetMainDictionaryFiles(MakeDics());

	lea	eax, DWORD PTR $T95076[ebp]
	push	eax
	call	?MakeDics@@YA?AV?$CStringT@GV?$StrTraitMFC@GV?$ChTraitsCRT@G@ATL@@@@@ATL@@XZ ; MakeDics
	add	esp, 4
	mov	DWORD PTR tv92[ebp], eax
	mov	ecx, DWORD PTR tv92[ebp]
	mov	DWORD PTR tv89[ebp], ecx
	mov	DWORD PTR __$EHRec$[ebp+8], 0
	mov	ecx, DWORD PTR tv89[ebp]
	call	??B?$CSimpleStringT@G$0A@@ATL@@QBEPBGXZ	; ATL::CSimpleStringT<unsigned short,0>::operator unsigned short const *
	push	eax
	mov	ecx, DWORD PTR _this$[ebp]
	call	?SetMainDictionaryFiles@CWSpell@@QAEXPBG@Z ; CWSpell::SetMainDictionaryFiles
	mov	DWORD PTR __$EHRec$[ebp+8], -1
	lea	ecx, DWORD PTR $T95076[ebp]
	call	??1?$CStringT@GV?$StrTraitMFC@GV?$ChTraitsCRT@G@ATL@@@@@ATL@@QAE@XZ ; ATL::CStringT<unsigned short,StrTraitMFC<unsigned short,ATL::ChTraitsCRT<unsigned short> > >::~CStringT<unsigned short,StrTraitMFC<unsigned short,ATL::ChTraitsCRT<unsigned short> > >

; 853  : 	AddUserDictionary(MakeName("userdic.tlx",1));

	push	1
	push	OFFSET FLAT:??_C@_0M@EOPAGCHG@userdic?4tlx?$AA@
	lea	eax, DWORD PTR $T95077[ebp]
	push	eax
	call	?MakeName@@YA?AV?$CStringT@GV?$StrTraitMFC@GV?$ChTraitsCRT@G@ATL@@@@@ATL@@PADH@Z ; MakeName
	add	esp, 12					; 0000000cH
	mov	DWORD PTR tv93[ebp], eax
	mov	ecx, DWORD PTR tv93[ebp]
	mov	DWORD PTR tv91[ebp], ecx
	mov	DWORD PTR __$EHRec$[ebp+8], 1
	mov	ecx, DWORD PTR tv91[ebp]
	call	??B?$CSimpleStringT@G$0A@@ATL@@QBEPBGXZ	; ATL::CSimpleStringT<unsigned short,0>::operator unsigned short const *
	push	eax
	mov	ecx, DWORD PTR _this$[ebp]
	call	?AddUserDictionary@CWSpell@@QAEXPBG@Z	; CWSpell::AddUserDictionary
	mov	DWORD PTR __$EHRec$[ebp+8], -1
	lea	ecx, DWORD PTR $T95077[ebp]
	call	??1?$CStringT@GV?$StrTraitMFC@GV?$ChTraitsCRT@G@ATL@@@@@ATL@@QAE@XZ ; ATL::CStringT<unsigned short,StrTraitMFC<unsigned short,ATL::ChTraitsCRT<unsigned short> > >::~CStringT<unsigned short,StrTraitMFC<unsigned short,ATL::ChTraitsCRT<unsigned short> > >

; 854  : 	InvokeHelper(0x45, DISPATCH_METHOD, VT_I2, (void*)&result, NULL);

	push	0
	lea	eax, DWORD PTR _result$[ebp]
	push	eax
	push	2
	push	1
	push	69					; 00000045H
	mov	ecx, DWORD PTR _this$[ebp]
	push	ecx
	call	?InvokeHelper@CWnd@@QAAXJGGPAXPBEZZ	; CWnd::InvokeHelper
	add	esp, 24					; 00000018H

; 855  : 	return result;

	mov	ax, WORD PTR _result$[ebp]

; 856  : }

	push	edx
	mov	ecx, ebp
	push	eax
	lea	edx, DWORD PTR $L95085
	call	@_RTC_CheckStackVars@8
	pop	eax
	pop	edx
	mov	ecx, DWORD PTR __$EHRec$[ebp]
	mov	DWORD PTR fs:__except_list, ecx
	pop	edi
	pop	esi
	pop	ebx
	add	esp, 260				; 00000104H
	cmp	ebp, esp
	call	__RTC_CheckEsp
	mov	esp, ebp
	pop	ebp
	ret	0
$L95085:
	DD	1
	DD	$L95084
$L95084:
	DD	-32					; ffffffe0H
	DD	2
	DD	$L95082
$L95082:
	DB	114					; 00000072H
	DB	101					; 00000065H
	DB	115					; 00000073H
	DB	117					; 00000075H
	DB	108					; 0000006cH
	DB	116					; 00000074H
	DB	0
_TEXT	ENDS
;	COMDAT text$x
text$x	SEGMENT
__unwindfunclet$?Start@CWSpell@@QAEFXZ$0:
	lea	ecx, DWORD PTR $T95076[ebp]
	jmp	??1?$CStringT@GV?$StrTraitMFC@GV?$ChTraitsCRT@G@ATL@@@@@ATL@@QAE@XZ ; ATL::CStringT<unsigned short,StrTraitMFC<unsigned short,ATL::ChTraitsCRT<unsigned short> > >::~CStringT<unsigned short,StrTraitMFC<unsigned short,ATL::ChTraitsCRT<unsigned short> > >
__unwindfunclet$?Start@CWSpell@@QAEFXZ$1:
	lea	ecx, DWORD PTR $T95077[ebp]
	jmp	??1?$CStringT@GV?$StrTraitMFC@GV?$ChTraitsCRT@G@ATL@@@@@ATL@@QAE@XZ ; ATL::CStringT<unsigned short,StrTraitMFC<unsigned short,ATL::ChTraitsCRT<unsigned short> > >::~CStringT<unsigned short,StrTraitMFC<unsigned short,ATL::ChTraitsCRT<unsigned short> > >
__ehhandler$?Start@CWSpell@@QAEFXZ:
	mov	eax, OFFSET FLAT:__ehfuncinfo$?Start@CWSpell@@QAEFXZ
	jmp	___CxxFrameHandler
text$x	ENDS
?Start@CWSpell@@QAEFXZ ENDP				; CWSpell::Start
PUBLIC	?Suggest@CWSpell@@QAEXXZ			; CWSpell::Suggest
; Function compile flags: /Odt /RTCcsu /ZI
;	COMDAT ?Suggest@CWSpell@@QAEXXZ
_TEXT	SEGMENT
_this$ = -8						; size = 4
?Suggest@CWSpell@@QAEXXZ PROC NEAR			; CWSpell::Suggest, COMDAT
; _this$ = ecx

; 859  : {

	push	ebp
	mov	ebp, esp
	sub	esp, 204				; 000000ccH
	push	ebx
	push	esi
	push	edi
	push	ecx
	lea	edi, DWORD PTR [ebp-204]
	mov	ecx, 51					; 00000033H
	mov	eax, -858993460				; ccccccccH
	rep stosd
	pop	ecx
	mov	DWORD PTR _this$[ebp], ecx

; 860  : 	InvokeHelper(0x46, DISPATCH_METHOD, VT_EMPTY, NULL, NULL);

	push	0
	push	0
	push	0
	push	1
	push	70					; 00000046H
	mov	eax, DWORD PTR _this$[ebp]
	push	eax
	call	?InvokeHelper@CWnd@@QAAXJGGPAXPBEZZ	; CWnd::InvokeHelper
	add	esp, 24					; 00000018H

; 861  : }

	pop	edi
	pop	esi
	pop	ebx
	add	esp, 204				; 000000ccH
	cmp	ebp, esp
	call	__RTC_CheckEsp
	mov	esp, ebp
	pop	ebp
	ret	0
?Suggest@CWSpell@@QAEXXZ ENDP				; CWSpell::Suggest
_TEXT	ENDS
PUBLIC	?TestWord@CWSpell@@QAEHPBG@Z			; CWSpell::TestWord
; Function compile flags: /Odt /RTCcsu /ZI
;	COMDAT ?TestWord@CWSpell@@QAEHPBG@Z
_TEXT	SEGMENT
_result$ = -20						; size = 4
_this$ = -8						; size = 4
_word$ = 8						; size = 4
?TestWord@CWSpell@@QAEHPBG@Z PROC NEAR			; CWSpell::TestWord, COMDAT
; _this$ = ecx

; 864  : {

	push	ebp
	mov	ebp, esp
	sub	esp, 216				; 000000d8H
	push	ebx
	push	esi
	push	edi
	push	ecx
	lea	edi, DWORD PTR [ebp-216]
	mov	ecx, 54					; 00000036H
	mov	eax, -858993460				; ccccccccH
	rep stosd
	pop	ecx
	mov	DWORD PTR _this$[ebp], ecx

; 865  : 	BOOL result;
; 866  : 	static BYTE parms[] =
; 867  : 		VTS_BSTR;
; 868  : 	InvokeHelper(0x47, DISPATCH_METHOD, VT_BOOL, (void*)&result, parms,
; 869  : 		word);

	mov	eax, DWORD PTR _word$[ebp]
	push	eax
	push	OFFSET FLAT:?parms@?1??TestWord@CWSpell@@QAEHPBG@Z@4PAEA
	lea	ecx, DWORD PTR _result$[ebp]
	push	ecx
	push	11					; 0000000bH
	push	1
	push	71					; 00000047H
	mov	edx, DWORD PTR _this$[ebp]
	push	edx
	call	?InvokeHelper@CWnd@@QAAXJGGPAXPBEZZ	; CWnd::InvokeHelper
	add	esp, 28					; 0000001cH

; 870  : 	return result;

	mov	eax, DWORD PTR _result$[ebp]

; 871  : }

	push	edx
	mov	ecx, ebp
	push	eax
	lea	edx, DWORD PTR $L95095
	call	@_RTC_CheckStackVars@8
	pop	eax
	pop	edx
	pop	edi
	pop	esi
	pop	ebx
	add	esp, 216				; 000000d8H
	cmp	ebp, esp
	call	__RTC_CheckEsp
	mov	esp, ebp
	pop	ebp
	ret	4
$L95095:
	DD	1
	DD	$L95094
$L95094:
	DD	-20					; ffffffecH
	DD	4
	DD	$L95093
$L95093:
	DB	114					; 00000072H
	DB	101					; 00000065H
	DB	115					; 00000073H
	DB	117					; 00000075H
	DB	108					; 0000006cH
	DB	116					; 00000074H
	DB	0
?TestWord@CWSpell@@QAEHPBG@Z ENDP			; CWSpell::TestWord
_TEXT	ENDS
PUBLIC	?Undo@CWSpell@@QAEXXZ				; CWSpell::Undo
; Function compile flags: /Odt /RTCcsu /ZI
;	COMDAT ?Undo@CWSpell@@QAEXXZ
_TEXT	SEGMENT
_this$ = -8						; size = 4
?Undo@CWSpell@@QAEXXZ PROC NEAR				; CWSpell::Undo, COMDAT
; _this$ = ecx

; 874  : {

	push	ebp
	mov	ebp, esp
	sub	esp, 204				; 000000ccH
	push	ebx
	push	esi
	push	edi
	push	ecx
	lea	edi, DWORD PTR [ebp-204]
	mov	ecx, 51					; 00000033H
	mov	eax, -858993460				; ccccccccH
	rep stosd
	pop	ecx
	mov	DWORD PTR _this$[ebp], ecx

; 875  : 	InvokeHelper(0x48, DISPATCH_METHOD, VT_EMPTY, NULL, NULL);

	push	0
	push	0
	push	0
	push	1
	push	72					; 00000048H
	mov	eax, DWORD PTR _this$[ebp]
	push	eax
	call	?InvokeHelper@CWnd@@QAAXJGGPAXPBEZZ	; CWnd::InvokeHelper
	add	esp, 24					; 00000018H

; 876  : }

	pop	edi
	pop	esi
	pop	ebx
	add	esp, 204				; 000000ccH
	cmp	ebp, esp
	call	__RTC_CheckEsp
	mov	esp, ebp
	pop	ebp
	ret	0
?Undo@CWSpell@@QAEXXZ ENDP				; CWSpell::Undo
_TEXT	ENDS
PUBLIC	?ShowUserDictionaryDialog@CWSpell@@QAEXXZ	; CWSpell::ShowUserDictionaryDialog
; Function compile flags: /Odt /RTCcsu /ZI
;	COMDAT ?ShowUserDictionaryDialog@CWSpell@@QAEXXZ
_TEXT	SEGMENT
_this$ = -8						; size = 4
?ShowUserDictionaryDialog@CWSpell@@QAEXXZ PROC NEAR	; CWSpell::ShowUserDictionaryDialog, COMDAT
; _this$ = ecx

; 879  : {

	push	ebp
	mov	ebp, esp
	sub	esp, 204				; 000000ccH
	push	ebx
	push	esi
	push	edi
	push	ecx
	lea	edi, DWORD PTR [ebp-204]
	mov	ecx, 51					; 00000033H
	mov	eax, -858993460				; ccccccccH
	rep stosd
	pop	ecx
	mov	DWORD PTR _this$[ebp], ecx

; 880  : 	InvokeHelper(0x49, DISPATCH_METHOD, VT_EMPTY, NULL, NULL);

	push	0
	push	0
	push	0
	push	1
	push	73					; 00000049H
	mov	eax, DWORD PTR _this$[ebp]
	push	eax
	call	?InvokeHelper@CWnd@@QAAXJGGPAXPBEZZ	; CWnd::InvokeHelper
	add	esp, 24					; 00000018H

; 881  : }

	pop	edi
	pop	esi
	pop	ebx
	add	esp, 204				; 000000ccH
	cmp	ebp, esp
	call	__RTC_CheckEsp
	mov	esp, ebp
	pop	ebp
	ret	0
?ShowUserDictionaryDialog@CWSpell@@QAEXXZ ENDP		; CWSpell::ShowUserDictionaryDialog
_TEXT	ENDS
PUBLIC	?ShowOptionsDialog@CWSpell@@QAEXXZ		; CWSpell::ShowOptionsDialog
; Function compile flags: /Odt /RTCcsu /ZI
;	COMDAT ?ShowOptionsDialog@CWSpell@@QAEXXZ
_TEXT	SEGMENT
_this$ = -8						; size = 4
?ShowOptionsDialog@CWSpell@@QAEXXZ PROC NEAR		; CWSpell::ShowOptionsDialog, COMDAT
; _this$ = ecx

; 884  : {

	push	ebp
	mov	ebp, esp
	sub	esp, 204				; 000000ccH
	push	ebx
	push	esi
	push	edi
	push	ecx
	lea	edi, DWORD PTR [ebp-204]
	mov	ecx, 51					; 00000033H
	mov	eax, -858993460				; ccccccccH
	rep stosd
	pop	ecx
	mov	DWORD PTR _this$[ebp], ecx

; 885  : 	InvokeHelper(0x4a, DISPATCH_METHOD, VT_EMPTY, NULL, NULL);

	push	0
	push	0
	push	0
	push	1
	push	74					; 0000004aH
	mov	eax, DWORD PTR _this$[ebp]
	push	eax
	call	?InvokeHelper@CWnd@@QAAXJGGPAXPBEZZ	; CWnd::InvokeHelper
	add	esp, 24					; 00000018H

; 886  : }

	pop	edi
	pop	esi
	pop	ebx
	add	esp, 204				; 000000ccH
	cmp	ebp, esp
	call	__RTC_CheckEsp
	mov	esp, ebp
	pop	ebp
	ret	0
?ShowOptionsDialog@CWSpell@@QAEXXZ ENDP			; CWSpell::ShowOptionsDialog
_TEXT	ENDS
PUBLIC	?GetUserDictionaryWord@CWSpell@@QAE?AV?$CStringT@GV?$StrTraitMFC@GV?$ChTraitsCRT@G@ATL@@@@@ATL@@PBGJ@Z ; CWSpell::GetUserDictionaryWord
;	COMDAT xdata$x
xdata$x	SEGMENT
__unwindtable$?GetUserDictionaryWord@CWSpell@@QAE?AV?$CStringT@GV?$StrTraitMFC@GV?$ChTraitsCRT@G@ATL@@@@@ATL@@PBGJ@Z DD 0ffffffffH
	DD	FLAT:__unwindfunclet$?GetUserDictionaryWord@CWSpell@@QAE?AV?$CStringT@GV?$StrTraitMFC@GV?$ChTraitsCRT@G@ATL@@@@@ATL@@PBGJ@Z$0
__ehfuncinfo$?GetUserDictionaryWord@CWSpell@@QAE?AV?$CStringT@GV?$StrTraitMFC@GV?$ChTraitsCRT@G@ATL@@@@@ATL@@PBGJ@Z DD 019930520H
	DD	01H
	DD	FLAT:__unwindtable$?GetUserDictionaryWord@CWSpell@@QAE?AV?$CStringT@GV?$StrTraitMFC@GV?$ChTraitsCRT@G@ATL@@@@@ATL@@PBGJ@Z
	DD	2 DUP(00H)
	DD	2 DUP(00H)
; Function compile flags: /Odt /RTCcsu /ZI
xdata$x	ENDS
;	COMDAT ?GetUserDictionaryWord@CWSpell@@QAE?AV?$CStringT@GV?$StrTraitMFC@GV?$ChTraitsCRT@G@ATL@@@@@ATL@@PBGJ@Z
_TEXT	SEGMENT
$T95106 = -236						; size = 4
_result$ = -32						; size = 4
_this$ = -20						; size = 4
__$EHRec$ = -12						; size = 12
___$ReturnUdt$ = 8					; size = 4
_userDict$ = 12						; size = 4
_index$ = 16						; size = 4
?GetUserDictionaryWord@CWSpell@@QAE?AV?$CStringT@GV?$StrTraitMFC@GV?$ChTraitsCRT@G@ATL@@@@@ATL@@PBGJ@Z PROC NEAR ; CWSpell::GetUserDictionaryWord, COMDAT
; _this$ = ecx

; 889  : {

	push	ebp
	mov	ebp, esp
	push	-1
	push	__ehhandler$?GetUserDictionaryWord@CWSpell@@QAE?AV?$CStringT@GV?$StrTraitMFC@GV?$ChTraitsCRT@G@ATL@@@@@ATL@@PBGJ@Z
	mov	eax, DWORD PTR fs:__except_list
	push	eax
	mov	DWORD PTR fs:__except_list, esp
	sub	esp, 228				; 000000e4H
	push	ebx
	push	esi
	push	edi
	push	ecx
	lea	edi, DWORD PTR [ebp-240]
	mov	ecx, 57					; 00000039H
	mov	eax, -858993460				; ccccccccH
	rep stosd
	pop	ecx
	mov	DWORD PTR _this$[ebp], ecx
	mov	DWORD PTR $T95106[ebp], 0

; 890  : 	CString result;

	lea	ecx, DWORD PTR _result$[ebp]
	call	??0?$CStringT@GV?$StrTraitMFC@GV?$ChTraitsCRT@G@ATL@@@@@ATL@@QAE@XZ ; ATL::CStringT<unsigned short,StrTraitMFC<unsigned short,ATL::ChTraitsCRT<unsigned short> > >::CStringT<unsigned short,StrTraitMFC<unsigned short,ATL::ChTraitsCRT<unsigned short> > >
	mov	DWORD PTR __$EHRec$[ebp+8], 0

; 891  : 	static BYTE parms[] =
; 892  : 		VTS_BSTR VTS_I4;
; 893  : 	InvokeHelper(0x53, DISPATCH_PROPERTYGET, VT_BSTR, (void*)&result, parms,
; 894  : 		userDict, index);

	mov	eax, DWORD PTR _index$[ebp]
	push	eax
	mov	ecx, DWORD PTR _userDict$[ebp]
	push	ecx
	push	OFFSET FLAT:?parms@?1??GetUserDictionaryWord@CWSpell@@QAE?AV?$CStringT@GV?$StrTraitMFC@GV?$ChTraitsCRT@G@ATL@@@@@ATL@@PBGJ@Z@4PAEA
	lea	edx, DWORD PTR _result$[ebp]
	push	edx
	push	8
	push	2
	push	83					; 00000053H
	mov	eax, DWORD PTR _this$[ebp]
	push	eax
	call	?InvokeHelper@CWnd@@QAAXJGGPAXPBEZZ	; CWnd::InvokeHelper
	add	esp, 32					; 00000020H

; 895  : 	return result;

	lea	eax, DWORD PTR _result$[ebp]
	push	eax
	mov	ecx, DWORD PTR ___$ReturnUdt$[ebp]
	call	??0?$CStringT@GV?$StrTraitMFC@GV?$ChTraitsCRT@G@ATL@@@@@ATL@@QAE@ABV01@@Z ; ATL::CStringT<unsigned short,StrTraitMFC<unsigned short,ATL::ChTraitsCRT<unsigned short> > >::CStringT<unsigned short,StrTraitMFC<unsigned short,ATL::ChTraitsCRT<unsigned short> > >
	mov	ecx, DWORD PTR $T95106[ebp]
	or	ecx, 1
	mov	DWORD PTR $T95106[ebp], ecx
	mov	DWORD PTR __$EHRec$[ebp+8], -1
	lea	ecx, DWORD PTR _result$[ebp]
	call	??1?$CStringT@GV?$StrTraitMFC@GV?$ChTraitsCRT@G@ATL@@@@@ATL@@QAE@XZ ; ATL::CStringT<unsigned short,StrTraitMFC<unsigned short,ATL::ChTraitsCRT<unsigned short> > >::~CStringT<unsigned short,StrTraitMFC<unsigned short,ATL::ChTraitsCRT<unsigned short> > >
	mov	eax, DWORD PTR ___$ReturnUdt$[ebp]

; 896  : }

	push	edx
	mov	ecx, ebp
	push	eax
	lea	edx, DWORD PTR $L95113
	call	@_RTC_CheckStackVars@8
	pop	eax
	pop	edx
	mov	ecx, DWORD PTR __$EHRec$[ebp]
	mov	DWORD PTR fs:__except_list, ecx
	pop	edi
	pop	esi
	pop	ebx
	add	esp, 240				; 000000f0H
	cmp	ebp, esp
	call	__RTC_CheckEsp
	mov	esp, ebp
	pop	ebp
	ret	12					; 0000000cH
$L95113:
	DD	1
	DD	$L95112
$L95112:
	DD	-32					; ffffffe0H
	DD	4
	DD	$L95110
$L95110:
	DB	114					; 00000072H
	DB	101					; 00000065H
	DB	115					; 00000073H
	DB	117					; 00000075H
	DB	108					; 0000006cH
	DB	116					; 00000074H
	DB	0
_TEXT	ENDS
;	COMDAT text$x
text$x	SEGMENT
__unwindfunclet$?GetUserDictionaryWord@CWSpell@@QAE?AV?$CStringT@GV?$StrTraitMFC@GV?$ChTraitsCRT@G@ATL@@@@@ATL@@PBGJ@Z$0:
	lea	ecx, DWORD PTR _result$[ebp]
	jmp	??1?$CStringT@GV?$StrTraitMFC@GV?$ChTraitsCRT@G@ATL@@@@@ATL@@QAE@XZ ; ATL::CStringT<unsigned short,StrTraitMFC<unsigned short,ATL::ChTraitsCRT<unsigned short> > >::~CStringT<unsigned short,StrTraitMFC<unsigned short,ATL::ChTraitsCRT<unsigned short> > >
__ehhandler$?GetUserDictionaryWord@CWSpell@@QAE?AV?$CStringT@GV?$StrTraitMFC@GV?$ChTraitsCRT@G@ATL@@@@@ATL@@PBGJ@Z:
	mov	eax, OFFSET FLAT:__ehfuncinfo$?GetUserDictionaryWord@CWSpell@@QAE?AV?$CStringT@GV?$StrTraitMFC@GV?$ChTraitsCRT@G@ATL@@@@@ATL@@PBGJ@Z
	jmp	___CxxFrameHandler
text$x	ENDS
?GetUserDictionaryWord@CWSpell@@QAE?AV?$CStringT@GV?$StrTraitMFC@GV?$ChTraitsCRT@G@ATL@@@@@ATL@@PBGJ@Z ENDP ; CWSpell::GetUserDictionaryWord
PUBLIC	?GetUserDictionaryWordCount@CWSpell@@QAEJPBG@Z	; CWSpell::GetUserDictionaryWordCount
; Function compile flags: /Odt /RTCcsu /ZI
;	COMDAT ?GetUserDictionaryWordCount@CWSpell@@QAEJPBG@Z
_TEXT	SEGMENT
_result$ = -20						; size = 4
_this$ = -8						; size = 4
_userDict$ = 8						; size = 4
?GetUserDictionaryWordCount@CWSpell@@QAEJPBG@Z PROC NEAR ; CWSpell::GetUserDictionaryWordCount, COMDAT
; _this$ = ecx

; 899  : {

	push	ebp
	mov	ebp, esp
	sub	esp, 216				; 000000d8H
	push	ebx
	push	esi
	push	edi
	push	ecx
	lea	edi, DWORD PTR [ebp-216]
	mov	ecx, 54					; 00000036H
	mov	eax, -858993460				; ccccccccH
	rep stosd
	pop	ecx
	mov	DWORD PTR _this$[ebp], ecx

; 900  : 	long result;
; 901  : 	static BYTE parms[] =
; 902  : 		VTS_BSTR;
; 903  : 	InvokeHelper(0x54, DISPATCH_PROPERTYGET, VT_I4, (void*)&result, parms,
; 904  : 		userDict);

	mov	eax, DWORD PTR _userDict$[ebp]
	push	eax
	push	OFFSET FLAT:?parms@?1??GetUserDictionaryWordCount@CWSpell@@QAEJPBG@Z@4PAEA
	lea	ecx, DWORD PTR _result$[ebp]
	push	ecx
	push	3
	push	2
	push	84					; 00000054H
	mov	edx, DWORD PTR _this$[ebp]
	push	edx
	call	?InvokeHelper@CWnd@@QAAXJGGPAXPBEZZ	; CWnd::InvokeHelper
	add	esp, 28					; 0000001cH

; 905  : 	return result;

	mov	eax, DWORD PTR _result$[ebp]

; 906  : }

	push	edx
	mov	ecx, ebp
	push	eax
	lea	edx, DWORD PTR $L95121
	call	@_RTC_CheckStackVars@8
	pop	eax
	pop	edx
	pop	edi
	pop	esi
	pop	ebx
	add	esp, 216				; 000000d8H
	cmp	ebp, esp
	call	__RTC_CheckEsp
	mov	esp, ebp
	pop	ebp
	ret	4
$L95121:
	DD	1
	DD	$L95120
$L95120:
	DD	-20					; ffffffecH
	DD	4
	DD	$L95119
$L95119:
	DB	114					; 00000072H
	DB	101					; 00000065H
	DB	115					; 00000073H
	DB	117					; 00000075H
	DB	108					; 0000006cH
	DB	116					; 00000074H
	DB	0
?GetUserDictionaryWordCount@CWSpell@@QAEJPBG@Z ENDP	; CWSpell::GetUserDictionaryWordCount
_TEXT	ENDS
PUBLIC	?GetUserDictionaryWordAction@CWSpell@@QAEFPBG0@Z ; CWSpell::GetUserDictionaryWordAction
; Function compile flags: /Odt /RTCcsu /ZI
;	COMDAT ?GetUserDictionaryWordAction@CWSpell@@QAEFPBG0@Z
_TEXT	SEGMENT
_result$ = -20						; size = 2
_this$ = -8						; size = 4
_userDict$ = 8						; size = 4
_word$ = 12						; size = 4
?GetUserDictionaryWordAction@CWSpell@@QAEFPBG0@Z PROC NEAR ; CWSpell::GetUserDictionaryWordAction, COMDAT
; _this$ = ecx

; 909  : {

	push	ebp
	mov	ebp, esp
	sub	esp, 216				; 000000d8H
	push	ebx
	push	esi
	push	edi
	push	ecx
	lea	edi, DWORD PTR [ebp-216]
	mov	ecx, 54					; 00000036H
	mov	eax, -858993460				; ccccccccH
	rep stosd
	pop	ecx
	mov	DWORD PTR _this$[ebp], ecx

; 910  : 	short result;
; 911  : 	static BYTE parms[] =
; 912  : 		VTS_BSTR VTS_BSTR;
; 913  : 	InvokeHelper(0x55, DISPATCH_PROPERTYGET, VT_I2, (void*)&result, parms,
; 914  : 		userDict, word);

	mov	eax, DWORD PTR _word$[ebp]
	push	eax
	mov	ecx, DWORD PTR _userDict$[ebp]
	push	ecx
	push	OFFSET FLAT:?parms@?1??GetUserDictionaryWordAction@CWSpell@@QAEFPBG0@Z@4PAEA
	lea	edx, DWORD PTR _result$[ebp]
	push	edx
	push	2
	push	2
	push	85					; 00000055H
	mov	eax, DWORD PTR _this$[ebp]
	push	eax
	call	?InvokeHelper@CWnd@@QAAXJGGPAXPBEZZ	; CWnd::InvokeHelper
	add	esp, 32					; 00000020H

; 915  : 	return result;

	mov	ax, WORD PTR _result$[ebp]

; 916  : }

	push	edx
	mov	ecx, ebp
	push	eax
	lea	edx, DWORD PTR $L95126
	call	@_RTC_CheckStackVars@8
	pop	eax
	pop	edx
	pop	edi
	pop	esi
	pop	ebx
	add	esp, 216				; 000000d8H
	cmp	ebp, esp
	call	__RTC_CheckEsp
	mov	esp, ebp
	pop	ebp
	ret	8
$L95126:
	DD	1
	DD	$L95125
$L95125:
	DD	-20					; ffffffecH
	DD	2
	DD	$L95124
$L95124:
	DB	114					; 00000072H
	DB	101					; 00000065H
	DB	115					; 00000073H
	DB	117					; 00000075H
	DB	108					; 0000006cH
	DB	116					; 00000074H
	DB	0
?GetUserDictionaryWordAction@CWSpell@@QAEFPBG0@Z ENDP	; CWSpell::GetUserDictionaryWordAction
_TEXT	ENDS
PUBLIC	?GetUserDictionaryOtherWord@CWSpell@@QAE?AV?$CStringT@GV?$StrTraitMFC@GV?$ChTraitsCRT@G@ATL@@@@@ATL@@PBG0@Z ; CWSpell::GetUserDictionaryOtherWord
;	COMDAT xdata$x
xdata$x	SEGMENT
__unwindtable$?GetUserDictionaryOtherWord@CWSpell@@QAE?AV?$CStringT@GV?$StrTraitMFC@GV?$ChTraitsCRT@G@ATL@@@@@ATL@@PBG0@Z DD 0ffffffffH
	DD	FLAT:__unwindfunclet$?GetUserDictionaryOtherWord@CWSpell@@QAE?AV?$CStringT@GV?$StrTraitMFC@GV?$ChTraitsCRT@G@ATL@@@@@ATL@@PBG0@Z$0
__ehfuncinfo$?GetUserDictionaryOtherWord@CWSpell@@QAE?AV?$CStringT@GV?$StrTraitMFC@GV?$ChTraitsCRT@G@ATL@@@@@ATL@@PBG0@Z DD 019930520H
	DD	01H
	DD	FLAT:__unwindtable$?GetUserDictionaryOtherWord@CWSpell@@QAE?AV?$CStringT@GV?$StrTraitMFC@GV?$ChTraitsCRT@G@ATL@@@@@ATL@@PBG0@Z
	DD	2 DUP(00H)
	DD	2 DUP(00H)
; Function compile flags: /Odt /RTCcsu /ZI
xdata$x	ENDS
;	COMDAT ?GetUserDictionaryOtherWord@CWSpell@@QAE?AV?$CStringT@GV?$StrTraitMFC@GV?$ChTraitsCRT@G@ATL@@@@@ATL@@PBG0@Z
_TEXT	SEGMENT
$T95131 = -236						; size = 4
_result$ = -32						; size = 4
_this$ = -20						; size = 4
__$EHRec$ = -12						; size = 12
___$ReturnUdt$ = 8					; size = 4
_userDict$ = 12						; size = 4
_word$ = 16						; size = 4
?GetUserDictionaryOtherWord@CWSpell@@QAE?AV?$CStringT@GV?$StrTraitMFC@GV?$ChTraitsCRT@G@ATL@@@@@ATL@@PBG0@Z PROC NEAR ; CWSpell::GetUserDictionaryOtherWord, COMDAT
; _this$ = ecx

; 919  : {

	push	ebp
	mov	ebp, esp
	push	-1
	push	__ehhandler$?GetUserDictionaryOtherWord@CWSpell@@QAE?AV?$CStringT@GV?$StrTraitMFC@GV?$ChTraitsCRT@G@ATL@@@@@ATL@@PBG0@Z
	mov	eax, DWORD PTR fs:__except_list
	push	eax
	mov	DWORD PTR fs:__except_list, esp
	sub	esp, 228				; 000000e4H
	push	ebx
	push	esi
	push	edi
	push	ecx
	lea	edi, DWORD PTR [ebp-240]
	mov	ecx, 57					; 00000039H
	mov	eax, -858993460				; ccccccccH
	rep stosd
	pop	ecx
	mov	DWORD PTR _this$[ebp], ecx
	mov	DWORD PTR $T95131[ebp], 0

; 920  : 	CString result;

	lea	ecx, DWORD PTR _result$[ebp]
	call	??0?$CStringT@GV?$StrTraitMFC@GV?$ChTraitsCRT@G@ATL@@@@@ATL@@QAE@XZ ; ATL::CStringT<unsigned short,StrTraitMFC<unsigned short,ATL::ChTraitsCRT<unsigned short> > >::CStringT<unsigned short,StrTraitMFC<unsigned short,ATL::ChTraitsCRT<unsigned short> > >
	mov	DWORD PTR __$EHRec$[ebp+8], 0

; 921  : 	static BYTE parms[] =
; 922  : 		VTS_BSTR VTS_BSTR;
; 923  : 	InvokeHelper(0x56, DISPATCH_PROPERTYGET, VT_BSTR, (void*)&result, parms,
; 924  : 		userDict, word);

	mov	eax, DWORD PTR _word$[ebp]
	push	eax
	mov	ecx, DWORD PTR _userDict$[ebp]
	push	ecx
	push	OFFSET FLAT:?parms@?1??GetUserDictionaryOtherWord@CWSpell@@QAE?AV?$CStringT@GV?$StrTraitMFC@GV?$ChTraitsCRT@G@ATL@@@@@ATL@@PBG0@Z@4PAEA
	lea	edx, DWORD PTR _result$[ebp]
	push	edx
	push	8
	push	2
	push	86					; 00000056H
	mov	eax, DWORD PTR _this$[ebp]
	push	eax
	call	?InvokeHelper@CWnd@@QAAXJGGPAXPBEZZ	; CWnd::InvokeHelper
	add	esp, 32					; 00000020H

; 925  : 	return result;

	lea	eax, DWORD PTR _result$[ebp]
	push	eax
	mov	ecx, DWORD PTR ___$ReturnUdt$[ebp]
	call	??0?$CStringT@GV?$StrTraitMFC@GV?$ChTraitsCRT@G@ATL@@@@@ATL@@QAE@ABV01@@Z ; ATL::CStringT<unsigned short,StrTraitMFC<unsigned short,ATL::ChTraitsCRT<unsigned short> > >::CStringT<unsigned short,StrTraitMFC<unsigned short,ATL::ChTraitsCRT<unsigned short> > >
	mov	ecx, DWORD PTR $T95131[ebp]
	or	ecx, 1
	mov	DWORD PTR $T95131[ebp], ecx
	mov	DWORD PTR __$EHRec$[ebp+8], -1
	lea	ecx, DWORD PTR _result$[ebp]
	call	??1?$CStringT@GV?$StrTraitMFC@GV?$ChTraitsCRT@G@ATL@@@@@ATL@@QAE@XZ ; ATL::CStringT<unsigned short,StrTraitMFC<unsigned short,ATL::ChTraitsCRT<unsigned short> > >::~CStringT<unsigned short,StrTraitMFC<unsigned short,ATL::ChTraitsCRT<unsigned short> > >
	mov	eax, DWORD PTR ___$ReturnUdt$[ebp]

; 926  : }

	push	edx
	mov	ecx, ebp
	push	eax
	lea	edx, DWORD PTR $L95138
	call	@_RTC_CheckStackVars@8
	pop	eax
	pop	edx
	mov	ecx, DWORD PTR __$EHRec$[ebp]
	mov	DWORD PTR fs:__except_list, ecx
	pop	edi
	pop	esi
	pop	ebx
	add	esp, 240				; 000000f0H
	cmp	ebp, esp
	call	__RTC_CheckEsp
	mov	esp, ebp
	pop	ebp
	ret	12					; 0000000cH
$L95138:
	DD	1
	DD	$L95137
$L95137:
	DD	-32					; ffffffe0H
	DD	4
	DD	$L95135
$L95135:
	DB	114					; 00000072H
	DB	101					; 00000065H
	DB	115					; 00000073H
	DB	117					; 00000075H
	DB	108					; 0000006cH
	DB	116					; 00000074H
	DB	0
_TEXT	ENDS
;	COMDAT text$x
text$x	SEGMENT
__unwindfunclet$?GetUserDictionaryOtherWord@CWSpell@@QAE?AV?$CStringT@GV?$StrTraitMFC@GV?$ChTraitsCRT@G@ATL@@@@@ATL@@PBG0@Z$0:
	lea	ecx, DWORD PTR _result$[ebp]
	jmp	??1?$CStringT@GV?$StrTraitMFC@GV?$ChTraitsCRT@G@ATL@@@@@ATL@@QAE@XZ ; ATL::CStringT<unsigned short,StrTraitMFC<unsigned short,ATL::ChTraitsCRT<unsigned short> > >::~CStringT<unsigned short,StrTraitMFC<unsigned short,ATL::ChTraitsCRT<unsigned short> > >
__ehhandler$?GetUserDictionaryOtherWord@CWSpell@@QAE?AV?$CStringT@GV?$StrTraitMFC@GV?$ChTraitsCRT@G@ATL@@@@@ATL@@PBG0@Z:
	mov	eax, OFFSET FLAT:__ehfuncinfo$?GetUserDictionaryOtherWord@CWSpell@@QAE?AV?$CStringT@GV?$StrTraitMFC@GV?$ChTraitsCRT@G@ATL@@@@@ATL@@PBG0@Z
	jmp	___CxxFrameHandler
text$x	ENDS
?GetUserDictionaryOtherWord@CWSpell@@QAE?AV?$CStringT@GV?$StrTraitMFC@GV?$ChTraitsCRT@G@ATL@@@@@ATL@@PBG0@Z ENDP ; CWSpell::GetUserDictionaryOtherWord
PUBLIC	?DeleteWord@CWSpell@@QAEJXZ			; CWSpell::DeleteWord
; Function compile flags: /Odt /RTCcsu /ZI
;	COMDAT ?DeleteWord@CWSpell@@QAEJXZ
_TEXT	SEGMENT
_result$ = -20						; size = 4
_this$ = -8						; size = 4
?DeleteWord@CWSpell@@QAEJXZ PROC NEAR			; CWSpell::DeleteWord, COMDAT
; _this$ = ecx

; 929  : {

	push	ebp
	mov	ebp, esp
	sub	esp, 216				; 000000d8H
	push	ebx
	push	esi
	push	edi
	push	ecx
	lea	edi, DWORD PTR [ebp-216]
	mov	ecx, 54					; 00000036H
	mov	eax, -858993460				; ccccccccH
	rep stosd
	pop	ecx
	mov	DWORD PTR _this$[ebp], ecx

; 930  : 	long result;
; 931  : 	InvokeHelper(0x4b, DISPATCH_METHOD, VT_I4, (void*)&result, NULL);

	push	0
	lea	eax, DWORD PTR _result$[ebp]
	push	eax
	push	3
	push	1
	push	75					; 0000004bH
	mov	ecx, DWORD PTR _this$[ebp]
	push	ecx
	call	?InvokeHelper@CWnd@@QAAXJGGPAXPBEZZ	; CWnd::InvokeHelper
	add	esp, 24					; 00000018H

; 932  : 	return result;

	mov	eax, DWORD PTR _result$[ebp]

; 933  : }

	push	edx
	mov	ecx, ebp
	push	eax
	lea	edx, DWORD PTR $L95146
	call	@_RTC_CheckStackVars@8
	pop	eax
	pop	edx
	pop	edi
	pop	esi
	pop	ebx
	add	esp, 216				; 000000d8H
	cmp	ebp, esp
	call	__RTC_CheckEsp
	mov	esp, ebp
	pop	ebp
	ret	0
$L95146:
	DD	1
	DD	$L95145
$L95145:
	DD	-20					; ffffffecH
	DD	4
	DD	$L95144
$L95144:
	DB	114					; 00000072H
	DB	101					; 00000065H
	DB	115					; 00000073H
	DB	117					; 00000075H
	DB	108					; 0000006cH
	DB	116					; 00000074H
	DB	0
?DeleteWord@CWSpell@@QAEJXZ ENDP			; CWSpell::DeleteWord
_TEXT	ENDS
PUBLIC	?AddToUserDictionary@CWSpell@@QAEFPBG0F0@Z	; CWSpell::AddToUserDictionary
; Function compile flags: /Odt /RTCcsu /ZI
;	COMDAT ?AddToUserDictionary@CWSpell@@QAEFPBG0F0@Z
_TEXT	SEGMENT
_result$ = -20						; size = 2
_this$ = -8						; size = 4
_userDict$ = 8						; size = 4
_word$ = 12						; size = 4
_action$ = 16						; size = 2
_otherWord$ = 20					; size = 4
?AddToUserDictionary@CWSpell@@QAEFPBG0F0@Z PROC NEAR	; CWSpell::AddToUserDictionary, COMDAT
; _this$ = ecx

; 936  : {

	push	ebp
	mov	ebp, esp
	sub	esp, 216				; 000000d8H
	push	ebx
	push	esi
	push	edi
	push	ecx
	lea	edi, DWORD PTR [ebp-216]
	mov	ecx, 54					; 00000036H
	mov	eax, -858993460				; ccccccccH
	rep stosd
	pop	ecx
	mov	DWORD PTR _this$[ebp], ecx

; 937  : 	short result;
; 938  : 	static BYTE parms[] =
; 939  : 		VTS_BSTR VTS_BSTR VTS_I2 VTS_BSTR;
; 940  : 	InvokeHelper(0x4c, DISPATCH_METHOD, VT_I2, (void*)&result, parms,
; 941  : 		userDict, word, action, otherWord);

	mov	eax, DWORD PTR _otherWord$[ebp]
	push	eax
	movsx	ecx, WORD PTR _action$[ebp]
	push	ecx
	mov	edx, DWORD PTR _word$[ebp]
	push	edx
	mov	eax, DWORD PTR _userDict$[ebp]
	push	eax
	push	OFFSET FLAT:?parms@?1??AddToUserDictionary@CWSpell@@QAEFPBG0F0@Z@4PAEA
	lea	ecx, DWORD PTR _result$[ebp]
	push	ecx
	push	2
	push	1
	push	76					; 0000004cH
	mov	edx, DWORD PTR _this$[ebp]
	push	edx
	call	?InvokeHelper@CWnd@@QAAXJGGPAXPBEZZ	; CWnd::InvokeHelper
	add	esp, 40					; 00000028H

; 942  : 	return result;

	mov	ax, WORD PTR _result$[ebp]

; 943  : }

	push	edx
	mov	ecx, ebp
	push	eax
	lea	edx, DWORD PTR $L95151
	call	@_RTC_CheckStackVars@8
	pop	eax
	pop	edx
	pop	edi
	pop	esi
	pop	ebx
	add	esp, 216				; 000000d8H
	cmp	ebp, esp
	call	__RTC_CheckEsp
	mov	esp, ebp
	pop	ebp
	ret	16					; 00000010H
$L95151:
	DD	1
	DD	$L95150
$L95150:
	DD	-20					; ffffffecH
	DD	2
	DD	$L95149
$L95149:
	DB	114					; 00000072H
	DB	101					; 00000065H
	DB	115					; 00000073H
	DB	117					; 00000075H
	DB	108					; 0000006cH
	DB	116					; 00000074H
	DB	0
?AddToUserDictionary@CWSpell@@QAEFPBG0F0@Z ENDP		; CWSpell::AddToUserDictionary
_TEXT	ENDS
PUBLIC	?CheckBackgroundNotify@CWSpell@@QAEJJHHHHJ@Z	; CWSpell::CheckBackgroundNotify
; Function compile flags: /Odt /RTCcsu /ZI
;	COMDAT ?CheckBackgroundNotify@CWSpell@@QAEJJHHHHJ@Z
_TEXT	SEGMENT
_result$ = -20						; size = 4
_this$ = -8						; size = 4
_ctrlHWnd$ = 8						; size = 4
_changeColor$ = 12					; size = 4
_bold$ = 16						; size = 4
_italics$ = 20						; size = 4
_underline$ = 24					; size = 4
_textColor$ = 28					; size = 4
?CheckBackgroundNotify@CWSpell@@QAEJJHHHHJ@Z PROC NEAR	; CWSpell::CheckBackgroundNotify, COMDAT
; _this$ = ecx

; 946  : {

	push	ebp
	mov	ebp, esp
	sub	esp, 216				; 000000d8H
	push	ebx
	push	esi
	push	edi
	push	ecx
	lea	edi, DWORD PTR [ebp-216]
	mov	ecx, 54					; 00000036H
	mov	eax, -858993460				; ccccccccH
	rep stosd
	pop	ecx
	mov	DWORD PTR _this$[ebp], ecx

; 947  : 	long result;
; 948  : 	static BYTE parms[] =
; 949  : 		VTS_I4 VTS_BOOL VTS_BOOL VTS_BOOL VTS_BOOL VTS_I4;
; 950  : 	InvokeHelper(0x4d, DISPATCH_METHOD, VT_I4, (void*)&result, parms,
; 951  : 		ctrlHWnd, changeColor, bold, italics, underline, textColor);

	mov	eax, DWORD PTR _textColor$[ebp]
	push	eax
	mov	ecx, DWORD PTR _underline$[ebp]
	push	ecx
	mov	edx, DWORD PTR _italics$[ebp]
	push	edx
	mov	eax, DWORD PTR _bold$[ebp]
	push	eax
	mov	ecx, DWORD PTR _changeColor$[ebp]
	push	ecx
	mov	edx, DWORD PTR _ctrlHWnd$[ebp]
	push	edx
	push	OFFSET FLAT:?parms@?1??CheckBackgroundNotify@CWSpell@@QAEJJHHHHJ@Z@4PAEA
	lea	eax, DWORD PTR _result$[ebp]
	push	eax
	push	3
	push	1
	push	77					; 0000004dH
	mov	ecx, DWORD PTR _this$[ebp]
	push	ecx
	call	?InvokeHelper@CWnd@@QAAXJGGPAXPBEZZ	; CWnd::InvokeHelper
	add	esp, 48					; 00000030H

; 952  : 	return result;

	mov	eax, DWORD PTR _result$[ebp]

; 953  : }

	push	edx
	mov	ecx, ebp
	push	eax
	lea	edx, DWORD PTR $L95156
	call	@_RTC_CheckStackVars@8
	pop	eax
	pop	edx
	pop	edi
	pop	esi
	pop	ebx
	add	esp, 216				; 000000d8H
	cmp	ebp, esp
	call	__RTC_CheckEsp
	mov	esp, ebp
	pop	ebp
	ret	24					; 00000018H
$L95156:
	DD	1
	DD	$L95155
$L95155:
	DD	-20					; ffffffecH
	DD	4
	DD	$L95154
$L95154:
	DB	114					; 00000072H
	DB	101					; 00000065H
	DB	115					; 00000073H
	DB	117					; 00000075H
	DB	108					; 0000006cH
	DB	116					; 00000074H
	DB	0
?CheckBackgroundNotify@CWSpell@@QAEJJHHHHJ@Z ENDP	; CWSpell::CheckBackgroundNotify
_TEXT	ENDS
PUBLIC	?CheckBackgroundRecheck@CWSpell@@QAEJJHHHHJ@Z	; CWSpell::CheckBackgroundRecheck
; Function compile flags: /Odt /RTCcsu /ZI
;	COMDAT ?CheckBackgroundRecheck@CWSpell@@QAEJJHHHHJ@Z
_TEXT	SEGMENT
_result$ = -20						; size = 4
_this$ = -8						; size = 4
_ctrlHWnd$ = 8						; size = 4
_changeColor$ = 12					; size = 4
_bold$ = 16						; size = 4
_italics$ = 20						; size = 4
_underline$ = 24					; size = 4
_textColor$ = 28					; size = 4
?CheckBackgroundRecheck@CWSpell@@QAEJJHHHHJ@Z PROC NEAR	; CWSpell::CheckBackgroundRecheck, COMDAT
; _this$ = ecx

; 956  : {

	push	ebp
	mov	ebp, esp
	sub	esp, 216				; 000000d8H
	push	ebx
	push	esi
	push	edi
	push	ecx
	lea	edi, DWORD PTR [ebp-216]
	mov	ecx, 54					; 00000036H
	mov	eax, -858993460				; ccccccccH
	rep stosd
	pop	ecx
	mov	DWORD PTR _this$[ebp], ecx

; 957  : 	long result;
; 958  : 	static BYTE parms[] =
; 959  : 		VTS_I4 VTS_BOOL VTS_BOOL VTS_BOOL VTS_BOOL VTS_I4;
; 960  : 	InvokeHelper(0x4e, DISPATCH_METHOD, VT_I4, (void*)&result, parms,
; 961  : 		ctrlHWnd, changeColor, bold, italics, underline, textColor);

	mov	eax, DWORD PTR _textColor$[ebp]
	push	eax
	mov	ecx, DWORD PTR _underline$[ebp]
	push	ecx
	mov	edx, DWORD PTR _italics$[ebp]
	push	edx
	mov	eax, DWORD PTR _bold$[ebp]
	push	eax
	mov	ecx, DWORD PTR _changeColor$[ebp]
	push	ecx
	mov	edx, DWORD PTR _ctrlHWnd$[ebp]
	push	edx
	push	OFFSET FLAT:?parms@?1??CheckBackgroundRecheck@CWSpell@@QAEJJHHHHJ@Z@4PAEA
	lea	eax, DWORD PTR _result$[ebp]
	push	eax
	push	3
	push	1
	push	78					; 0000004eH
	mov	ecx, DWORD PTR _this$[ebp]
	push	ecx
	call	?InvokeHelper@CWnd@@QAAXJGGPAXPBEZZ	; CWnd::InvokeHelper
	add	esp, 48					; 00000030H

; 962  : 	return result;

	mov	eax, DWORD PTR _result$[ebp]

; 963  : }

	push	edx
	mov	ecx, ebp
	push	eax
	lea	edx, DWORD PTR $L95161
	call	@_RTC_CheckStackVars@8
	pop	eax
	pop	edx
	pop	edi
	pop	esi
	pop	ebx
	add	esp, 216				; 000000d8H
	cmp	ebp, esp
	call	__RTC_CheckEsp
	mov	esp, ebp
	pop	ebp
	ret	24					; 00000018H
$L95161:
	DD	1
	DD	$L95160
$L95160:
	DD	-20					; ffffffecH
	DD	4
	DD	$L95159
$L95159:
	DB	114					; 00000072H
	DB	101					; 00000065H
	DB	115					; 00000073H
	DB	117					; 00000075H
	DB	108					; 0000006cH
	DB	116					; 00000074H
	DB	0
?CheckBackgroundRecheck@CWSpell@@QAEJJHHHHJ@Z ENDP	; CWSpell::CheckBackgroundRecheck
_TEXT	ENDS
PUBLIC	?CheckBackgroundMenu@CWSpell@@QAEJJJJJHHHHJ@Z	; CWSpell::CheckBackgroundMenu
; Function compile flags: /Odt /RTCcsu /ZI
;	COMDAT ?CheckBackgroundMenu@CWSpell@@QAEJJJJJHHHHJ@Z
_TEXT	SEGMENT
_result$ = -20						; size = 4
_this$ = -8						; size = 4
_ctrlHWnd$ = 8						; size = 4
_x$ = 12						; size = 4
_y$ = 16						; size = 4
_options$ = 20						; size = 4
_changeColor$ = 24					; size = 4
_bold$ = 28						; size = 4
_italics$ = 32						; size = 4
_underline$ = 36					; size = 4
_textColor$ = 40					; size = 4
?CheckBackgroundMenu@CWSpell@@QAEJJJJJHHHHJ@Z PROC NEAR	; CWSpell::CheckBackgroundMenu, COMDAT
; _this$ = ecx

; 966  : {

	push	ebp
	mov	ebp, esp
	sub	esp, 216				; 000000d8H
	push	ebx
	push	esi
	push	edi
	push	ecx
	lea	edi, DWORD PTR [ebp-216]
	mov	ecx, 54					; 00000036H
	mov	eax, -858993460				; ccccccccH
	rep stosd
	pop	ecx
	mov	DWORD PTR _this$[ebp], ecx

; 967  : 	long result;
; 968  : 	static BYTE parms[] =
; 969  : 		VTS_I4 VTS_I4 VTS_I4 VTS_I4 VTS_BOOL VTS_BOOL VTS_BOOL VTS_BOOL VTS_I4;
; 970  : 	InvokeHelper(0x4f, DISPATCH_METHOD, VT_I4, (void*)&result, parms,
; 971  : 		ctrlHWnd, x, y, options, changeColor, bold, italics, underline, textColor);

	mov	eax, DWORD PTR _textColor$[ebp]
	push	eax
	mov	ecx, DWORD PTR _underline$[ebp]
	push	ecx
	mov	edx, DWORD PTR _italics$[ebp]
	push	edx
	mov	eax, DWORD PTR _bold$[ebp]
	push	eax
	mov	ecx, DWORD PTR _changeColor$[ebp]
	push	ecx
	mov	edx, DWORD PTR _options$[ebp]
	push	edx
	mov	eax, DWORD PTR _y$[ebp]
	push	eax
	mov	ecx, DWORD PTR _x$[ebp]
	push	ecx
	mov	edx, DWORD PTR _ctrlHWnd$[ebp]
	push	edx
	push	OFFSET FLAT:?parms@?1??CheckBackgroundMenu@CWSpell@@QAEJJJJJHHHHJ@Z@4PAEA
	lea	eax, DWORD PTR _result$[ebp]
	push	eax
	push	3
	push	1
	push	79					; 0000004fH
	mov	ecx, DWORD PTR _this$[ebp]
	push	ecx
	call	?InvokeHelper@CWnd@@QAAXJGGPAXPBEZZ	; CWnd::InvokeHelper
	add	esp, 60					; 0000003cH

; 972  : 	return result;

	mov	eax, DWORD PTR _result$[ebp]

; 973  : }

	push	edx
	mov	ecx, ebp
	push	eax
	lea	edx, DWORD PTR $L95166
	call	@_RTC_CheckStackVars@8
	pop	eax
	pop	edx
	pop	edi
	pop	esi
	pop	ebx
	add	esp, 216				; 000000d8H
	cmp	ebp, esp
	call	__RTC_CheckEsp
	mov	esp, ebp
	pop	ebp
	ret	36					; 00000024H
$L95166:
	DD	1
	DD	$L95165
$L95165:
	DD	-20					; ffffffecH
	DD	4
	DD	$L95164
$L95164:
	DB	114					; 00000072H
	DB	101					; 00000065H
	DB	115					; 00000073H
	DB	117					; 00000075H
	DB	108					; 0000006cH
	DB	116					; 00000074H
	DB	0
?CheckBackgroundMenu@CWSpell@@QAEJJJJJHHHHJ@Z ENDP	; CWSpell::CheckBackgroundMenu
_TEXT	ENDS
PUBLIC	?AboutBox@CWSpell@@QAEXXZ			; CWSpell::AboutBox
; Function compile flags: /Odt /RTCcsu /ZI
;	COMDAT ?AboutBox@CWSpell@@QAEXXZ
_TEXT	SEGMENT
_this$ = -8						; size = 4
?AboutBox@CWSpell@@QAEXXZ PROC NEAR			; CWSpell::AboutBox, COMDAT
; _this$ = ecx

; 976  : {

	push	ebp
	mov	ebp, esp
	sub	esp, 204				; 000000ccH
	push	ebx
	push	esi
	push	edi
	push	ecx
	lea	edi, DWORD PTR [ebp-204]
	mov	ecx, 51					; 00000033H
	mov	eax, -858993460				; ccccccccH
	rep stosd
	pop	ecx
	mov	DWORD PTR _this$[ebp], ecx

; 977  : 	InvokeHelper(0xfffffdd8, DISPATCH_METHOD, VT_EMPTY, NULL, NULL);

	push	0
	push	0
	push	0
	push	1
	push	-552					; fffffdd8H
	mov	eax, DWORD PTR _this$[ebp]
	push	eax
	call	?InvokeHelper@CWnd@@QAAXJGGPAXPBEZZ	; CWnd::InvokeHelper
	add	esp, 24					; 00000018H

; 978  : }

	pop	edi
	pop	esi
	pop	ebx
	add	esp, 204				; 000000ccH
	cmp	ebp, esp
	call	__RTC_CheckEsp
	mov	esp, ebp
	pop	ebp
	ret	0
?AboutBox@CWSpell@@QAEXXZ ENDP				; CWSpell::AboutBox
_TEXT	ENDS
PUBLIC	??4?$CSimpleStringT@G$0A@@ATL@@QAEAAV01@ABV01@@Z ; ATL::CSimpleStringT<unsigned short,0>::operator=
; Function compile flags: /Odt /RTCcsu /ZI
; File c:\program files\microsoft visual studio .net 2003\vc7\atlmfc\include\cstringt.h
;	COMDAT ??4?$CStringT@GV?$StrTraitMFC@GV?$ChTraitsCRT@G@ATL@@@@@ATL@@QAEAAV01@ABV01@@Z
_TEXT	SEGMENT
_this$ = -8						; size = 4
_strSrc$ = 8						; size = 4
??4?$CStringT@GV?$StrTraitMFC@GV?$ChTraitsCRT@G@ATL@@@@@ATL@@QAEAAV01@ABV01@@Z PROC NEAR ; ATL::CStringT<unsigned short,StrTraitMFC<unsigned short,ATL::ChTraitsCRT<unsigned short> > >::operator=, COMDAT
; _this$ = ecx

; 967  : 	{

	push	ebp
	mov	ebp, esp
	sub	esp, 204				; 000000ccH
	push	ebx
	push	esi
	push	edi
	push	ecx
	lea	edi, DWORD PTR [ebp-204]
	mov	ecx, 51					; 00000033H
	mov	eax, -858993460				; ccccccccH
	rep stosd
	pop	ecx
	mov	DWORD PTR _this$[ebp], ecx

; 968  : 		CThisSimpleString::operator=( strSrc );

	mov	eax, DWORD PTR _strSrc$[ebp]
	push	eax
	mov	ecx, DWORD PTR _this$[ebp]
	call	??4?$CSimpleStringT@G$0A@@ATL@@QAEAAV01@ABV01@@Z ; ATL::CSimpleStringT<unsigned short,0>::operator=

; 969  : 
; 970  : 		return( *this );

	mov	eax, DWORD PTR _this$[ebp]

; 971  : 	}

	pop	edi
	pop	esi
	pop	ebx
	add	esp, 204				; 000000ccH
	cmp	ebp, esp
	call	__RTC_CheckEsp
	mov	esp, ebp
	pop	ebp
	ret	4
??4?$CStringT@GV?$StrTraitMFC@GV?$ChTraitsCRT@G@ATL@@@@@ATL@@QAEAAV01@ABV01@@Z ENDP ; ATL::CStringT<unsigned short,StrTraitMFC<unsigned short,ATL::ChTraitsCRT<unsigned short> > >::operator=
_TEXT	ENDS
PUBLIC	??Y?$CSimpleStringT@G$0A@@ATL@@QAEAAV01@ABV01@@Z ; ATL::CSimpleStringT<unsigned short,0>::operator+=
; Function compile flags: /Odt /RTCcsu /ZI
;	COMDAT ??Y?$CStringT@GV?$StrTraitMFC@GV?$ChTraitsCRT@G@ATL@@@@@ATL@@QAEAAV01@ABV?$CSimpleStringT@G$0A@@1@@Z
_TEXT	SEGMENT
_this$ = -8						; size = 4
_str$ = 8						; size = 4
??Y?$CStringT@GV?$StrTraitMFC@GV?$ChTraitsCRT@G@ATL@@@@@ATL@@QAEAAV01@ABV?$CSimpleStringT@G$0A@@1@@Z PROC NEAR ; ATL::CStringT<unsigned short,StrTraitMFC<unsigned short,ATL::ChTraitsCRT<unsigned short> > >::operator+=, COMDAT
; _this$ = ecx

; 1028 : 	{

	push	ebp
	mov	ebp, esp
	sub	esp, 204				; 000000ccH
	push	ebx
	push	esi
	push	edi
	push	ecx
	lea	edi, DWORD PTR [ebp-204]
	mov	ecx, 51					; 00000033H
	mov	eax, -858993460				; ccccccccH
	rep stosd
	pop	ecx
	mov	DWORD PTR _this$[ebp], ecx

; 1029 : 		CThisSimpleString::operator+=( str );

	mov	eax, DWORD PTR _str$[ebp]
	push	eax
	mov	ecx, DWORD PTR _this$[ebp]
	call	??Y?$CSimpleStringT@G$0A@@ATL@@QAEAAV01@ABV01@@Z ; ATL::CSimpleStringT<unsigned short,0>::operator+=

; 1030 : 
; 1031 : 		return( *this );

	mov	eax, DWORD PTR _this$[ebp]

; 1032 : 	}

	pop	edi
	pop	esi
	pop	ebx
	add	esp, 204				; 000000ccH
	cmp	ebp, esp
	call	__RTC_CheckEsp
	mov	esp, ebp
	pop	ebp
	ret	4
??Y?$CStringT@GV?$StrTraitMFC@GV?$ChTraitsCRT@G@ATL@@@@@ATL@@QAEAAV01@ABV?$CSimpleStringT@G$0A@@1@@Z ENDP ; ATL::CStringT<unsigned short,StrTraitMFC<unsigned short,ATL::ChTraitsCRT<unsigned short> > >::operator+=
_TEXT	ENDS
PUBLIC	?GetManager@?$CSimpleStringT@G$0A@@ATL@@QBEPAUIAtlStringMgr@2@XZ ; ATL::CSimpleStringT<unsigned short,0>::GetManager
PUBLIC	??0?$CStringT@GV?$StrTraitMFC@GV?$ChTraitsCRT@G@ATL@@@@@ATL@@QAE@PBDPAUIAtlStringMgr@1@@Z ; ATL::CStringT<unsigned short,StrTraitMFC<unsigned short,ATL::ChTraitsCRT<unsigned short> > >::CStringT<unsigned short,StrTraitMFC<unsigned short,ATL::ChTraitsCRT<unsigned short> > >
;	COMDAT xdata$x
xdata$x	SEGMENT
__unwindtable$??Y?$CStringT@GV?$StrTraitMFC@GV?$ChTraitsCRT@G@ATL@@@@@ATL@@QAEAAV01@PBD@Z DD 0ffffffffH
	DD	FLAT:__unwindfunclet$??Y?$CStringT@GV?$StrTraitMFC@GV?$ChTraitsCRT@G@ATL@@@@@ATL@@QAEAAV01@PBD@Z$0
__ehfuncinfo$??Y?$CStringT@GV?$StrTraitMFC@GV?$ChTraitsCRT@G@ATL@@@@@ATL@@QAEAAV01@PBD@Z DD 019930520H
	DD	01H
	DD	FLAT:__unwindtable$??Y?$CStringT@GV?$StrTraitMFC@GV?$ChTraitsCRT@G@ATL@@@@@ATL@@QAEAAV01@PBD@Z
	DD	2 DUP(00H)
	DD	2 DUP(00H)
; Function compile flags: /Odt /RTCcsu /ZI
xdata$x	ENDS
;	COMDAT ??Y?$CStringT@GV?$StrTraitMFC@GV?$ChTraitsCRT@G@ATL@@@@@ATL@@QAEAAV01@PBD@Z
_TEXT	SEGMENT
$T95175 = -236						; size = 4
_str$ = -32						; size = 4
_this$ = -20						; size = 4
__$EHRec$ = -12						; size = 12
_pszSrc$ = 8						; size = 4
??Y?$CStringT@GV?$StrTraitMFC@GV?$ChTraitsCRT@G@ATL@@@@@ATL@@QAEAAV01@PBD@Z PROC NEAR ; ATL::CStringT<unsigned short,StrTraitMFC<unsigned short,ATL::ChTraitsCRT<unsigned short> > >::operator+=, COMDAT
; _this$ = ecx

; 1055 : 	{

	push	ebp
	mov	ebp, esp
	push	-1
	push	__ehhandler$??Y?$CStringT@GV?$StrTraitMFC@GV?$ChTraitsCRT@G@ATL@@@@@ATL@@QAEAAV01@PBD@Z
	mov	eax, DWORD PTR fs:__except_list
	push	eax
	mov	DWORD PTR fs:__except_list, esp
	sub	esp, 228				; 000000e4H
	push	ebx
	push	esi
	push	edi
	push	ecx
	lea	edi, DWORD PTR [ebp-240]
	mov	ecx, 57					; 00000039H
	mov	eax, -858993460				; ccccccccH
	rep stosd
	pop	ecx
	mov	DWORD PTR _this$[ebp], ecx

; 1056 : 		CStringT str( pszSrc, GetManager() );

	mov	ecx, DWORD PTR _this$[ebp]
	call	?GetManager@?$CSimpleStringT@G$0A@@ATL@@QBEPAUIAtlStringMgr@2@XZ ; ATL::CSimpleStringT<unsigned short,0>::GetManager
	push	eax
	mov	eax, DWORD PTR _pszSrc$[ebp]
	push	eax
	lea	ecx, DWORD PTR _str$[ebp]
	call	??0?$CStringT@GV?$StrTraitMFC@GV?$ChTraitsCRT@G@ATL@@@@@ATL@@QAE@PBDPAUIAtlStringMgr@1@@Z ; ATL::CStringT<unsigned short,StrTraitMFC<unsigned short,ATL::ChTraitsCRT<unsigned short> > >::CStringT<unsigned short,StrTraitMFC<unsigned short,ATL::ChTraitsCRT<unsigned short> > >
	mov	DWORD PTR __$EHRec$[ebp+8], 0

; 1057 : 
; 1058 : 		return( operator+=( str ) );

	lea	eax, DWORD PTR _str$[ebp]
	push	eax
	mov	ecx, DWORD PTR _this$[ebp]
	call	??Y?$CStringT@GV?$StrTraitMFC@GV?$ChTraitsCRT@G@ATL@@@@@ATL@@QAEAAV01@ABV?$CSimpleStringT@G$0A@@1@@Z ; ATL::CStringT<unsigned short,StrTraitMFC<unsigned short,ATL::ChTraitsCRT<unsigned short> > >::operator+=
	mov	DWORD PTR $T95175[ebp], eax
	mov	DWORD PTR __$EHRec$[ebp+8], -1
	lea	ecx, DWORD PTR _str$[ebp]
	call	??1?$CStringT@GV?$StrTraitMFC@GV?$ChTraitsCRT@G@ATL@@@@@ATL@@QAE@XZ ; ATL::CStringT<unsigned short,StrTraitMFC<unsigned short,ATL::ChTraitsCRT<unsigned short> > >::~CStringT<unsigned short,StrTraitMFC<unsigned short,ATL::ChTraitsCRT<unsigned short> > >
	mov	eax, DWORD PTR $T95175[ebp]

; 1059 : 	}

	push	edx
	mov	ecx, ebp
	push	eax
	lea	edx, DWORD PTR $L95182
	call	@_RTC_CheckStackVars@8
	pop	eax
	pop	edx
	mov	ecx, DWORD PTR __$EHRec$[ebp]
	mov	DWORD PTR fs:__except_list, ecx
	pop	edi
	pop	esi
	pop	ebx
	add	esp, 240				; 000000f0H
	cmp	ebp, esp
	call	__RTC_CheckEsp
	mov	esp, ebp
	pop	ebp
	ret	4
$L95182:
	DD	1
	DD	$L95181
$L95181:
	DD	-32					; ffffffe0H
	DD	4
	DD	$L95179
$L95179:
	DB	115					; 00000073H
	DB	116					; 00000074H
	DB	114					; 00000072H
	DB	0
_TEXT	ENDS
;	COMDAT text$x
text$x	SEGMENT
__unwindfunclet$??Y?$CStringT@GV?$StrTraitMFC@GV?$ChTraitsCRT@G@ATL@@@@@ATL@@QAEAAV01@PBD@Z$0:
	lea	ecx, DWORD PTR _str$[ebp]
	jmp	??1?$CStringT@GV?$StrTraitMFC@GV?$ChTraitsCRT@G@ATL@@@@@ATL@@QAE@XZ ; ATL::CStringT<unsigned short,StrTraitMFC<unsigned short,ATL::ChTraitsCRT<unsigned short> > >::~CStringT<unsigned short,StrTraitMFC<unsigned short,ATL::ChTraitsCRT<unsigned short> > >
__ehhandler$??Y?$CStringT@GV?$StrTraitMFC@GV?$ChTraitsCRT@G@ATL@@@@@ATL@@QAEAAV01@PBD@Z:
	mov	eax, OFFSET FLAT:__ehfuncinfo$??Y?$CStringT@GV?$StrTraitMFC@GV?$ChTraitsCRT@G@ATL@@@@@ATL@@QAEAAV01@PBD@Z
	jmp	___CxxFrameHandler
text$x	ENDS
??Y?$CStringT@GV?$StrTraitMFC@GV?$ChTraitsCRT@G@ATL@@@@@ATL@@QAEAAV01@PBD@Z ENDP ; ATL::CStringT<unsigned short,StrTraitMFC<unsigned short,ATL::ChTraitsCRT<unsigned short> > >::operator+=
PUBLIC	?Concatenate@?$CSimpleStringT@G$0A@@ATL@@KAXAAV12@PBGH1H@Z ; ATL::CSimpleStringT<unsigned short,0>::Concatenate
PUBLIC	??0?$CStringT@GV?$StrTraitMFC@GV?$ChTraitsCRT@G@ATL@@@@@ATL@@QAE@PAUIAtlStringMgr@1@@Z ; ATL::CStringT<unsigned short,StrTraitMFC<unsigned short,ATL::ChTraitsCRT<unsigned short> > >::CStringT<unsigned short,StrTraitMFC<unsigned short,ATL::ChTraitsCRT<unsigned short> > >
;	COMDAT xdata$x
xdata$x	SEGMENT
__unwindtable$??HATL@@YA?AV?$CStringT@GV?$StrTraitMFC@GV?$ChTraitsCRT@G@ATL@@@@@0@ABV10@0@Z DD 0ffffffffH
	DD	FLAT:__unwindfunclet$??HATL@@YA?AV?$CStringT@GV?$StrTraitMFC@GV?$ChTraitsCRT@G@ATL@@@@@0@ABV10@0@Z$0
__ehfuncinfo$??HATL@@YA?AV?$CStringT@GV?$StrTraitMFC@GV?$ChTraitsCRT@G@ATL@@@@@0@ABV10@0@Z DD 019930520H
	DD	01H
	DD	FLAT:__unwindtable$??HATL@@YA?AV?$CStringT@GV?$StrTraitMFC@GV?$ChTraitsCRT@G@ATL@@@@@0@ABV10@0@Z
	DD	2 DUP(00H)
	DD	2 DUP(00H)
; Function compile flags: /Odt /RTCcsu /ZI
xdata$x	ENDS
;	COMDAT ??HATL@@YA?AV?$CStringT@GV?$StrTraitMFC@GV?$ChTraitsCRT@G@ATL@@@@@0@ABV10@0@Z
_TEXT	SEGMENT
$T95190 = -224						; size = 4
_strResult$ = -20					; size = 4
__$EHRec$ = -12						; size = 12
___$ReturnUdt$ = 8					; size = 4
_str1$ = 12						; size = 4
_str2$ = 16						; size = 4
??HATL@@YA?AV?$CStringT@GV?$StrTraitMFC@GV?$ChTraitsCRT@G@ATL@@@@@0@ABV10@0@Z PROC NEAR ; ATL::operator+, COMDAT

; 2014 : 	{

	push	ebp
	mov	ebp, esp
	push	-1
	push	__ehhandler$??HATL@@YA?AV?$CStringT@GV?$StrTraitMFC@GV?$ChTraitsCRT@G@ATL@@@@@0@ABV10@0@Z
	mov	eax, DWORD PTR fs:__except_list
	push	eax
	mov	DWORD PTR fs:__except_list, esp
	sub	esp, 216				; 000000d8H
	push	ebx
	push	esi
	push	edi
	lea	edi, DWORD PTR [ebp-228]
	mov	ecx, 54					; 00000036H
	mov	eax, -858993460				; ccccccccH
	rep stosd
	mov	DWORD PTR $T95190[ebp], 0

; 2015 : 		CStringT strResult( str1.GetManager() );

	mov	ecx, DWORD PTR _str1$[ebp]
	call	?GetManager@?$CSimpleStringT@G$0A@@ATL@@QBEPAUIAtlStringMgr@2@XZ ; ATL::CSimpleStringT<unsigned short,0>::GetManager
	push	eax
	lea	ecx, DWORD PTR _strResult$[ebp]
	call	??0?$CStringT@GV?$StrTraitMFC@GV?$ChTraitsCRT@G@ATL@@@@@ATL@@QAE@PAUIAtlStringMgr@1@@Z ; ATL::CStringT<unsigned short,StrTraitMFC<unsigned short,ATL::ChTraitsCRT<unsigned short> > >::CStringT<unsigned short,StrTraitMFC<unsigned short,ATL::ChTraitsCRT<unsigned short> > >
	mov	DWORD PTR __$EHRec$[ebp+8], 0

; 2016 : 
; 2017 : 		Concatenate( strResult, str1, str1.GetLength(), str2, str2.GetLength() );

	mov	ecx, DWORD PTR _str2$[ebp]
	call	?GetLength@?$CSimpleStringT@G$0A@@ATL@@QBEHXZ ; ATL::CSimpleStringT<unsigned short,0>::GetLength
	push	eax
	mov	ecx, DWORD PTR _str2$[ebp]
	call	??B?$CSimpleStringT@G$0A@@ATL@@QBEPBGXZ	; ATL::CSimpleStringT<unsigned short,0>::operator unsigned short const *
	push	eax
	mov	ecx, DWORD PTR _str1$[ebp]
	call	?GetLength@?$CSimpleStringT@G$0A@@ATL@@QBEHXZ ; ATL::CSimpleStringT<unsigned short,0>::GetLength
	push	eax
	mov	ecx, DWORD PTR _str1$[ebp]
	call	??B?$CSimpleStringT@G$0A@@ATL@@QBEPBGXZ	; ATL::CSimpleStringT<unsigned short,0>::operator unsigned short const *
	push	eax
	lea	eax, DWORD PTR _strResult$[ebp]
	push	eax
	call	?Concatenate@?$CSimpleStringT@G$0A@@ATL@@KAXAAV12@PBGH1H@Z ; ATL::CSimpleStringT<unsigned short,0>::Concatenate
	add	esp, 20					; 00000014H

; 2018 : 
; 2019 : 		return( strResult );

	lea	eax, DWORD PTR _strResult$[ebp]
	push	eax
	mov	ecx, DWORD PTR ___$ReturnUdt$[ebp]
	call	??0?$CStringT@GV?$StrTraitMFC@GV?$ChTraitsCRT@G@ATL@@@@@ATL@@QAE@ABV01@@Z ; ATL::CStringT<unsigned short,StrTraitMFC<unsigned short,ATL::ChTraitsCRT<unsigned short> > >::CStringT<unsigned short,StrTraitMFC<unsigned short,ATL::ChTraitsCRT<unsigned short> > >
	mov	ecx, DWORD PTR $T95190[ebp]
	or	ecx, 1
	mov	DWORD PTR $T95190[ebp], ecx
	mov	DWORD PTR __$EHRec$[ebp+8], -1
	lea	ecx, DWORD PTR _strResult$[ebp]
	call	??1?$CStringT@GV?$StrTraitMFC@GV?$ChTraitsCRT@G@ATL@@@@@ATL@@QAE@XZ ; ATL::CStringT<unsigned short,StrTraitMFC<unsigned short,ATL::ChTraitsCRT<unsigned short> > >::~CStringT<unsigned short,StrTraitMFC<unsigned short,ATL::ChTraitsCRT<unsigned short> > >
	mov	eax, DWORD PTR ___$ReturnUdt$[ebp]

; 2020 : 	}

	push	edx
	mov	ecx, ebp
	push	eax
	lea	edx, DWORD PTR $L95197
	call	@_RTC_CheckStackVars@8
	pop	eax
	pop	edx
	mov	ecx, DWORD PTR __$EHRec$[ebp]
	mov	DWORD PTR fs:__except_list, ecx
	pop	edi
	pop	esi
	pop	ebx
	add	esp, 228				; 000000e4H
	cmp	ebp, esp
	call	__RTC_CheckEsp
	mov	esp, ebp
	pop	ebp
	ret	0
$L95197:
	DD	1
	DD	$L95196
$L95196:
	DD	-20					; ffffffecH
	DD	4
	DD	$L95194
$L95194:
	DB	115					; 00000073H
	DB	116					; 00000074H
	DB	114					; 00000072H
	DB	82					; 00000052H
	DB	101					; 00000065H
	DB	115					; 00000073H
	DB	117					; 00000075H
	DB	108					; 0000006cH
	DB	116					; 00000074H
	DB	0
_TEXT	ENDS
;	COMDAT text$x
text$x	SEGMENT
__unwindfunclet$??HATL@@YA?AV?$CStringT@GV?$StrTraitMFC@GV?$ChTraitsCRT@G@ATL@@@@@0@ABV10@0@Z$0:
	lea	ecx, DWORD PTR _strResult$[ebp]
	jmp	??1?$CStringT@GV?$StrTraitMFC@GV?$ChTraitsCRT@G@ATL@@@@@ATL@@QAE@XZ ; ATL::CStringT<unsigned short,StrTraitMFC<unsigned short,ATL::ChTraitsCRT<unsigned short> > >::~CStringT<unsigned short,StrTraitMFC<unsigned short,ATL::ChTraitsCRT<unsigned short> > >
__ehhandler$??HATL@@YA?AV?$CStringT@GV?$StrTraitMFC@GV?$ChTraitsCRT@G@ATL@@@@@0@ABV10@0@Z:
	mov	eax, OFFSET FLAT:__ehfuncinfo$??HATL@@YA?AV?$CStringT@GV?$StrTraitMFC@GV?$ChTraitsCRT@G@ATL@@@@@0@ABV10@0@Z
	jmp	___CxxFrameHandler
text$x	ENDS
??HATL@@YA?AV?$CStringT@GV?$StrTraitMFC@GV?$ChTraitsCRT@G@ATL@@@@@0@ABV10@0@Z ENDP ; ATL::operator+
PUBLIC	??_C@_0FD@JDCNPMMG@c?3?2program?5files?2microsoft?5visua@ ; `string'
PUBLIC	?AtlThrow@ATL@@YGXJ@Z				; ATL::AtlThrow
PUBLIC	??_C@_0CH@KENCKLIF@?$CIiChar?5?$DO?$DN?50?$CJ?5?$CG?$CG?5?$CIiChar?5?$DM?$DN?5GetLen@ ; `string'
EXTRN	__CrtDbgReport:NEAR
;	COMDAT ??_C@_0CH@KENCKLIF@?$CIiChar?5?$DO?$DN?50?$CJ?5?$CG?$CG?5?$CIiChar?5?$DM?$DN?5GetLen@
; File c:\program files\microsoft visual studio .net 2003\vc7\atlmfc\include\atlsimpstr.h
CONST	SEGMENT
??_C@_0CH@KENCKLIF@?$CIiChar?5?$DO?$DN?50?$CJ?5?$CG?$CG?5?$CIiChar?5?$DM?$DN?5GetLen@ DB '('
	DB	'iChar >= 0) && (iChar <= GetLength())', 00H	; `string'
CONST	ENDS
;	COMDAT ??_C@_0FD@JDCNPMMG@c?3?2program?5files?2microsoft?5visua@
CONST	SEGMENT
??_C@_0FD@JDCNPMMG@c?3?2program?5files?2microsoft?5visua@ DB 'c:\program '
	DB	'files\microsoft visual studio .net 2003\vc7\atlmfc\include\at'
	DB	'lsimpstr.h', 00H				; `string'
; Function compile flags: /Odt /RTCcsu /ZI
CONST	ENDS
;	COMDAT ??A?$CSimpleStringT@G$0A@@ATL@@QBEGH@Z
_TEXT	SEGMENT
_this$ = -8						; size = 4
_iChar$ = 8						; size = 4
??A?$CSimpleStringT@G$0A@@ATL@@QBEGH@Z PROC NEAR	; ATL::CSimpleStringT<unsigned short,0>::operator[], COMDAT
; _this$ = ecx

; 368  : 	{

	push	ebp
	mov	ebp, esp
	sub	esp, 204				; 000000ccH
	push	ebx
	push	esi
	push	edi
	push	ecx
	lea	edi, DWORD PTR [ebp-204]
	mov	ecx, 51					; 00000033H
	mov	eax, -858993460				; ccccccccH
	rep stosd
	pop	ecx
	mov	DWORD PTR _this$[ebp], ecx

; 369  : 		ATLASSERT( (iChar >= 0) && (iChar <= GetLength()) );  // Indexing the '\0' is OK

	cmp	DWORD PTR _iChar$[ebp], 0
	jl	SHORT $L95203
	mov	ecx, DWORD PTR _this$[ebp]
	call	?GetLength@?$CSimpleStringT@G$0A@@ATL@@QBEHXZ ; ATL::CSimpleStringT<unsigned short,0>::GetLength
	cmp	DWORD PTR _iChar$[ebp], eax
	jle	SHORT $L95204
$L95203:
	push	OFFSET FLAT:??_C@_0CH@KENCKLIF@?$CIiChar?5?$DO?$DN?50?$CJ?5?$CG?$CG?5?$CIiChar?5?$DM?$DN?5GetLen@
	push	0
	push	369					; 00000171H
	push	OFFSET FLAT:??_C@_0FD@JDCNPMMG@c?3?2program?5files?2microsoft?5visua@
	push	2
	call	__CrtDbgReport
	add	esp, 20					; 00000014H
	cmp	eax, 1
	jne	SHORT $L95204
	int	3
$L95204:

; 370  : 		
; 371  : 		if( (iChar < 0) || (iChar > GetLength()) )

	cmp	DWORD PTR _iChar$[ebp], 0
	jl	SHORT $L94097
	mov	ecx, DWORD PTR _this$[ebp]
	call	?GetLength@?$CSimpleStringT@G$0A@@ATL@@QBEHXZ ; ATL::CSimpleStringT<unsigned short,0>::GetLength
	cmp	DWORD PTR _iChar$[ebp], eax
	jle	SHORT $L94096
$L94097:

; 372  : 			AtlThrow(E_INVALIDARG);

	push	-2147024809				; 80070057H
	call	?AtlThrow@ATL@@YGXJ@Z			; ATL::AtlThrow
$L94096:

; 373  : 			
; 374  : 		return( m_pszData[iChar] );

	mov	eax, DWORD PTR _this$[ebp]
	mov	ecx, DWORD PTR [eax]
	mov	edx, DWORD PTR _iChar$[ebp]
	mov	ax, WORD PTR [ecx+edx*2]
$L95202:

; 375  : 	}

	pop	edi
	pop	esi
	pop	ebx
	add	esp, 204				; 000000ccH
	cmp	ebp, esp
	call	__RTC_CheckEsp
	mov	esp, ebp
	pop	ebp
	ret	4
??A?$CSimpleStringT@G$0A@@ATL@@QBEGH@Z ENDP		; ATL::CSimpleStringT<unsigned short,0>::operator[]
_TEXT	ENDS
PUBLIC	??BCTraceCategory@ATL@@QBEKXZ			; ATL::CTraceCategory::operator unsigned long
PUBLIC	??0CTraceFileAndLineInfo@ATL@@QAE@PBDH@Z	; ATL::CTraceFileAndLineInfo::CTraceFileAndLineInfo
PUBLIC	??RCTraceFileAndLineInfo@ATL@@QBAXKIPBGZZ	; ATL::CTraceFileAndLineInfo::operator()
PUBLIC	?__LINE__Var@?1??AtlThrow@ATL@@YGXJ@Z@4JA	; `ATL::AtlThrow'::`2'::__LINE__Var
PUBLIC	??_C@_0FC@IPKABFFL@c?3?2program?5files?2microsoft?5visua@ ; `string'
PUBLIC	??_C@_1CK@DFMKPFAK@?$AAA?$AAt?$AAl?$AAT?$AAh?$AAr?$AAo?$AAw?$AA?3?$AA?5?$AAh?$AAr?$AA?5?$AA?$DN?$AA?5?$AA0?$AAx?$AA?$CF?$AAx?$AA?6@ ; `string'
EXTRN	?atlTraceException@ATL@@3VCTraceCategory@1@A:DWORD ; ATL::atlTraceException
EXTRN	?AfxThrowMemoryException@@YGXXZ:NEAR		; AfxThrowMemoryException
EXTRN	?AfxThrowOleException@@YGXJ@Z:NEAR		; AfxThrowOleException
;	COMDAT ??_C@_1CK@DFMKPFAK@?$AAA?$AAt?$AAl?$AAT?$AAh?$AAr?$AAo?$AAw?$AA?3?$AA?5?$AAh?$AAr?$AA?5?$AA?$DN?$AA?5?$AA0?$AAx?$AA?$CF?$AAx?$AA?6@
; File c:\program files\microsoft visual studio .net 2003\vc7\atlmfc\include\atlexcept.h
CONST	SEGMENT
??_C@_1CK@DFMKPFAK@?$AAA?$AAt?$AAl?$AAT?$AAh?$AAr?$AAo?$AAw?$AA?3?$AA?5?$AAh?$AAr?$AA?5?$AA?$DN?$AA?5?$AA0?$AAx?$AA?$CF?$AAx?$AA?6@ DB 'A'
	DB	00H, 't', 00H, 'l', 00H, 'T', 00H, 'h', 00H, 'r', 00H, 'o', 00H
	DB	'w', 00H, ':', 00H, ' ', 00H, 'h', 00H, 'r', 00H, ' ', 00H, '='
	DB	00H, ' ', 00H, '0', 00H, 'x', 00H, '%', 00H, 'x', 00H, 0aH, 00H
	DB	00H, 00H					; `string'
CONST	ENDS
;	COMDAT ?__LINE__Var@?1??AtlThrow@ATL@@YGXJ@Z@4JA
_DATA	SEGMENT
?__LINE__Var@?1??AtlThrow@ATL@@YGXJ@Z@4JA DD 03dH	; `ATL::AtlThrow'::`2'::__LINE__Var
_DATA	ENDS
;	COMDAT ??_C@_0FC@IPKABFFL@c?3?2program?5files?2microsoft?5visua@
CONST	SEGMENT
??_C@_0FC@IPKABFFL@c?3?2program?5files?2microsoft?5visua@ DB 'c:\program '
	DB	'files\microsoft visual studio .net 2003\vc7\atlmfc\include\at'
	DB	'lexcept.h', 00H				; `string'
; Function compile flags: /Odt /RTCcsu /ZI
CONST	ENDS
;	COMDAT ?AtlThrow@ATL@@YGXJ@Z
_TEXT	SEGMENT
$T95207 = -204						; size = 8
_hr$ = 8						; size = 4
?AtlThrow@ATL@@YGXJ@Z PROC NEAR				; ATL::AtlThrow, COMDAT

; 61   : {

	push	ebp
	mov	ebp, esp
	sub	esp, 208				; 000000d0H
	push	ebx
	push	esi
	push	edi
	lea	edi, DWORD PTR [ebp-208]
	mov	ecx, 52					; 00000034H
	mov	eax, -858993460				; ccccccccH
	rep stosd

; 62   : 	ATLTRACE(atlTraceException, 0, _T("AtlThrow: hr = 0x%x\n"), hr );

	mov	eax, DWORD PTR _hr$[ebp]
	push	eax
	push	OFFSET FLAT:??_C@_1CK@DFMKPFAK@?$AAA?$AAt?$AAl?$AAT?$AAh?$AAr?$AAo?$AAw?$AA?3?$AA?5?$AAh?$AAr?$AA?5?$AA?$DN?$AA?5?$AA0?$AAx?$AA?$CF?$AAx?$AA?6@
	push	0
	mov	ecx, OFFSET FLAT:?atlTraceException@ATL@@3VCTraceCategory@1@A ; ATL::atlTraceException
	call	??BCTraceCategory@ATL@@QBEKXZ		; ATL::CTraceCategory::operator unsigned long
	push	eax
	mov	ecx, DWORD PTR ?__LINE__Var@?1??AtlThrow@ATL@@YGXJ@Z@4JA
	add	ecx, 1
	push	ecx
	push	OFFSET FLAT:??_C@_0FC@IPKABFFL@c?3?2program?5files?2microsoft?5visua@
	lea	ecx, DWORD PTR $T95207[ebp]
	call	??0CTraceFileAndLineInfo@ATL@@QAE@PBDH@Z ; ATL::CTraceFileAndLineInfo::CTraceFileAndLineInfo
	push	eax
	call	??RCTraceFileAndLineInfo@ATL@@QBAXKIPBGZZ ; ATL::CTraceFileAndLineInfo::operator()
	add	esp, 20					; 00000014H

; 63   : #ifdef _AFX
; 64   : 	if( hr == E_OUTOFMEMORY )

	cmp	DWORD PTR _hr$[ebp], -2147024882	; 8007000eH
	jne	SHORT $L25398

; 65   : 	{
; 66   : 		AfxThrowMemoryException();

	call	?AfxThrowMemoryException@@YGXXZ		; AfxThrowMemoryException
$L25398:

; 67   : 	}
; 68   : 	else
; 69   : 	{
; 70   : 		AfxThrowOleException( hr );

	mov	eax, DWORD PTR _hr$[ebp]
	push	eax
	call	?AfxThrowOleException@@YGXJ@Z		; AfxThrowOleException
$L95206:

; 71   : 	}
; 72   : #else
; 73   : 	throw CAtlException( hr );
; 74   : #endif
; 75   : };

	pop	edi
	pop	esi
	pop	ebx
	add	esp, 208				; 000000d0H
	cmp	ebp, esp
	call	__RTC_CheckEsp
	mov	esp, ebp
	pop	ebp
	ret	4
?AtlThrow@ATL@@YGXJ@Z ENDP				; ATL::AtlThrow
; Function compile flags: /Odt /RTCcsu /ZI
; File c:\program files\microsoft visual studio .net 2003\vc7\atlmfc\include\atltrace.h
_TEXT	ENDS
;	COMDAT ??0CTraceFileAndLineInfo@ATL@@QAE@PBDH@Z
_TEXT	SEGMENT
_this$ = -8						; size = 4
_pszFileName$ = 8					; size = 4
_nLineNo$ = 12						; size = 4
??0CTraceFileAndLineInfo@ATL@@QAE@PBDH@Z PROC NEAR	; ATL::CTraceFileAndLineInfo::CTraceFileAndLineInfo, COMDAT
; _this$ = ecx

; 158  : 	{}

	push	ebp
	mov	ebp, esp
	sub	esp, 204				; 000000ccH
	push	ebx
	push	esi
	push	edi
	push	ecx
	lea	edi, DWORD PTR [ebp-204]
	mov	ecx, 51					; 00000033H
	mov	eax, -858993460				; ccccccccH
	rep stosd
	pop	ecx
	mov	DWORD PTR _this$[ebp], ecx
	mov	eax, DWORD PTR _this$[ebp]
	mov	ecx, DWORD PTR _pszFileName$[ebp]
	mov	DWORD PTR [eax], ecx
	mov	eax, DWORD PTR _this$[ebp]
	mov	ecx, DWORD PTR _nLineNo$[ebp]
	mov	DWORD PTR [eax+4], ecx
	mov	eax, DWORD PTR _this$[ebp]
	pop	edi
	pop	esi
	pop	ebx
	mov	esp, ebp
	pop	ebp
	ret	8
??0CTraceFileAndLineInfo@ATL@@QAE@PBDH@Z ENDP		; ATL::CTraceFileAndLineInfo::CTraceFileAndLineInfo
_TEXT	ENDS
PUBLIC	?TraceV@CTrace@ATL@@QBAXPBDHKIPBGPAD@Z		; ATL::CTrace::TraceV
EXTRN	?s_trace@CTrace@ATL@@2V12@A:QWORD		; ATL::CTrace::s_trace
; Function compile flags: /Odt /RTCcsu /ZI
;	COMDAT ??RCTraceFileAndLineInfo@ATL@@QBAXKIPBGZZ
_TEXT	SEGMENT
_ptr$ = -8						; size = 4
_this$ = 8						; size = 4
_dwCategory$ = 12					; size = 4
_nLevel$ = 16						; size = 4
_pszFmt$ = 20						; size = 4
??RCTraceFileAndLineInfo@ATL@@QBAXKIPBGZZ PROC NEAR	; ATL::CTraceFileAndLineInfo::operator(), COMDAT

; 167  : 	{

	push	ebp
	mov	ebp, esp
	sub	esp, 204				; 000000ccH
	push	ebx
	push	esi
	push	edi
	lea	edi, DWORD PTR [ebp-204]
	mov	ecx, 51					; 00000033H
	mov	eax, -858993460				; ccccccccH
	rep stosd

; 168  : 		va_list ptr; va_start(ptr, pszFmt);

	lea	eax, DWORD PTR _pszFmt$[ebp+4]
	mov	DWORD PTR _ptr$[ebp], eax

; 169  : 		ATL::CTrace::s_trace.TraceV(m_pszFileName, m_nLineNo, dwCategory, nLevel, pszFmt, ptr);

	mov	eax, DWORD PTR _ptr$[ebp]
	push	eax
	mov	ecx, DWORD PTR _pszFmt$[ebp]
	push	ecx
	mov	edx, DWORD PTR _nLevel$[ebp]
	push	edx
	mov	eax, DWORD PTR _dwCategory$[ebp]
	push	eax
	mov	ecx, DWORD PTR _this$[ebp]
	mov	edx, DWORD PTR [ecx+4]
	push	edx
	mov	eax, DWORD PTR _this$[ebp]
	mov	ecx, DWORD PTR [eax]
	push	ecx
	push	OFFSET FLAT:?s_trace@CTrace@ATL@@2V12@A
	call	?TraceV@CTrace@ATL@@QBAXPBDHKIPBGPAD@Z	; ATL::CTrace::TraceV
	add	esp, 28					; 0000001cH

; 170  : 		va_end(ptr);

	mov	DWORD PTR _ptr$[ebp], 0

; 171  : 	}

	pop	edi
	pop	esi
	pop	ebx
	add	esp, 204				; 000000ccH
	cmp	ebp, esp
	call	__RTC_CheckEsp
	mov	esp, ebp
	pop	ebp
	ret	0
??RCTraceFileAndLineInfo@ATL@@QBAXKIPBGZZ ENDP		; ATL::CTraceFileAndLineInfo::operator()
_TEXT	ENDS
EXTRN	_AtlTraceVU:NEAR
; Function compile flags: /Odt /RTCcsu /ZI
;	COMDAT ?TraceV@CTrace@ATL@@QBAXPBDHKIPBGPAD@Z
_TEXT	SEGMENT
_this$ = 8						; size = 4
_pszFileName$ = 12					; size = 4
_nLine$ = 16						; size = 4
_dwCategory$ = 20					; size = 4
_nLevel$ = 24						; size = 4
_pszFmt$ = 28						; size = 4
_args$ = 32						; size = 4
?TraceV@CTrace@ATL@@QBAXPBDHKIPBGPAD@Z PROC NEAR	; ATL::CTrace::TraceV, COMDAT

; 126  : 	{

	push	ebp
	mov	ebp, esp
	sub	esp, 192				; 000000c0H
	push	ebx
	push	esi
	push	edi
	lea	edi, DWORD PTR [ebp-192]
	mov	ecx, 48					; 00000030H
	mov	eax, -858993460				; ccccccccH
	rep stosd

; 127  : 		AtlTraceVU(m_dwModule, pszFileName, nLine, dwCategory, nLevel, pszFmt, args);

	mov	eax, DWORD PTR _args$[ebp]
	push	eax
	mov	ecx, DWORD PTR _pszFmt$[ebp]
	push	ecx
	mov	edx, DWORD PTR _nLevel$[ebp]
	push	edx
	mov	eax, DWORD PTR _dwCategory$[ebp]
	push	eax
	mov	ecx, DWORD PTR _nLine$[ebp]
	push	ecx
	mov	edx, DWORD PTR _pszFileName$[ebp]
	push	edx
	mov	eax, DWORD PTR _this$[ebp]
	mov	ecx, DWORD PTR [eax+4]
	push	ecx
	call	_AtlTraceVU
	add	esp, 28					; 0000001cH

; 128  : 	}

	pop	edi
	pop	esi
	pop	ebx
	add	esp, 192				; 000000c0H
	cmp	ebp, esp
	call	__RTC_CheckEsp
	mov	esp, ebp
	pop	ebp
	ret	0
?TraceV@CTrace@ATL@@QBAXPBDHKIPBGPAD@Z ENDP		; ATL::CTrace::TraceV
; Function compile flags: /Odt /RTCcsu /ZI
_TEXT	ENDS
;	COMDAT ??BCTraceCategory@ATL@@QBEKXZ
_TEXT	SEGMENT
_this$ = -8						; size = 4
??BCTraceCategory@ATL@@QBEKXZ PROC NEAR			; ATL::CTraceCategory::operator unsigned long, COMDAT
; _this$ = ecx

; 202  : {

	push	ebp
	mov	ebp, esp
	sub	esp, 204				; 000000ccH
	push	ebx
	push	esi
	push	edi
	push	ecx
	lea	edi, DWORD PTR [ebp-204]
	mov	ecx, 51					; 00000033H
	mov	eax, -858993460				; ccccccccH
	rep stosd
	pop	ecx
	mov	DWORD PTR _this$[ebp], ecx

; 203  : 	return( m_dwCategory );

	mov	eax, DWORD PTR _this$[ebp]
	mov	eax, DWORD PTR [eax]

; 204  : }

	pop	edi
	pop	esi
	pop	ebx
	mov	esp, ebp
	pop	ebp
	ret	0
??BCTraceCategory@ATL@@QBEKXZ ENDP			; ATL::CTraceCategory::operator unsigned long
_TEXT	ENDS
PUBLIC	??0?$CSimpleStringT@G$0A@@ATL@@QAE@PAUIAtlStringMgr@1@@Z ; ATL::CSimpleStringT<unsigned short,0>::CSimpleStringT<unsigned short,0>
; Function compile flags: /Odt /RTCcsu /ZI
; File c:\program files\microsoft visual studio .net 2003\vc7\atlmfc\include\cstringt.h
;	COMDAT ??0?$CStringT@GV?$StrTraitMFC@GV?$ChTraitsCRT@G@ATL@@@@@ATL@@QAE@PAUIAtlStringMgr@1@@Z
_TEXT	SEGMENT
_this$ = -8						; size = 4
_pStringMgr$ = 8					; size = 4
??0?$CStringT@GV?$StrTraitMFC@GV?$ChTraitsCRT@G@ATL@@@@@ATL@@QAE@PAUIAtlStringMgr@1@@Z PROC NEAR ; ATL::CStringT<unsigned short,StrTraitMFC<unsigned short,ATL::ChTraitsCRT<unsigned short> > >::CStringT<unsigned short,StrTraitMFC<unsigned short,ATL::ChTraitsCRT<unsigned short> > >, COMDAT
; _this$ = ecx

; 800  : 	{ 

	push	ebp
	mov	ebp, esp
	sub	esp, 204				; 000000ccH
	push	ebx
	push	esi
	push	edi
	push	ecx
	lea	edi, DWORD PTR [ebp-204]
	mov	ecx, 51					; 00000033H
	mov	eax, -858993460				; ccccccccH
	rep stosd
	pop	ecx
	mov	DWORD PTR _this$[ebp], ecx
	mov	eax, DWORD PTR _pStringMgr$[ebp]
	push	eax
	mov	ecx, DWORD PTR _this$[ebp]
	call	??0?$CSimpleStringT@G$0A@@ATL@@QAE@PAUIAtlStringMgr@1@@Z ; ATL::CSimpleStringT<unsigned short,0>::CSimpleStringT<unsigned short,0>

; 801  : 	}

	mov	eax, DWORD PTR _this$[ebp]
	pop	edi
	pop	esi
	pop	ebx
	add	esp, 204				; 000000ccH
	cmp	ebp, esp
	call	__RTC_CheckEsp
	mov	esp, ebp
	pop	ebp
	ret	4
??0?$CStringT@GV?$StrTraitMFC@GV?$ChTraitsCRT@G@ATL@@@@@ATL@@QAE@PAUIAtlStringMgr@1@@Z ENDP ; ATL::CStringT<unsigned short,StrTraitMFC<unsigned short,ATL::ChTraitsCRT<unsigned short> > >::CStringT<unsigned short,StrTraitMFC<unsigned short,ATL::ChTraitsCRT<unsigned short> > >
_TEXT	ENDS
PUBLIC	?CheckImplicitLoad@?$CStringT@GV?$StrTraitMFC@GV?$ChTraitsCRT@G@ATL@@@@@ATL@@AAE_NPBX@Z ; ATL::CStringT<unsigned short,StrTraitMFC<unsigned short,ATL::ChTraitsCRT<unsigned short> > >::CheckImplicitLoad
PUBLIC	??1?$CSimpleStringT@G$0A@@ATL@@QAE@XZ		; ATL::CSimpleStringT<unsigned short,0>::~CSimpleStringT<unsigned short,0>
;	COMDAT xdata$x
xdata$x	SEGMENT
__unwindtable$??0?$CStringT@GV?$StrTraitMFC@GV?$ChTraitsCRT@G@ATL@@@@@ATL@@QAE@PBDPAUIAtlStringMgr@1@@Z DD 0ffffffffH
	DD	FLAT:__unwindfunclet$??0?$CStringT@GV?$StrTraitMFC@GV?$ChTraitsCRT@G@ATL@@@@@ATL@@QAE@PBDPAUIAtlStringMgr@1@@Z$0
__ehfuncinfo$??0?$CStringT@GV?$StrTraitMFC@GV?$ChTraitsCRT@G@ATL@@@@@ATL@@QAE@PBDPAUIAtlStringMgr@1@@Z DD 019930520H
	DD	01H
	DD	FLAT:__unwindtable$??0?$CStringT@GV?$StrTraitMFC@GV?$ChTraitsCRT@G@ATL@@@@@ATL@@QAE@PBDPAUIAtlStringMgr@1@@Z
	DD	2 DUP(00H)
	DD	2 DUP(00H)
; Function compile flags: /Odt /RTCcsu /ZI
xdata$x	ENDS
;	COMDAT ??0?$CStringT@GV?$StrTraitMFC@GV?$ChTraitsCRT@G@ATL@@@@@ATL@@QAE@PBDPAUIAtlStringMgr@1@@Z
_TEXT	SEGMENT
_this$ = -20						; size = 4
__$EHRec$ = -12						; size = 12
_pszSrc$ = 8						; size = 4
_pStringMgr$ = 12					; size = 4
??0?$CStringT@GV?$StrTraitMFC@GV?$ChTraitsCRT@G@ATL@@@@@ATL@@QAE@PBDPAUIAtlStringMgr@1@@Z PROC NEAR ; ATL::CStringT<unsigned short,StrTraitMFC<unsigned short,ATL::ChTraitsCRT<unsigned short> > >::CStringT<unsigned short,StrTraitMFC<unsigned short,ATL::ChTraitsCRT<unsigned short> > >, COMDAT
; _this$ = ecx

; 840  : 	{

	push	ebp
	mov	ebp, esp
	push	-1
	push	__ehhandler$??0?$CStringT@GV?$StrTraitMFC@GV?$ChTraitsCRT@G@ATL@@@@@ATL@@QAE@PBDPAUIAtlStringMgr@1@@Z
	mov	eax, DWORD PTR fs:__except_list
	push	eax
	mov	DWORD PTR fs:__except_list, esp
	sub	esp, 204				; 000000ccH
	push	ebx
	push	esi
	push	edi
	push	ecx
	lea	edi, DWORD PTR [ebp-216]
	mov	ecx, 51					; 00000033H
	mov	eax, -858993460				; ccccccccH
	rep stosd
	pop	ecx
	mov	DWORD PTR _this$[ebp], ecx
	mov	eax, DWORD PTR _pStringMgr$[ebp]
	push	eax
	mov	ecx, DWORD PTR _this$[ebp]
	call	??0?$CSimpleStringT@G$0A@@ATL@@QAE@PAUIAtlStringMgr@1@@Z ; ATL::CSimpleStringT<unsigned short,0>::CSimpleStringT<unsigned short,0>
	mov	DWORD PTR __$EHRec$[ebp+8], 0

; 841  : 		if( !CheckImplicitLoad( pszSrc ) )

	mov	eax, DWORD PTR _pszSrc$[ebp]
	push	eax
	mov	ecx, DWORD PTR _this$[ebp]
	call	?CheckImplicitLoad@?$CStringT@GV?$StrTraitMFC@GV?$ChTraitsCRT@G@ATL@@@@@ATL@@AAE_NPBX@Z ; ATL::CStringT<unsigned short,StrTraitMFC<unsigned short,ATL::ChTraitsCRT<unsigned short> > >::CheckImplicitLoad
	movzx	ecx, al
	test	ecx, ecx
	jne	SHORT $L94102

; 842  : 		{
; 843  : 			// nDestLength is in XCHARs
; 844  : 			*this = pszSrc;

	mov	eax, DWORD PTR _pszSrc$[ebp]
	push	eax
	mov	ecx, DWORD PTR _this$[ebp]
	call	??4?$CStringT@GV?$StrTraitMFC@GV?$ChTraitsCRT@G@ATL@@@@@ATL@@QAEAAV01@PBD@Z ; ATL::CStringT<unsigned short,StrTraitMFC<unsigned short,ATL::ChTraitsCRT<unsigned short> > >::operator=
$L94102:

; 845  : 		}
; 846  : 	}

	mov	DWORD PTR __$EHRec$[ebp+8], -1
	mov	eax, DWORD PTR _this$[ebp]
	mov	ecx, DWORD PTR __$EHRec$[ebp]
	mov	DWORD PTR fs:__except_list, ecx
	pop	edi
	pop	esi
	pop	ebx
	add	esp, 216				; 000000d8H
	cmp	ebp, esp
	call	__RTC_CheckEsp
	mov	esp, ebp
	pop	ebp
	ret	8
_TEXT	ENDS
;	COMDAT text$x
text$x	SEGMENT
__unwindfunclet$??0?$CStringT@GV?$StrTraitMFC@GV?$ChTraitsCRT@G@ATL@@@@@ATL@@QAE@PBDPAUIAtlStringMgr@1@@Z$0:
	mov	ecx, DWORD PTR _this$[ebp]
	jmp	??1?$CSimpleStringT@G$0A@@ATL@@QAE@XZ	; ATL::CSimpleStringT<unsigned short,0>::~CSimpleStringT<unsigned short,0>
__ehhandler$??0?$CStringT@GV?$StrTraitMFC@GV?$ChTraitsCRT@G@ATL@@@@@ATL@@QAE@PBDPAUIAtlStringMgr@1@@Z:
	mov	eax, OFFSET FLAT:__ehfuncinfo$??0?$CStringT@GV?$StrTraitMFC@GV?$ChTraitsCRT@G@ATL@@@@@ATL@@QAE@PBDPAUIAtlStringMgr@1@@Z
	jmp	___CxxFrameHandler
text$x	ENDS
??0?$CStringT@GV?$StrTraitMFC@GV?$ChTraitsCRT@G@ATL@@@@@ATL@@QAE@PBDPAUIAtlStringMgr@1@@Z ENDP ; ATL::CStringT<unsigned short,StrTraitMFC<unsigned short,ATL::ChTraitsCRT<unsigned short> > >::CStringT<unsigned short,StrTraitMFC<unsigned short,ATL::ChTraitsCRT<unsigned short> > >
PUBLIC	?IsLocked@CStringData@ATL@@QBE_NXZ		; ATL::CStringData::IsLocked
PUBLIC	?Release@CStringData@ATL@@QAEXXZ		; ATL::CStringData::Release
PUBLIC	?GetString@?$CSimpleStringT@G$0A@@ATL@@QBEPBGXZ	; ATL::CSimpleStringT<unsigned short,0>::GetString
PUBLIC	?SetString@?$CSimpleStringT@G$0A@@ATL@@QAEXPBGH@Z ; ATL::CSimpleStringT<unsigned short,0>::SetString
PUBLIC	?Attach@?$CSimpleStringT@G$0A@@ATL@@AAEXPAUCStringData@2@@Z ; ATL::CSimpleStringT<unsigned short,0>::Attach
PUBLIC	?GetData@?$CSimpleStringT@G$0A@@ATL@@ABEPAUCStringData@2@XZ ; ATL::CSimpleStringT<unsigned short,0>::GetData
PUBLIC	?CloneData@?$CSimpleStringT@G$0A@@ATL@@CAPAUCStringData@2@PAU32@@Z ; ATL::CSimpleStringT<unsigned short,0>::CloneData
; Function compile flags: /Odt /RTCcsu /ZI
; File c:\program files\microsoft visual studio .net 2003\vc7\atlmfc\include\atlsimpstr.h
;	COMDAT ??4?$CSimpleStringT@G$0A@@ATL@@QAEAAV01@ABV01@@Z
_TEXT	SEGMENT
_pNewData$94112 = -44					; size = 4
_pOldData$ = -32					; size = 4
_pSrcData$ = -20					; size = 4
_this$ = -8						; size = 4
_strSrc$ = 8						; size = 4
??4?$CSimpleStringT@G$0A@@ATL@@QAEAAV01@ABV01@@Z PROC NEAR ; ATL::CSimpleStringT<unsigned short,0>::operator=, COMDAT
; _this$ = ecx

; 273  : 	{

	push	ebp
	mov	ebp, esp
	sub	esp, 240				; 000000f0H
	push	ebx
	push	esi
	push	edi
	push	ecx
	lea	edi, DWORD PTR [ebp-240]
	mov	ecx, 60					; 0000003cH
	mov	eax, -858993460				; ccccccccH
	rep stosd
	pop	ecx
	mov	DWORD PTR _this$[ebp], ecx

; 274  : 		CStringData* pSrcData = strSrc.GetData();

	mov	ecx, DWORD PTR _strSrc$[ebp]
	call	?GetData@?$CSimpleStringT@G$0A@@ATL@@ABEPAUCStringData@2@XZ ; ATL::CSimpleStringT<unsigned short,0>::GetData
	mov	DWORD PTR _pSrcData$[ebp], eax

; 275  : 		CStringData* pOldData = GetData();

	mov	ecx, DWORD PTR _this$[ebp]
	call	?GetData@?$CSimpleStringT@G$0A@@ATL@@ABEPAUCStringData@2@XZ ; ATL::CSimpleStringT<unsigned short,0>::GetData
	mov	DWORD PTR _pOldData$[ebp], eax

; 276  : 		if( pSrcData != pOldData)

	mov	eax, DWORD PTR _pSrcData$[ebp]
	cmp	eax, DWORD PTR _pOldData$[ebp]
	je	SHORT $L94108

; 277  : 		{
; 278  : 			if( pOldData->IsLocked() || pSrcData->pStringMgr != pOldData->pStringMgr )

	mov	ecx, DWORD PTR _pOldData$[ebp]
	call	?IsLocked@CStringData@ATL@@QBE_NXZ	; ATL::CStringData::IsLocked
	movzx	eax, al
	test	eax, eax
	jne	SHORT $L94110
	mov	eax, DWORD PTR _pSrcData$[ebp]
	mov	ecx, DWORD PTR _pOldData$[ebp]
	mov	edx, DWORD PTR [eax]
	cmp	edx, DWORD PTR [ecx]
	je	SHORT $L94109
$L94110:

; 279  : 			{
; 280  : 				SetString( strSrc.GetString(), strSrc.GetLength() );

	mov	ecx, DWORD PTR _strSrc$[ebp]
	call	?GetLength@?$CSimpleStringT@G$0A@@ATL@@QBEHXZ ; ATL::CSimpleStringT<unsigned short,0>::GetLength
	push	eax
	mov	ecx, DWORD PTR _strSrc$[ebp]
	call	?GetString@?$CSimpleStringT@G$0A@@ATL@@QBEPBGXZ ; ATL::CSimpleStringT<unsigned short,0>::GetString
	push	eax
	mov	ecx, DWORD PTR _this$[ebp]
	call	?SetString@?$CSimpleStringT@G$0A@@ATL@@QAEXPBGH@Z ; ATL::CSimpleStringT<unsigned short,0>::SetString

; 281  : 			}
; 282  : 			else

	jmp	SHORT $L94108
$L94109:

; 283  : 			{
; 284  : 				CStringData* pNewData = CloneData( pSrcData );

	mov	eax, DWORD PTR _pSrcData$[ebp]
	push	eax
	call	?CloneData@?$CSimpleStringT@G$0A@@ATL@@CAPAUCStringData@2@PAU32@@Z ; ATL::CSimpleStringT<unsigned short,0>::CloneData
	add	esp, 4
	mov	DWORD PTR _pNewData$94112[ebp], eax

; 285  : 				pOldData->Release();

	mov	ecx, DWORD PTR _pOldData$[ebp]
	call	?Release@CStringData@ATL@@QAEXXZ	; ATL::CStringData::Release

; 286  : 				Attach( pNewData );

	mov	eax, DWORD PTR _pNewData$94112[ebp]
	push	eax
	mov	ecx, DWORD PTR _this$[ebp]
	call	?Attach@?$CSimpleStringT@G$0A@@ATL@@AAEXPAUCStringData@2@@Z ; ATL::CSimpleStringT<unsigned short,0>::Attach
$L94108:

; 287  : 			}
; 288  : 		}
; 289  : 
; 290  : 		return( *this );

	mov	eax, DWORD PTR _this$[ebp]

; 291  : 	}

	pop	edi
	pop	esi
	pop	ebx
	add	esp, 240				; 000000f0H
	cmp	ebp, esp
	call	__RTC_CheckEsp
	mov	esp, ebp
	pop	ebp
	ret	4
??4?$CSimpleStringT@G$0A@@ATL@@QAEAAV01@ABV01@@Z ENDP	; ATL::CSimpleStringT<unsigned short,0>::operator=
_TEXT	ENDS
PUBLIC	?Append@?$CSimpleStringT@G$0A@@ATL@@QAEXABV12@@Z ; ATL::CSimpleStringT<unsigned short,0>::Append
; Function compile flags: /Odt /RTCcsu /ZI
;	COMDAT ??Y?$CSimpleStringT@G$0A@@ATL@@QAEAAV01@ABV01@@Z
_TEXT	SEGMENT
_this$ = -8						; size = 4
_strSrc$ = 8						; size = 4
??Y?$CSimpleStringT@G$0A@@ATL@@QAEAAV01@ABV01@@Z PROC NEAR ; ATL::CSimpleStringT<unsigned short,0>::operator+=, COMDAT
; _this$ = ecx

; 322  : 	{

	push	ebp
	mov	ebp, esp
	sub	esp, 204				; 000000ccH
	push	ebx
	push	esi
	push	edi
	push	ecx
	lea	edi, DWORD PTR [ebp-204]
	mov	ecx, 51					; 00000033H
	mov	eax, -858993460				; ccccccccH
	rep stosd
	pop	ecx
	mov	DWORD PTR _this$[ebp], ecx

; 323  : 		Append( strSrc );

	mov	eax, DWORD PTR _strSrc$[ebp]
	push	eax
	mov	ecx, DWORD PTR _this$[ebp]
	call	?Append@?$CSimpleStringT@G$0A@@ATL@@QAEXABV12@@Z ; ATL::CSimpleStringT<unsigned short,0>::Append

; 324  : 
; 325  : 		return( *this );

	mov	eax, DWORD PTR _this$[ebp]

; 326  : 	}

	pop	edi
	pop	esi
	pop	ebx
	add	esp, 204				; 000000ccH
	cmp	ebp, esp
	call	__RTC_CheckEsp
	mov	esp, ebp
	pop	ebp
	ret	4
??Y?$CSimpleStringT@G$0A@@ATL@@QAEAAV01@ABV01@@Z ENDP	; ATL::CSimpleStringT<unsigned short,0>::operator+=
; Function compile flags: /Odt /RTCcsu /ZI
_TEXT	ENDS
;	COMDAT ?GetManager@?$CSimpleStringT@G$0A@@ATL@@QBEPAUIAtlStringMgr@2@XZ
_TEXT	SEGMENT
tv68 = -208						; size = 4
_this$ = -8						; size = 4
?GetManager@?$CSimpleStringT@G$0A@@ATL@@QBEPAUIAtlStringMgr@2@XZ PROC NEAR ; ATL::CSimpleStringT<unsigned short,0>::GetManager, COMDAT
; _this$ = ecx

; 504  : 	{

	push	ebp
	mov	ebp, esp
	sub	esp, 208				; 000000d0H
	push	ebx
	push	esi
	push	edi
	push	ecx
	lea	edi, DWORD PTR [ebp-208]
	mov	ecx, 52					; 00000034H
	mov	eax, -858993460				; ccccccccH
	rep stosd
	pop	ecx
	mov	DWORD PTR _this$[ebp], ecx

; 505  : 		return( GetData()->pStringMgr->Clone() );

	mov	ecx, DWORD PTR _this$[ebp]
	call	?GetData@?$CSimpleStringT@G$0A@@ATL@@ABEPAUCStringData@2@XZ ; ATL::CSimpleStringT<unsigned short,0>::GetData
	mov	eax, DWORD PTR [eax]
	mov	DWORD PTR tv68[ebp], eax
	mov	ecx, DWORD PTR tv68[ebp]
	mov	edx, DWORD PTR [ecx]
	mov	esi, esp
	mov	ecx, DWORD PTR tv68[ebp]
	call	DWORD PTR [edx+16]
	cmp	esi, esp
	call	__RTC_CheckEsp

; 506  : 	}

	pop	edi
	pop	esi
	pop	ebx
	add	esp, 208				; 000000d0H
	cmp	ebp, esp
	call	__RTC_CheckEsp
	mov	esp, ebp
	pop	ebp
	ret	0
?GetManager@?$CSimpleStringT@G$0A@@ATL@@QBEPAUIAtlStringMgr@2@XZ ENDP ; ATL::CSimpleStringT<unsigned short,0>::GetManager
_TEXT	ENDS
PUBLIC	?GetBuffer@?$CSimpleStringT@G$0A@@ATL@@QAEPAGH@Z ; ATL::CSimpleStringT<unsigned short,0>::GetBuffer
PUBLIC	?ReleaseBufferSetLength@?$CSimpleStringT@G$0A@@ATL@@QAEXH@Z ; ATL::CSimpleStringT<unsigned short,0>::ReleaseBufferSetLength
PUBLIC	?CopyChars@?$CSimpleStringT@G$0A@@ATL@@SAXPAGPBGH@Z ; ATL::CSimpleStringT<unsigned short,0>::CopyChars
; Function compile flags: /Odt /RTCcsu /ZI
;	COMDAT ?Concatenate@?$CSimpleStringT@G$0A@@ATL@@KAXAAV12@PBGH1H@Z
_TEXT	SEGMENT
_pszBuffer$ = -20					; size = 4
_nNewLength$ = -8					; size = 4
_strResult$ = 8						; size = 4
_psz1$ = 12						; size = 4
_nLength1$ = 16						; size = 4
_psz2$ = 20						; size = 4
_nLength2$ = 24						; size = 4
?Concatenate@?$CSimpleStringT@G$0A@@ATL@@KAXAAV12@PBGH1H@Z PROC NEAR ; ATL::CSimpleStringT<unsigned short,0>::Concatenate, COMDAT

; 696  : 	{

	push	ebp
	mov	ebp, esp
	sub	esp, 216				; 000000d8H
	push	ebx
	push	esi
	push	edi
	lea	edi, DWORD PTR [ebp-216]
	mov	ecx, 54					; 00000036H
	mov	eax, -858993460				; ccccccccH
	rep stosd

; 697  : 		int nNewLength = nLength1+nLength2;

	mov	eax, DWORD PTR _nLength1$[ebp]
	add	eax, DWORD PTR _nLength2$[ebp]
	mov	DWORD PTR _nNewLength$[ebp], eax

; 698  : 		PXSTR pszBuffer = strResult.GetBuffer( nNewLength );

	mov	eax, DWORD PTR _nNewLength$[ebp]
	push	eax
	mov	ecx, DWORD PTR _strResult$[ebp]
	call	?GetBuffer@?$CSimpleStringT@G$0A@@ATL@@QAEPAGH@Z ; ATL::CSimpleStringT<unsigned short,0>::GetBuffer
	mov	DWORD PTR _pszBuffer$[ebp], eax

; 699  : 		CopyChars( pszBuffer, psz1, nLength1 );

	mov	eax, DWORD PTR _nLength1$[ebp]
	push	eax
	mov	ecx, DWORD PTR _psz1$[ebp]
	push	ecx
	mov	edx, DWORD PTR _pszBuffer$[ebp]
	push	edx
	call	?CopyChars@?$CSimpleStringT@G$0A@@ATL@@SAXPAGPBGH@Z ; ATL::CSimpleStringT<unsigned short,0>::CopyChars
	add	esp, 12					; 0000000cH

; 700  : 		CopyChars( pszBuffer+nLength1, psz2, nLength2 );

	mov	eax, DWORD PTR _nLength2$[ebp]
	push	eax
	mov	ecx, DWORD PTR _psz2$[ebp]
	push	ecx
	mov	edx, DWORD PTR _nLength1$[ebp]
	mov	eax, DWORD PTR _pszBuffer$[ebp]
	lea	ecx, DWORD PTR [eax+edx*2]
	push	ecx
	call	?CopyChars@?$CSimpleStringT@G$0A@@ATL@@SAXPAGPBGH@Z ; ATL::CSimpleStringT<unsigned short,0>::CopyChars
	add	esp, 12					; 0000000cH

; 701  : 		strResult.ReleaseBufferSetLength( nNewLength );

	mov	eax, DWORD PTR _nNewLength$[ebp]
	push	eax
	mov	ecx, DWORD PTR _strResult$[ebp]
	call	?ReleaseBufferSetLength@?$CSimpleStringT@G$0A@@ATL@@QAEXH@Z ; ATL::CSimpleStringT<unsigned short,0>::ReleaseBufferSetLength

; 702  : 	}

	pop	edi
	pop	esi
	pop	ebx
	add	esp, 216				; 000000d8H
	cmp	ebp, esp
	call	__RTC_CheckEsp
	mov	esp, ebp
	pop	ebp
	ret	0
?Concatenate@?$CSimpleStringT@G$0A@@ATL@@KAXAAV12@PBGH1H@Z ENDP ; ATL::CSimpleStringT<unsigned short,0>::Concatenate
_TEXT	ENDS
PUBLIC	?Append@?$CSimpleStringT@G$0A@@ATL@@QAEXPBGH@Z	; ATL::CSimpleStringT<unsigned short,0>::Append
; Function compile flags: /Odt /RTCcsu /ZI
;	COMDAT ?Append@?$CSimpleStringT@G$0A@@ATL@@QAEXABV12@@Z
_TEXT	SEGMENT
_this$ = -8						; size = 4
_strSrc$ = 8						; size = 4
?Append@?$CSimpleStringT@G$0A@@ATL@@QAEXABV12@@Z PROC NEAR ; ATL::CSimpleStringT<unsigned short,0>::Append, COMDAT
; _this$ = ecx

; 412  : 	{

	push	ebp
	mov	ebp, esp
	sub	esp, 204				; 000000ccH
	push	ebx
	push	esi
	push	edi
	push	ecx
	lea	edi, DWORD PTR [ebp-204]
	mov	ecx, 51					; 00000033H
	mov	eax, -858993460				; ccccccccH
	rep stosd
	pop	ecx
	mov	DWORD PTR _this$[ebp], ecx

; 413  : 		Append( strSrc.GetString(), strSrc.GetLength() );

	mov	ecx, DWORD PTR _strSrc$[ebp]
	call	?GetLength@?$CSimpleStringT@G$0A@@ATL@@QBEHXZ ; ATL::CSimpleStringT<unsigned short,0>::GetLength
	push	eax
	mov	ecx, DWORD PTR _strSrc$[ebp]
	call	?GetString@?$CSimpleStringT@G$0A@@ATL@@QBEPBGXZ ; ATL::CSimpleStringT<unsigned short,0>::GetString
	push	eax
	mov	ecx, DWORD PTR _this$[ebp]
	call	?Append@?$CSimpleStringT@G$0A@@ATL@@QAEXPBGH@Z ; ATL::CSimpleStringT<unsigned short,0>::Append

; 414  : 	}

	pop	edi
	pop	esi
	pop	ebx
	add	esp, 204				; 000000ccH
	cmp	ebp, esp
	call	__RTC_CheckEsp
	mov	esp, ebp
	pop	ebp
	ret	4
?Append@?$CSimpleStringT@G$0A@@ATL@@QAEXABV12@@Z ENDP	; ATL::CSimpleStringT<unsigned short,0>::Append
; Function compile flags: /Odt /RTCcsu /ZI
_TEXT	ENDS
;	COMDAT ?Append@?$CSimpleStringT@G$0A@@ATL@@QAEXPBGH@Z
_TEXT	SEGMENT
_pszBuffer$ = -56					; size = 4
_nNewLength$ = -44					; size = 4
_nOldLength$ = -32					; size = 4
_nOffset$ = -20						; size = 4
_this$ = -8						; size = 4
_pszSrc$ = 8						; size = 4
_nLength$ = 12						; size = 4
?Append@?$CSimpleStringT@G$0A@@ATL@@QAEXPBGH@Z PROC NEAR ; ATL::CSimpleStringT<unsigned short,0>::Append, COMDAT
; _this$ = ecx

; 387  : 	{

	push	ebp
	mov	ebp, esp
	sub	esp, 252				; 000000fcH
	push	ebx
	push	esi
	push	edi
	push	ecx
	lea	edi, DWORD PTR [ebp-252]
	mov	ecx, 63					; 0000003fH
	mov	eax, -858993460				; ccccccccH
	rep stosd
	pop	ecx
	mov	DWORD PTR _this$[ebp], ecx

; 388  : 		// See comment in SetString() about why we do this
; 389  : 		UINT_PTR nOffset = pszSrc-GetString();

	mov	ecx, DWORD PTR _this$[ebp]
	call	?GetString@?$CSimpleStringT@G$0A@@ATL@@QBEPBGXZ ; ATL::CSimpleStringT<unsigned short,0>::GetString
	mov	ecx, DWORD PTR _pszSrc$[ebp]
	sub	ecx, eax
	sar	ecx, 1
	mov	DWORD PTR _nOffset$[ebp], ecx

; 390  : 
; 391  : 		UINT nOldLength = GetLength();

	mov	ecx, DWORD PTR _this$[ebp]
	call	?GetLength@?$CSimpleStringT@G$0A@@ATL@@QBEHXZ ; ATL::CSimpleStringT<unsigned short,0>::GetLength
	mov	DWORD PTR _nOldLength$[ebp], eax

; 392  : 		int nNewLength = nOldLength+nLength;

	mov	eax, DWORD PTR _nOldLength$[ebp]
	add	eax, DWORD PTR _nLength$[ebp]
	mov	DWORD PTR _nNewLength$[ebp], eax

; 393  : 		PXSTR pszBuffer = GetBuffer( nNewLength );

	mov	eax, DWORD PTR _nNewLength$[ebp]
	push	eax
	mov	ecx, DWORD PTR _this$[ebp]
	call	?GetBuffer@?$CSimpleStringT@G$0A@@ATL@@QAEPAGH@Z ; ATL::CSimpleStringT<unsigned short,0>::GetBuffer
	mov	DWORD PTR _pszBuffer$[ebp], eax

; 394  : 		if( nOffset <= nOldLength )

	mov	eax, DWORD PTR _nOffset$[ebp]
	cmp	eax, DWORD PTR _nOldLength$[ebp]
	ja	SHORT $L94131

; 395  : 		{
; 396  : 			pszSrc = pszBuffer+nOffset;

	mov	eax, DWORD PTR _nOffset$[ebp]
	mov	ecx, DWORD PTR _pszBuffer$[ebp]
	lea	edx, DWORD PTR [ecx+eax*2]
	mov	DWORD PTR _pszSrc$[ebp], edx
$L94131:

; 397  : 			// No need to call CopyCharsOverlapped, since the destination is
; 398  : 			// beyond the end of the original buffer
; 399  : 		}
; 400  : 		CopyChars( pszBuffer+nOldLength, pszSrc, nLength );

	mov	eax, DWORD PTR _nLength$[ebp]
	push	eax
	mov	ecx, DWORD PTR _pszSrc$[ebp]
	push	ecx
	mov	edx, DWORD PTR _nOldLength$[ebp]
	mov	eax, DWORD PTR _pszBuffer$[ebp]
	lea	ecx, DWORD PTR [eax+edx*2]
	push	ecx
	call	?CopyChars@?$CSimpleStringT@G$0A@@ATL@@SAXPAGPBGH@Z ; ATL::CSimpleStringT<unsigned short,0>::CopyChars
	add	esp, 12					; 0000000cH

; 401  : 		ReleaseBufferSetLength( nNewLength );

	mov	eax, DWORD PTR _nNewLength$[ebp]
	push	eax
	mov	ecx, DWORD PTR _this$[ebp]
	call	?ReleaseBufferSetLength@?$CSimpleStringT@G$0A@@ATL@@QAEXH@Z ; ATL::CSimpleStringT<unsigned short,0>::ReleaseBufferSetLength

; 402  : 	}

	pop	edi
	pop	esi
	pop	ebx
	add	esp, 252				; 000000fcH
	cmp	ebp, esp
	call	__RTC_CheckEsp
	mov	esp, ebp
	pop	ebp
	ret	8
?Append@?$CSimpleStringT@G$0A@@ATL@@QAEXPBGH@Z ENDP	; ATL::CSimpleStringT<unsigned short,0>::Append
_TEXT	ENDS
EXTRN	@_RTC_Check_4_to_1@4:NEAR
; Function compile flags: /Odt /RTCcsu /ZI
;	COMDAT ?IsLocked@CStringData@ATL@@QBE_NXZ
_TEXT	SEGMENT
_this$ = -8						; size = 4
?IsLocked@CStringData@ATL@@QBE_NXZ PROC NEAR		; ATL::CStringData::IsLocked, COMDAT
; _this$ = ecx

; 75   : 	{

	push	ebp
	mov	ebp, esp
	sub	esp, 204				; 000000ccH
	push	ebx
	push	esi
	push	edi
	push	ecx
	lea	edi, DWORD PTR [ebp-204]
	mov	ecx, 51					; 00000033H
	mov	eax, -858993460				; ccccccccH
	rep stosd
	pop	ecx
	mov	DWORD PTR _this$[ebp], ecx

; 76   : 		return nRefs < 0;

	mov	eax, DWORD PTR _this$[ebp]
	xor	ecx, ecx
	cmp	DWORD PTR [eax+12], 0
	setl	cl
	call	@_RTC_Check_4_to_1@4

; 77   : 	}

	pop	edi
	pop	esi
	pop	ebx
	add	esp, 204				; 000000ccH
	cmp	ebp, esp
	call	__RTC_CheckEsp
	mov	esp, ebp
	pop	ebp
	ret	0
?IsLocked@CStringData@ATL@@QBE_NXZ ENDP			; ATL::CStringData::IsLocked
_TEXT	ENDS
PUBLIC	??_C@_0L@OIIMFBNE@nRefs?5?$CB?$DN?50?$AA@	; `string'
;	COMDAT ??_C@_0L@OIIMFBNE@nRefs?5?$CB?$DN?50?$AA@
CONST	SEGMENT
??_C@_0L@OIIMFBNE@nRefs?5?$CB?$DN?50?$AA@ DB 'nRefs != 0', 00H ; `string'
; Function compile flags: /Odt /RTCcsu /ZI
CONST	ENDS
;	COMDAT ?Release@CStringData@ATL@@QAEXXZ
_TEXT	SEGMENT
_this$ = -8						; size = 4
?Release@CStringData@ATL@@QAEXXZ PROC NEAR		; ATL::CStringData::Release, COMDAT
; _this$ = ecx

; 92   : 	{

	push	ebp
	mov	ebp, esp
	sub	esp, 204				; 000000ccH
	push	ebx
	push	esi
	push	edi
	push	ecx
	lea	edi, DWORD PTR [ebp-204]
	mov	ecx, 51					; 00000033H
	mov	eax, -858993460				; ccccccccH
	rep stosd
	pop	ecx
	mov	DWORD PTR _this$[ebp], ecx

; 93   : 		ATLASSERT( nRefs != 0 );

	mov	eax, DWORD PTR _this$[ebp]
	cmp	DWORD PTR [eax+12], 0
	jne	SHORT $L95244
	push	OFFSET FLAT:??_C@_0L@OIIMFBNE@nRefs?5?$CB?$DN?50?$AA@
	push	0
	push	93					; 0000005dH
	push	OFFSET FLAT:??_C@_0FD@JDCNPMMG@c?3?2program?5files?2microsoft?5visua@
	push	2
	call	__CrtDbgReport
	add	esp, 20					; 00000014H
	cmp	eax, 1
	jne	SHORT $L95244
	int	3
$L95244:

; 94   : 
; 95   : 		if( _InterlockedDecrement( &nRefs ) <= 0 )

	mov	eax, DWORD PTR _this$[ebp]
	add	eax, 12					; 0000000cH
	or	ecx, -1
	lock	 xadd	 DWORD PTR [eax], ecx
	dec	ecx
	test	ecx, ecx
	jg	SHORT $L26116

; 96   : 		{
; 97   : 			pStringMgr->Free( this );

	mov	esi, esp
	mov	eax, DWORD PTR _this$[ebp]
	push	eax
	mov	ecx, DWORD PTR _this$[ebp]
	mov	edx, DWORD PTR [ecx]
	mov	eax, DWORD PTR _this$[ebp]
	mov	ecx, DWORD PTR [eax]
	mov	edx, DWORD PTR [edx]
	call	DWORD PTR [edx+4]
	cmp	esi, esp
	call	__RTC_CheckEsp
$L26116:

; 98   : 		}
; 99   : 	}

	pop	edi
	pop	esi
	pop	ebx
	add	esp, 204				; 000000ccH
	cmp	ebp, esp
	call	__RTC_CheckEsp
	mov	esp, ebp
	pop	ebp
	ret	0
?Release@CStringData@ATL@@QAEXXZ ENDP			; ATL::CStringData::Release
_TEXT	ENDS
PUBLIC	?GetDefaultManager@?$StrTraitMFC@GV?$ChTraitsCRT@G@ATL@@@@SAPAUIAtlStringMgr@ATL@@XZ ; StrTraitMFC<unsigned short,ATL::ChTraitsCRT<unsigned short> >::GetDefaultManager
; Function compile flags: /Odt /RTCcsu /ZI
; File c:\program files\microsoft visual studio .net 2003\vc7\atlmfc\include\cstringt.h
;	COMDAT ??0?$CStringT@GV?$StrTraitMFC@GV?$ChTraitsCRT@G@ATL@@@@@ATL@@QAE@XZ
_TEXT	SEGMENT
_this$ = -8						; size = 4
??0?$CStringT@GV?$StrTraitMFC@GV?$ChTraitsCRT@G@ATL@@@@@ATL@@QAE@XZ PROC NEAR ; ATL::CStringT<unsigned short,StrTraitMFC<unsigned short,ATL::ChTraitsCRT<unsigned short> > >::CStringT<unsigned short,StrTraitMFC<unsigned short,ATL::ChTraitsCRT<unsigned short> > >, COMDAT
; _this$ = ecx

; 796  : 	{

	push	ebp
	mov	ebp, esp
	sub	esp, 204				; 000000ccH
	push	ebx
	push	esi
	push	edi
	push	ecx
	lea	edi, DWORD PTR [ebp-204]
	mov	ecx, 51					; 00000033H
	mov	eax, -858993460				; ccccccccH
	rep stosd
	pop	ecx
	mov	DWORD PTR _this$[ebp], ecx
	call	?GetDefaultManager@?$StrTraitMFC@GV?$ChTraitsCRT@G@ATL@@@@SAPAUIAtlStringMgr@ATL@@XZ ; StrTraitMFC<unsigned short,ATL::ChTraitsCRT<unsigned short> >::GetDefaultManager
	push	eax
	mov	ecx, DWORD PTR _this$[ebp]
	call	??0?$CSimpleStringT@G$0A@@ATL@@QAE@PAUIAtlStringMgr@1@@Z ; ATL::CSimpleStringT<unsigned short,0>::CSimpleStringT<unsigned short,0>

; 797  : 	}

	mov	eax, DWORD PTR _this$[ebp]
	pop	edi
	pop	esi
	pop	ebx
	add	esp, 204				; 000000ccH
	cmp	ebp, esp
	call	__RTC_CheckEsp
	mov	esp, ebp
	pop	ebp
	ret	0
??0?$CStringT@GV?$StrTraitMFC@GV?$ChTraitsCRT@G@ATL@@@@@ATL@@QAE@XZ ENDP ; ATL::CStringT<unsigned short,StrTraitMFC<unsigned short,ATL::ChTraitsCRT<unsigned short> > >::CStringT<unsigned short,StrTraitMFC<unsigned short,ATL::ChTraitsCRT<unsigned short> > >
_TEXT	ENDS
PUBLIC	??0?$CSimpleStringT@G$0A@@ATL@@QAE@ABV01@@Z	; ATL::CSimpleStringT<unsigned short,0>::CSimpleStringT<unsigned short,0>
; Function compile flags: /Odt /RTCcsu /ZI
;	COMDAT ??0?$CStringT@GV?$StrTraitMFC@GV?$ChTraitsCRT@G@ATL@@@@@ATL@@QAE@ABV01@@Z
_TEXT	SEGMENT
_this$ = -8						; size = 4
_strSrc$ = 8						; size = 4
??0?$CStringT@GV?$StrTraitMFC@GV?$ChTraitsCRT@G@ATL@@@@@ATL@@QAE@ABV01@@Z PROC NEAR ; ATL::CStringT<unsigned short,StrTraitMFC<unsigned short,ATL::ChTraitsCRT<unsigned short> > >::CStringT<unsigned short,StrTraitMFC<unsigned short,ATL::ChTraitsCRT<unsigned short> > >, COMDAT
; _this$ = ecx

; 814  : 	{

	push	ebp
	mov	ebp, esp
	sub	esp, 204				; 000000ccH
	push	ebx
	push	esi
	push	edi
	push	ecx
	lea	edi, DWORD PTR [ebp-204]
	mov	ecx, 51					; 00000033H
	mov	eax, -858993460				; ccccccccH
	rep stosd
	pop	ecx
	mov	DWORD PTR _this$[ebp], ecx
	mov	eax, DWORD PTR _strSrc$[ebp]
	push	eax
	mov	ecx, DWORD PTR _this$[ebp]
	call	??0?$CSimpleStringT@G$0A@@ATL@@QAE@ABV01@@Z ; ATL::CSimpleStringT<unsigned short,0>::CSimpleStringT<unsigned short,0>

; 815  : 	}

	mov	eax, DWORD PTR _this$[ebp]
	pop	edi
	pop	esi
	pop	ebx
	add	esp, 204				; 000000ccH
	cmp	ebp, esp
	call	__RTC_CheckEsp
	mov	esp, ebp
	pop	ebp
	ret	4
??0?$CStringT@GV?$StrTraitMFC@GV?$ChTraitsCRT@G@ATL@@@@@ATL@@QAE@ABV01@@Z ENDP ; ATL::CStringT<unsigned short,StrTraitMFC<unsigned short,ATL::ChTraitsCRT<unsigned short> > >::CStringT<unsigned short,StrTraitMFC<unsigned short,ATL::ChTraitsCRT<unsigned short> > >
_TEXT	ENDS
;	COMDAT xdata$x
xdata$x	SEGMENT
__unwindtable$??0?$CStringT@GV?$StrTraitMFC@GV?$ChTraitsCRT@G@ATL@@@@@ATL@@QAE@PBD@Z DD 0ffffffffH
	DD	FLAT:__unwindfunclet$??0?$CStringT@GV?$StrTraitMFC@GV?$ChTraitsCRT@G@ATL@@@@@ATL@@QAE@PBD@Z$0
__ehfuncinfo$??0?$CStringT@GV?$StrTraitMFC@GV?$ChTraitsCRT@G@ATL@@@@@ATL@@QAE@PBD@Z DD 019930520H
	DD	01H
	DD	FLAT:__unwindtable$??0?$CStringT@GV?$StrTraitMFC@GV?$ChTraitsCRT@G@ATL@@@@@ATL@@QAE@PBD@Z
	DD	2 DUP(00H)
	DD	2 DUP(00H)
; Function compile flags: /Odt /RTCcsu /ZI
xdata$x	ENDS
;	COMDAT ??0?$CStringT@GV?$StrTraitMFC@GV?$ChTraitsCRT@G@ATL@@@@@ATL@@QAE@PBD@Z
_TEXT	SEGMENT
_this$ = -20						; size = 4
__$EHRec$ = -12						; size = 12
_pszSrc$ = 8						; size = 4
??0?$CStringT@GV?$StrTraitMFC@GV?$ChTraitsCRT@G@ATL@@@@@ATL@@QAE@PBD@Z PROC NEAR ; ATL::CStringT<unsigned short,StrTraitMFC<unsigned short,ATL::ChTraitsCRT<unsigned short> > >::CStringT<unsigned short,StrTraitMFC<unsigned short,ATL::ChTraitsCRT<unsigned short> > >, COMDAT
; _this$ = ecx

; 850  : 	{

	push	ebp
	mov	ebp, esp
	push	-1
	push	__ehhandler$??0?$CStringT@GV?$StrTraitMFC@GV?$ChTraitsCRT@G@ATL@@@@@ATL@@QAE@PBD@Z
	mov	eax, DWORD PTR fs:__except_list
	push	eax
	mov	DWORD PTR fs:__except_list, esp
	sub	esp, 204				; 000000ccH
	push	ebx
	push	esi
	push	edi
	push	ecx
	lea	edi, DWORD PTR [ebp-216]
	mov	ecx, 51					; 00000033H
	mov	eax, -858993460				; ccccccccH
	rep stosd
	pop	ecx
	mov	DWORD PTR _this$[ebp], ecx
	call	?GetDefaultManager@?$StrTraitMFC@GV?$ChTraitsCRT@G@ATL@@@@SAPAUIAtlStringMgr@ATL@@XZ ; StrTraitMFC<unsigned short,ATL::ChTraitsCRT<unsigned short> >::GetDefaultManager
	push	eax
	mov	ecx, DWORD PTR _this$[ebp]
	call	??0?$CSimpleStringT@G$0A@@ATL@@QAE@PAUIAtlStringMgr@1@@Z ; ATL::CSimpleStringT<unsigned short,0>::CSimpleStringT<unsigned short,0>
	mov	DWORD PTR __$EHRec$[ebp+8], 0

; 851  : 		if( !CheckImplicitLoad( pszSrc ) )

	mov	eax, DWORD PTR _pszSrc$[ebp]
	push	eax
	mov	ecx, DWORD PTR _this$[ebp]
	call	?CheckImplicitLoad@?$CStringT@GV?$StrTraitMFC@GV?$ChTraitsCRT@G@ATL@@@@@ATL@@AAE_NPBX@Z ; ATL::CStringT<unsigned short,StrTraitMFC<unsigned short,ATL::ChTraitsCRT<unsigned short> > >::CheckImplicitLoad
	movzx	ecx, al
	test	ecx, ecx
	jne	SHORT $L92626

; 852  : 		{
; 853  : 			*this = pszSrc;

	mov	eax, DWORD PTR _pszSrc$[ebp]
	push	eax
	mov	ecx, DWORD PTR _this$[ebp]
	call	??4?$CStringT@GV?$StrTraitMFC@GV?$ChTraitsCRT@G@ATL@@@@@ATL@@QAEAAV01@PBD@Z ; ATL::CStringT<unsigned short,StrTraitMFC<unsigned short,ATL::ChTraitsCRT<unsigned short> > >::operator=
$L92626:

; 854  : 		}
; 855  : 	}

	mov	DWORD PTR __$EHRec$[ebp+8], -1
	mov	eax, DWORD PTR _this$[ebp]
	mov	ecx, DWORD PTR __$EHRec$[ebp]
	mov	DWORD PTR fs:__except_list, ecx
	pop	edi
	pop	esi
	pop	ebx
	add	esp, 216				; 000000d8H
	cmp	ebp, esp
	call	__RTC_CheckEsp
	mov	esp, ebp
	pop	ebp
	ret	4
_TEXT	ENDS
;	COMDAT text$x
text$x	SEGMENT
__unwindfunclet$??0?$CStringT@GV?$StrTraitMFC@GV?$ChTraitsCRT@G@ATL@@@@@ATL@@QAE@PBD@Z$0:
	mov	ecx, DWORD PTR _this$[ebp]
	jmp	??1?$CSimpleStringT@G$0A@@ATL@@QAE@XZ	; ATL::CSimpleStringT<unsigned short,0>::~CSimpleStringT<unsigned short,0>
__ehhandler$??0?$CStringT@GV?$StrTraitMFC@GV?$ChTraitsCRT@G@ATL@@@@@ATL@@QAE@PBD@Z:
	mov	eax, OFFSET FLAT:__ehfuncinfo$??0?$CStringT@GV?$StrTraitMFC@GV?$ChTraitsCRT@G@ATL@@@@@ATL@@QAE@PBD@Z
	jmp	___CxxFrameHandler
text$x	ENDS
??0?$CStringT@GV?$StrTraitMFC@GV?$ChTraitsCRT@G@ATL@@@@@ATL@@QAE@PBD@Z ENDP ; ATL::CStringT<unsigned short,StrTraitMFC<unsigned short,ATL::ChTraitsCRT<unsigned short> > >::CStringT<unsigned short,StrTraitMFC<unsigned short,ATL::ChTraitsCRT<unsigned short> > >
; Function compile flags: /Odt /RTCcsu /ZI
;	COMDAT ??1?$CStringT@GV?$StrTraitMFC@GV?$ChTraitsCRT@G@ATL@@@@@ATL@@QAE@XZ
_TEXT	SEGMENT
_this$ = -8						; size = 4
??1?$CStringT@GV?$StrTraitMFC@GV?$ChTraitsCRT@G@ATL@@@@@ATL@@QAE@XZ PROC NEAR ; ATL::CStringT<unsigned short,StrTraitMFC<unsigned short,ATL::ChTraitsCRT<unsigned short> > >::~CStringT<unsigned short,StrTraitMFC<unsigned short,ATL::ChTraitsCRT<unsigned short> > >, COMDAT
; _this$ = ecx

; 962  : 	{

	push	ebp
	mov	ebp, esp
	sub	esp, 204				; 000000ccH
	push	ebx
	push	esi
	push	edi
	push	ecx
	lea	edi, DWORD PTR [ebp-204]
	mov	ecx, 51					; 00000033H
	mov	eax, -858993460				; ccccccccH
	rep stosd
	pop	ecx
	mov	DWORD PTR _this$[ebp], ecx

; 963  : 	}

	mov	ecx, DWORD PTR _this$[ebp]
	call	??1?$CSimpleStringT@G$0A@@ATL@@QAE@XZ	; ATL::CSimpleStringT<unsigned short,0>::~CSimpleStringT<unsigned short,0>
	pop	edi
	pop	esi
	pop	ebx
	add	esp, 204				; 000000ccH
	cmp	ebp, esp
	call	__RTC_CheckEsp
	mov	esp, ebp
	pop	ebp
	ret	0
??1?$CStringT@GV?$StrTraitMFC@GV?$ChTraitsCRT@G@ATL@@@@@ATL@@QAE@XZ ENDP ; ATL::CStringT<unsigned short,StrTraitMFC<unsigned short,ATL::ChTraitsCRT<unsigned short> > >::~CStringT<unsigned short,StrTraitMFC<unsigned short,ATL::ChTraitsCRT<unsigned short> > >
; Function compile flags: /Odt /RTCcsu /ZI
; File c:\program files\microsoft visual studio .net 2003\vc7\atlmfc\include\atlsimpstr.h
_TEXT	ENDS
;	COMDAT ??B?$CSimpleStringT@G$0A@@ATL@@QBEPBGXZ
_TEXT	SEGMENT
_this$ = -8						; size = 4
??B?$CSimpleStringT@G$0A@@ATL@@QBEPBGXZ PROC NEAR	; ATL::CSimpleStringT<unsigned short,0>::operator unsigned short const *, COMDAT
; _this$ = ecx

; 378  : 	{

	push	ebp
	mov	ebp, esp
	sub	esp, 204				; 000000ccH
	push	ebx
	push	esi
	push	edi
	push	ecx
	lea	edi, DWORD PTR [ebp-204]
	mov	ecx, 51					; 00000033H
	mov	eax, -858993460				; ccccccccH
	rep stosd
	pop	ecx
	mov	DWORD PTR _this$[ebp], ecx

; 379  : 		return( m_pszData );

	mov	eax, DWORD PTR _this$[ebp]
	mov	eax, DWORD PTR [eax]

; 380  : 	}

	pop	edi
	pop	esi
	pop	ebx
	mov	esp, ebp
	pop	ebp
	ret	0
??B?$CSimpleStringT@G$0A@@ATL@@QBEPBGXZ ENDP		; ATL::CSimpleStringT<unsigned short,0>::operator unsigned short const *
; Function compile flags: /Odt /RTCcsu /ZI
_TEXT	ENDS
;	COMDAT ?GetLength@?$CSimpleStringT@G$0A@@ATL@@QBEHXZ
_TEXT	SEGMENT
_this$ = -8						; size = 4
?GetLength@?$CSimpleStringT@G$0A@@ATL@@QBEHXZ PROC NEAR	; ATL::CSimpleStringT<unsigned short,0>::GetLength, COMDAT
; _this$ = ecx

; 500  : 	{

	push	ebp
	mov	ebp, esp
	sub	esp, 204				; 000000ccH
	push	ebx
	push	esi
	push	edi
	push	ecx
	lea	edi, DWORD PTR [ebp-204]
	mov	ecx, 51					; 00000033H
	mov	eax, -858993460				; ccccccccH
	rep stosd
	pop	ecx
	mov	DWORD PTR _this$[ebp], ecx

; 501  : 		return( GetData()->nDataLength );

	mov	ecx, DWORD PTR _this$[ebp]
	call	?GetData@?$CSimpleStringT@G$0A@@ATL@@ABEPAUCStringData@2@XZ ; ATL::CSimpleStringT<unsigned short,0>::GetData
	mov	eax, DWORD PTR [eax+4]

; 502  : 	}

	pop	edi
	pop	esi
	pop	ebx
	add	esp, 204				; 000000ccH
	cmp	ebp, esp
	call	__RTC_CheckEsp
	mov	esp, ebp
	pop	ebp
	ret	0
?GetLength@?$CSimpleStringT@G$0A@@ATL@@QBEHXZ ENDP	; ATL::CSimpleStringT<unsigned short,0>::GetLength
_TEXT	ENDS
PUBLIC	?Empty@?$CSimpleStringT@G$0A@@ATL@@QAEXXZ	; ATL::CSimpleStringT<unsigned short,0>::Empty
PUBLIC	?GetBaseTypeLength@?$ChTraitsCRT@G@ATL@@SAHPBD@Z ; ATL::ChTraitsCRT<unsigned short>::GetBaseTypeLength
PUBLIC	?ConvertToBaseType@?$ChTraitsCRT@G@ATL@@SAXPAGHPBDH@Z ; ATL::ChTraitsCRT<unsigned short>::ConvertToBaseType
; Function compile flags: /Odt /RTCcsu /ZI
; File c:\program files\microsoft visual studio .net 2003\vc7\atlmfc\include\cstringt.h
;	COMDAT ??4?$CStringT@GV?$StrTraitMFC@GV?$ChTraitsCRT@G@ATL@@@@@ATL@@QAEAAV01@PBD@Z
_TEXT	SEGMENT
tv67 = -232						; size = 4
_pszBuffer$92707 = -32					; size = 4
_nDestLength$ = -20					; size = 4
_this$ = -8						; size = 4
_pszSrc$ = 8						; size = 4
??4?$CStringT@GV?$StrTraitMFC@GV?$ChTraitsCRT@G@ATL@@@@@ATL@@QAEAAV01@PBD@Z PROC NEAR ; ATL::CStringT<unsigned short,StrTraitMFC<unsigned short,ATL::ChTraitsCRT<unsigned short> > >::operator=, COMDAT
; _this$ = ecx

; 989  : 	{

	push	ebp
	mov	ebp, esp
	sub	esp, 232				; 000000e8H
	push	ebx
	push	esi
	push	edi
	push	ecx
	lea	edi, DWORD PTR [ebp-232]
	mov	ecx, 58					; 0000003aH
	mov	eax, -858993460				; ccccccccH
	rep stosd
	pop	ecx
	mov	DWORD PTR _this$[ebp], ecx

; 990  : 		// nDestLength is in XCHARs
; 991  : 		int nDestLength = (pszSrc != NULL) ? StringTraits::GetBaseTypeLength( pszSrc ) : 0;

	cmp	DWORD PTR _pszSrc$[ebp], 0
	je	SHORT $L95267
	mov	eax, DWORD PTR _pszSrc$[ebp]
	push	eax
	call	?GetBaseTypeLength@?$ChTraitsCRT@G@ATL@@SAHPBD@Z ; ATL::ChTraitsCRT<unsigned short>::GetBaseTypeLength
	add	esp, 4
	mov	DWORD PTR tv67[ebp], eax
	jmp	SHORT $L95268
$L95267:
	mov	DWORD PTR tv67[ebp], 0
$L95268:
	mov	ecx, DWORD PTR tv67[ebp]
	mov	DWORD PTR _nDestLength$[ebp], ecx

; 992  : 		if( nDestLength > 0 )

	cmp	DWORD PTR _nDestLength$[ebp], 0
	jle	SHORT $L92706

; 993  : 		{
; 994  : 			PXSTR pszBuffer = GetBuffer( nDestLength );

	mov	eax, DWORD PTR _nDestLength$[ebp]
	push	eax
	mov	ecx, DWORD PTR _this$[ebp]
	call	?GetBuffer@?$CSimpleStringT@G$0A@@ATL@@QAEPAGH@Z ; ATL::CSimpleStringT<unsigned short,0>::GetBuffer
	mov	DWORD PTR _pszBuffer$92707[ebp], eax

; 995  : 			StringTraits::ConvertToBaseType( pszBuffer, nDestLength, pszSrc );

	push	-1
	mov	eax, DWORD PTR _pszSrc$[ebp]
	push	eax
	mov	ecx, DWORD PTR _nDestLength$[ebp]
	push	ecx
	mov	edx, DWORD PTR _pszBuffer$92707[ebp]
	push	edx
	call	?ConvertToBaseType@?$ChTraitsCRT@G@ATL@@SAXPAGHPBDH@Z ; ATL::ChTraitsCRT<unsigned short>::ConvertToBaseType
	add	esp, 16					; 00000010H

; 996  : 			ReleaseBufferSetLength( nDestLength );

	mov	eax, DWORD PTR _nDestLength$[ebp]
	push	eax
	mov	ecx, DWORD PTR _this$[ebp]
	call	?ReleaseBufferSetLength@?$CSimpleStringT@G$0A@@ATL@@QAEXH@Z ; ATL::CSimpleStringT<unsigned short,0>::ReleaseBufferSetLength

; 997  : 		}
; 998  : 		else

	jmp	SHORT $L92708
$L92706:

; 999  : 		{
; 1000 : 			Empty();

	mov	ecx, DWORD PTR _this$[ebp]
	call	?Empty@?$CSimpleStringT@G$0A@@ATL@@QAEXXZ ; ATL::CSimpleStringT<unsigned short,0>::Empty
$L92708:

; 1001 : 		}
; 1002 : 
; 1003 : 		return( *this );

	mov	eax, DWORD PTR _this$[ebp]

; 1004 : 	}

	pop	edi
	pop	esi
	pop	ebx
	add	esp, 232				; 000000e8H
	cmp	ebp, esp
	call	__RTC_CheckEsp
	mov	esp, ebp
	pop	ebp
	ret	4
??4?$CStringT@GV?$StrTraitMFC@GV?$ChTraitsCRT@G@ATL@@@@@ATL@@QAEAAV01@PBD@Z ENDP ; ATL::CStringT<unsigned short,StrTraitMFC<unsigned short,ATL::ChTraitsCRT<unsigned short> > >::operator=
_TEXT	ENDS
PUBLIC	?_AtlGetConversionACP@ATL@@YGIXZ		; ATL::_AtlGetConversionACP
EXTRN	__imp__MultiByteToWideChar@24:NEAR
; Function compile flags: /Odt /RTCcsu /ZI
;	COMDAT ?GetBaseTypeLength@?$ChTraitsCRT@G@ATL@@SAHPBD@Z
_TEXT	SEGMENT
_pszSrc$ = 8						; size = 4
?GetBaseTypeLength@?$ChTraitsCRT@G@ATL@@SAHPBD@Z PROC NEAR ; ATL::ChTraitsCRT<unsigned short>::GetBaseTypeLength, COMDAT

; 653  : 	{

	push	ebp
	mov	ebp, esp
	sub	esp, 192				; 000000c0H
	push	ebx
	push	esi
	push	edi
	lea	edi, DWORD PTR [ebp-192]
	mov	ecx, 48					; 00000030H
	mov	eax, -858993460				; ccccccccH
	rep stosd

; 654  : 		// Returns required buffer size in wchar_ts
; 655  : 		return ::MultiByteToWideChar( _AtlGetConversionACP(), 0, pszSrc, -1, NULL, 0 )-1;

	mov	esi, esp
	push	0
	push	0
	push	-1
	mov	eax, DWORD PTR _pszSrc$[ebp]
	push	eax
	push	0
	call	?_AtlGetConversionACP@ATL@@YGIXZ	; ATL::_AtlGetConversionACP
	push	eax
	call	DWORD PTR __imp__MultiByteToWideChar@24
	cmp	esi, esp
	call	__RTC_CheckEsp
	sub	eax, 1

; 656  : 	}

	pop	edi
	pop	esi
	pop	ebx
	add	esp, 192				; 000000c0H
	cmp	ebp, esp
	call	__RTC_CheckEsp
	mov	esp, ebp
	pop	ebp
	ret	0
?GetBaseTypeLength@?$ChTraitsCRT@G@ATL@@SAHPBD@Z ENDP	; ATL::ChTraitsCRT<unsigned short>::GetBaseTypeLength
; Function compile flags: /Odt /RTCcsu /ZI
; File c:\program files\microsoft visual studio .net 2003\vc7\atlmfc\include\atlconv.h
_TEXT	ENDS
;	COMDAT ?_AtlGetConversionACP@ATL@@YGIXZ
_TEXT	SEGMENT
?_AtlGetConversionACP@ATL@@YGIXZ PROC NEAR		; ATL::_AtlGetConversionACP, COMDAT

; 157  : {

	push	ebp
	mov	ebp, esp
	sub	esp, 192				; 000000c0H
	push	ebx
	push	esi
	push	edi
	lea	edi, DWORD PTR [ebp-192]
	mov	ecx, 48					; 00000030H
	mov	eax, -858993460				; ccccccccH
	rep stosd

; 158  : 	return( g_pfnGetThreadACP() );

	mov	esi, esp
	call	DWORD PTR ?g_pfnGetThreadACP@ATL@@3P6GIXZA ; ATL::g_pfnGetThreadACP
	cmp	esi, esp
	call	__RTC_CheckEsp

; 159  : }

	pop	edi
	pop	esi
	pop	ebx
	add	esp, 192				; 000000c0H
	cmp	ebp, esp
	call	__RTC_CheckEsp
	mov	esp, ebp
	pop	ebp
	ret	0
?_AtlGetConversionACP@ATL@@YGIXZ ENDP			; ATL::_AtlGetConversionACP
; Function compile flags: /Odt /RTCcsu /ZI
; File c:\program files\microsoft visual studio .net 2003\vc7\atlmfc\include\cstringt.h
_TEXT	ENDS
;	COMDAT ?ConvertToBaseType@?$ChTraitsCRT@G@ATL@@SAXPAGHPBDH@Z
_TEXT	SEGMENT
_pszDest$ = 8						; size = 4
_nDestLength$ = 12					; size = 4
_pszSrc$ = 16						; size = 4
_nSrcLength$ = 20					; size = 4
?ConvertToBaseType@?$ChTraitsCRT@G@ATL@@SAXPAGHPBDH@Z PROC NEAR ; ATL::ChTraitsCRT<unsigned short>::ConvertToBaseType, COMDAT

; 679  : 	{

	push	ebp
	mov	ebp, esp
	sub	esp, 192				; 000000c0H
	push	ebx
	push	esi
	push	edi
	lea	edi, DWORD PTR [ebp-192]
	mov	ecx, 48					; 00000030H
	mov	eax, -858993460				; ccccccccH
	rep stosd

; 680  : 		// nLen is in wchar_ts
; 681  : 		::MultiByteToWideChar( _AtlGetConversionACP(), 0, pszSrc, nSrcLength, pszDest, nDestLength );

	mov	esi, esp
	mov	eax, DWORD PTR _nDestLength$[ebp]
	push	eax
	mov	ecx, DWORD PTR _pszDest$[ebp]
	push	ecx
	mov	edx, DWORD PTR _nSrcLength$[ebp]
	push	edx
	mov	eax, DWORD PTR _pszSrc$[ebp]
	push	eax
	push	0
	call	?_AtlGetConversionACP@ATL@@YGIXZ	; ATL::_AtlGetConversionACP
	push	eax
	call	DWORD PTR __imp__MultiByteToWideChar@24
	cmp	esi, esp
	call	__RTC_CheckEsp

; 682  : 	}

	pop	edi
	pop	esi
	pop	ebx
	add	esp, 192				; 000000c0H
	cmp	ebp, esp
	call	__RTC_CheckEsp
	mov	esp, ebp
	pop	ebp
	ret	0
?ConvertToBaseType@?$ChTraitsCRT@G@ATL@@SAXPAGHPBDH@Z ENDP ; ATL::ChTraitsCRT<unsigned short>::ConvertToBaseType
_TEXT	ENDS
PUBLIC	?LoadStringW@?$CStringT@GV?$StrTraitMFC@GV?$ChTraitsCRT@G@ATL@@@@@ATL@@QAEHI@Z ; ATL::CStringT<unsigned short,StrTraitMFC<unsigned short,ATL::ChTraitsCRT<unsigned short> > >::LoadStringW
PUBLIC	??_C@_1FC@BMOLDHIO@?$AAW?$AAa?$AAr?$AAn?$AAi?$AAn?$AAg?$AA?3?$AA?5?$AAi?$AAm?$AAp?$AAl?$AAi?$AAc?$AAi?$AAt?$AA?5?$AAL?$AAo@ ; `string'
PUBLIC	??_C@_0FB@BCKJDECD@c?3?2program?5files?2microsoft?5visua@ ; `string'
EXTRN	@_RTC_Check_4_to_2@4:NEAR
EXTRN	?atlTraceString@ATL@@3VCTraceCategory@1@A:DWORD	; ATL::atlTraceString
;	COMDAT ??_C@_1FC@BMOLDHIO@?$AAW?$AAa?$AAr?$AAn?$AAi?$AAn?$AAg?$AA?3?$AA?5?$AAi?$AAm?$AAp?$AAl?$AAi?$AAc?$AAi?$AAt?$AA?5?$AAL?$AAo@
CONST	SEGMENT
??_C@_1FC@BMOLDHIO@?$AAW?$AAa?$AAr?$AAn?$AAi?$AAn?$AAg?$AA?3?$AA?5?$AAi?$AAm?$AAp?$AAl?$AAi?$AAc?$AAi?$AAt?$AA?5?$AAL?$AAo@ DB 'W'
	DB	00H, 'a', 00H, 'r', 00H, 'n', 00H, 'i', 00H, 'n', 00H, 'g', 00H
	DB	':', 00H, ' ', 00H, 'i', 00H, 'm', 00H, 'p', 00H, 'l', 00H, 'i'
	DB	00H, 'c', 00H, 'i', 00H, 't', 00H, ' ', 00H, 'L', 00H, 'o', 00H
	DB	'a', 00H, 'd', 00H, 'S', 00H, 't', 00H, 'r', 00H, 'i', 00H, 'n'
	DB	00H, 'g', 00H, '(', 00H, '%', 00H, 'u', 00H, ')', 00H, ' ', 00H
	DB	'f', 00H, 'a', 00H, 'i', 00H, 'l', 00H, 'e', 00H, 'd', 00H, 0aH
	DB	00H, 00H, 00H				; `string'
CONST	ENDS
;	COMDAT ??_C@_0FB@BCKJDECD@c?3?2program?5files?2microsoft?5visua@
CONST	SEGMENT
??_C@_0FB@BCKJDECD@c?3?2program?5files?2microsoft?5visua@ DB 'c:\program '
	DB	'files\microsoft visual studio .net 2003\vc7\atlmfc\include\cs'
	DB	'tringt.h', 00H				; `string'
; Function compile flags: /Odt /RTCcsu /ZI
CONST	ENDS
;	COMDAT ?CheckImplicitLoad@?$CStringT@GV?$StrTraitMFC@GV?$ChTraitsCRT@G@ATL@@@@@ATL@@AAE_NPBX@Z
_TEXT	SEGMENT
$T95277 = -240						; size = 8
_nID$92726 = -32					; size = 4
_bRet$ = -17						; size = 1
_this$ = -8						; size = 4
_pv$ = 8						; size = 4
?CheckImplicitLoad@?$CStringT@GV?$StrTraitMFC@GV?$ChTraitsCRT@G@ATL@@@@@ATL@@AAE_NPBX@Z PROC NEAR ; ATL::CStringT<unsigned short,StrTraitMFC<unsigned short,ATL::ChTraitsCRT<unsigned short> > >::CheckImplicitLoad, COMDAT
; _this$ = ecx

; 2229 : 	{

	push	ebp
	mov	ebp, esp
	sub	esp, 244				; 000000f4H
	push	ebx
	push	esi
	push	edi
	push	ecx
	lea	edi, DWORD PTR [ebp-244]
	mov	ecx, 61					; 0000003dH
	mov	eax, -858993460				; ccccccccH
	rep stosd
	pop	ecx
	mov	DWORD PTR _this$[ebp], ecx

; 2230 : 		bool bRet = false;

	mov	BYTE PTR _bRet$[ebp], 0

; 2231 : 
; 2232 : 		if( (pv != NULL) && IS_INTRESOURCE( pv ) )

	cmp	DWORD PTR _pv$[ebp], 0
	je	SHORT $L92725
	mov	eax, DWORD PTR _pv$[ebp]
	shr	eax, 16					; 00000010H
	test	eax, eax
	jne	SHORT $L92725

; 2233 : 		{
; 2234 : 			UINT nID = LOWORD( reinterpret_cast< DWORD_PTR >( pv ) );

	mov	ecx, DWORD PTR _pv$[ebp]
	and	ecx, 65535				; 0000ffffH
	call	@_RTC_Check_4_to_2@4
	movzx	eax, ax
	mov	DWORD PTR _nID$92726[ebp], eax

; 2235 : 			if( !LoadString( nID ) )

	mov	eax, DWORD PTR _nID$92726[ebp]
	push	eax
	mov	ecx, DWORD PTR _this$[ebp]
	call	?LoadStringW@?$CStringT@GV?$StrTraitMFC@GV?$ChTraitsCRT@G@ATL@@@@@ATL@@QAEHI@Z ; ATL::CStringT<unsigned short,StrTraitMFC<unsigned short,ATL::ChTraitsCRT<unsigned short> > >::LoadStringW
	test	eax, eax
	jne	SHORT $L92730

; 2236 : 			{
; 2237 : 				ATLTRACE( atlTraceString, 2, _T( "Warning: implicit LoadString(%u) failed\n" ), nID );

	mov	eax, DWORD PTR _nID$92726[ebp]
	push	eax
	push	OFFSET FLAT:??_C@_1FC@BMOLDHIO@?$AAW?$AAa?$AAr?$AAn?$AAi?$AAn?$AAg?$AA?3?$AA?5?$AAi?$AAm?$AAp?$AAl?$AAi?$AAc?$AAi?$AAt?$AA?5?$AAL?$AAo@
	push	2
	mov	ecx, OFFSET FLAT:?atlTraceString@ATL@@3VCTraceCategory@1@A ; ATL::atlTraceString
	call	??BCTraceCategory@ATL@@QBEKXZ		; ATL::CTraceCategory::operator unsigned long
	push	eax
	push	2237					; 000008bdH
	push	OFFSET FLAT:??_C@_0FB@BCKJDECD@c?3?2program?5files?2microsoft?5visua@
	lea	ecx, DWORD PTR $T95277[ebp]
	call	??0CTraceFileAndLineInfo@ATL@@QAE@PBDH@Z ; ATL::CTraceFileAndLineInfo::CTraceFileAndLineInfo
	push	eax
	call	??RCTraceFileAndLineInfo@ATL@@QBAXKIPBGZZ ; ATL::CTraceFileAndLineInfo::operator()
	add	esp, 20					; 00000014H
$L92730:

; 2238 : 			}
; 2239 : 			bRet = true;

	mov	BYTE PTR _bRet$[ebp], 1
$L92725:

; 2240 : 		}
; 2241 : 
; 2242 : 		return( bRet );

	mov	al, BYTE PTR _bRet$[ebp]

; 2243 : 	}

	pop	edi
	pop	esi
	pop	ebx
	add	esp, 244				; 000000f4H
	cmp	ebp, esp
	call	__RTC_CheckEsp
	mov	esp, ebp
	pop	ebp
	ret	4
?CheckImplicitLoad@?$CStringT@GV?$StrTraitMFC@GV?$ChTraitsCRT@G@ATL@@@@@ATL@@AAE_NPBX@Z ENDP ; ATL::CStringT<unsigned short,StrTraitMFC<unsigned short,ATL::ChTraitsCRT<unsigned short> > >::CheckImplicitLoad
_TEXT	ENDS
PUBLIC	?LoadStringW@?$CStringT@GV?$StrTraitMFC@GV?$ChTraitsCRT@G@ATL@@@@@ATL@@QAEHPAUHINSTANCE__@@I@Z ; ATL::CStringT<unsigned short,StrTraitMFC<unsigned short,ATL::ChTraitsCRT<unsigned short> > >::LoadStringW
PUBLIC	?FindStringResourceInstance@?$StrTraitMFC@GV?$ChTraitsCRT@G@ATL@@@@SAPAUHINSTANCE__@@I@Z ; StrTraitMFC<unsigned short,ATL::ChTraitsCRT<unsigned short> >::FindStringResourceInstance
; Function compile flags: /Odt /RTCcsu /ZI
;	COMDAT ?LoadStringW@?$CStringT@GV?$StrTraitMFC@GV?$ChTraitsCRT@G@ATL@@@@@ATL@@QAEHI@Z
_TEXT	SEGMENT
_hInst$ = -20						; size = 4
_this$ = -8						; size = 4
_nID$ = 8						; size = 4
?LoadStringW@?$CStringT@GV?$StrTraitMFC@GV?$ChTraitsCRT@G@ATL@@@@@ATL@@QAEHI@Z PROC NEAR ; ATL::CStringT<unsigned short,StrTraitMFC<unsigned short,ATL::ChTraitsCRT<unsigned short> > >::LoadStringW, COMDAT
; _this$ = ecx

; 1969 : 	{

	push	ebp
	mov	ebp, esp
	sub	esp, 216				; 000000d8H
	push	ebx
	push	esi
	push	edi
	push	ecx
	lea	edi, DWORD PTR [ebp-216]
	mov	ecx, 54					; 00000036H
	mov	eax, -858993460				; ccccccccH
	rep stosd
	pop	ecx
	mov	DWORD PTR _this$[ebp], ecx

; 1970 : 		HINSTANCE hInst = StringTraits::FindStringResourceInstance( nID );

	mov	eax, DWORD PTR _nID$[ebp]
	push	eax
	call	?FindStringResourceInstance@?$StrTraitMFC@GV?$ChTraitsCRT@G@ATL@@@@SAPAUHINSTANCE__@@I@Z ; StrTraitMFC<unsigned short,ATL::ChTraitsCRT<unsigned short> >::FindStringResourceInstance
	add	esp, 4
	mov	DWORD PTR _hInst$[ebp], eax

; 1971 : 		if( hInst == NULL )

	cmp	DWORD PTR _hInst$[ebp], 0
	jne	SHORT $L92647

; 1972 : 		{
; 1973 : 			return( FALSE );

	xor	eax, eax
	jmp	SHORT $L92645
$L92647:

; 1974 : 		}
; 1975 : 
; 1976 : 		return( LoadString( hInst, nID ) );		

	mov	eax, DWORD PTR _nID$[ebp]
	push	eax
	mov	ecx, DWORD PTR _hInst$[ebp]
	push	ecx
	mov	ecx, DWORD PTR _this$[ebp]
	call	?LoadStringW@?$CStringT@GV?$StrTraitMFC@GV?$ChTraitsCRT@G@ATL@@@@@ATL@@QAEHPAUHINSTANCE__@@I@Z ; ATL::CStringT<unsigned short,StrTraitMFC<unsigned short,ATL::ChTraitsCRT<unsigned short> > >::LoadStringW
$L92645:

; 1977 : 	}

	pop	edi
	pop	esi
	pop	ebx
	add	esp, 216				; 000000d8H
	cmp	ebp, esp
	call	__RTC_CheckEsp
	mov	esp, ebp
	pop	ebp
	ret	4
?LoadStringW@?$CStringT@GV?$StrTraitMFC@GV?$ChTraitsCRT@G@ATL@@@@@ATL@@QAEHI@Z ENDP ; ATL::CStringT<unsigned short,StrTraitMFC<unsigned short,ATL::ChTraitsCRT<unsigned short> > >::LoadStringW
_TEXT	ENDS
PUBLIC	?AtlGetStringResourceImage@ATL@@YAPBUATLSTRINGRESOURCEIMAGE@1@PAUHINSTANCE__@@I@Z ; ATL::AtlGetStringResourceImage
PUBLIC	?GetBaseTypeLength@?$ChTraitsCRT@G@ATL@@SAHPBGH@Z ; ATL::ChTraitsCRT<unsigned short>::GetBaseTypeLength
PUBLIC	?ConvertToBaseType@?$ChTraitsCRT@G@ATL@@SAXPAGHPBGH@Z ; ATL::ChTraitsCRT<unsigned short>::ConvertToBaseType
; Function compile flags: /Odt /RTCcsu /ZI
;	COMDAT ?LoadStringW@?$CStringT@GV?$StrTraitMFC@GV?$ChTraitsCRT@G@ATL@@@@@ATL@@QAEHPAUHINSTANCE__@@I@Z
_TEXT	SEGMENT
_pszBuffer$ = -44					; size = 4
_nLength$ = -32						; size = 4
_pImage$ = -20						; size = 4
_this$ = -8						; size = 4
_hInstance$ = 8						; size = 4
_nID$ = 12						; size = 4
?LoadStringW@?$CStringT@GV?$StrTraitMFC@GV?$ChTraitsCRT@G@ATL@@@@@ATL@@QAEHPAUHINSTANCE__@@I@Z PROC NEAR ; ATL::CStringT<unsigned short,StrTraitMFC<unsigned short,ATL::ChTraitsCRT<unsigned short> > >::LoadStringW, COMDAT
; _this$ = ecx

; 1981 : 	{

	push	ebp
	mov	ebp, esp
	sub	esp, 240				; 000000f0H
	push	ebx
	push	esi
	push	edi
	push	ecx
	lea	edi, DWORD PTR [ebp-240]
	mov	ecx, 60					; 0000003cH
	mov	eax, -858993460				; ccccccccH
	rep stosd
	pop	ecx
	mov	DWORD PTR _this$[ebp], ecx

; 1982 : 		const ATLSTRINGRESOURCEIMAGE* pImage = AtlGetStringResourceImage( hInstance, nID );

	mov	eax, DWORD PTR _nID$[ebp]
	push	eax
	mov	ecx, DWORD PTR _hInstance$[ebp]
	push	ecx
	call	?AtlGetStringResourceImage@ATL@@YAPBUATLSTRINGRESOURCEIMAGE@1@PAUHINSTANCE__@@I@Z ; ATL::AtlGetStringResourceImage
	add	esp, 8
	mov	DWORD PTR _pImage$[ebp], eax

; 1983 : 		if( pImage == NULL )

	cmp	DWORD PTR _pImage$[ebp], 0
	jne	SHORT $L92718

; 1984 : 		{
; 1985 : 			return( FALSE );

	xor	eax, eax
	jmp	SHORT $L92716
$L92718:

; 1986 : 		}
; 1987 : 
; 1988 : 		int nLength = StringTraits::GetBaseTypeLength( pImage->achString, pImage->nLength );

	mov	eax, DWORD PTR _pImage$[ebp]
	movzx	ecx, WORD PTR [eax]
	push	ecx
	mov	edx, DWORD PTR _pImage$[ebp]
	add	edx, 2
	push	edx
	call	?GetBaseTypeLength@?$ChTraitsCRT@G@ATL@@SAHPBGH@Z ; ATL::ChTraitsCRT<unsigned short>::GetBaseTypeLength
	add	esp, 8
	mov	DWORD PTR _nLength$[ebp], eax

; 1989 : 		PXSTR pszBuffer = GetBuffer( nLength );

	mov	eax, DWORD PTR _nLength$[ebp]
	push	eax
	mov	ecx, DWORD PTR _this$[ebp]
	call	?GetBuffer@?$CSimpleStringT@G$0A@@ATL@@QAEPAGH@Z ; ATL::CSimpleStringT<unsigned short,0>::GetBuffer
	mov	DWORD PTR _pszBuffer$[ebp], eax

; 1990 : 		StringTraits::ConvertToBaseType( pszBuffer, nLength, pImage->achString, pImage->nLength );

	mov	eax, DWORD PTR _pImage$[ebp]
	movzx	ecx, WORD PTR [eax]
	push	ecx
	mov	edx, DWORD PTR _pImage$[ebp]
	add	edx, 2
	push	edx
	mov	eax, DWORD PTR _nLength$[ebp]
	push	eax
	mov	ecx, DWORD PTR _pszBuffer$[ebp]
	push	ecx
	call	?ConvertToBaseType@?$ChTraitsCRT@G@ATL@@SAXPAGHPBGH@Z ; ATL::ChTraitsCRT<unsigned short>::ConvertToBaseType
	add	esp, 16					; 00000010H

; 1991 : 		ReleaseBufferSetLength( nLength );

	mov	eax, DWORD PTR _nLength$[ebp]
	push	eax
	mov	ecx, DWORD PTR _this$[ebp]
	call	?ReleaseBufferSetLength@?$CSimpleStringT@G$0A@@ATL@@QAEXH@Z ; ATL::CSimpleStringT<unsigned short,0>::ReleaseBufferSetLength

; 1992 : 
; 1993 : 		return( TRUE );

	mov	eax, 1
$L92716:

; 1994 : 	}

	pop	edi
	pop	esi
	pop	ebx
	add	esp, 240				; 000000f0H
	cmp	ebp, esp
	call	__RTC_CheckEsp
	mov	esp, ebp
	pop	ebp
	ret	8
?LoadStringW@?$CStringT@GV?$StrTraitMFC@GV?$ChTraitsCRT@G@ATL@@@@@ATL@@QAEHPAUHINSTANCE__@@I@Z ENDP ; ATL::CStringT<unsigned short,StrTraitMFC<unsigned short,ATL::ChTraitsCRT<unsigned short> > >::LoadStringW
_TEXT	ENDS
PUBLIC	?_AtlGetStringResourceImage@ATL@@YAPBUATLSTRINGRESOURCEIMAGE@1@PAUHINSTANCE__@@PAUHRSRC__@@I@Z ; ATL::_AtlGetStringResourceImage
EXTRN	__imp__FindResourceW@12:NEAR
; Function compile flags: /Odt /RTCcsu /ZI
; File c:\program files\microsoft visual studio .net 2003\vc7\atlmfc\include\atlcore.h
;	COMDAT ?AtlGetStringResourceImage@ATL@@YAPBUATLSTRINGRESOURCEIMAGE@1@PAUHINSTANCE__@@I@Z
_TEXT	SEGMENT
_hResource$ = -8					; size = 4
_hInstance$ = 8						; size = 4
_id$ = 12						; size = 4
?AtlGetStringResourceImage@ATL@@YAPBUATLSTRINGRESOURCEIMAGE@1@PAUHINSTANCE__@@I@Z PROC NEAR ; ATL::AtlGetStringResourceImage, COMDAT

; 280  : {

	push	ebp
	mov	ebp, esp
	sub	esp, 204				; 000000ccH
	push	ebx
	push	esi
	push	edi
	lea	edi, DWORD PTR [ebp-204]
	mov	ecx, 51					; 00000033H
	mov	eax, -858993460				; ccccccccH
	rep stosd

; 281  : 	HRSRC hResource;
; 282  : 
; 283  : 	hResource = ::FindResource( hInstance, MAKEINTRESOURCE( ((id>>4)+1) ), RT_STRING );

	mov	esi, esp
	push	6
	mov	ecx, DWORD PTR _id$[ebp]
	shr	ecx, 4
	add	ecx, 1
	call	@_RTC_Check_4_to_2@4
	movzx	eax, ax
	push	eax
	mov	ecx, DWORD PTR _hInstance$[ebp]
	push	ecx
	call	DWORD PTR __imp__FindResourceW@12
	cmp	esi, esp
	call	__RTC_CheckEsp
	mov	DWORD PTR _hResource$[ebp], eax

; 284  : 	if( hResource == NULL )

	cmp	DWORD PTR _hResource$[ebp], 0
	jne	SHORT $L25769

; 285  : 	{
; 286  : 		return( NULL );

	xor	eax, eax
	jmp	SHORT $L25761
$L25769:

; 287  : 	}
; 288  : 
; 289  : 	return _AtlGetStringResourceImage( hInstance, hResource, id );

	mov	eax, DWORD PTR _id$[ebp]
	push	eax
	mov	ecx, DWORD PTR _hResource$[ebp]
	push	ecx
	mov	edx, DWORD PTR _hInstance$[ebp]
	push	edx
	call	?_AtlGetStringResourceImage@ATL@@YAPBUATLSTRINGRESOURCEIMAGE@1@PAUHINSTANCE__@@PAUHRSRC__@@I@Z ; ATL::_AtlGetStringResourceImage
	add	esp, 12					; 0000000cH
$L25761:

; 290  : }

	pop	edi
	pop	esi
	pop	ebx
	add	esp, 204				; 000000ccH
	cmp	ebp, esp
	call	__RTC_CheckEsp
	mov	esp, ebp
	pop	ebp
	ret	0
?AtlGetStringResourceImage@ATL@@YAPBUATLSTRINGRESOURCEIMAGE@1@PAUHINSTANCE__@@I@Z ENDP ; ATL::AtlGetStringResourceImage
_TEXT	ENDS
EXTRN	__imp__LockResource@4:NEAR
EXTRN	__imp__LoadResource@8:NEAR
EXTRN	__imp__SizeofResource@8:NEAR
; Function compile flags: /Odt /RTCcsu /ZI
;	COMDAT ?_AtlGetStringResourceImage@ATL@@YAPBUATLSTRINGRESOURCEIMAGE@1@PAUHINSTANCE__@@PAUHRSRC__@@I@Z
_TEXT	SEGMENT
_iIndex$ = -56						; size = 4
_hGlobal$ = -44						; size = 4
_nResourceSize$ = -32					; size = 4
_pImageEnd$ = -20					; size = 4
_pImage$ = -8						; size = 4
_hInstance$ = 8						; size = 4
_hResource$ = 12					; size = 4
_id$ = 16						; size = 4
?_AtlGetStringResourceImage@ATL@@YAPBUATLSTRINGRESOURCEIMAGE@1@PAUHINSTANCE__@@PAUHRSRC__@@I@Z PROC NEAR ; ATL::_AtlGetStringResourceImage, COMDAT

; 239  : {

	push	ebp
	mov	ebp, esp
	sub	esp, 252				; 000000fcH
	push	ebx
	push	esi
	push	edi
	lea	edi, DWORD PTR [ebp-252]
	mov	ecx, 63					; 0000003fH
	mov	eax, -858993460				; ccccccccH
	rep stosd

; 240  : 	const ATLSTRINGRESOURCEIMAGE* pImage;
; 241  : 	const ATLSTRINGRESOURCEIMAGE* pImageEnd;
; 242  : 	ULONG nResourceSize;
; 243  : 	HGLOBAL hGlobal;
; 244  : 	UINT iIndex;
; 245  : 
; 246  : 	hGlobal = ::LoadResource( hInstance, hResource );

	mov	esi, esp
	mov	eax, DWORD PTR _hResource$[ebp]
	push	eax
	mov	ecx, DWORD PTR _hInstance$[ebp]
	push	ecx
	call	DWORD PTR __imp__LoadResource@8
	cmp	esi, esp
	call	__RTC_CheckEsp
	mov	DWORD PTR _hGlobal$[ebp], eax

; 247  : 	if( hGlobal == NULL )

	cmp	DWORD PTR _hGlobal$[ebp], 0
	jne	SHORT $L25746

; 248  : 	{
; 249  : 		return( NULL );

	xor	eax, eax
	jmp	$L25740
$L25746:

; 250  : 	}
; 251  : 
; 252  : 	pImage = (const ATLSTRINGRESOURCEIMAGE*)::LockResource( hGlobal );

	mov	esi, esp
	mov	eax, DWORD PTR _hGlobal$[ebp]
	push	eax
	call	DWORD PTR __imp__LockResource@4
	cmp	esi, esp
	call	__RTC_CheckEsp
	mov	DWORD PTR _pImage$[ebp], eax

; 253  : 	if( pImage == NULL )

	cmp	DWORD PTR _pImage$[ebp], 0
	jne	SHORT $L25748

; 254  : 	{
; 255  : 		return( NULL );

	xor	eax, eax
	jmp	SHORT $L25740
$L25748:

; 256  : 	}
; 257  : 
; 258  : 	nResourceSize = ::SizeofResource( hInstance, hResource );

	mov	esi, esp
	mov	eax, DWORD PTR _hResource$[ebp]
	push	eax
	mov	ecx, DWORD PTR _hInstance$[ebp]
	push	ecx
	call	DWORD PTR __imp__SizeofResource@8
	cmp	esi, esp
	call	__RTC_CheckEsp
	mov	DWORD PTR _nResourceSize$[ebp], eax

; 259  : 	pImageEnd = (const ATLSTRINGRESOURCEIMAGE*)(LPBYTE( pImage )+nResourceSize);

	mov	eax, DWORD PTR _pImage$[ebp]
	add	eax, DWORD PTR _nResourceSize$[ebp]
	mov	DWORD PTR _pImageEnd$[ebp], eax

; 260  : 	iIndex = id&0x000f;

	mov	eax, DWORD PTR _id$[ebp]
	and	eax, 15					; 0000000fH
	mov	DWORD PTR _iIndex$[ebp], eax
$L25751:

; 261  : 
; 262  : 	while( (iIndex > 0) && (pImage < pImageEnd) )

	cmp	DWORD PTR _iIndex$[ebp], 0
	jbe	SHORT $L25752
	mov	eax, DWORD PTR _pImage$[ebp]
	cmp	eax, DWORD PTR _pImageEnd$[ebp]
	jae	SHORT $L25752

; 263  : 	{
; 264  : 		pImage = (const ATLSTRINGRESOURCEIMAGE*)(LPBYTE( pImage )+(sizeof( ATLSTRINGRESOURCEIMAGE )+(pImage->nLength*sizeof( WCHAR ))));

	mov	eax, DWORD PTR _pImage$[ebp]
	movzx	ecx, WORD PTR [eax]
	mov	edx, DWORD PTR _pImage$[ebp]
	lea	eax, DWORD PTR [edx+ecx*2+2]
	mov	DWORD PTR _pImage$[ebp], eax

; 265  : 		iIndex--;

	mov	eax, DWORD PTR _iIndex$[ebp]
	sub	eax, 1
	mov	DWORD PTR _iIndex$[ebp], eax

; 266  : 	}

	jmp	SHORT $L25751
$L25752:

; 267  : 	if( pImage >= pImageEnd )

	mov	eax, DWORD PTR _pImage$[ebp]
	cmp	eax, DWORD PTR _pImageEnd$[ebp]
	jb	SHORT $L25756

; 268  : 	{
; 269  : 		return( NULL );

	xor	eax, eax
	jmp	SHORT $L25740
$L25756:

; 270  : 	}
; 271  : 	if( pImage->nLength == 0 )

	mov	eax, DWORD PTR _pImage$[ebp]
	movzx	ecx, WORD PTR [eax]
	test	ecx, ecx
	jne	SHORT $L25757

; 272  : 	{
; 273  : 		return( NULL );

	xor	eax, eax
	jmp	SHORT $L25740
$L25757:

; 274  : 	}
; 275  : 
; 276  : 	return( pImage );

	mov	eax, DWORD PTR _pImage$[ebp]
$L25740:

; 277  : }

	pop	edi
	pop	esi
	pop	ebx
	add	esp, 252				; 000000fcH
	cmp	ebp, esp
	call	__RTC_CheckEsp
	mov	esp, ebp
	pop	ebp
	ret	0
?_AtlGetStringResourceImage@ATL@@YAPBUATLSTRINGRESOURCEIMAGE@1@PAUHINSTANCE__@@PAUHRSRC__@@I@Z ENDP ; ATL::_AtlGetStringResourceImage
; Function compile flags: /Odt /RTCcsu /ZI
; File c:\program files\microsoft visual studio .net 2003\vc7\atlmfc\include\cstringt.h
_TEXT	ENDS
;	COMDAT ?GetBaseTypeLength@?$ChTraitsCRT@G@ATL@@SAHPBGH@Z
_TEXT	SEGMENT
_pszSrc$ = 8						; size = 4
_nLength$ = 12						; size = 4
?GetBaseTypeLength@?$ChTraitsCRT@G@ATL@@SAHPBGH@Z PROC NEAR ; ATL::ChTraitsCRT<unsigned short>::GetBaseTypeLength, COMDAT

; 671  : 	{

	push	ebp
	mov	ebp, esp
	sub	esp, 192				; 000000c0H
	push	ebx
	push	esi
	push	edi
	lea	edi, DWORD PTR [ebp-192]
	mov	ecx, 48					; 00000030H
	mov	eax, -858993460				; ccccccccH
	rep stosd

; 672  : 		(void)pszSrc;
; 673  : 		// Returns required buffer size in wchar_ts
; 674  : 		return nLength;

	mov	eax, DWORD PTR _nLength$[ebp]

; 675  : 	}

	pop	edi
	pop	esi
	pop	ebx
	mov	esp, ebp
	pop	ebp
	ret	0
?GetBaseTypeLength@?$ChTraitsCRT@G@ATL@@SAHPBGH@Z ENDP	; ATL::ChTraitsCRT<unsigned short>::GetBaseTypeLength
_TEXT	ENDS
EXTRN	_memcpy:NEAR
; Function compile flags: /Odt /RTCcsu /ZI
;	COMDAT ?ConvertToBaseType@?$ChTraitsCRT@G@ATL@@SAXPAGHPBGH@Z
_TEXT	SEGMENT
_pszDest$ = 8						; size = 4
_nDestLength$ = 12					; size = 4
_pszSrc$ = 16						; size = 4
_nSrcLength$ = 20					; size = 4
?ConvertToBaseType@?$ChTraitsCRT@G@ATL@@SAXPAGHPBGH@Z PROC NEAR ; ATL::ChTraitsCRT<unsigned short>::ConvertToBaseType, COMDAT

; 686  : 	{

	push	ebp
	mov	ebp, esp
	sub	esp, 192				; 000000c0H
	push	ebx
	push	esi
	push	edi
	lea	edi, DWORD PTR [ebp-192]
	mov	ecx, 48					; 00000030H
	mov	eax, -858993460				; ccccccccH
	rep stosd

; 687  : 		(void)nSrcLength;
; 688  : 		// nLen is in wchar_ts
; 689  : 		memcpy( pszDest, pszSrc, nDestLength*sizeof( wchar_t ) );

	mov	eax, DWORD PTR _nDestLength$[ebp]
	shl	eax, 1
	push	eax
	mov	ecx, DWORD PTR _pszSrc$[ebp]
	push	ecx
	mov	edx, DWORD PTR _pszDest$[ebp]
	push	edx
	call	_memcpy
	add	esp, 12					; 0000000cH

; 690  : 	}

	pop	edi
	pop	esi
	pop	ebx
	add	esp, 192				; 000000c0H
	cmp	ebp, esp
	call	__RTC_CheckEsp
	mov	esp, ebp
	pop	ebp
	ret	0
?ConvertToBaseType@?$ChTraitsCRT@G@ATL@@SAXPAGHPBGH@Z ENDP ; ATL::ChTraitsCRT<unsigned short>::ConvertToBaseType
_TEXT	ENDS
PUBLIC	??_C@_0BA@GOIMFHNK@pStringMgr?5?$CB?$DN?50?$AA@	; `string'
;	COMDAT ??_C@_0BA@GOIMFHNK@pStringMgr?5?$CB?$DN?50?$AA@
; File c:\program files\microsoft visual studio .net 2003\vc7\atlmfc\include\atlsimpstr.h
CONST	SEGMENT
??_C@_0BA@GOIMFHNK@pStringMgr?5?$CB?$DN?50?$AA@ DB 'pStringMgr != 0', 00H ; `string'
; Function compile flags: /Odt /RTCcsu /ZI
CONST	ENDS
;	COMDAT ??0?$CSimpleStringT@G$0A@@ATL@@QAE@PAUIAtlStringMgr@1@@Z
_TEXT	SEGMENT
_pData$ = -20						; size = 4
_this$ = -8						; size = 4
_pStringMgr$ = 8					; size = 4
??0?$CSimpleStringT@G$0A@@ATL@@QAE@PAUIAtlStringMgr@1@@Z PROC NEAR ; ATL::CSimpleStringT<unsigned short,0>::CSimpleStringT<unsigned short,0>, COMDAT
; _this$ = ecx

; 210  : 	explicit CSimpleStringT( IAtlStringMgr* pStringMgr ) throw()

	push	ebp
	mov	ebp, esp
	sub	esp, 216				; 000000d8H
	push	ebx
	push	esi
	push	edi
	push	ecx
	lea	edi, DWORD PTR [ebp-216]
	mov	ecx, 54					; 00000036H
	mov	eax, -858993460				; ccccccccH
	rep stosd
	pop	ecx
	mov	DWORD PTR _this$[ebp], ecx

; 211  : 	{
; 212  : 		ATLASSERT( pStringMgr != NULL );

	cmp	DWORD PTR _pStringMgr$[ebp], 0
	jne	SHORT $L95293
	push	OFFSET FLAT:??_C@_0BA@GOIMFHNK@pStringMgr?5?$CB?$DN?50?$AA@
	push	0
	push	212					; 000000d4H
	push	OFFSET FLAT:??_C@_0FD@JDCNPMMG@c?3?2program?5files?2microsoft?5visua@
	push	2
	call	__CrtDbgReport
	add	esp, 20					; 00000014H
	cmp	eax, 1
	jne	SHORT $L95293
	int	3
$L95293:

; 213  : 		CStringData* pData = pStringMgr->GetNilString();

	mov	eax, DWORD PTR _pStringMgr$[ebp]
	mov	edx, DWORD PTR [eax]
	mov	esi, esp
	mov	ecx, DWORD PTR _pStringMgr$[ebp]
	call	DWORD PTR [edx+12]
	cmp	esi, esp
	call	__RTC_CheckEsp
	mov	DWORD PTR _pData$[ebp], eax

; 214  : 		Attach( pData );

	mov	eax, DWORD PTR _pData$[ebp]
	push	eax
	mov	ecx, DWORD PTR _this$[ebp]
	call	?Attach@?$CSimpleStringT@G$0A@@ATL@@AAEXPAUCStringData@2@@Z ; ATL::CSimpleStringT<unsigned short,0>::Attach

; 215  : 	}

	mov	eax, DWORD PTR _this$[ebp]
	pop	edi
	pop	esi
	pop	ebx
	add	esp, 216				; 000000d8H
	cmp	ebp, esp
	call	__RTC_CheckEsp
	mov	esp, ebp
	pop	ebp
	ret	4
??0?$CSimpleStringT@G$0A@@ATL@@QAE@PAUIAtlStringMgr@1@@Z ENDP ; ATL::CSimpleStringT<unsigned short,0>::CSimpleStringT<unsigned short,0>
; Function compile flags: /Odt /RTCcsu /ZI
_TEXT	ENDS
;	COMDAT ??0?$CSimpleStringT@G$0A@@ATL@@QAE@ABV01@@Z
_TEXT	SEGMENT
_pNewData$ = -32					; size = 4
_pSrcData$ = -20					; size = 4
_this$ = -8						; size = 4
_strSrc$ = 8						; size = 4
??0?$CSimpleStringT@G$0A@@ATL@@QAE@ABV01@@Z PROC NEAR	; ATL::CSimpleStringT<unsigned short,0>::CSimpleStringT<unsigned short,0>, COMDAT
; _this$ = ecx

; 217  : 	CSimpleStringT( const CSimpleStringT& strSrc )

	push	ebp
	mov	ebp, esp
	sub	esp, 228				; 000000e4H
	push	ebx
	push	esi
	push	edi
	push	ecx
	lea	edi, DWORD PTR [ebp-228]
	mov	ecx, 57					; 00000039H
	mov	eax, -858993460				; ccccccccH
	rep stosd
	pop	ecx
	mov	DWORD PTR _this$[ebp], ecx

; 218  : 	{
; 219  : 		CStringData* pSrcData = strSrc.GetData();

	mov	ecx, DWORD PTR _strSrc$[ebp]
	call	?GetData@?$CSimpleStringT@G$0A@@ATL@@ABEPAUCStringData@2@XZ ; ATL::CSimpleStringT<unsigned short,0>::GetData
	mov	DWORD PTR _pSrcData$[ebp], eax

; 220  : 		CStringData* pNewData = CloneData( pSrcData );

	mov	eax, DWORD PTR _pSrcData$[ebp]
	push	eax
	call	?CloneData@?$CSimpleStringT@G$0A@@ATL@@CAPAUCStringData@2@PAU32@@Z ; ATL::CSimpleStringT<unsigned short,0>::CloneData
	add	esp, 4
	mov	DWORD PTR _pNewData$[ebp], eax

; 221  : 		Attach( pNewData );

	mov	eax, DWORD PTR _pNewData$[ebp]
	push	eax
	mov	ecx, DWORD PTR _this$[ebp]
	call	?Attach@?$CSimpleStringT@G$0A@@ATL@@AAEXPAUCStringData@2@@Z ; ATL::CSimpleStringT<unsigned short,0>::Attach

; 222  : 	}

	mov	eax, DWORD PTR _this$[ebp]
	pop	edi
	pop	esi
	pop	ebx
	add	esp, 228				; 000000e4H
	cmp	ebp, esp
	call	__RTC_CheckEsp
	mov	esp, ebp
	pop	ebp
	ret	4
??0?$CSimpleStringT@G$0A@@ATL@@QAE@ABV01@@Z ENDP	; ATL::CSimpleStringT<unsigned short,0>::CSimpleStringT<unsigned short,0>
; Function compile flags: /Odt /RTCcsu /ZI
_TEXT	ENDS
;	COMDAT ??1?$CSimpleStringT@G$0A@@ATL@@QAE@XZ
_TEXT	SEGMENT
_pData$ = -20						; size = 4
_this$ = -8						; size = 4
??1?$CSimpleStringT@G$0A@@ATL@@QAE@XZ PROC NEAR		; ATL::CSimpleStringT<unsigned short,0>::~CSimpleStringT<unsigned short,0>, COMDAT
; _this$ = ecx

; 262  : 	{

	push	ebp
	mov	ebp, esp
	sub	esp, 216				; 000000d8H
	push	ebx
	push	esi
	push	edi
	push	ecx
	lea	edi, DWORD PTR [ebp-216]
	mov	ecx, 54					; 00000036H
	mov	eax, -858993460				; ccccccccH
	rep stosd
	pop	ecx
	mov	DWORD PTR _this$[ebp], ecx

; 263  : 		CStringData* pData = GetData();

	mov	ecx, DWORD PTR _this$[ebp]
	call	?GetData@?$CSimpleStringT@G$0A@@ATL@@ABEPAUCStringData@2@XZ ; ATL::CSimpleStringT<unsigned short,0>::GetData
	mov	DWORD PTR _pData$[ebp], eax

; 264  : 		pData->Release();

	mov	ecx, DWORD PTR _pData$[ebp]
	call	?Release@CStringData@ATL@@QAEXXZ	; ATL::CStringData::Release

; 265  : 	}

	pop	edi
	pop	esi
	pop	ebx
	add	esp, 216				; 000000d8H
	cmp	ebp, esp
	call	__RTC_CheckEsp
	mov	esp, ebp
	pop	ebp
	ret	0
??1?$CSimpleStringT@G$0A@@ATL@@QAE@XZ ENDP		; ATL::CSimpleStringT<unsigned short,0>::~CSimpleStringT<unsigned short,0>
_TEXT	ENDS
PUBLIC	?PrepareWrite@?$CSimpleStringT@G$0A@@ATL@@AAEPAGH@Z ; ATL::CSimpleStringT<unsigned short,0>::PrepareWrite
; Function compile flags: /Odt /RTCcsu /ZI
;	COMDAT ?GetBuffer@?$CSimpleStringT@G$0A@@ATL@@QAEPAGH@Z
_TEXT	SEGMENT
_this$ = -8						; size = 4
_nMinBufferLength$ = 8					; size = 4
?GetBuffer@?$CSimpleStringT@G$0A@@ATL@@QAEPAGH@Z PROC NEAR ; ATL::CSimpleStringT<unsigned short,0>::GetBuffer, COMDAT
; _this$ = ecx

; 489  : 	{

	push	ebp
	mov	ebp, esp
	sub	esp, 204				; 000000ccH
	push	ebx
	push	esi
	push	edi
	push	ecx
	lea	edi, DWORD PTR [ebp-204]
	mov	ecx, 51					; 00000033H
	mov	eax, -858993460				; ccccccccH
	rep stosd
	pop	ecx
	mov	DWORD PTR _this$[ebp], ecx

; 490  : 		return( PrepareWrite( nMinBufferLength ) );

	mov	eax, DWORD PTR _nMinBufferLength$[ebp]
	push	eax
	mov	ecx, DWORD PTR _this$[ebp]
	call	?PrepareWrite@?$CSimpleStringT@G$0A@@ATL@@AAEPAGH@Z ; ATL::CSimpleStringT<unsigned short,0>::PrepareWrite

; 491  : 	}

	pop	edi
	pop	esi
	pop	ebx
	add	esp, 204				; 000000ccH
	cmp	ebp, esp
	call	__RTC_CheckEsp
	mov	esp, ebp
	pop	ebp
	ret	4
?GetBuffer@?$CSimpleStringT@G$0A@@ATL@@QAEPAGH@Z ENDP	; ATL::CSimpleStringT<unsigned short,0>::GetBuffer
; Function compile flags: /Odt /RTCcsu /ZI
_TEXT	ENDS
;	COMDAT ?GetData@?$CSimpleStringT@G$0A@@ATL@@ABEPAUCStringData@2@XZ
_TEXT	SEGMENT
_this$ = -8						; size = 4
?GetData@?$CSimpleStringT@G$0A@@ATL@@ABEPAUCStringData@2@XZ PROC NEAR ; ATL::CSimpleStringT<unsigned short,0>::GetData, COMDAT
; _this$ = ecx

; 730  : 	{

	push	ebp
	mov	ebp, esp
	sub	esp, 204				; 000000ccH
	push	ebx
	push	esi
	push	edi
	push	ecx
	lea	edi, DWORD PTR [ebp-204]
	mov	ecx, 51					; 00000033H
	mov	eax, -858993460				; ccccccccH
	rep stosd
	pop	ecx
	mov	DWORD PTR _this$[ebp], ecx

; 731  : 		return( reinterpret_cast< CStringData* >( m_pszData )-1 );

	mov	eax, DWORD PTR _this$[ebp]
	mov	eax, DWORD PTR [eax]
	sub	eax, 16					; 00000010H

; 732  : 	}

	pop	edi
	pop	esi
	pop	ebx
	mov	esp, ebp
	pop	ebp
	ret	0
?GetData@?$CSimpleStringT@G$0A@@ATL@@ABEPAUCStringData@2@XZ ENDP ; ATL::CSimpleStringT<unsigned short,0>::GetData
_TEXT	ENDS
PUBLIC	?PrepareWrite2@?$CSimpleStringT@G$0A@@ATL@@AAEXH@Z ; ATL::CSimpleStringT<unsigned short,0>::PrepareWrite2
; Function compile flags: /Odt /RTCcsu /ZI
;	COMDAT ?PrepareWrite@?$CSimpleStringT@G$0A@@ATL@@AAEPAGH@Z
_TEXT	SEGMENT
_nTooShort$ = -44					; size = 4
_nShared$ = -32						; size = 4
_pOldData$ = -20					; size = 4
_this$ = -8						; size = 4
_nLength$ = 8						; size = 4
?PrepareWrite@?$CSimpleStringT@G$0A@@ATL@@AAEPAGH@Z PROC NEAR ; ATL::CSimpleStringT<unsigned short,0>::PrepareWrite, COMDAT
; _this$ = ecx

; 734  : 	{

	push	ebp
	mov	ebp, esp
	sub	esp, 240				; 000000f0H
	push	ebx
	push	esi
	push	edi
	push	ecx
	lea	edi, DWORD PTR [ebp-240]
	mov	ecx, 60					; 0000003cH
	mov	eax, -858993460				; ccccccccH
	rep stosd
	pop	ecx
	mov	DWORD PTR _this$[ebp], ecx

; 735  : 		CStringData* pOldData = GetData();

	mov	ecx, DWORD PTR _this$[ebp]
	call	?GetData@?$CSimpleStringT@G$0A@@ATL@@ABEPAUCStringData@2@XZ ; ATL::CSimpleStringT<unsigned short,0>::GetData
	mov	DWORD PTR _pOldData$[ebp], eax

; 736  : 		int nShared = 1-pOldData->nRefs;  // nShared < 0 means true, >= 0 means false

	mov	eax, DWORD PTR _pOldData$[ebp]
	mov	ecx, 1
	sub	ecx, DWORD PTR [eax+12]
	mov	DWORD PTR _nShared$[ebp], ecx

; 737  : 		int nTooShort = pOldData->nAllocLength-nLength;  // nTooShort < 0 means true, >= 0 means false

	mov	eax, DWORD PTR _pOldData$[ebp]
	mov	ecx, DWORD PTR [eax+8]
	sub	ecx, DWORD PTR _nLength$[ebp]
	mov	DWORD PTR _nTooShort$[ebp], ecx

; 738  : 		if( (nShared|nTooShort) < 0 )  // If either sign bit is set (i.e. either is less than zero), we need to copy data

	mov	eax, DWORD PTR _nShared$[ebp]
	or	eax, DWORD PTR _nTooShort$[ebp]
	jge	SHORT $L92761

; 739  : 		{
; 740  : 			PrepareWrite2( nLength );

	mov	eax, DWORD PTR _nLength$[ebp]
	push	eax
	mov	ecx, DWORD PTR _this$[ebp]
	call	?PrepareWrite2@?$CSimpleStringT@G$0A@@ATL@@AAEXH@Z ; ATL::CSimpleStringT<unsigned short,0>::PrepareWrite2
$L92761:

; 741  : 		}
; 742  : 
; 743  : 		return( m_pszData );

	mov	eax, DWORD PTR _this$[ebp]
	mov	eax, DWORD PTR [eax]

; 744  : 	}

	pop	edi
	pop	esi
	pop	ebx
	add	esp, 240				; 000000f0H
	cmp	ebp, esp
	call	__RTC_CheckEsp
	mov	esp, ebp
	pop	ebp
	ret	4
?PrepareWrite@?$CSimpleStringT@G$0A@@ATL@@AAEPAGH@Z ENDP ; ATL::CSimpleStringT<unsigned short,0>::PrepareWrite
_TEXT	ENDS
EXTRN	?AfxFindStringResourceHandle@@YGPAUHINSTANCE__@@I@Z:NEAR ; AfxFindStringResourceHandle
; Function compile flags: /Odt /RTCcsu /ZI
; File c:\program files\microsoft visual studio .net 2003\vc7\atlmfc\include\afxstr.h
;	COMDAT ?FindStringResourceInstance@?$StrTraitMFC@GV?$ChTraitsCRT@G@ATL@@@@SAPAUHINSTANCE__@@I@Z
_TEXT	SEGMENT
_nID$ = 8						; size = 4
?FindStringResourceInstance@?$StrTraitMFC@GV?$ChTraitsCRT@G@ATL@@@@SAPAUHINSTANCE__@@I@Z PROC NEAR ; StrTraitMFC<unsigned short,ATL::ChTraitsCRT<unsigned short> >::FindStringResourceInstance, COMDAT

; 44   : 	{

	push	ebp
	mov	ebp, esp
	sub	esp, 192				; 000000c0H
	push	ebx
	push	esi
	push	edi
	lea	edi, DWORD PTR [ebp-192]
	mov	ecx, 48					; 00000030H
	mov	eax, -858993460				; ccccccccH
	rep stosd

; 45   : 		return( AfxFindStringResourceHandle( nID ) );

	mov	eax, DWORD PTR _nID$[ebp]
	push	eax
	call	?AfxFindStringResourceHandle@@YGPAUHINSTANCE__@@I@Z ; AfxFindStringResourceHandle

; 46   : 	}

	pop	edi
	pop	esi
	pop	ebx
	add	esp, 192				; 000000c0H
	cmp	ebp, esp
	call	__RTC_CheckEsp
	mov	esp, ebp
	pop	ebp
	ret	0
?FindStringResourceInstance@?$StrTraitMFC@GV?$ChTraitsCRT@G@ATL@@@@SAPAUHINSTANCE__@@I@Z ENDP ; StrTraitMFC<unsigned short,ATL::ChTraitsCRT<unsigned short> >::FindStringResourceInstance
_TEXT	ENDS
EXTRN	?AfxGetStringManager@@YGPAUIAtlStringMgr@ATL@@XZ:NEAR ; AfxGetStringManager
; Function compile flags: /Odt /RTCcsu /ZI
;	COMDAT ?GetDefaultManager@?$StrTraitMFC@GV?$ChTraitsCRT@G@ATL@@@@SAPAUIAtlStringMgr@ATL@@XZ
_TEXT	SEGMENT
?GetDefaultManager@?$StrTraitMFC@GV?$ChTraitsCRT@G@ATL@@@@SAPAUIAtlStringMgr@ATL@@XZ PROC NEAR ; StrTraitMFC<unsigned short,ATL::ChTraitsCRT<unsigned short> >::GetDefaultManager, COMDAT

; 49   : 	{

	push	ebp
	mov	ebp, esp
	sub	esp, 192				; 000000c0H
	push	ebx
	push	esi
	push	edi
	lea	edi, DWORD PTR [ebp-192]
	mov	ecx, 48					; 00000030H
	mov	eax, -858993460				; ccccccccH
	rep stosd

; 50   : 		return( AfxGetStringManager() );

	call	?AfxGetStringManager@@YGPAUIAtlStringMgr@ATL@@XZ ; AfxGetStringManager

; 51   : 	}

	pop	edi
	pop	esi
	pop	ebx
	add	esp, 192				; 000000c0H
	cmp	ebp, esp
	call	__RTC_CheckEsp
	mov	esp, ebp
	pop	ebp
	ret	0
?GetDefaultManager@?$StrTraitMFC@GV?$ChTraitsCRT@G@ATL@@@@SAPAUIAtlStringMgr@ATL@@XZ ENDP ; StrTraitMFC<unsigned short,ATL::ChTraitsCRT<unsigned short> >::GetDefaultManager
_TEXT	ENDS
PUBLIC	?SetLength@?$CSimpleStringT@G$0A@@ATL@@AAEXH@Z	; ATL::CSimpleStringT<unsigned short,0>::SetLength
; Function compile flags: /Odt /RTCcsu /ZI
; File c:\program files\microsoft visual studio .net 2003\vc7\atlmfc\include\atlsimpstr.h
;	COMDAT ?Empty@?$CSimpleStringT@G$0A@@ATL@@QAEXXZ
_TEXT	SEGMENT
_pNewData$92796 = -44					; size = 4
_pStringMgr$ = -32					; size = 4
_pOldData$ = -20					; size = 4
_this$ = -8						; size = 4
?Empty@?$CSimpleStringT@G$0A@@ATL@@QAEXXZ PROC NEAR	; ATL::CSimpleStringT<unsigned short,0>::Empty, COMDAT
; _this$ = ecx

; 421  : 	{

	push	ebp
	mov	ebp, esp
	sub	esp, 240				; 000000f0H
	push	ebx
	push	esi
	push	edi
	push	ecx
	lea	edi, DWORD PTR [ebp-240]
	mov	ecx, 60					; 0000003cH
	mov	eax, -858993460				; ccccccccH
	rep stosd
	pop	ecx
	mov	DWORD PTR _this$[ebp], ecx

; 422  : 		CStringData* pOldData = GetData();

	mov	ecx, DWORD PTR _this$[ebp]
	call	?GetData@?$CSimpleStringT@G$0A@@ATL@@ABEPAUCStringData@2@XZ ; ATL::CSimpleStringT<unsigned short,0>::GetData
	mov	DWORD PTR _pOldData$[ebp], eax

; 423  : 		IAtlStringMgr* pStringMgr = pOldData->pStringMgr;

	mov	eax, DWORD PTR _pOldData$[ebp]
	mov	ecx, DWORD PTR [eax]
	mov	DWORD PTR _pStringMgr$[ebp], ecx

; 424  : 		if( pOldData->nDataLength == 0 )

	mov	eax, DWORD PTR _pOldData$[ebp]
	cmp	DWORD PTR [eax+4], 0
	jne	SHORT $L92793

; 425  : 		{
; 426  : 			return;

	jmp	SHORT $L92790
$L92793:

; 427  : 		}
; 428  : 
; 429  : 		if( pOldData->IsLocked() )

	mov	ecx, DWORD PTR _pOldData$[ebp]
	call	?IsLocked@CStringData@ATL@@QBE_NXZ	; ATL::CStringData::IsLocked
	movzx	eax, al
	test	eax, eax
	je	SHORT $L92794

; 430  : 		{
; 431  : 			// Don't reallocate a locked buffer that's shrinking
; 432  : 			SetLength( 0 );

	push	0
	mov	ecx, DWORD PTR _this$[ebp]
	call	?SetLength@?$CSimpleStringT@G$0A@@ATL@@AAEXH@Z ; ATL::CSimpleStringT<unsigned short,0>::SetLength

; 433  : 		}
; 434  : 		else

	jmp	SHORT $L92790
$L92794:

; 435  : 		{
; 436  : 			pOldData->Release();

	mov	ecx, DWORD PTR _pOldData$[ebp]
	call	?Release@CStringData@ATL@@QAEXXZ	; ATL::CStringData::Release

; 437  : 			CStringData* pNewData = pStringMgr->GetNilString();

	mov	eax, DWORD PTR _pStringMgr$[ebp]
	mov	edx, DWORD PTR [eax]
	mov	esi, esp
	mov	ecx, DWORD PTR _pStringMgr$[ebp]
	call	DWORD PTR [edx+12]
	cmp	esi, esp
	call	__RTC_CheckEsp
	mov	DWORD PTR _pNewData$92796[ebp], eax

; 438  : 			Attach( pNewData );

	mov	eax, DWORD PTR _pNewData$92796[ebp]
	push	eax
	mov	ecx, DWORD PTR _this$[ebp]
	call	?Attach@?$CSimpleStringT@G$0A@@ATL@@AAEXPAUCStringData@2@@Z ; ATL::CSimpleStringT<unsigned short,0>::Attach
$L92790:

; 439  : 		}
; 440  : 	}

	pop	edi
	pop	esi
	pop	ebx
	add	esp, 240				; 000000f0H
	cmp	ebp, esp
	call	__RTC_CheckEsp
	mov	esp, ebp
	pop	ebp
	ret	0
?Empty@?$CSimpleStringT@G$0A@@ATL@@QAEXXZ ENDP		; ATL::CSimpleStringT<unsigned short,0>::Empty
_TEXT	ENDS
PUBLIC	??_C@_0N@ILOMLJGA@nLength?5?$DO?$DN?50?$AA@	; `string'
PUBLIC	??_C@_0CD@EEFFJEGJ@nLength?5?$DM?$DN?5GetData?$CI?$CJ?9?$DOnAllocLeng@ ; `string'
;	COMDAT ??_C@_0N@ILOMLJGA@nLength?5?$DO?$DN?50?$AA@
CONST	SEGMENT
??_C@_0N@ILOMLJGA@nLength?5?$DO?$DN?50?$AA@ DB 'nLength >= 0', 00H ; `string'
CONST	ENDS
;	COMDAT ??_C@_0CD@EEFFJEGJ@nLength?5?$DM?$DN?5GetData?$CI?$CJ?9?$DOnAllocLeng@
CONST	SEGMENT
??_C@_0CD@EEFFJEGJ@nLength?5?$DM?$DN?5GetData?$CI?$CJ?9?$DOnAllocLeng@ DB 'n'
	DB	'Length <= GetData()->nAllocLength', 00H	; `string'
; Function compile flags: /Odt /RTCcsu /ZI
CONST	ENDS
;	COMDAT ?SetLength@?$CSimpleStringT@G$0A@@ATL@@AAEXH@Z
_TEXT	SEGMENT
_this$ = -8						; size = 4
_nLength$ = 8						; size = 4
?SetLength@?$CSimpleStringT@G$0A@@ATL@@AAEXH@Z PROC NEAR ; ATL::CSimpleStringT<unsigned short,0>::SetLength, COMDAT
; _this$ = ecx

; 789  : 	{

	push	ebp
	mov	ebp, esp
	sub	esp, 204				; 000000ccH
	push	ebx
	push	esi
	push	edi
	push	ecx
	lea	edi, DWORD PTR [ebp-204]
	mov	ecx, 51					; 00000033H
	mov	eax, -858993460				; ccccccccH
	rep stosd
	pop	ecx
	mov	DWORD PTR _this$[ebp], ecx

; 790  : 		ATLASSERT( nLength >= 0 );

	cmp	DWORD PTR _nLength$[ebp], 0
	jge	SHORT $L95312
	push	OFFSET FLAT:??_C@_0N@ILOMLJGA@nLength?5?$DO?$DN?50?$AA@
	push	0
	push	790					; 00000316H
	push	OFFSET FLAT:??_C@_0FD@JDCNPMMG@c?3?2program?5files?2microsoft?5visua@
	push	2
	call	__CrtDbgReport
	add	esp, 20					; 00000014H
	cmp	eax, 1
	jne	SHORT $L95312
	int	3
$L95312:

; 791  : 		ATLASSERT( nLength <= GetData()->nAllocLength );

	mov	ecx, DWORD PTR _this$[ebp]
	call	?GetData@?$CSimpleStringT@G$0A@@ATL@@ABEPAUCStringData@2@XZ ; ATL::CSimpleStringT<unsigned short,0>::GetData
	mov	ecx, DWORD PTR _nLength$[ebp]
	cmp	ecx, DWORD PTR [eax+8]
	jle	SHORT $L95313
	push	OFFSET FLAT:??_C@_0CD@EEFFJEGJ@nLength?5?$DM?$DN?5GetData?$CI?$CJ?9?$DOnAllocLeng@
	push	0
	push	791					; 00000317H
	push	OFFSET FLAT:??_C@_0FD@JDCNPMMG@c?3?2program?5files?2microsoft?5visua@
	push	2
	call	__CrtDbgReport
	add	esp, 20					; 00000014H
	cmp	eax, 1
	jne	SHORT $L95313
	int	3
$L95313:

; 792  : 
; 793  : 		if( nLength < 0 || nLength > GetData()->nAllocLength)

	cmp	DWORD PTR _nLength$[ebp], 0
	jl	SHORT $L92769
	mov	ecx, DWORD PTR _this$[ebp]
	call	?GetData@?$CSimpleStringT@G$0A@@ATL@@ABEPAUCStringData@2@XZ ; ATL::CSimpleStringT<unsigned short,0>::GetData
	mov	ecx, DWORD PTR _nLength$[ebp]
	cmp	ecx, DWORD PTR [eax+8]
	jle	SHORT $L92768
$L92769:

; 794  : 			AtlThrow(E_INVALIDARG);

	push	-2147024809				; 80070057H
	call	?AtlThrow@ATL@@YGXJ@Z			; ATL::AtlThrow
$L92768:

; 795  : 			
; 796  : 		GetData()->nDataLength = nLength;

	mov	ecx, DWORD PTR _this$[ebp]
	call	?GetData@?$CSimpleStringT@G$0A@@ATL@@ABEPAUCStringData@2@XZ ; ATL::CSimpleStringT<unsigned short,0>::GetData
	mov	ecx, DWORD PTR _nLength$[ebp]
	mov	DWORD PTR [eax+4], ecx

; 797  : 		m_pszData[nLength] = 0;

	mov	eax, DWORD PTR _this$[ebp]
	mov	ecx, DWORD PTR [eax]
	mov	edx, DWORD PTR _nLength$[ebp]
	mov	WORD PTR [ecx+edx*2], 0
$L95311:

; 798  : 	}

	pop	edi
	pop	esi
	pop	ebx
	add	esp, 204				; 000000ccH
	cmp	ebp, esp
	call	__RTC_CheckEsp
	mov	esp, ebp
	pop	ebp
	ret	4
?SetLength@?$CSimpleStringT@G$0A@@ATL@@AAEXH@Z ENDP	; ATL::CSimpleStringT<unsigned short,0>::SetLength
_TEXT	ENDS
PUBLIC	??_C@_0BA@GNIEOBOF@nNewLength?5?$DO?$DN?50?$AA@	; `string'
;	COMDAT ??_C@_0BA@GNIEOBOF@nNewLength?5?$DO?$DN?50?$AA@
CONST	SEGMENT
??_C@_0BA@GNIEOBOF@nNewLength?5?$DO?$DN?50?$AA@ DB 'nNewLength >= 0', 00H ; `string'
; Function compile flags: /Odt /RTCcsu /ZI
CONST	ENDS
;	COMDAT ?ReleaseBufferSetLength@?$CSimpleStringT@G$0A@@ATL@@QAEXH@Z
_TEXT	SEGMENT
_this$ = -8						; size = 4
_nNewLength$ = 8					; size = 4
?ReleaseBufferSetLength@?$CSimpleStringT@G$0A@@ATL@@QAEXH@Z PROC NEAR ; ATL::CSimpleStringT<unsigned short,0>::ReleaseBufferSetLength, COMDAT
; _this$ = ecx

; 546  : 	{

	push	ebp
	mov	ebp, esp
	sub	esp, 204				; 000000ccH
	push	ebx
	push	esi
	push	edi
	push	ecx
	lea	edi, DWORD PTR [ebp-204]
	mov	ecx, 51					; 00000033H
	mov	eax, -858993460				; ccccccccH
	rep stosd
	pop	ecx
	mov	DWORD PTR _this$[ebp], ecx

; 547  : 		ATLASSERT( nNewLength >= 0 );

	cmp	DWORD PTR _nNewLength$[ebp], 0
	jge	SHORT $L95316
	push	OFFSET FLAT:??_C@_0BA@GNIEOBOF@nNewLength?5?$DO?$DN?50?$AA@
	push	0
	push	547					; 00000223H
	push	OFFSET FLAT:??_C@_0FD@JDCNPMMG@c?3?2program?5files?2microsoft?5visua@
	push	2
	call	__CrtDbgReport
	add	esp, 20					; 00000014H
	cmp	eax, 1
	jne	SHORT $L95316
	int	3
$L95316:

; 548  : 		SetLength( nNewLength );

	mov	eax, DWORD PTR _nNewLength$[ebp]
	push	eax
	mov	ecx, DWORD PTR _this$[ebp]
	call	?SetLength@?$CSimpleStringT@G$0A@@ATL@@AAEXH@Z ; ATL::CSimpleStringT<unsigned short,0>::SetLength

; 549  : 	}

	pop	edi
	pop	esi
	pop	ebx
	add	esp, 204				; 000000ccH
	cmp	ebp, esp
	call	__RTC_CheckEsp
	mov	esp, ebp
	pop	ebp
	ret	4
?ReleaseBufferSetLength@?$CSimpleStringT@G$0A@@ATL@@QAEXH@Z ENDP ; ATL::CSimpleStringT<unsigned short,0>::ReleaseBufferSetLength
_TEXT	ENDS
PUBLIC	?data@CStringData@ATL@@QAEPAXXZ			; ATL::CStringData::data
; Function compile flags: /Odt /RTCcsu /ZI
;	COMDAT ?Attach@?$CSimpleStringT@G$0A@@ATL@@AAEXPAUCStringData@2@@Z
_TEXT	SEGMENT
_this$ = -8						; size = 4
_pData$ = 8						; size = 4
?Attach@?$CSimpleStringT@G$0A@@ATL@@AAEXPAUCStringData@2@@Z PROC NEAR ; ATL::CSimpleStringT<unsigned short,0>::Attach, COMDAT
; _this$ = ecx

; 711  : 	{

	push	ebp
	mov	ebp, esp
	sub	esp, 204				; 000000ccH
	push	ebx
	push	esi
	push	edi
	push	ecx
	lea	edi, DWORD PTR [ebp-204]
	mov	ecx, 51					; 00000033H
	mov	eax, -858993460				; ccccccccH
	rep stosd
	pop	ecx
	mov	DWORD PTR _this$[ebp], ecx

; 712  : 		m_pszData = static_cast< PXSTR >( pData->data() );

	mov	ecx, DWORD PTR _pData$[ebp]
	call	?data@CStringData@ATL@@QAEPAXXZ		; ATL::CStringData::data
	mov	ecx, DWORD PTR _this$[ebp]
	mov	DWORD PTR [ecx], eax

; 713  : 	}

	pop	edi
	pop	esi
	pop	ebx
	add	esp, 204				; 000000ccH
	cmp	ebp, esp
	call	__RTC_CheckEsp
	mov	esp, ebp
	pop	ebp
	ret	4
?Attach@?$CSimpleStringT@G$0A@@ATL@@AAEXPAUCStringData@2@@Z ENDP ; ATL::CSimpleStringT<unsigned short,0>::Attach
; Function compile flags: /Odt /RTCcsu /ZI
_TEXT	ENDS
;	COMDAT ?data@CStringData@ATL@@QAEPAXXZ
_TEXT	SEGMENT
_this$ = -8						; size = 4
?data@CStringData@ATL@@QAEPAXXZ PROC NEAR		; ATL::CStringData::data, COMDAT
; _this$ = ecx

; 65   : 	{

	push	ebp
	mov	ebp, esp
	sub	esp, 204				; 000000ccH
	push	ebx
	push	esi
	push	edi
	push	ecx
	lea	edi, DWORD PTR [ebp-204]
	mov	ecx, 51					; 00000033H
	mov	eax, -858993460				; ccccccccH
	rep stosd
	pop	ecx
	mov	DWORD PTR _this$[ebp], ecx

; 66   : 		return (this+1);

	mov	eax, DWORD PTR _this$[ebp]
	add	eax, 16					; 00000010H

; 67   : 	}

	pop	edi
	pop	esi
	pop	ebx
	mov	esp, ebp
	pop	ebp
	ret	0
?data@CStringData@ATL@@QAEPAXXZ ENDP			; ATL::CStringData::data
_TEXT	ENDS
PUBLIC	?IsShared@CStringData@ATL@@QBE_NXZ		; ATL::CStringData::IsShared
PUBLIC	?Fork@?$CSimpleStringT@G$0A@@ATL@@AAEXH@Z	; ATL::CSimpleStringT<unsigned short,0>::Fork
PUBLIC	?Reallocate@?$CSimpleStringT@G$0A@@ATL@@AAEXH@Z	; ATL::CSimpleStringT<unsigned short,0>::Reallocate
; Function compile flags: /Odt /RTCcsu /ZI
;	COMDAT ?PrepareWrite2@?$CSimpleStringT@G$0A@@ATL@@AAEXH@Z
_TEXT	SEGMENT
_nNewLength$92813 = -32					; size = 4
_pOldData$ = -20					; size = 4
_this$ = -8						; size = 4
_nLength$ = 8						; size = 4
?PrepareWrite2@?$CSimpleStringT@G$0A@@ATL@@AAEXH@Z PROC NEAR ; ATL::CSimpleStringT<unsigned short,0>::PrepareWrite2, COMDAT
; _this$ = ecx

; 746  : 	{

	push	ebp
	mov	ebp, esp
	sub	esp, 228				; 000000e4H
	push	ebx
	push	esi
	push	edi
	push	ecx
	lea	edi, DWORD PTR [ebp-228]
	mov	ecx, 57					; 00000039H
	mov	eax, -858993460				; ccccccccH
	rep stosd
	pop	ecx
	mov	DWORD PTR _this$[ebp], ecx

; 747  : 		CStringData* pOldData = GetData();

	mov	ecx, DWORD PTR _this$[ebp]
	call	?GetData@?$CSimpleStringT@G$0A@@ATL@@ABEPAUCStringData@2@XZ ; ATL::CSimpleStringT<unsigned short,0>::GetData
	mov	DWORD PTR _pOldData$[ebp], eax

; 748  : 		if( pOldData->nDataLength > nLength )

	mov	eax, DWORD PTR _pOldData$[ebp]
	mov	ecx, DWORD PTR [eax+4]
	cmp	ecx, DWORD PTR _nLength$[ebp]
	jle	SHORT $L92809

; 749  : 		{
; 750  : 			nLength = pOldData->nDataLength;

	mov	eax, DWORD PTR _pOldData$[ebp]
	mov	ecx, DWORD PTR [eax+4]
	mov	DWORD PTR _nLength$[ebp], ecx
$L92809:

; 751  : 		}
; 752  : 		if( pOldData->IsShared() )

	mov	ecx, DWORD PTR _pOldData$[ebp]
	call	?IsShared@CStringData@ATL@@QBE_NXZ	; ATL::CStringData::IsShared
	movzx	eax, al
	test	eax, eax
	je	SHORT $L92810

; 753  : 		{
; 754  : 			Fork( nLength );

	mov	eax, DWORD PTR _nLength$[ebp]
	push	eax
	mov	ecx, DWORD PTR _this$[ebp]
	call	?Fork@?$CSimpleStringT@G$0A@@ATL@@AAEXH@Z ; ATL::CSimpleStringT<unsigned short,0>::Fork

; 755  : 		}
; 756  : 		else if( pOldData->nAllocLength < nLength )

	jmp	SHORT $L92807
$L92810:
	mov	eax, DWORD PTR _pOldData$[ebp]
	mov	ecx, DWORD PTR [eax+8]
	cmp	ecx, DWORD PTR _nLength$[ebp]
	jge	SHORT $L92807

; 757  : 		{
; 758  : 			// Grow exponentially, until we hit 1K.
; 759  : 			int nNewLength = pOldData->nAllocLength;

	mov	eax, DWORD PTR _pOldData$[ebp]
	mov	ecx, DWORD PTR [eax+8]
	mov	DWORD PTR _nNewLength$92813[ebp], ecx

; 760  : 			if( nNewLength > 1024 )

	cmp	DWORD PTR _nNewLength$92813[ebp], 1024	; 00000400H
	jle	SHORT $L92814

; 761  : 			{
; 762  : 				nNewLength += 1024;

	mov	eax, DWORD PTR _nNewLength$92813[ebp]
	add	eax, 1024				; 00000400H
	mov	DWORD PTR _nNewLength$92813[ebp], eax

; 763  : 			}
; 764  : 			else

	jmp	SHORT $L92815
$L92814:

; 765  : 			{
; 766  : 				nNewLength *= 2;

	mov	eax, DWORD PTR _nNewLength$92813[ebp]
	shl	eax, 1
	mov	DWORD PTR _nNewLength$92813[ebp], eax
$L92815:

; 767  : 			}
; 768  : 			if( nNewLength < nLength )

	mov	eax, DWORD PTR _nNewLength$92813[ebp]
	cmp	eax, DWORD PTR _nLength$[ebp]
	jge	SHORT $L92816

; 769  : 			{
; 770  : 				nNewLength = nLength;

	mov	eax, DWORD PTR _nLength$[ebp]
	mov	DWORD PTR _nNewLength$92813[ebp], eax
$L92816:

; 771  : 			}
; 772  : 			Reallocate( nNewLength );

	mov	eax, DWORD PTR _nNewLength$92813[ebp]
	push	eax
	mov	ecx, DWORD PTR _this$[ebp]
	call	?Reallocate@?$CSimpleStringT@G$0A@@ATL@@AAEXH@Z ; ATL::CSimpleStringT<unsigned short,0>::Reallocate
$L92807:

; 773  : 		}
; 774  : 	}

	pop	edi
	pop	esi
	pop	ebx
	add	esp, 228				; 000000e4H
	cmp	ebp, esp
	call	__RTC_CheckEsp
	mov	esp, ebp
	pop	ebp
	ret	4
?PrepareWrite2@?$CSimpleStringT@G$0A@@ATL@@AAEXH@Z ENDP	; ATL::CSimpleStringT<unsigned short,0>::PrepareWrite2
; Function compile flags: /Odt /RTCcsu /ZI
_TEXT	ENDS
;	COMDAT ?IsShared@CStringData@ATL@@QBE_NXZ
_TEXT	SEGMENT
_this$ = -8						; size = 4
?IsShared@CStringData@ATL@@QBE_NXZ PROC NEAR		; ATL::CStringData::IsShared, COMDAT
; _this$ = ecx

; 79   : 	{

	push	ebp
	mov	ebp, esp
	sub	esp, 204				; 000000ccH
	push	ebx
	push	esi
	push	edi
	push	ecx
	lea	edi, DWORD PTR [ebp-204]
	mov	ecx, 51					; 00000033H
	mov	eax, -858993460				; ccccccccH
	rep stosd
	pop	ecx
	mov	DWORD PTR _this$[ebp], ecx

; 80   : 		return( nRefs > 1 ); 

	mov	eax, DWORD PTR _this$[ebp]
	xor	ecx, ecx
	cmp	DWORD PTR [eax+12], 1
	setg	cl
	call	@_RTC_Check_4_to_1@4

; 81   : 	}

	pop	edi
	pop	esi
	pop	ebx
	add	esp, 204				; 000000ccH
	cmp	ebp, esp
	call	__RTC_CheckEsp
	mov	esp, ebp
	pop	ebp
	ret	0
?IsShared@CStringData@ATL@@QBE_NXZ ENDP			; ATL::CStringData::IsShared
_TEXT	ENDS
PUBLIC	?AddRef@CStringData@ATL@@QAEXXZ			; ATL::CStringData::AddRef
PUBLIC	?ThrowMemoryException@?$CSimpleStringT@G$0A@@ATL@@KAXXZ ; ATL::CSimpleStringT<unsigned short,0>::ThrowMemoryException
; Function compile flags: /Odt /RTCcsu /ZI
;	COMDAT ?CloneData@?$CSimpleStringT@G$0A@@ATL@@CAPAUCStringData@2@PAU32@@Z
_TEXT	SEGMENT
_pNewStringMgr$ = -20					; size = 4
_pNewData$ = -8						; size = 4
_pData$ = 8						; size = 4
?CloneData@?$CSimpleStringT@G$0A@@ATL@@CAPAUCStringData@2@PAU32@@Z PROC NEAR ; ATL::CSimpleStringT<unsigned short,0>::CloneData, COMDAT

; 801  : 	{

	push	ebp
	mov	ebp, esp
	sub	esp, 216				; 000000d8H
	push	ebx
	push	esi
	push	edi
	lea	edi, DWORD PTR [ebp-216]
	mov	ecx, 54					; 00000036H
	mov	eax, -858993460				; ccccccccH
	rep stosd

; 802  : 		CStringData* pNewData = NULL;

	mov	DWORD PTR _pNewData$[ebp], 0

; 803  : 
; 804  : 		IAtlStringMgr* pNewStringMgr = pData->pStringMgr->Clone();

	mov	eax, DWORD PTR _pData$[ebp]
	mov	ecx, DWORD PTR [eax]
	mov	edx, DWORD PTR _pData$[ebp]
	mov	eax, DWORD PTR [edx]
	mov	edx, DWORD PTR [ecx]
	mov	esi, esp
	mov	ecx, eax
	call	DWORD PTR [edx+16]
	cmp	esi, esp
	call	__RTC_CheckEsp
	mov	DWORD PTR _pNewStringMgr$[ebp], eax

; 805  : 		if( !pData->IsLocked() && (pNewStringMgr == pData->pStringMgr) )

	mov	ecx, DWORD PTR _pData$[ebp]
	call	?IsLocked@CStringData@ATL@@QBE_NXZ	; ATL::CStringData::IsLocked
	movzx	eax, al
	test	eax, eax
	jne	SHORT $L92820
	mov	eax, DWORD PTR _pData$[ebp]
	mov	ecx, DWORD PTR _pNewStringMgr$[ebp]
	cmp	ecx, DWORD PTR [eax]
	jne	SHORT $L92820

; 806  : 		{
; 807  : 			pNewData = pData;

	mov	eax, DWORD PTR _pData$[ebp]
	mov	DWORD PTR _pNewData$[ebp], eax

; 808  : 			pNewData->AddRef();

	mov	ecx, DWORD PTR _pNewData$[ebp]
	call	?AddRef@CStringData@ATL@@QAEXXZ		; ATL::CStringData::AddRef

; 809  : 		}
; 810  : 		else

	jmp	SHORT $L92821
$L92820:

; 811  : 		{
; 812  : 			pNewData = pNewStringMgr->Allocate( pData->nDataLength, sizeof( XCHAR ) );

	mov	esi, esp
	push	2
	mov	eax, DWORD PTR _pData$[ebp]
	mov	ecx, DWORD PTR [eax+4]
	push	ecx
	mov	edx, DWORD PTR _pNewStringMgr$[ebp]
	mov	eax, DWORD PTR [edx]
	mov	ecx, DWORD PTR _pNewStringMgr$[ebp]
	call	DWORD PTR [eax]
	cmp	esi, esp
	call	__RTC_CheckEsp
	mov	DWORD PTR _pNewData$[ebp], eax

; 813  : 			if( pNewData == NULL )

	cmp	DWORD PTR _pNewData$[ebp], 0
	jne	SHORT $L92823

; 814  : 			{
; 815  : 				ThrowMemoryException();

	call	?ThrowMemoryException@?$CSimpleStringT@G$0A@@ATL@@KAXXZ ; ATL::CSimpleStringT<unsigned short,0>::ThrowMemoryException
$L92823:

; 816  : 			}
; 817  : 			pNewData->nDataLength = pData->nDataLength;

	mov	eax, DWORD PTR _pNewData$[ebp]
	mov	ecx, DWORD PTR _pData$[ebp]
	mov	edx, DWORD PTR [ecx+4]
	mov	DWORD PTR [eax+4], edx

; 818  : 			CopyChars( PXSTR( pNewData->data() ), PCXSTR( pData->data() ), pData->nDataLength+1 );  // Copy '\0'

	mov	eax, DWORD PTR _pData$[ebp]
	mov	ecx, DWORD PTR [eax+4]
	add	ecx, 1
	push	ecx
	mov	ecx, DWORD PTR _pData$[ebp]
	call	?data@CStringData@ATL@@QAEPAXXZ		; ATL::CStringData::data
	push	eax
	mov	ecx, DWORD PTR _pNewData$[ebp]
	call	?data@CStringData@ATL@@QAEPAXXZ		; ATL::CStringData::data
	push	eax
	call	?CopyChars@?$CSimpleStringT@G$0A@@ATL@@SAXPAGPBGH@Z ; ATL::CSimpleStringT<unsigned short,0>::CopyChars
	add	esp, 12					; 0000000cH
$L92821:

; 819  : 		}
; 820  : 
; 821  : 		return( pNewData );

	mov	eax, DWORD PTR _pNewData$[ebp]
$L95326:

; 822  : 	}

	pop	edi
	pop	esi
	pop	ebx
	add	esp, 216				; 000000d8H
	cmp	ebp, esp
	call	__RTC_CheckEsp
	mov	esp, ebp
	pop	ebp
	ret	0
?CloneData@?$CSimpleStringT@G$0A@@ATL@@CAPAUCStringData@2@PAU32@@Z ENDP ; ATL::CSimpleStringT<unsigned short,0>::CloneData
_TEXT	ENDS
PUBLIC	??_C@_09EEBKLCFA@nRefs?5?$DO?50?$AA@		; `string'
;	COMDAT ??_C@_09EEBKLCFA@nRefs?5?$DO?50?$AA@
CONST	SEGMENT
??_C@_09EEBKLCFA@nRefs?5?$DO?50?$AA@ DB 'nRefs > 0', 00H ; `string'
; Function compile flags: /Odt /RTCcsu /ZI
CONST	ENDS
;	COMDAT ?AddRef@CStringData@ATL@@QAEXXZ
_TEXT	SEGMENT
_this$ = -8						; size = 4
?AddRef@CStringData@ATL@@QAEXXZ PROC NEAR		; ATL::CStringData::AddRef, COMDAT
; _this$ = ecx

; 70   : 	{

	push	ebp
	mov	ebp, esp
	sub	esp, 204				; 000000ccH
	push	ebx
	push	esi
	push	edi
	push	ecx
	lea	edi, DWORD PTR [ebp-204]
	mov	ecx, 51					; 00000033H
	mov	eax, -858993460				; ccccccccH
	rep stosd
	pop	ecx
	mov	DWORD PTR _this$[ebp], ecx

; 71   : 		ATLASSERT(nRefs > 0);

	mov	eax, DWORD PTR _this$[ebp]
	cmp	DWORD PTR [eax+12], 0
	jg	SHORT $L95329
	push	OFFSET FLAT:??_C@_09EEBKLCFA@nRefs?5?$DO?50?$AA@
	push	0
	push	71					; 00000047H
	push	OFFSET FLAT:??_C@_0FD@JDCNPMMG@c?3?2program?5files?2microsoft?5visua@
	push	2
	call	__CrtDbgReport
	add	esp, 20					; 00000014H
	cmp	eax, 1
	jne	SHORT $L95329
	int	3
$L95329:

; 72   : 		_InterlockedIncrement(&nRefs);

	mov	eax, DWORD PTR _this$[ebp]
	add	eax, 12					; 0000000cH
	mov	ecx, 1
	lock	 xadd	 DWORD PTR [eax], ecx

; 73   : 	}

	pop	edi
	pop	esi
	pop	ebx
	add	esp, 204				; 000000ccH
	cmp	ebp, esp
	call	__RTC_CheckEsp
	mov	esp, ebp
	pop	ebp
	ret	0
?AddRef@CStringData@ATL@@QAEXXZ ENDP			; ATL::CStringData::AddRef
_TEXT	ENDS
PUBLIC	?CopyCharsOverlapped@?$CSimpleStringT@G$0A@@ATL@@SAXPAGPBGH@Z ; ATL::CSimpleStringT<unsigned short,0>::CopyCharsOverlapped
; Function compile flags: /Odt /RTCcsu /ZI
;	COMDAT ?SetString@?$CSimpleStringT@G$0A@@ATL@@QAEXPBGH@Z
_TEXT	SEGMENT
_pszBuffer$92832 = -44					; size = 4
_nOffset$92831 = -32					; size = 4
_nOldLength$92830 = -20					; size = 4
_this$ = -8						; size = 4
_pszSrc$ = 8						; size = 4
_nLength$ = 12						; size = 4
?SetString@?$CSimpleStringT@G$0A@@ATL@@QAEXPBGH@Z PROC NEAR ; ATL::CSimpleStringT<unsigned short,0>::SetString, COMDAT
; _this$ = ecx

; 583  : 	{

	push	ebp
	mov	ebp, esp
	sub	esp, 240				; 000000f0H
	push	ebx
	push	esi
	push	edi
	push	ecx
	lea	edi, DWORD PTR [ebp-240]
	mov	ecx, 60					; 0000003cH
	mov	eax, -858993460				; ccccccccH
	rep stosd
	pop	ecx
	mov	DWORD PTR _this$[ebp], ecx

; 584  : 		if( nLength == 0 )

	cmp	DWORD PTR _nLength$[ebp], 0
	jne	SHORT $L92826

; 585  : 		{
; 586  : 			Empty();

	mov	ecx, DWORD PTR _this$[ebp]
	call	?Empty@?$CSimpleStringT@G$0A@@ATL@@QAEXXZ ; ATL::CSimpleStringT<unsigned short,0>::Empty

; 587  : 		}
; 588  : 		else

	jmp	$L95331
$L92826:

; 589  : 		{
; 590  : 			// It is possible that pszSrc points to a location inside of our 
; 591  : 			// buffer.  GetBuffer() might change m_pszData if (1) the buffer 
; 592  : 			// is shared or (2) the buffer is too small to hold the new 
; 593  : 			// string.  We detect this aliasing, and modify pszSrc to point
; 594  : 			// into the newly allocated buffer instead.
; 595  : 			
; 596  : 			if(pszSrc == NULL)

	cmp	DWORD PTR _pszSrc$[ebp], 0
	jne	SHORT $L92828

; 597  : 				AtlThrow(E_INVALIDARG);			

	push	-2147024809				; 80070057H
	call	?AtlThrow@ATL@@YGXJ@Z			; ATL::AtlThrow
$L92828:

; 598  : 				
; 599  : 			UINT nOldLength = GetLength();

	mov	ecx, DWORD PTR _this$[ebp]
	call	?GetLength@?$CSimpleStringT@G$0A@@ATL@@QBEHXZ ; ATL::CSimpleStringT<unsigned short,0>::GetLength
	mov	DWORD PTR _nOldLength$92830[ebp], eax

; 600  : 			UINT_PTR nOffset = pszSrc-GetString();

	mov	ecx, DWORD PTR _this$[ebp]
	call	?GetString@?$CSimpleStringT@G$0A@@ATL@@QBEPBGXZ ; ATL::CSimpleStringT<unsigned short,0>::GetString
	mov	ecx, DWORD PTR _pszSrc$[ebp]
	sub	ecx, eax
	sar	ecx, 1
	mov	DWORD PTR _nOffset$92831[ebp], ecx

; 601  : 			// If 0 <= nOffset <= nOldLength, then pszSrc points into our 
; 602  : 			// buffer
; 603  : 
; 604  : 			PXSTR pszBuffer = GetBuffer( nLength );

	mov	eax, DWORD PTR _nLength$[ebp]
	push	eax
	mov	ecx, DWORD PTR _this$[ebp]
	call	?GetBuffer@?$CSimpleStringT@G$0A@@ATL@@QAEPAGH@Z ; ATL::CSimpleStringT<unsigned short,0>::GetBuffer
	mov	DWORD PTR _pszBuffer$92832[ebp], eax

; 605  : 			if( nOffset <= nOldLength )

	mov	eax, DWORD PTR _nOffset$92831[ebp]
	cmp	eax, DWORD PTR _nOldLength$92830[ebp]
	ja	SHORT $L92833

; 606  : 			{
; 607  : 				CopyCharsOverlapped( pszBuffer, pszBuffer+nOffset, nLength );

	mov	eax, DWORD PTR _nLength$[ebp]
	push	eax
	mov	ecx, DWORD PTR _nOffset$92831[ebp]
	mov	edx, DWORD PTR _pszBuffer$92832[ebp]
	lea	eax, DWORD PTR [edx+ecx*2]
	push	eax
	mov	ecx, DWORD PTR _pszBuffer$92832[ebp]
	push	ecx
	call	?CopyCharsOverlapped@?$CSimpleStringT@G$0A@@ATL@@SAXPAGPBGH@Z ; ATL::CSimpleStringT<unsigned short,0>::CopyCharsOverlapped
	add	esp, 12					; 0000000cH

; 608  : 			}
; 609  : 			else

	jmp	SHORT $L92834
$L92833:

; 610  : 			{
; 611  : 				CopyChars( pszBuffer, pszSrc, nLength );

	mov	eax, DWORD PTR _nLength$[ebp]
	push	eax
	mov	ecx, DWORD PTR _pszSrc$[ebp]
	push	ecx
	mov	edx, DWORD PTR _pszBuffer$92832[ebp]
	push	edx
	call	?CopyChars@?$CSimpleStringT@G$0A@@ATL@@SAXPAGPBGH@Z ; ATL::CSimpleStringT<unsigned short,0>::CopyChars
	add	esp, 12					; 0000000cH
$L92834:

; 612  : 			}
; 613  : 			ReleaseBufferSetLength( nLength );

	mov	eax, DWORD PTR _nLength$[ebp]
	push	eax
	mov	ecx, DWORD PTR _this$[ebp]
	call	?ReleaseBufferSetLength@?$CSimpleStringT@G$0A@@ATL@@QAEXH@Z ; ATL::CSimpleStringT<unsigned short,0>::ReleaseBufferSetLength
$L95331:

; 614  : 		}
; 615  : 	}

	pop	edi
	pop	esi
	pop	ebx
	add	esp, 240				; 000000f0H
	cmp	ebp, esp
	call	__RTC_CheckEsp
	mov	esp, ebp
	pop	ebp
	ret	8
?SetString@?$CSimpleStringT@G$0A@@ATL@@QAEXPBGH@Z ENDP	; ATL::CSimpleStringT<unsigned short,0>::SetString
; Function compile flags: /Odt /RTCcsu /ZI
_TEXT	ENDS
;	COMDAT ?CopyChars@?$CSimpleStringT@G$0A@@ATL@@SAXPAGPBGH@Z
_TEXT	SEGMENT
_pchDest$ = 8						; size = 4
_pchSrc$ = 12						; size = 4
_nChars$ = 16						; size = 4
?CopyChars@?$CSimpleStringT@G$0A@@ATL@@SAXPAGPBGH@Z PROC NEAR ; ATL::CSimpleStringT<unsigned short,0>::CopyChars, COMDAT

; 652  : 	{

	push	ebp
	mov	ebp, esp
	sub	esp, 192				; 000000c0H
	push	ebx
	push	esi
	push	edi
	lea	edi, DWORD PTR [ebp-192]
	mov	ecx, 48					; 00000030H
	mov	eax, -858993460				; ccccccccH
	rep stosd

; 653  : 		memcpy( pchDest, pchSrc, nChars*sizeof( XCHAR ) );

	mov	eax, DWORD PTR _nChars$[ebp]
	shl	eax, 1
	push	eax
	mov	ecx, DWORD PTR _pchSrc$[ebp]
	push	ecx
	mov	edx, DWORD PTR _pchDest$[ebp]
	push	edx
	call	_memcpy
	add	esp, 12					; 0000000cH

; 654  : 	}

	pop	edi
	pop	esi
	pop	ebx
	add	esp, 192				; 000000c0H
	cmp	ebp, esp
	call	__RTC_CheckEsp
	mov	esp, ebp
	pop	ebp
	ret	0
?CopyChars@?$CSimpleStringT@G$0A@@ATL@@SAXPAGPBGH@Z ENDP ; ATL::CSimpleStringT<unsigned short,0>::CopyChars
; Function compile flags: /Odt /RTCcsu /ZI
_TEXT	ENDS
;	COMDAT ?ThrowMemoryException@?$CSimpleStringT@G$0A@@ATL@@KAXXZ
_TEXT	SEGMENT
?ThrowMemoryException@?$CSimpleStringT@G$0A@@ATL@@KAXXZ PROC NEAR ; ATL::CSimpleStringT<unsigned short,0>::ThrowMemoryException, COMDAT

; 704  : 	{

	push	ebp
	mov	ebp, esp
	sub	esp, 192				; 000000c0H
	push	ebx
	push	esi
	push	edi
	lea	edi, DWORD PTR [ebp-192]
	mov	ecx, 48					; 00000030H
	mov	eax, -858993460				; ccccccccH
	rep stosd

; 705  : 		AtlThrow( E_OUTOFMEMORY );

	push	-2147024882				; 8007000eH
	call	?AtlThrow@ATL@@YGXJ@Z			; ATL::AtlThrow
$L95335:

; 706  : 	}

	pop	edi
	pop	esi
	pop	ebx
	add	esp, 192				; 000000c0H
	cmp	ebp, esp
	call	__RTC_CheckEsp
	mov	esp, ebp
	pop	ebp
	ret	0
?ThrowMemoryException@?$CSimpleStringT@G$0A@@ATL@@KAXXZ ENDP ; ATL::CSimpleStringT<unsigned short,0>::ThrowMemoryException
; Function compile flags: /Odt /RTCcsu /ZI
_TEXT	ENDS
;	COMDAT ?Fork@?$CSimpleStringT@G$0A@@ATL@@AAEXH@Z
_TEXT	SEGMENT
tv82 = -256						; size = 4
tv74 = -256						; size = 4
_nCharsToCopy$ = -56					; size = 4
_pNewData$ = -44					; size = 4
_nOldLength$ = -32					; size = 4
_pOldData$ = -20					; size = 4
_this$ = -8						; size = 4
_nLength$ = 8						; size = 4
?Fork@?$CSimpleStringT@G$0A@@ATL@@AAEXH@Z PROC NEAR	; ATL::CSimpleStringT<unsigned short,0>::Fork, COMDAT
; _this$ = ecx

; 715  : 	{

	push	ebp
	mov	ebp, esp
	sub	esp, 256				; 00000100H
	push	ebx
	push	esi
	push	edi
	push	ecx
	lea	edi, DWORD PTR [ebp-256]
	mov	ecx, 64					; 00000040H
	mov	eax, -858993460				; ccccccccH
	rep stosd
	pop	ecx
	mov	DWORD PTR _this$[ebp], ecx

; 716  : 		CStringData* pOldData = GetData();

	mov	ecx, DWORD PTR _this$[ebp]
	call	?GetData@?$CSimpleStringT@G$0A@@ATL@@ABEPAUCStringData@2@XZ ; ATL::CSimpleStringT<unsigned short,0>::GetData
	mov	DWORD PTR _pOldData$[ebp], eax

; 717  : 		int nOldLength = pOldData->nDataLength;

	mov	eax, DWORD PTR _pOldData$[ebp]
	mov	ecx, DWORD PTR [eax+4]
	mov	DWORD PTR _nOldLength$[ebp], ecx

; 718  : 		CStringData* pNewData = pOldData->pStringMgr->Clone()->Allocate( nLength, sizeof( XCHAR ) );

	mov	eax, DWORD PTR _pOldData$[ebp]
	mov	ecx, DWORD PTR [eax]
	mov	edx, DWORD PTR _pOldData$[ebp]
	mov	eax, DWORD PTR [edx]
	mov	edx, DWORD PTR [ecx]
	mov	esi, esp
	mov	ecx, eax
	call	DWORD PTR [edx+16]
	cmp	esi, esp
	call	__RTC_CheckEsp
	mov	DWORD PTR tv74[ebp], eax
	mov	esi, esp
	push	2
	mov	eax, DWORD PTR _nLength$[ebp]
	push	eax
	mov	ecx, DWORD PTR tv74[ebp]
	mov	edx, DWORD PTR [ecx]
	mov	ecx, DWORD PTR tv74[ebp]
	call	DWORD PTR [edx]
	cmp	esi, esp
	call	__RTC_CheckEsp
	mov	DWORD PTR _pNewData$[ebp], eax

; 719  : 		if( pNewData == NULL )

	cmp	DWORD PTR _pNewData$[ebp], 0
	jne	SHORT $L92845

; 720  : 		{
; 721  : 			ThrowMemoryException();

	call	?ThrowMemoryException@?$CSimpleStringT@G$0A@@ATL@@KAXXZ ; ATL::CSimpleStringT<unsigned short,0>::ThrowMemoryException
$L92845:

; 722  : 		}
; 723  : 		int nCharsToCopy = ((nOldLength < nLength) ? nOldLength : nLength)+1;  // Copy '\0'

	mov	eax, DWORD PTR _nOldLength$[ebp]
	cmp	eax, DWORD PTR _nLength$[ebp]
	jge	SHORT $L95338
	mov	ecx, DWORD PTR _nOldLength$[ebp]
	mov	DWORD PTR tv82[ebp], ecx
	jmp	SHORT $L95339
$L95338:
	mov	edx, DWORD PTR _nLength$[ebp]
	mov	DWORD PTR tv82[ebp], edx
$L95339:
	mov	eax, DWORD PTR tv82[ebp]
	add	eax, 1
	mov	DWORD PTR _nCharsToCopy$[ebp], eax

; 724  : 		CopyChars( PXSTR( pNewData->data() ), PCXSTR( pOldData->data() ), nCharsToCopy );

	mov	eax, DWORD PTR _nCharsToCopy$[ebp]
	push	eax
	mov	ecx, DWORD PTR _pOldData$[ebp]
	call	?data@CStringData@ATL@@QAEPAXXZ		; ATL::CStringData::data
	push	eax
	mov	ecx, DWORD PTR _pNewData$[ebp]
	call	?data@CStringData@ATL@@QAEPAXXZ		; ATL::CStringData::data
	push	eax
	call	?CopyChars@?$CSimpleStringT@G$0A@@ATL@@SAXPAGPBGH@Z ; ATL::CSimpleStringT<unsigned short,0>::CopyChars
	add	esp, 12					; 0000000cH

; 725  : 		pNewData->nDataLength = nOldLength;

	mov	eax, DWORD PTR _pNewData$[ebp]
	mov	ecx, DWORD PTR _nOldLength$[ebp]
	mov	DWORD PTR [eax+4], ecx

; 726  : 		pOldData->Release();

	mov	ecx, DWORD PTR _pOldData$[ebp]
	call	?Release@CStringData@ATL@@QAEXXZ	; ATL::CStringData::Release

; 727  : 		Attach( pNewData );

	mov	eax, DWORD PTR _pNewData$[ebp]
	push	eax
	mov	ecx, DWORD PTR _this$[ebp]
	call	?Attach@?$CSimpleStringT@G$0A@@ATL@@AAEXPAUCStringData@2@@Z ; ATL::CSimpleStringT<unsigned short,0>::Attach
$L95337:

; 728  : 	}

	pop	edi
	pop	esi
	pop	ebx
	add	esp, 256				; 00000100H
	cmp	ebp, esp
	call	__RTC_CheckEsp
	mov	esp, ebp
	pop	ebp
	ret	4
?Fork@?$CSimpleStringT@G$0A@@ATL@@AAEXH@Z ENDP		; ATL::CSimpleStringT<unsigned short,0>::Fork
_TEXT	ENDS
PUBLIC	??_C@_0CB@GFHAPKDK@pOldData?9?$DOnAllocLength?5?$DM?5nLength@ ; `string'
;	COMDAT ??_C@_0CB@GFHAPKDK@pOldData?9?$DOnAllocLength?5?$DM?5nLength@
CONST	SEGMENT
??_C@_0CB@GFHAPKDK@pOldData?9?$DOnAllocLength?5?$DM?5nLength@ DB 'pOldDat'
	DB	'a->nAllocLength < nLength', 00H		; `string'
; Function compile flags: /Odt /RTCcsu /ZI
CONST	ENDS
;	COMDAT ?Reallocate@?$CSimpleStringT@G$0A@@ATL@@AAEXH@Z
_TEXT	SEGMENT
_pNewData$ = -44					; size = 4
_pStringMgr$ = -32					; size = 4
_pOldData$ = -20					; size = 4
_this$ = -8						; size = 4
_nLength$ = 8						; size = 4
?Reallocate@?$CSimpleStringT@G$0A@@ATL@@AAEXH@Z PROC NEAR ; ATL::CSimpleStringT<unsigned short,0>::Reallocate, COMDAT
; _this$ = ecx

; 776  : 	{

	push	ebp
	mov	ebp, esp
	sub	esp, 240				; 000000f0H
	push	ebx
	push	esi
	push	edi
	push	ecx
	lea	edi, DWORD PTR [ebp-240]
	mov	ecx, 60					; 0000003cH
	mov	eax, -858993460				; ccccccccH
	rep stosd
	pop	ecx
	mov	DWORD PTR _this$[ebp], ecx

; 777  : 		CStringData* pOldData = GetData();

	mov	ecx, DWORD PTR _this$[ebp]
	call	?GetData@?$CSimpleStringT@G$0A@@ATL@@ABEPAUCStringData@2@XZ ; ATL::CSimpleStringT<unsigned short,0>::GetData
	mov	DWORD PTR _pOldData$[ebp], eax

; 778  : 		ATLASSERT( pOldData->nAllocLength < nLength );

	mov	eax, DWORD PTR _pOldData$[ebp]
	mov	ecx, DWORD PTR [eax+8]
	cmp	ecx, DWORD PTR _nLength$[ebp]
	jl	SHORT $L95342
	push	OFFSET FLAT:??_C@_0CB@GFHAPKDK@pOldData?9?$DOnAllocLength?5?$DM?5nLength@
	push	0
	push	778					; 0000030aH
	push	OFFSET FLAT:??_C@_0FD@JDCNPMMG@c?3?2program?5files?2microsoft?5visua@
	push	2
	call	__CrtDbgReport
	add	esp, 20					; 00000014H
	cmp	eax, 1
	jne	SHORT $L95342
	int	3
$L95342:

; 779  : 		IAtlStringMgr* pStringMgr = pOldData->pStringMgr;

	mov	eax, DWORD PTR _pOldData$[ebp]
	mov	ecx, DWORD PTR [eax]
	mov	DWORD PTR _pStringMgr$[ebp], ecx

; 780  : 		CStringData* pNewData = pStringMgr->Reallocate( pOldData, nLength, sizeof( XCHAR ) );

	mov	esi, esp
	push	2
	mov	eax, DWORD PTR _nLength$[ebp]
	push	eax
	mov	ecx, DWORD PTR _pOldData$[ebp]
	push	ecx
	mov	edx, DWORD PTR _pStringMgr$[ebp]
	mov	eax, DWORD PTR [edx]
	mov	ecx, DWORD PTR _pStringMgr$[ebp]
	call	DWORD PTR [eax+8]
	cmp	esi, esp
	call	__RTC_CheckEsp
	mov	DWORD PTR _pNewData$[ebp], eax

; 781  : 		if( pNewData == NULL )

	cmp	DWORD PTR _pNewData$[ebp], 0
	jne	SHORT $L92855

; 782  : 		{
; 783  : 			ThrowMemoryException();

	call	?ThrowMemoryException@?$CSimpleStringT@G$0A@@ATL@@KAXXZ ; ATL::CSimpleStringT<unsigned short,0>::ThrowMemoryException
$L92855:

; 784  : 		}
; 785  : 		Attach( pNewData );

	mov	eax, DWORD PTR _pNewData$[ebp]
	push	eax
	mov	ecx, DWORD PTR _this$[ebp]
	call	?Attach@?$CSimpleStringT@G$0A@@ATL@@AAEXPAUCStringData@2@@Z ; ATL::CSimpleStringT<unsigned short,0>::Attach
$L95341:

; 786  : 	}

	pop	edi
	pop	esi
	pop	ebx
	add	esp, 240				; 000000f0H
	cmp	ebp, esp
	call	__RTC_CheckEsp
	mov	esp, ebp
	pop	ebp
	ret	4
?Reallocate@?$CSimpleStringT@G$0A@@ATL@@AAEXH@Z ENDP	; ATL::CSimpleStringT<unsigned short,0>::Reallocate
; Function compile flags: /Odt /RTCcsu /ZI
_TEXT	ENDS
;	COMDAT ?GetString@?$CSimpleStringT@G$0A@@ATL@@QBEPBGXZ
_TEXT	SEGMENT
_this$ = -8						; size = 4
?GetString@?$CSimpleStringT@G$0A@@ATL@@QBEPBGXZ PROC NEAR ; ATL::CSimpleStringT<unsigned short,0>::GetString, COMDAT
; _this$ = ecx

; 509  : 	{

	push	ebp
	mov	ebp, esp
	sub	esp, 204				; 000000ccH
	push	ebx
	push	esi
	push	edi
	push	ecx
	lea	edi, DWORD PTR [ebp-204]
	mov	ecx, 51					; 00000033H
	mov	eax, -858993460				; ccccccccH
	rep stosd
	pop	ecx
	mov	DWORD PTR _this$[ebp], ecx

; 510  : 		return( m_pszData );

	mov	eax, DWORD PTR _this$[ebp]
	mov	eax, DWORD PTR [eax]

; 511  : 	}

	pop	edi
	pop	esi
	pop	ebx
	mov	esp, ebp
	pop	ebp
	ret	0
?GetString@?$CSimpleStringT@G$0A@@ATL@@QBEPBGXZ ENDP	; ATL::CSimpleStringT<unsigned short,0>::GetString
_TEXT	ENDS
EXTRN	_memmove:NEAR
; Function compile flags: /Odt /RTCcsu /ZI
;	COMDAT ?CopyCharsOverlapped@?$CSimpleStringT@G$0A@@ATL@@SAXPAGPBGH@Z
_TEXT	SEGMENT
_pchDest$ = 8						; size = 4
_pchSrc$ = 12						; size = 4
_nChars$ = 16						; size = 4
?CopyCharsOverlapped@?$CSimpleStringT@G$0A@@ATL@@SAXPAGPBGH@Z PROC NEAR ; ATL::CSimpleStringT<unsigned short,0>::CopyCharsOverlapped, COMDAT

; 656  : 	{

	push	ebp
	mov	ebp, esp
	sub	esp, 192				; 000000c0H
	push	ebx
	push	esi
	push	edi
	lea	edi, DWORD PTR [ebp-192]
	mov	ecx, 48					; 00000030H
	mov	eax, -858993460				; ccccccccH
	rep stosd

; 657  : 		memmove( pchDest, pchSrc, nChars*sizeof( XCHAR ) );

	mov	eax, DWORD PTR _nChars$[ebp]
	shl	eax, 1
	push	eax
	mov	ecx, DWORD PTR _pchSrc$[ebp]
	push	ecx
	mov	edx, DWORD PTR _pchDest$[ebp]
	push	edx
	call	_memmove
	add	esp, 12					; 0000000cH

; 658  : 	}

	pop	edi
	pop	esi
	pop	ebx
	add	esp, 192				; 000000c0H
	cmp	ebp, esp
	call	__RTC_CheckEsp
	mov	esp, ebp
	pop	ebp
	ret	0
?CopyCharsOverlapped@?$CSimpleStringT@G$0A@@ATL@@SAXPAGPBGH@Z ENDP ; ATL::CSimpleStringT<unsigned short,0>::CopyCharsOverlapped
_TEXT	ENDS
END
